TMS320C55x Assembler PC v4.4.1 Sat Oct 06 06:38:33 2018

Tools Copyright (c) 1996-2012 Texas Instruments Incorporated
stream_buffer.asm                                                    PAGE    1

    4793              ; Temporary Registers Used: None
       1              ;*******************************************************************************
       2              ;* TMS320C55x C/C++ Codegen                                          PC v4.4.1 *
       3              ;* Date/Time created: Sat Oct 06 06:38:31 2018                                 *
       4              ;*******************************************************************************
       5                      .compiler_opts --hll_source=on --mem_model:code=flat --mem_model:data=large --object_format=coff --si
       6                      .mmregs
       7                      .cpl_on
       8                      .arms_on
       9                      .c54cm_off
      10                      .asg AR6, FP
      11                      .asg XAR6, XFP
      12                      .asg DPH, MDP
      13                      .model call=c55_std
      14                      .model mem=large
      15                      .noremark 5002  ; code respects overwrite rules
      16              ;*******************************************************************************
      17              ;* GLOBAL FILE PARAMETERS                                                      *
      18              ;*                                                                             *
      19              ;*   Architecture       : TMS320C55x                                           *
      20              ;*   Optimizing for     : Speed                                                *
      21              ;*   Memory             : Large Model (23-Bit Data Pointers)                   *
      22              ;*   Calls              : Normal Library ASM calls                             *
      23              ;*   Debug Info         : Standard TI Debug Information                        *
      24              ;*******************************************************************************
      25              
      26              $C$DW$CU        .dwtag  DW_TAG_compile_unit
      27                      .dwattr $C$DW$CU, DW_AT_name("../FreeRTOS/Source/stream_buffer.c")
      28                      .dwattr $C$DW$CU, DW_AT_producer("TMS320C55x C/C++ Codegen PC v4.4.1 Copyright (c) 1996-2012 Texas In
      29                      .dwattr $C$DW$CU, DW_AT_TI_version(0x01)
      30                      .dwattr $C$DW$CU, DW_AT_comp_dir("F:\eZdsp_DBG\tmp1\c55x-sim2\foo\Debug")
      31              
      32              $C$DW$1 .dwtag  DW_TAG_subprogram, DW_AT_name("memcpy")
      33                      .dwattr $C$DW$1, DW_AT_TI_symbol_name("_memcpy")
      34                      .dwattr $C$DW$1, DW_AT_type(*$C$DW$T$3)
      35                      .dwattr $C$DW$1, DW_AT_declaration
      36                      .dwattr $C$DW$1, DW_AT_external
      37              $C$DW$2 .dwtag  DW_TAG_formal_parameter
      38                      .dwattr $C$DW$2, DW_AT_type(*$C$DW$T$3)
      39              $C$DW$3 .dwtag  DW_TAG_formal_parameter
      40                      .dwattr $C$DW$3, DW_AT_type(*$C$DW$T$43)
      41              $C$DW$4 .dwtag  DW_TAG_formal_parameter
      42                      .dwattr $C$DW$4, DW_AT_type(*$C$DW$T$20)
      43                      .dwendtag $C$DW$1
      44              
      45              
      46              $C$DW$5 .dwtag  DW_TAG_subprogram, DW_AT_name("memset")
      47                      .dwattr $C$DW$5, DW_AT_TI_symbol_name("_memset")
      48                      .dwattr $C$DW$5, DW_AT_type(*$C$DW$T$3)
      49                      .dwattr $C$DW$5, DW_AT_declaration
      50                      .dwattr $C$DW$5, DW_AT_external
      51              $C$DW$6 .dwtag  DW_TAG_formal_parameter
      52                      .dwattr $C$DW$6, DW_AT_type(*$C$DW$T$3)
      53              $C$DW$7 .dwtag  DW_TAG_formal_parameter
      54                      .dwattr $C$DW$7, DW_AT_type(*$C$DW$T$10)
TMS320C55x Assembler PC v4.4.1 Sat Oct 06 06:38:33 2018

Tools Copyright (c) 1996-2012 Texas Instruments Incorporated
stream_buffer.asm                                                    PAGE    2

      55              $C$DW$8 .dwtag  DW_TAG_formal_parameter
      56                      .dwattr $C$DW$8, DW_AT_type(*$C$DW$T$20)
      57                      .dwendtag $C$DW$5
      58              
      59              
      60              $C$DW$9 .dwtag  DW_TAG_subprogram, DW_AT_name("pvPortMalloc")
      61                      .dwattr $C$DW$9, DW_AT_TI_symbol_name("_pvPortMalloc")
      62                      .dwattr $C$DW$9, DW_AT_type(*$C$DW$T$3)
      63                      .dwattr $C$DW$9, DW_AT_declaration
      64                      .dwattr $C$DW$9, DW_AT_external
      65              $C$DW$10        .dwtag  DW_TAG_formal_parameter
      66                      .dwattr $C$DW$10, DW_AT_type(*$C$DW$T$20)
      67                      .dwendtag $C$DW$9
      68              
      69              
      70              $C$DW$11        .dwtag  DW_TAG_subprogram, DW_AT_name("vPortFree")
      71                      .dwattr $C$DW$11, DW_AT_TI_symbol_name("_vPortFree")
      72                      .dwattr $C$DW$11, DW_AT_declaration
      73                      .dwattr $C$DW$11, DW_AT_external
      74              $C$DW$12        .dwtag  DW_TAG_formal_parameter
      75                      .dwattr $C$DW$12, DW_AT_type(*$C$DW$T$3)
      76                      .dwendtag $C$DW$11
      77              
      78              
      79              $C$DW$13        .dwtag  DW_TAG_subprogram, DW_AT_name("vTaskSuspendAll")
      80                      .dwattr $C$DW$13, DW_AT_TI_symbol_name("_vTaskSuspendAll")
      81                      .dwattr $C$DW$13, DW_AT_declaration
      82                      .dwattr $C$DW$13, DW_AT_external
      83              
      84              $C$DW$14        .dwtag  DW_TAG_subprogram, DW_AT_name("xTaskResumeAll")
      85                      .dwattr $C$DW$14, DW_AT_TI_symbol_name("_xTaskResumeAll")
      86                      .dwattr $C$DW$14, DW_AT_type(*$C$DW$T$28)
      87                      .dwattr $C$DW$14, DW_AT_declaration
      88                      .dwattr $C$DW$14, DW_AT_external
      89              
      90              $C$DW$15        .dwtag  DW_TAG_subprogram, DW_AT_name("xTaskGenericNotify")
      91                      .dwattr $C$DW$15, DW_AT_TI_symbol_name("_xTaskGenericNotify")
      92                      .dwattr $C$DW$15, DW_AT_type(*$C$DW$T$28)
      93                      .dwattr $C$DW$15, DW_AT_declaration
      94                      .dwattr $C$DW$15, DW_AT_external
      95              $C$DW$16        .dwtag  DW_TAG_formal_parameter
      96                      .dwattr $C$DW$16, DW_AT_type(*$C$DW$T$23)
      97              $C$DW$17        .dwtag  DW_TAG_formal_parameter
      98                      .dwattr $C$DW$17, DW_AT_type(*$C$DW$T$67)
      99              $C$DW$18        .dwtag  DW_TAG_formal_parameter
     100                      .dwattr $C$DW$18, DW_AT_type(*$C$DW$T$32)
     101              $C$DW$19        .dwtag  DW_TAG_formal_parameter
     102                      .dwattr $C$DW$19, DW_AT_type(*$C$DW$T$68)
     103                      .dwendtag $C$DW$15
     104              
     105              
     106              $C$DW$20        .dwtag  DW_TAG_subprogram, DW_AT_name("xTaskGenericNotifyFromISR")
     107                      .dwattr $C$DW$20, DW_AT_TI_symbol_name("_xTaskGenericNotifyFromISR")
     108                      .dwattr $C$DW$20, DW_AT_type(*$C$DW$T$28)
     109                      .dwattr $C$DW$20, DW_AT_declaration
TMS320C55x Assembler PC v4.4.1 Sat Oct 06 06:38:33 2018

Tools Copyright (c) 1996-2012 Texas Instruments Incorporated
stream_buffer.asm                                                    PAGE    3

     110                      .dwattr $C$DW$20, DW_AT_external
     111              $C$DW$21        .dwtag  DW_TAG_formal_parameter
     112                      .dwattr $C$DW$21, DW_AT_type(*$C$DW$T$23)
     113              $C$DW$22        .dwtag  DW_TAG_formal_parameter
     114                      .dwattr $C$DW$22, DW_AT_type(*$C$DW$T$67)
     115              $C$DW$23        .dwtag  DW_TAG_formal_parameter
     116                      .dwattr $C$DW$23, DW_AT_type(*$C$DW$T$32)
     117              $C$DW$24        .dwtag  DW_TAG_formal_parameter
     118                      .dwattr $C$DW$24, DW_AT_type(*$C$DW$T$68)
     119              $C$DW$25        .dwtag  DW_TAG_formal_parameter
     120                      .dwattr $C$DW$25, DW_AT_type(*$C$DW$T$71)
     121                      .dwendtag $C$DW$20
     122              
     123              
     124              $C$DW$26        .dwtag  DW_TAG_subprogram, DW_AT_name("xTaskNotifyWait")
     125                      .dwattr $C$DW$26, DW_AT_TI_symbol_name("_xTaskNotifyWait")
     126                      .dwattr $C$DW$26, DW_AT_type(*$C$DW$T$28)
     127                      .dwattr $C$DW$26, DW_AT_declaration
     128                      .dwattr $C$DW$26, DW_AT_external
     129              $C$DW$27        .dwtag  DW_TAG_formal_parameter
     130                      .dwattr $C$DW$27, DW_AT_type(*$C$DW$T$67)
     131              $C$DW$28        .dwtag  DW_TAG_formal_parameter
     132                      .dwattr $C$DW$28, DW_AT_type(*$C$DW$T$67)
     133              $C$DW$29        .dwtag  DW_TAG_formal_parameter
     134                      .dwattr $C$DW$29, DW_AT_type(*$C$DW$T$68)
     135              $C$DW$30        .dwtag  DW_TAG_formal_parameter
     136                      .dwattr $C$DW$30, DW_AT_type(*$C$DW$T$29)
     137                      .dwendtag $C$DW$26
     138              
     139              
     140              $C$DW$31        .dwtag  DW_TAG_subprogram, DW_AT_name("xTaskNotifyStateClear")
     141                      .dwattr $C$DW$31, DW_AT_TI_symbol_name("_xTaskNotifyStateClear")
     142                      .dwattr $C$DW$31, DW_AT_type(*$C$DW$T$28)
     143                      .dwattr $C$DW$31, DW_AT_declaration
     144                      .dwattr $C$DW$31, DW_AT_external
     145              $C$DW$32        .dwtag  DW_TAG_formal_parameter
     146                      .dwattr $C$DW$32, DW_AT_type(*$C$DW$T$23)
     147                      .dwendtag $C$DW$31
     148              
     149              
     150              $C$DW$33        .dwtag  DW_TAG_subprogram, DW_AT_name("xTaskGetCurrentTaskHandle")
     151                      .dwattr $C$DW$33, DW_AT_TI_symbol_name("_xTaskGetCurrentTaskHandle")
     152                      .dwattr $C$DW$33, DW_AT_type(*$C$DW$T$23)
     153                      .dwattr $C$DW$33, DW_AT_declaration
     154                      .dwattr $C$DW$33, DW_AT_external
     155              
     156              $C$DW$34        .dwtag  DW_TAG_subprogram, DW_AT_name("vTaskSetTimeOutState")
     157                      .dwattr $C$DW$34, DW_AT_TI_symbol_name("_vTaskSetTimeOutState")
     158                      .dwattr $C$DW$34, DW_AT_declaration
     159                      .dwattr $C$DW$34, DW_AT_external
     160              $C$DW$35        .dwtag  DW_TAG_formal_parameter
     161                      .dwattr $C$DW$35, DW_AT_type(*$C$DW$T$55)
     162                      .dwendtag $C$DW$34
     163              
     164              
TMS320C55x Assembler PC v4.4.1 Sat Oct 06 06:38:33 2018

Tools Copyright (c) 1996-2012 Texas Instruments Incorporated
stream_buffer.asm                                                    PAGE    4

     165              $C$DW$36        .dwtag  DW_TAG_subprogram, DW_AT_name("xTaskCheckForTimeOut")
     166                      .dwattr $C$DW$36, DW_AT_TI_symbol_name("_xTaskCheckForTimeOut")
     167                      .dwattr $C$DW$36, DW_AT_type(*$C$DW$T$28)
     168                      .dwattr $C$DW$36, DW_AT_declaration
     169                      .dwattr $C$DW$36, DW_AT_external
     170              $C$DW$37        .dwtag  DW_TAG_formal_parameter
     171                      .dwattr $C$DW$37, DW_AT_type(*$C$DW$T$55)
     172              $C$DW$38        .dwtag  DW_TAG_formal_parameter
     173                      .dwattr $C$DW$38, DW_AT_type(*$C$DW$T$80)
     174                      .dwendtag $C$DW$36
     175              
     176              $C$DW$39        .dwtag  DW_TAG_variable, DW_AT_name("usCriticalNesting")
     177                      .dwattr $C$DW$39, DW_AT_TI_symbol_name("_usCriticalNesting")
     178                      .dwattr $C$DW$39, DW_AT_type(*$C$DW$T$87)
     179                      .dwattr $C$DW$39, DW_AT_declaration
     180                      .dwattr $C$DW$39, DW_AT_external
     181              ;       F:\t\cc5p5\ccsv5\tools\compiler\c5500_4.4.1\bin\acp55.exe -@f:\\AppData\\Local\\Temp\\0729212 
     182 000000               .sect   ".text"
     183                      .align 4
     184                      .global _xStreamBufferGenericCreate
     185              
     186              $C$DW$40        .dwtag  DW_TAG_subprogram, DW_AT_name("xStreamBufferGenericCreate")
     187                      .dwattr $C$DW$40, DW_AT_low_pc(_xStreamBufferGenericCreate)
     188                      .dwattr $C$DW$40, DW_AT_high_pc(0x00)
     189                      .dwattr $C$DW$40, DW_AT_TI_symbol_name("_xStreamBufferGenericCreate")
     190                      .dwattr $C$DW$40, DW_AT_external
     191                      .dwattr $C$DW$40, DW_AT_type(*$C$DW$T$40)
     192                      .dwattr $C$DW$40, DW_AT_TI_begin_file("../FreeRTOS/Source/stream_buffer.c")
     193                      .dwattr $C$DW$40, DW_AT_TI_begin_line(0xdb)
     194                      .dwattr $C$DW$40, DW_AT_TI_begin_column(0x17)
     195                      .dwattr $C$DW$40, DW_AT_TI_max_frame_size(0x08)
     196                      .dwpsn  file "../FreeRTOS/Source/stream_buffer.c",line 220,column 2,is_stmt,address _xStreamBufferGen
     197              
     198                      .dwfde $C$DW$CIE, _xStreamBufferGenericCreate
     199              $C$DW$41        .dwtag  DW_TAG_formal_parameter, DW_AT_name("xBufferSizeBytes")
     200                      .dwattr $C$DW$41, DW_AT_TI_symbol_name("_xBufferSizeBytes")
     201                      .dwattr $C$DW$41, DW_AT_type(*$C$DW$T$20)
     202                      .dwattr $C$DW$41, DW_AT_location[DW_OP_reg12]
     203              $C$DW$42        .dwtag  DW_TAG_formal_parameter, DW_AT_name("xTriggerLevelBytes")
     204                      .dwattr $C$DW$42, DW_AT_TI_symbol_name("_xTriggerLevelBytes")
     205                      .dwattr $C$DW$42, DW_AT_type(*$C$DW$T$20)
     206                      .dwattr $C$DW$42, DW_AT_location[DW_OP_reg13]
     207              $C$DW$43        .dwtag  DW_TAG_formal_parameter, DW_AT_name("xIsMessageBuffer")
     208                      .dwattr $C$DW$43, DW_AT_TI_symbol_name("_xIsMessageBuffer")
     209                      .dwattr $C$DW$43, DW_AT_type(*$C$DW$T$28)
     210                      .dwattr $C$DW$43, DW_AT_location[DW_OP_reg16]
     211              ;*******************************************************************************
     212              ;* FUNCTION NAME: xStreamBufferGenericCreate                                   *
     213              ;*                                                                             *
     214              ;*   Function Uses Regs : AC0,AC0,T0,T1,AR0,XAR0,AR1,XAR1,AR2,AR3,XAR3,SP,     *
     215              ;*                        CARRY,TC1,M40,SATA,SATD,RDM,FRCT,SMUL                *
     216              ;*   Stack Frame        : Compact (No Frame Pointer, w/ debug)                 *
     217              ;*   Total Frame Size   : 8 words                                              *
     218              ;*                        (1 return address/alignment)                         *
     219              ;*                        (7 local values)                                     *
TMS320C55x Assembler PC v4.4.1 Sat Oct 06 06:38:33 2018

Tools Copyright (c) 1996-2012 Texas Instruments Incorporated
stream_buffer.asm                                                    PAGE    5

     220              ;*   Min System Stack   : 1 word                                               *
     221              ;*******************************************************************************
     222 000000       _xStreamBufferGenericCreate:
     223                      .dwcfi  cfa_offset, 1
     224                      .dwcfi  save_reg_to_mem, 91, -1
     225 000000 4EF9          AADD #-7, SP
     226                      .dwcfi  cfa_offset, 8
     227              $C$DW$44        .dwtag  DW_TAG_variable, DW_AT_name("xBufferSizeBytes")
     228                      .dwattr $C$DW$44, DW_AT_TI_symbol_name("_xBufferSizeBytes")
     229                      .dwattr $C$DW$44, DW_AT_type(*$C$DW$T$20)
     230                      .dwattr $C$DW$44, DW_AT_location[DW_OP_bregx 0x24 0]
     231              $C$DW$45        .dwtag  DW_TAG_variable, DW_AT_name("xTriggerLevelBytes")
     232                      .dwattr $C$DW$45, DW_AT_TI_symbol_name("_xTriggerLevelBytes")
     233                      .dwattr $C$DW$45, DW_AT_type(*$C$DW$T$20)
     234                      .dwattr $C$DW$45, DW_AT_location[DW_OP_bregx 0x24 1]
     235              $C$DW$46        .dwtag  DW_TAG_variable, DW_AT_name("xIsMessageBuffer")
     236                      .dwattr $C$DW$46, DW_AT_TI_symbol_name("_xIsMessageBuffer")
     237                      .dwattr $C$DW$46, DW_AT_type(*$C$DW$T$28)
     238                      .dwattr $C$DW$46, DW_AT_location[DW_OP_bregx 0x24 2]
     239              $C$DW$47        .dwtag  DW_TAG_variable, DW_AT_name("pucAllocatedMemory")
     240                      .dwattr $C$DW$47, DW_AT_TI_symbol_name("_pucAllocatedMemory")
     241                      .dwattr $C$DW$47, DW_AT_type(*$C$DW$T$26)
     242                      .dwattr $C$DW$47, DW_AT_location[DW_OP_bregx 0x24 4]
     243              $C$DW$48        .dwtag  DW_TAG_variable, DW_AT_name("ucFlags")
     244                      .dwattr $C$DW$48, DW_AT_TI_symbol_name("_ucFlags")
     245                      .dwattr $C$DW$48, DW_AT_type(*$C$DW$T$25)
     246                      .dwattr $C$DW$48, DW_AT_location[DW_OP_bregx 0x24 6]
     247 000002 C804          MOV AR0, *SP(#2) ; |220| 
     248 000004 C502          MOV T1, *SP(#1) ; |220| 
     249 000006 C400          MOV T0, *SP(#0) ; |220| 
     250                      .dwpsn  file "../FreeRTOS/Source/stream_buffer.c",line 228,column 3,is_stmt
     251 000008 F004          CMP *SP(#2) == #1, TC1 ; |228| 
         00000a 0001 
     252 00000c 0474          BCC $C$L3,!TC1 ; |228| 
         00000e 18   
     253                                                      ; branchcc occurs ; |228| 
     254                      .dwpsn  file "../FreeRTOS/Source/stream_buffer.c",line 231,column 4,is_stmt
     255 00000f E60C          MOV #1, *SP(#6) ; |231| 
         000011 01   
     256                      .dwpsn  file "../FreeRTOS/Source/stream_buffer.c",line 232,column 4,is_stmt
     257              
     258 000012 AA00          MOV *SP(#0), AR2 ; |232| 
     259 000014 3D1B  ||      MOV #1, AR3
     260              
     261 000016 12B8          CMPU AR2 <= AR3, TC1 ; |232| 
         000018 A4   
     262 000019 3C09          MOV #0, AR1
     263 00001b 6164          BCC $C$L1,TC1 ; |232| 
     264                                                      ; branchcc occurs ; |232| 
     265 00001d 3C19          MOV #1, AR1
     266 00001f       $C$L1:    
     267 00001f 0419          BCC $C$L6,AR1 != #0 ; |232| 
         000021 17   
     268                                                      ; branchcc occurs ; |232| 
     269 000022 20     nop
TMS320C55x Assembler PC v4.4.1 Sat Oct 06 06:38:33 2018

Tools Copyright (c) 1996-2012 Texas Instruments Incorporated
stream_buffer.asm                                                    PAGE    6

     270 000023 46B3   bset INTM
     271 000025       $C$L2:    
     272 000025       $C$DW$L$_xStreamBufferGenericCreate$6$B:
     273 000025 4A7E          B $C$L2   ; |232| 
     274                                                      ; branch occurs ; |232| 
     275 000027       $C$DW$L$_xStreamBufferGenericCreate$6$E:
     276 000027       $C$L3:    
     277                      .dwpsn  file "../FreeRTOS/Source/stream_buffer.c",line 237,column 4,is_stmt
     278 000027 E60C          MOV #0, *SP(#6) ; |237| 
         000029 00   
     279                      .dwpsn  file "../FreeRTOS/Source/stream_buffer.c",line 238,column 4,is_stmt
     280 00002a AA00          MOV *SP(#0), AR2 ; |238| 
     281              
     282 00002c 610A          BCC $C$L4,AR2 == #0 ; |238| 
     283 00002e 3D09  ||      MOV #0, AR1
     284              
     285                                                      ; branchcc occurs ; |238| 
     286 000030 3C19          MOV #1, AR1
     287 000032       $C$L4:    
     288 000032 6299          BCC $C$L6,AR1 != #0 ; |238| 
     289                                                      ; branchcc occurs ; |238| 
     290 000034 20     nop
     291 000035 46B3   bset INTM
     292 000037       $C$L5:    
     293 000037       $C$DW$L$_xStreamBufferGenericCreate$12$B:
     294 000037 4A7E          B $C$L5   ; |238| 
     295                                                      ; branch occurs ; |238| 
     296 000039       $C$DW$L$_xStreamBufferGenericCreate$12$E:
     297 000039       $C$L6:    
     298                      .dwpsn  file "../FreeRTOS/Source/stream_buffer.c",line 240,column 3,is_stmt
     299 000039 AB02          MOV *SP(#1), AR3 ; |240| 
     300 00003b 12A4          CMPU AR3 > AR2, TC1 ; |240| 
         00003d B4   
     301 00003e 3C09          MOV #0, AR1
     302 000040 6164          BCC $C$L7,TC1 ; |240| 
     303                                                      ; branchcc occurs ; |240| 
     304 000042 3C19          MOV #1, AR1
     305 000044       $C$L7:    
     306 000044 6299          BCC $C$L9,AR1 != #0 ; |240| 
     307                                                      ; branchcc occurs ; |240| 
     308 000046 20     nop
     309 000047 46B3   bset INTM
     310 000049       $C$L8:    
     311 000049       $C$DW$L$_xStreamBufferGenericCreate$17$B:
     312 000049 4A7E          B $C$L8   ; |240| 
     313                                                      ; branch occurs ; |240| 
     314 00004b       $C$DW$L$_xStreamBufferGenericCreate$17$E:
     315 00004b       $C$L9:    
     316                      .dwpsn  file "../FreeRTOS/Source/stream_buffer.c",line 244,column 3,is_stmt
     317 00004b 22B9          MOV AR3, AR1
     318 00004d 6199          BCC $C$L10,AR1 != #0 ; |244| 
     319                                                      ; branchcc occurs ; |244| 
     320                      .dwpsn  file "../FreeRTOS/Source/stream_buffer.c",line 246,column 4,is_stmt
     321 00004f E602          MOV #1, *SP(#1) ; |246| 
         000051 01   
TMS320C55x Assembler PC v4.4.1 Sat Oct 06 06:38:33 2018

Tools Copyright (c) 1996-2012 Texas Instruments Incorporated
stream_buffer.asm                                                    PAGE    7

     322 000052       $C$L10:    
     323                      .dwpsn  file "../FreeRTOS/Source/stream_buffer.c",line 257,column 3,is_stmt
     324 000052 F700          ADD #1, *SP(#0) ; |257| 
         000054 0001 
     325                      .dwpsn  file "../FreeRTOS/Source/stream_buffer.c",line 258,column 3,is_stmt
     326 000056 A900          MOV *SP(#0), AR1 ; |258| 
     327 000058 7B00          ADD #12, AR1, T0 ; |258| 
         00005a 0C49 
     328              $C$DW$49        .dwtag  DW_TAG_TI_branch
     329                      .dwattr $C$DW$49, DW_AT_low_pc(0x00)
     330                      .dwattr $C$DW$49, DW_AT_name("_pvPortMalloc")
     331                      .dwattr $C$DW$49, DW_AT_TI_call
     332 00005c 6C00          CALL #_pvPortMalloc ; |258| 
         00005e 0000!
     333                                                      ; call occurs [#_pvPortMalloc] ; |258| 
     334 000060 EB08          MOV XAR0, dbl(*SP(#4))
         000062 85   
     335                      .dwpsn  file "../FreeRTOS/Source/stream_buffer.c",line 260,column 3,is_stmt
     336 000063 ED08          MOV dbl(*SP(#4)), XAR3
         000065 BF   
     337 000066 90B0          MOV XAR3, AC0
     338 000068 6780          BCC $C$L11,AC0 == #0 ; |260| 
     339                                                      ; branchcc occurs ; |260| 
     340                      .dwpsn  file "../FreeRTOS/Source/stream_buffer.c",line 262,column 4,is_stmt
     341 00006a ED08          MOV dbl(*SP(#4)), XAR1
         00006c 9F   
     342 00006d A502          MOV *SP(#1), T1 ; |262| 
     343 00006f AA0C          MOV *SP(#6), AR2 ; |262| 
     344              
     345                      AADD #12, AR1 ; |262| 
     346 000071 8A00  ||      MOV *SP(#0), T0 ; |262| 
         000073 941C 
         000075 0C   
     347              
     348              $C$DW$50        .dwtag  DW_TAG_TI_branch
     349                      .dwattr $C$DW$50, DW_AT_low_pc(0x00)
     350                      .dwattr $C$DW$50, DW_AT_name("_prvInitialiseNewStreamBuffer")
     351                      .dwattr $C$DW$50, DW_AT_TI_call
     352 000076 0809          CALL #_prvInitialiseNewStreamBuffer ; |262| 
         000078 77   
     353                                                      ; call occurs [#_prvInitialiseNewStreamBuffer] ; |262| 
     354                      .dwpsn  file "../FreeRTOS/Source/stream_buffer.c",line 269,column 3,is_stmt
     355 000079       $C$L11:    
     356                      .dwpsn  file "../FreeRTOS/Source/stream_buffer.c",line 275,column 3,is_stmt
     357 000079 ED08          MOV dbl(*SP(#4)), XAR0
         00007b 8F   
     358                      .dwpsn  file "../FreeRTOS/Source/stream_buffer.c",line 276,column 2,is_stmt
     359 00007c 4E07          AADD #7, SP
     360                      .dwcfi  cfa_offset, 1
     361              $C$DW$51        .dwtag  DW_TAG_TI_branch
     362                      .dwattr $C$DW$51, DW_AT_low_pc(0x00)
     363                      .dwattr $C$DW$51, DW_AT_TI_return
     364 00007e 4804          RET
     365                                                      ; return occurs
     366              
TMS320C55x Assembler PC v4.4.1 Sat Oct 06 06:38:33 2018

Tools Copyright (c) 1996-2012 Texas Instruments Incorporated
stream_buffer.asm                                                    PAGE    8

     367              $C$DW$52        .dwtag  DW_TAG_TI_loop
     368                      .dwattr $C$DW$52, DW_AT_name("F:\eZdsp_DBG\tmp1\c55x-sim2\foo\Debug\stream_buffer.asm:$C$L8:1:1538833
     369                      .dwattr $C$DW$52, DW_AT_TI_begin_file("../FreeRTOS/Source/stream_buffer.c")
     370                      .dwattr $C$DW$52, DW_AT_TI_begin_line(0xf0)
     371                      .dwattr $C$DW$52, DW_AT_TI_end_line(0xf0)
     372              $C$DW$53        .dwtag  DW_TAG_TI_loop_range
     373                      .dwattr $C$DW$53, DW_AT_low_pc($C$DW$L$_xStreamBufferGenericCreate$17$B)
     374                      .dwattr $C$DW$53, DW_AT_high_pc($C$DW$L$_xStreamBufferGenericCreate$17$E)
     375                      .dwendtag $C$DW$52
     376              
     377              
     378              $C$DW$54        .dwtag  DW_TAG_TI_loop
     379                      .dwattr $C$DW$54, DW_AT_name("F:\eZdsp_DBG\tmp1\c55x-sim2\foo\Debug\stream_buffer.asm:$C$L5:1:1538833
     380                      .dwattr $C$DW$54, DW_AT_TI_begin_file("../FreeRTOS/Source/stream_buffer.c")
     381                      .dwattr $C$DW$54, DW_AT_TI_begin_line(0xee)
     382                      .dwattr $C$DW$54, DW_AT_TI_end_line(0xee)
     383              $C$DW$55        .dwtag  DW_TAG_TI_loop_range
     384                      .dwattr $C$DW$55, DW_AT_low_pc($C$DW$L$_xStreamBufferGenericCreate$12$B)
     385                      .dwattr $C$DW$55, DW_AT_high_pc($C$DW$L$_xStreamBufferGenericCreate$12$E)
     386                      .dwendtag $C$DW$54
     387              
     388              
     389              $C$DW$56        .dwtag  DW_TAG_TI_loop
     390                      .dwattr $C$DW$56, DW_AT_name("F:\eZdsp_DBG\tmp1\c55x-sim2\foo\Debug\stream_buffer.asm:$C$L2:1:1538833
     391                      .dwattr $C$DW$56, DW_AT_TI_begin_file("../FreeRTOS/Source/stream_buffer.c")
     392                      .dwattr $C$DW$56, DW_AT_TI_begin_line(0xe8)
     393                      .dwattr $C$DW$56, DW_AT_TI_end_line(0xe8)
     394              $C$DW$57        .dwtag  DW_TAG_TI_loop_range
     395                      .dwattr $C$DW$57, DW_AT_low_pc($C$DW$L$_xStreamBufferGenericCreate$6$B)
     396                      .dwattr $C$DW$57, DW_AT_high_pc($C$DW$L$_xStreamBufferGenericCreate$6$E)
     397                      .dwendtag $C$DW$56
     398              
     399                      .dwattr $C$DW$40, DW_AT_TI_end_file("../FreeRTOS/Source/stream_buffer.c")
     400                      .dwattr $C$DW$40, DW_AT_TI_end_line(0x114)
     401                      .dwattr $C$DW$40, DW_AT_TI_end_column(0x02)
     402                      .dwendentry
     403                      .dwendtag $C$DW$40
     404              
     405 000080               .sect   ".text"
     406                      .align 4
     407                      .global _vStreamBufferDelete
     408              
     409              $C$DW$58        .dwtag  DW_TAG_subprogram, DW_AT_name("vStreamBufferDelete")
     410                      .dwattr $C$DW$58, DW_AT_low_pc(_vStreamBufferDelete)
     411                      .dwattr $C$DW$58, DW_AT_high_pc(0x00)
     412                      .dwattr $C$DW$58, DW_AT_TI_symbol_name("_vStreamBufferDelete")
     413                      .dwattr $C$DW$58, DW_AT_external
     414                      .dwattr $C$DW$58, DW_AT_TI_begin_file("../FreeRTOS/Source/stream_buffer.c")
     415                      .dwattr $C$DW$58, DW_AT_TI_begin_line(0x167)
     416                      .dwattr $C$DW$58, DW_AT_TI_begin_column(0x06)
     417                      .dwattr $C$DW$58, DW_AT_TI_max_frame_size(0x06)
     418                      .dwpsn  file "../FreeRTOS/Source/stream_buffer.c",line 360,column 1,is_stmt,address _vStreamBufferDel
     419              
     420                      .dwfde $C$DW$CIE, _vStreamBufferDelete
     421              $C$DW$59        .dwtag  DW_TAG_formal_parameter, DW_AT_name("xStreamBuffer")
TMS320C55x Assembler PC v4.4.1 Sat Oct 06 06:38:33 2018

Tools Copyright (c) 1996-2012 Texas Instruments Incorporated
stream_buffer.asm                                                    PAGE    9

     422                      .dwattr $C$DW$59, DW_AT_TI_symbol_name("_xStreamBuffer")
     423                      .dwattr $C$DW$59, DW_AT_type(*$C$DW$T$40)
     424                      .dwattr $C$DW$59, DW_AT_location[DW_OP_reg17]
     425              ;*******************************************************************************
     426              ;* FUNCTION NAME: vStreamBufferDelete                                          *
     427              ;*                                                                             *
     428              ;*   Function Uses Regs : AC0,AC0,T0,T1,AR0,XAR0,AR3,XAR3,SP,TC1,M40,SATA,SATD,*
     429              ;*                        RDM,FRCT,SMUL                                        *
     430              ;*   Stack Frame        : Compact (No Frame Pointer, w/ debug)                 *
     431              ;*   Total Frame Size   : 6 words                                              *
     432              ;*                        (2 return address/alignment)                         *
     433              ;*                        (4 local values)                                     *
     434              ;*   Min System Stack   : 1 word                                               *
     435              ;*******************************************************************************
     436 000080       _vStreamBufferDelete:
     437                      .dwcfi  cfa_offset, 1
     438                      .dwcfi  save_reg_to_mem, 91, -1
     439 000080 4EFB          AADD #-5, SP
     440                      .dwcfi  cfa_offset, 6
     441              $C$DW$60        .dwtag  DW_TAG_variable, DW_AT_name("xStreamBuffer")
     442                      .dwattr $C$DW$60, DW_AT_TI_symbol_name("_xStreamBuffer")
     443                      .dwattr $C$DW$60, DW_AT_type(*$C$DW$T$40)
     444                      .dwattr $C$DW$60, DW_AT_location[DW_OP_bregx 0x24 0]
     445              $C$DW$61        .dwtag  DW_TAG_variable, DW_AT_name("pxStreamBuffer")
     446                      .dwattr $C$DW$61, DW_AT_TI_symbol_name("_pxStreamBuffer")
     447                      .dwattr $C$DW$61, DW_AT_type(*$C$DW$T$37)
     448                      .dwattr $C$DW$61, DW_AT_location[DW_OP_bregx 0x24 2]
     449 000082 EB00          MOV XAR0, dbl(*SP(#0))
         000084 85   
     450                      .dwpsn  file "../FreeRTOS/Source/stream_buffer.c",line 361,column 18,is_stmt
     451 000085 ED00          MOV dbl(*SP(#0)), XAR3
         000087 BF   
     452 000088 EB04          MOV XAR3, dbl(*SP(#2))
         00008a B5   
     453                      .dwpsn  file "../FreeRTOS/Source/stream_buffer.c",line 363,column 2,is_stmt
     454 00008b 90B0          MOV XAR3, AC0
     455 00008d 6290          BCC $C$L13,AC0 != #0 ; |363| 
     456                                                      ; branchcc occurs ; |363| 
     457 00008f 20     nop
     458 000090 46B3   bset INTM
     459 000092       $C$L12:    
     460 000092       $C$DW$L$_vStreamBufferDelete$3$B:
     461 000092 4A7E          B $C$L12  ; |363| 
     462                                                      ; branch occurs ; |363| 
     463 000094       $C$DW$L$_vStreamBufferDelete$3$E:
     464 000094       $C$L13:    
     465                      .dwpsn  file "../FreeRTOS/Source/stream_buffer.c",line 367,column 2,is_stmt
     466 000094 DC6D          BTST #1, *AR3(#10), TC1 ; |367| 
         000096 1000 
         000098 0A   
     467 000099 6364          BCC $C$L14,TC1 ; |367| 
     468                                                      ; branchcc occurs ; |367| 
     469                      .dwpsn  file "../FreeRTOS/Source/stream_buffer.c",line 373,column 4,is_stmt
     470              $C$DW$62        .dwtag  DW_TAG_TI_branch
     471                      .dwattr $C$DW$62, DW_AT_low_pc(0x00)
TMS320C55x Assembler PC v4.4.1 Sat Oct 06 06:38:33 2018

Tools Copyright (c) 1996-2012 Texas Instruments Incorporated
stream_buffer.asm                                                    PAGE   10

     472                      .dwattr $C$DW$62, DW_AT_name("_vPortFree")
     473                      .dwattr $C$DW$62, DW_AT_TI_call
     474 00009b 6C00          CALL #_vPortFree ; |373| 
         00009d 0000!
     475                                                      ; call occurs [#_vPortFree] ; |373| 
     476                      .dwpsn  file "../FreeRTOS/Source/stream_buffer.c",line 382,column 2,is_stmt
     477 00009f 4A08          B $C$L15  ; |382| 
     478                                                      ; branch occurs ; |382| 
     479 0000a1       $C$L14:    
     480                      .dwpsn  file "../FreeRTOS/Source/stream_buffer.c",line 387,column 3,is_stmt
     481              
     482 0000a1 3C04          MOV #0, T0
     483 0000a3 3DC5  ||      MOV #12, T1
     484              
     485              $C$DW$63        .dwtag  DW_TAG_TI_branch
     486                      .dwattr $C$DW$63, DW_AT_low_pc(0x00)
     487                      .dwattr $C$DW$63, DW_AT_name("_memset")
     488                      .dwattr $C$DW$63, DW_AT_TI_call
     489 0000a5 6C00          CALL #_memset ; |387| 
         0000a7 0000!
     490                                                      ; call occurs [#_memset] ; |387| 
     491                      .dwpsn  file "../FreeRTOS/Source/stream_buffer.c",line 389,column 1,is_stmt
     492 0000a9       $C$L15:    
     493 0000a9 4E05          AADD #5, SP
     494                      .dwcfi  cfa_offset, 1
     495              $C$DW$64        .dwtag  DW_TAG_TI_branch
     496                      .dwattr $C$DW$64, DW_AT_low_pc(0x00)
     497                      .dwattr $C$DW$64, DW_AT_TI_return
     498 0000ab 4804          RET
     499                                                      ; return occurs
     500              
     501              $C$DW$65        .dwtag  DW_TAG_TI_loop
     502                      .dwattr $C$DW$65, DW_AT_name("F:\eZdsp_DBG\tmp1\c55x-sim2\foo\Debug\stream_buffer.asm:$C$L12:1:153883
     503                      .dwattr $C$DW$65, DW_AT_TI_begin_file("../FreeRTOS/Source/stream_buffer.c")
     504                      .dwattr $C$DW$65, DW_AT_TI_begin_line(0x16b)
     505                      .dwattr $C$DW$65, DW_AT_TI_end_line(0x16b)
     506              $C$DW$66        .dwtag  DW_TAG_TI_loop_range
     507                      .dwattr $C$DW$66, DW_AT_low_pc($C$DW$L$_vStreamBufferDelete$3$B)
     508                      .dwattr $C$DW$66, DW_AT_high_pc($C$DW$L$_vStreamBufferDelete$3$E)
     509                      .dwendtag $C$DW$65
     510              
     511                      .dwattr $C$DW$58, DW_AT_TI_end_file("../FreeRTOS/Source/stream_buffer.c")
     512                      .dwattr $C$DW$58, DW_AT_TI_end_line(0x185)
     513                      .dwattr $C$DW$58, DW_AT_TI_end_column(0x01)
     514                      .dwendentry
     515                      .dwendtag $C$DW$58
     516              
     517 0000ad               .sect   ".text"
     518                      .align 4
     519                      .global _xStreamBufferReset
     520              
     521              $C$DW$67        .dwtag  DW_TAG_subprogram, DW_AT_name("xStreamBufferReset")
     522                      .dwattr $C$DW$67, DW_AT_low_pc(_xStreamBufferReset)
     523                      .dwattr $C$DW$67, DW_AT_high_pc(0x00)
     524                      .dwattr $C$DW$67, DW_AT_TI_symbol_name("_xStreamBufferReset")
TMS320C55x Assembler PC v4.4.1 Sat Oct 06 06:38:33 2018

Tools Copyright (c) 1996-2012 Texas Instruments Incorporated
stream_buffer.asm                                                    PAGE   11

     525                      .dwattr $C$DW$67, DW_AT_external
     526                      .dwattr $C$DW$67, DW_AT_type(*$C$DW$T$28)
     527                      .dwattr $C$DW$67, DW_AT_TI_begin_file("../FreeRTOS/Source/stream_buffer.c")
     528                      .dwattr $C$DW$67, DW_AT_TI_begin_line(0x188)
     529                      .dwattr $C$DW$67, DW_AT_TI_begin_column(0x0c)
     530                      .dwattr $C$DW$67, DW_AT_TI_max_frame_size(0x06)
     531                      .dwpsn  file "../FreeRTOS/Source/stream_buffer.c",line 393,column 1,is_stmt,address _xStreamBufferRes
     532              
     533                      .dwfde $C$DW$CIE, _xStreamBufferReset
     534              $C$DW$68        .dwtag  DW_TAG_formal_parameter, DW_AT_name("xStreamBuffer")
     535                      .dwattr $C$DW$68, DW_AT_TI_symbol_name("_xStreamBuffer")
     536                      .dwattr $C$DW$68, DW_AT_type(*$C$DW$T$40)
     537                      .dwattr $C$DW$68, DW_AT_location[DW_OP_reg17]
     538              ;*******************************************************************************
     539              ;* FUNCTION NAME: xStreamBufferReset                                           *
     540              ;*                                                                             *
     541              ;*   Function Uses Regs : AC0,AC0,T0,T1,AR0,XAR0,AR1,XAR1,AR2,AR3,XAR3,SP,     *
     542              ;*                        CARRY,M40,SATA,SATD,RDM,FRCT,SMUL                    *
     543              ;*   Stack Frame        : Compact (No Frame Pointer, w/ debug)                 *
     544              ;*   Total Frame Size   : 6 words                                              *
     545              ;*                        (1 return address/alignment)                         *
     546              ;*                        (5 local values)                                     *
     547              ;*   Min System Stack   : 1 word                                               *
     548              ;*******************************************************************************
     549 0000b0       _xStreamBufferReset:
     550                      .dwcfi  cfa_offset, 1
     551                      .dwcfi  save_reg_to_mem, 91, -1
     552 0000b0 4EFB          AADD #-5, SP
     553                      .dwcfi  cfa_offset, 6
     554              $C$DW$69        .dwtag  DW_TAG_variable, DW_AT_name("xStreamBuffer")
     555                      .dwattr $C$DW$69, DW_AT_TI_symbol_name("_xStreamBuffer")
     556                      .dwattr $C$DW$69, DW_AT_type(*$C$DW$T$40)
     557                      .dwattr $C$DW$69, DW_AT_location[DW_OP_bregx 0x24 0]
     558              $C$DW$70        .dwtag  DW_TAG_variable, DW_AT_name("pxStreamBuffer")
     559                      .dwattr $C$DW$70, DW_AT_TI_symbol_name("_pxStreamBuffer")
     560                      .dwattr $C$DW$70, DW_AT_type(*$C$DW$T$38)
     561                      .dwattr $C$DW$70, DW_AT_location[DW_OP_bregx 0x24 2]
     562              $C$DW$71        .dwtag  DW_TAG_variable, DW_AT_name("xReturn")
     563                      .dwattr $C$DW$71, DW_AT_TI_symbol_name("_xReturn")
     564                      .dwattr $C$DW$71, DW_AT_type(*$C$DW$T$28)
     565                      .dwattr $C$DW$71, DW_AT_location[DW_OP_bregx 0x24 4]
     566 0000b2 EB00          MOV XAR0, dbl(*SP(#0))
         0000b4 85   
     567                      .dwpsn  file "../FreeRTOS/Source/stream_buffer.c",line 394,column 24,is_stmt
     568 0000b5 ED00          MOV dbl(*SP(#0)), XAR3
         0000b7 BF   
     569 0000b8 EB04          MOV XAR3, dbl(*SP(#2))
         0000ba B5   
     570                      .dwpsn  file "../FreeRTOS/Source/stream_buffer.c",line 395,column 12,is_stmt
     571 0000bb E608          MOV #0, *SP(#4) ; |395| 
         0000bd 00   
     572                      .dwpsn  file "../FreeRTOS/Source/stream_buffer.c",line 401,column 2,is_stmt
     573 0000be ED04          MOV dbl(*SP(#2)), XAR3
         0000c0 BF   
     574 0000c1 90B0          MOV XAR3, AC0
TMS320C55x Assembler PC v4.4.1 Sat Oct 06 06:38:33 2018

Tools Copyright (c) 1996-2012 Texas Instruments Incorporated
stream_buffer.asm                                                    PAGE   12

     575 0000c3 6290          BCC $C$L17,AC0 != #0 ; |401| 
     576                                                      ; branchcc occurs ; |401| 
     577 0000c5 20     nop
     578 0000c6 46B3   bset INTM
     579 0000c8       $C$L16:    
     580 0000c8       $C$DW$L$_xStreamBufferReset$3$B:
     581 0000c8 4A7E          B $C$L16  ; |401| 
     582                                                      ; branch occurs ; |401| 
     583 0000ca       $C$DW$L$_xStreamBufferReset$3$E:
     584 0000ca       $C$L17:    
     585                      .dwpsn  file "../FreeRTOS/Source/stream_buffer.c",line 412,column 2,is_stmt
     586 0000ca 20     nop
     587 0000cb 46B3   bset INTM
     588 0000cd F731          ADD #1, *(#_usCriticalNesting) ; |412| 
         0000cf 0001 
         0000d1 0000 
         0000d3 00!  
     589 0000d4 20            NOP
     590 0000d5 20            NOP
     591 0000d6 20            NOP
     592                      .dwpsn  file "../FreeRTOS/Source/stream_buffer.c",line 414,column 3,is_stmt
     593 0000d7 ED79          MOV dbl(*AR3(short(#4))), XAR3
         0000d9 BF   
     594 0000da 90B0          MOV XAR3, AC0
     595 0000dc 0410          BCC $C$L18,AC0 != #0 ; |414| 
         0000de 24   
     596                                                      ; branchcc occurs ; |414| 
     597                      .dwpsn  file "../FreeRTOS/Source/stream_buffer.c",line 416,column 4,is_stmt
     598 0000df ED04          MOV dbl(*SP(#2)), XAR3
         0000e1 BF   
     599 0000e2 ED7D          MOV dbl(*AR3(short(#6))), XAR3
         0000e4 BF   
     600 0000e5 90B0          MOV XAR3, AC0
     601 0000e7 0410          BCC $C$L18,AC0 != #0 ; |416| 
         0000e9 19   
     602                                                      ; branchcc occurs ; |416| 
     603                      .dwpsn  file "../FreeRTOS/Source/stream_buffer.c",line 418,column 5,is_stmt
     604 0000ea ED04          MOV dbl(*SP(#2)), XAR3
         0000ec BF   
     605 0000ed ED04          MOV dbl(*SP(#2)), XAR0
         0000ef 8F   
     606 0000f0 ED6D          MOV dbl(*AR3(#8)), XAR1
         0000f2 9F00 
         0000f4 08   
     607 0000f5 A475          MOV *AR3(short(#2)), T0 ; |418| 
     608 0000f7 A577          MOV *AR3(short(#3)), T1 ; |418| 
     609 0000f9 AA6D          MOV *AR3(#10), AR2 ; |418| 
         0000fb 000A 
     610              $C$DW$72        .dwtag  DW_TAG_TI_branch
     611                      .dwattr $C$DW$72, DW_AT_low_pc(0x00)
     612                      .dwattr $C$DW$72, DW_AT_name("_prvInitialiseNewStreamBuffer")
     613                      .dwattr $C$DW$72, DW_AT_TI_call
     614 0000fd 0808          CALL #_prvInitialiseNewStreamBuffer ; |418| 
         0000ff F0   
     615                                                      ; call occurs [#_prvInitialiseNewStreamBuffer] ; |418| 
TMS320C55x Assembler PC v4.4.1 Sat Oct 06 06:38:33 2018

Tools Copyright (c) 1996-2012 Texas Instruments Incorporated
stream_buffer.asm                                                    PAGE   13

     616                      .dwpsn  file "../FreeRTOS/Source/stream_buffer.c",line 423,column 5,is_stmt
     617 000100 E608          MOV #1, *SP(#4) ; |423| 
         000102 01   
     618 000103       $C$L18:    
     619                      .dwpsn  file "../FreeRTOS/Source/stream_buffer.c",line 435,column 2,is_stmt
     620 000103 A931          MOV *(#_usCriticalNesting), AR1 ; |435| 
         000105 0000 
         000107 00!  
     621 000108 0409          BCC $C$L19,AR1 == #0 ; |435| 
         00010a 14   
     622                                                      ; branchcc occurs ; |435| 
     623 00010b F731          SUB #1, *(#_usCriticalNesting) ; |435| 
         00010d FFFF 
         00010f 0000 
         000111 00!  
     624 000112 20            NOP
     625 000113 20            NOP
     626 000114 20            NOP
     627 000115 A931          MOV *(#_usCriticalNesting), AR1 ; |435| 
         000117 0000 
         000119 00!  
     628 00011a 6199          BCC $C$L19,AR1 != #0 ; |435| 
     629                                                      ; branchcc occurs ; |435| 
     630 00011c 20     nop
     631 00011d 46B2   bclr INTM
     632 00011f       $C$L19:    
     633                      .dwpsn  file "../FreeRTOS/Source/stream_buffer.c",line 437,column 2,is_stmt
     634 00011f A408          MOV *SP(#4), T0 ; |437| 
     635                      .dwpsn  file "../FreeRTOS/Source/stream_buffer.c",line 438,column 1,is_stmt
     636 000121 4E05          AADD #5, SP
     637                      .dwcfi  cfa_offset, 1
     638              $C$DW$73        .dwtag  DW_TAG_TI_branch
     639                      .dwattr $C$DW$73, DW_AT_low_pc(0x00)
     640                      .dwattr $C$DW$73, DW_AT_TI_return
     641 000123 4804          RET
     642                                                      ; return occurs
     643              
     644              $C$DW$74        .dwtag  DW_TAG_TI_loop
     645                      .dwattr $C$DW$74, DW_AT_name("F:\eZdsp_DBG\tmp1\c55x-sim2\foo\Debug\stream_buffer.asm:$C$L16:1:153883
     646                      .dwattr $C$DW$74, DW_AT_TI_begin_file("../FreeRTOS/Source/stream_buffer.c")
     647                      .dwattr $C$DW$74, DW_AT_TI_begin_line(0x191)
     648                      .dwattr $C$DW$74, DW_AT_TI_end_line(0x191)
     649              $C$DW$75        .dwtag  DW_TAG_TI_loop_range
     650                      .dwattr $C$DW$75, DW_AT_low_pc($C$DW$L$_xStreamBufferReset$3$B)
     651                      .dwattr $C$DW$75, DW_AT_high_pc($C$DW$L$_xStreamBufferReset$3$E)
     652                      .dwendtag $C$DW$74
     653              
     654                      .dwattr $C$DW$67, DW_AT_TI_end_file("../FreeRTOS/Source/stream_buffer.c")
     655                      .dwattr $C$DW$67, DW_AT_TI_end_line(0x1b6)
     656                      .dwattr $C$DW$67, DW_AT_TI_end_column(0x01)
     657                      .dwendentry
     658                      .dwendtag $C$DW$67
     659              
     660 000125               .sect   ".text"
     661                      .align 4
TMS320C55x Assembler PC v4.4.1 Sat Oct 06 06:38:33 2018

Tools Copyright (c) 1996-2012 Texas Instruments Incorporated
stream_buffer.asm                                                    PAGE   14

     662                      .global _xStreamBufferSetTriggerLevel
     663              
     664              $C$DW$76        .dwtag  DW_TAG_subprogram, DW_AT_name("xStreamBufferSetTriggerLevel")
     665                      .dwattr $C$DW$76, DW_AT_low_pc(_xStreamBufferSetTriggerLevel)
     666                      .dwattr $C$DW$76, DW_AT_high_pc(0x00)
     667                      .dwattr $C$DW$76, DW_AT_TI_symbol_name("_xStreamBufferSetTriggerLevel")
     668                      .dwattr $C$DW$76, DW_AT_external
     669                      .dwattr $C$DW$76, DW_AT_type(*$C$DW$T$28)
     670                      .dwattr $C$DW$76, DW_AT_TI_begin_file("../FreeRTOS/Source/stream_buffer.c")
     671                      .dwattr $C$DW$76, DW_AT_TI_begin_line(0x1b9)
     672                      .dwattr $C$DW$76, DW_AT_TI_begin_column(0x0c)
     673                      .dwattr $C$DW$76, DW_AT_TI_max_frame_size(0x08)
     674                      .dwpsn  file "../FreeRTOS/Source/stream_buffer.c",line 442,column 1,is_stmt,address _xStreamBufferSet
     675              
     676                      .dwfde $C$DW$CIE, _xStreamBufferSetTriggerLevel
     677              $C$DW$77        .dwtag  DW_TAG_formal_parameter, DW_AT_name("xStreamBuffer")
     678                      .dwattr $C$DW$77, DW_AT_TI_symbol_name("_xStreamBuffer")
     679                      .dwattr $C$DW$77, DW_AT_type(*$C$DW$T$40)
     680                      .dwattr $C$DW$77, DW_AT_location[DW_OP_reg17]
     681              $C$DW$78        .dwtag  DW_TAG_formal_parameter, DW_AT_name("xTriggerLevel")
     682                      .dwattr $C$DW$78, DW_AT_TI_symbol_name("_xTriggerLevel")
     683                      .dwattr $C$DW$78, DW_AT_type(*$C$DW$T$20)
     684                      .dwattr $C$DW$78, DW_AT_location[DW_OP_reg12]
     685              ;*******************************************************************************
     686              ;* FUNCTION NAME: xStreamBufferSetTriggerLevel                                 *
     687              ;*                                                                             *
     688              ;*   Function Uses Regs : AC0,AC0,T0,AR0,XAR0,AR1,AR2,AR3,XAR3,SP,TC1,M40,SATA,*
     689              ;*                        SATD,RDM,FRCT,SMUL                                   *
     690              ;*   Stack Frame        : Compact (No Frame Pointer, w/ debug)                 *
     691              ;*   Total Frame Size   : 8 words                                              *
     692              ;*                        (1 return address/alignment)                         *
     693              ;*                        (7 local values)                                     *
     694              ;*   Min System Stack   : 1 word                                               *
     695              ;*******************************************************************************
     696 000128       _xStreamBufferSetTriggerLevel:
     697                      .dwcfi  cfa_offset, 1
     698                      .dwcfi  save_reg_to_mem, 91, -1
     699 000128 4EF9          AADD #-7, SP
     700                      .dwcfi  cfa_offset, 8
     701              $C$DW$79        .dwtag  DW_TAG_variable, DW_AT_name("xStreamBuffer")
     702                      .dwattr $C$DW$79, DW_AT_TI_symbol_name("_xStreamBuffer")
     703                      .dwattr $C$DW$79, DW_AT_type(*$C$DW$T$40)
     704                      .dwattr $C$DW$79, DW_AT_location[DW_OP_bregx 0x24 0]
     705              $C$DW$80        .dwtag  DW_TAG_variable, DW_AT_name("xTriggerLevel")
     706                      .dwattr $C$DW$80, DW_AT_TI_symbol_name("_xTriggerLevel")
     707                      .dwattr $C$DW$80, DW_AT_type(*$C$DW$T$20)
     708                      .dwattr $C$DW$80, DW_AT_location[DW_OP_bregx 0x24 2]
     709              $C$DW$81        .dwtag  DW_TAG_variable, DW_AT_name("pxStreamBuffer")
     710                      .dwattr $C$DW$81, DW_AT_TI_symbol_name("_pxStreamBuffer")
     711                      .dwattr $C$DW$81, DW_AT_type(*$C$DW$T$38)
     712                      .dwattr $C$DW$81, DW_AT_location[DW_OP_bregx 0x24 4]
     713              $C$DW$82        .dwtag  DW_TAG_variable, DW_AT_name("xReturn")
     714                      .dwattr $C$DW$82, DW_AT_TI_symbol_name("_xReturn")
     715                      .dwattr $C$DW$82, DW_AT_type(*$C$DW$T$28)
     716                      .dwattr $C$DW$82, DW_AT_location[DW_OP_bregx 0x24 6]
TMS320C55x Assembler PC v4.4.1 Sat Oct 06 06:38:33 2018

Tools Copyright (c) 1996-2012 Texas Instruments Incorporated
stream_buffer.asm                                                    PAGE   15

     717 00012a C404          MOV T0, *SP(#2) ; |442| 
     718 00012c EB00          MOV XAR0, dbl(*SP(#0))
         00012e 85   
     719                      .dwpsn  file "../FreeRTOS/Source/stream_buffer.c",line 443,column 24,is_stmt
     720 00012f ED00          MOV dbl(*SP(#0)), XAR3
         000131 BF   
     721 000132 EB08          MOV XAR3, dbl(*SP(#4))
         000134 B5   
     722                      .dwpsn  file "../FreeRTOS/Source/stream_buffer.c",line 446,column 2,is_stmt
     723 000135 90B0          MOV XAR3, AC0
     724 000137 6290          BCC $C$L21,AC0 != #0 ; |446| 
     725                                                      ; branchcc occurs ; |446| 
     726 000139 20     nop
     727 00013a 46B3   bset INTM
     728 00013c       $C$L20:    
     729 00013c       $C$DW$L$_xStreamBufferSetTriggerLevel$3$B:
     730 00013c 4A7E          B $C$L20  ; |446| 
     731                                                      ; branch occurs ; |446| 
     732 00013e       $C$DW$L$_xStreamBufferSetTriggerLevel$3$E:
     733 00013e       $C$L21:    
     734                      .dwpsn  file "../FreeRTOS/Source/stream_buffer.c",line 449,column 2,is_stmt
     735 00013e A904          MOV *SP(#2), AR1 ; |449| 
     736 000140 6199          BCC $C$L22,AR1 != #0 ; |449| 
     737                                                      ; branchcc occurs ; |449| 
     738                      .dwpsn  file "../FreeRTOS/Source/stream_buffer.c",line 451,column 3,is_stmt
     739 000142 E604          MOV #1, *SP(#2) ; |451| 
         000144 01   
     740 000145       $C$L22:    
     741                      .dwpsn  file "../FreeRTOS/Source/stream_buffer.c",line 456,column 2,is_stmt
     742 000145 ED08          MOV dbl(*SP(#4)), XAR3
         000147 BF   
     743 000148 AA04          MOV *SP(#2), AR2 ; |456| 
     744 00014a A975          MOV *AR3(short(#2)), AR1 ; |456| 
     745 00014c 1294          CMPU AR2 > AR1, TC1 ; |456| 
         00014e A4   
     746 00014f 64E4          BCC $C$L23,TC1 ; |456| 
     747                                                      ; branchcc occurs ; |456| 
     748                      .dwpsn  file "../FreeRTOS/Source/stream_buffer.c",line 458,column 3,is_stmt
     749 000151 22A9          MOV AR2, AR1
     750 000153 C977          MOV AR1, *AR3(short(#3)) ; |458| 
     751                      .dwpsn  file "../FreeRTOS/Source/stream_buffer.c",line 459,column 3,is_stmt
     752 000155 E60C          MOV #1, *SP(#6) ; |459| 
         000157 01   
     753                      .dwpsn  file "../FreeRTOS/Source/stream_buffer.c",line 460,column 2,is_stmt
     754 000158 4A03          B $C$L24  ; |460| 
     755                                                      ; branch occurs ; |460| 
     756 00015a       $C$L23:    
     757                      .dwpsn  file "../FreeRTOS/Source/stream_buffer.c",line 463,column 3,is_stmt
     758 00015a E60C          MOV #0, *SP(#6) ; |463| 
         00015c 00   
     759 00015d       $C$L24:    
     760                      .dwpsn  file "../FreeRTOS/Source/stream_buffer.c",line 466,column 2,is_stmt
     761 00015d A40C          MOV *SP(#6), T0 ; |466| 
     762                      .dwpsn  file "../FreeRTOS/Source/stream_buffer.c",line 467,column 1,is_stmt
     763 00015f 4E07          AADD #7, SP
TMS320C55x Assembler PC v4.4.1 Sat Oct 06 06:38:33 2018

Tools Copyright (c) 1996-2012 Texas Instruments Incorporated
stream_buffer.asm                                                    PAGE   16

     764                      .dwcfi  cfa_offset, 1
     765              $C$DW$83        .dwtag  DW_TAG_TI_branch
     766                      .dwattr $C$DW$83, DW_AT_low_pc(0x00)
     767                      .dwattr $C$DW$83, DW_AT_TI_return
     768 000161 4804          RET
     769                                                      ; return occurs
     770              
     771              $C$DW$84        .dwtag  DW_TAG_TI_loop
     772                      .dwattr $C$DW$84, DW_AT_name("F:\eZdsp_DBG\tmp1\c55x-sim2\foo\Debug\stream_buffer.asm:$C$L20:1:153883
     773                      .dwattr $C$DW$84, DW_AT_TI_begin_file("../FreeRTOS/Source/stream_buffer.c")
     774                      .dwattr $C$DW$84, DW_AT_TI_begin_line(0x1be)
     775                      .dwattr $C$DW$84, DW_AT_TI_end_line(0x1be)
     776              $C$DW$85        .dwtag  DW_TAG_TI_loop_range
     777                      .dwattr $C$DW$85, DW_AT_low_pc($C$DW$L$_xStreamBufferSetTriggerLevel$3$B)
     778                      .dwattr $C$DW$85, DW_AT_high_pc($C$DW$L$_xStreamBufferSetTriggerLevel$3$E)
     779                      .dwendtag $C$DW$84
     780              
     781                      .dwattr $C$DW$76, DW_AT_TI_end_file("../FreeRTOS/Source/stream_buffer.c")
     782                      .dwattr $C$DW$76, DW_AT_TI_end_line(0x1d3)
     783                      .dwattr $C$DW$76, DW_AT_TI_end_column(0x01)
     784                      .dwendentry
     785                      .dwendtag $C$DW$76
     786              
     787 000163               .sect   ".text"
     788                      .align 4
     789                      .global _xStreamBufferSpacesAvailable
     790              
     791              $C$DW$86        .dwtag  DW_TAG_subprogram, DW_AT_name("xStreamBufferSpacesAvailable")
     792                      .dwattr $C$DW$86, DW_AT_low_pc(_xStreamBufferSpacesAvailable)
     793                      .dwattr $C$DW$86, DW_AT_high_pc(0x00)
     794                      .dwattr $C$DW$86, DW_AT_TI_symbol_name("_xStreamBufferSpacesAvailable")
     795                      .dwattr $C$DW$86, DW_AT_external
     796                      .dwattr $C$DW$86, DW_AT_type(*$C$DW$T$20)
     797                      .dwattr $C$DW$86, DW_AT_TI_begin_file("../FreeRTOS/Source/stream_buffer.c")
     798                      .dwattr $C$DW$86, DW_AT_TI_begin_line(0x1d6)
     799                      .dwattr $C$DW$86, DW_AT_TI_begin_column(0x08)
     800                      .dwattr $C$DW$86, DW_AT_TI_max_frame_size(0x06)
     801                      .dwpsn  file "../FreeRTOS/Source/stream_buffer.c",line 471,column 1,is_stmt,address _xStreamBufferSpa
     802              
     803                      .dwfde $C$DW$CIE, _xStreamBufferSpacesAvailable
     804              $C$DW$87        .dwtag  DW_TAG_formal_parameter, DW_AT_name("xStreamBuffer")
     805                      .dwattr $C$DW$87, DW_AT_TI_symbol_name("_xStreamBuffer")
     806                      .dwattr $C$DW$87, DW_AT_type(*$C$DW$T$40)
     807                      .dwattr $C$DW$87, DW_AT_location[DW_OP_reg17]
     808              ;*******************************************************************************
     809              ;* FUNCTION NAME: xStreamBufferSpacesAvailable                                 *
     810              ;*                                                                             *
     811              ;*   Function Uses Regs : AC0,AC0,T0,AR0,XAR0,AR1,AR2,XAR2,AR3,XAR3,SP,CARRY,  *
     812              ;*                        TC1,M40,SATA,SATD,RDM,FRCT,SMUL                      *
     813              ;*   Stack Frame        : Compact (No Frame Pointer, w/ debug)                 *
     814              ;*   Total Frame Size   : 6 words                                              *
     815              ;*                        (1 return address/alignment)                         *
     816              ;*                        (5 local values)                                     *
     817              ;*   Min System Stack   : 1 word                                               *
     818              ;*******************************************************************************
TMS320C55x Assembler PC v4.4.1 Sat Oct 06 06:38:33 2018

Tools Copyright (c) 1996-2012 Texas Instruments Incorporated
stream_buffer.asm                                                    PAGE   17

     819 000164       _xStreamBufferSpacesAvailable:
     820                      .dwcfi  cfa_offset, 1
     821                      .dwcfi  save_reg_to_mem, 91, -1
     822 000164 4EFB          AADD #-5, SP
     823                      .dwcfi  cfa_offset, 6
     824              $C$DW$88        .dwtag  DW_TAG_variable, DW_AT_name("xStreamBuffer")
     825                      .dwattr $C$DW$88, DW_AT_TI_symbol_name("_xStreamBuffer")
     826                      .dwattr $C$DW$88, DW_AT_type(*$C$DW$T$40)
     827                      .dwattr $C$DW$88, DW_AT_location[DW_OP_bregx 0x24 0]
     828              $C$DW$89        .dwtag  DW_TAG_variable, DW_AT_name("pxStreamBuffer")
     829                      .dwattr $C$DW$89, DW_AT_TI_symbol_name("_pxStreamBuffer")
     830                      .dwattr $C$DW$89, DW_AT_type(*$C$DW$T$36)
     831                      .dwattr $C$DW$89, DW_AT_location[DW_OP_bregx 0x24 2]
     832              $C$DW$90        .dwtag  DW_TAG_variable, DW_AT_name("xSpace")
     833                      .dwattr $C$DW$90, DW_AT_TI_symbol_name("_xSpace")
     834                      .dwattr $C$DW$90, DW_AT_type(*$C$DW$T$20)
     835                      .dwattr $C$DW$90, DW_AT_location[DW_OP_bregx 0x24 4]
     836 000166 EB00          MOV XAR0, dbl(*SP(#0))
         000168 85   
     837                      .dwpsn  file "../FreeRTOS/Source/stream_buffer.c",line 472,column 30,is_stmt
     838 000169 ED00          MOV dbl(*SP(#0)), XAR3
         00016b BF   
     839 00016c EB04          MOV XAR3, dbl(*SP(#2))
         00016e B5   
     840                      .dwpsn  file "../FreeRTOS/Source/stream_buffer.c",line 475,column 2,is_stmt
     841 00016f 90B0          MOV XAR3, AC0
     842 000171 6290          BCC $C$L26,AC0 != #0 ; |475| 
     843                                                      ; branchcc occurs ; |475| 
     844 000173 20     nop
     845 000174 46B3   bset INTM
     846 000176       $C$L25:    
     847 000176       $C$DW$L$_xStreamBufferSpacesAvailable$3$B:
     848 000176 4A7E          B $C$L25  ; |475| 
     849                                                      ; branch occurs ; |475| 
     850 000178       $C$DW$L$_xStreamBufferSpacesAvailable$3$E:
     851 000178       $C$L26:    
     852                      .dwpsn  file "../FreeRTOS/Source/stream_buffer.c",line 477,column 2,is_stmt
     853 000178 ED04          MOV dbl(*SP(#2)), XAR2
         00017a AF   
     854 00017b A941          MOV *AR2, AR1 ; |477| 
     855 00017d D675          ADD *AR3(short(#2)), AR1, AR1 ; |477| 
         00017f 99   
     856 000180 C908          MOV AR1, *SP(#4) ; |477| 
     857                      .dwpsn  file "../FreeRTOS/Source/stream_buffer.c",line 478,column 2,is_stmt
     858 000182 ED04          MOV dbl(*SP(#2)), XAR3
         000184 BF   
     859 000185 2290          MOV AR1, AC0
     860 000187 DF73          SUB uns(*AR3(short(#1))), AC0, AC0 ; |478| 
         000189 0F   
     861 00018a C008          MOV AC0, *SP(#4) ; |478| 
     862                      .dwpsn  file "../FreeRTOS/Source/stream_buffer.c",line 479,column 2,is_stmt
     863 00018c F708          SUB #1, *SP(#4) ; |479| 
         00018e FFFF 
     864                      .dwpsn  file "../FreeRTOS/Source/stream_buffer.c",line 481,column 2,is_stmt
     865 000190 ED04          MOV dbl(*SP(#2)), XAR3
TMS320C55x Assembler PC v4.4.1 Sat Oct 06 06:38:33 2018

Tools Copyright (c) 1996-2012 Texas Instruments Incorporated
stream_buffer.asm                                                    PAGE   18

         000192 BF   
     866 000193 AA08          MOV *SP(#4), AR2 ; |481| 
     867 000195 A975          MOV *AR3(short(#2)), AR1 ; |481| 
     868 000197 12A4          CMPU AR2 < AR1, TC1 ; |481| 
         000199 94   
     869 00019a 63E4          BCC $C$L27,TC1 ; |481| 
     870                                                      ; branchcc occurs ; |481| 
     871                      .dwpsn  file "../FreeRTOS/Source/stream_buffer.c",line 483,column 3,is_stmt
     872 00019c 22A0          MOV AR2, AC0
     873 00019e DF75          SUB uns(*AR3(short(#2))), AC0, AC0 ; |483| 
         0001a0 0F   
     874 0001a1 C008          MOV AC0, *SP(#4) ; |483| 
     875                      .dwpsn  file "../FreeRTOS/Source/stream_buffer.c",line 484,column 2,is_stmt
     876 0001a3       $C$L27:    
     877                      .dwpsn  file "../FreeRTOS/Source/stream_buffer.c",line 490,column 2,is_stmt
     878 0001a3 A408          MOV *SP(#4), T0 ; |490| 
     879                      .dwpsn  file "../FreeRTOS/Source/stream_buffer.c",line 491,column 1,is_stmt
     880 0001a5 4E05          AADD #5, SP
     881                      .dwcfi  cfa_offset, 1
     882              $C$DW$91        .dwtag  DW_TAG_TI_branch
     883                      .dwattr $C$DW$91, DW_AT_low_pc(0x00)
     884                      .dwattr $C$DW$91, DW_AT_TI_return
     885 0001a7 4804          RET
     886                                                      ; return occurs
     887              
     888              $C$DW$92        .dwtag  DW_TAG_TI_loop
     889                      .dwattr $C$DW$92, DW_AT_name("F:\eZdsp_DBG\tmp1\c55x-sim2\foo\Debug\stream_buffer.asm:$C$L25:1:153883
     890                      .dwattr $C$DW$92, DW_AT_TI_begin_file("../FreeRTOS/Source/stream_buffer.c")
     891                      .dwattr $C$DW$92, DW_AT_TI_begin_line(0x1db)
     892                      .dwattr $C$DW$92, DW_AT_TI_end_line(0x1db)
     893              $C$DW$93        .dwtag  DW_TAG_TI_loop_range
     894                      .dwattr $C$DW$93, DW_AT_low_pc($C$DW$L$_xStreamBufferSpacesAvailable$3$B)
     895                      .dwattr $C$DW$93, DW_AT_high_pc($C$DW$L$_xStreamBufferSpacesAvailable$3$E)
     896                      .dwendtag $C$DW$92
     897              
     898                      .dwattr $C$DW$86, DW_AT_TI_end_file("../FreeRTOS/Source/stream_buffer.c")
     899                      .dwattr $C$DW$86, DW_AT_TI_end_line(0x1eb)
     900                      .dwattr $C$DW$86, DW_AT_TI_end_column(0x01)
     901                      .dwendentry
     902                      .dwendtag $C$DW$86
     903              
     904 0001a9               .sect   ".text"
     905                      .align 4
     906                      .global _xStreamBufferBytesAvailable
     907              
     908              $C$DW$94        .dwtag  DW_TAG_subprogram, DW_AT_name("xStreamBufferBytesAvailable")
     909                      .dwattr $C$DW$94, DW_AT_low_pc(_xStreamBufferBytesAvailable)
     910                      .dwattr $C$DW$94, DW_AT_high_pc(0x00)
     911                      .dwattr $C$DW$94, DW_AT_TI_symbol_name("_xStreamBufferBytesAvailable")
     912                      .dwattr $C$DW$94, DW_AT_external
     913                      .dwattr $C$DW$94, DW_AT_type(*$C$DW$T$20)
     914                      .dwattr $C$DW$94, DW_AT_TI_begin_file("../FreeRTOS/Source/stream_buffer.c")
     915                      .dwattr $C$DW$94, DW_AT_TI_begin_line(0x1ee)
     916                      .dwattr $C$DW$94, DW_AT_TI_begin_column(0x08)
     917                      .dwattr $C$DW$94, DW_AT_TI_max_frame_size(0x06)
TMS320C55x Assembler PC v4.4.1 Sat Oct 06 06:38:33 2018

Tools Copyright (c) 1996-2012 Texas Instruments Incorporated
stream_buffer.asm                                                    PAGE   19

     918                      .dwpsn  file "../FreeRTOS/Source/stream_buffer.c",line 495,column 1,is_stmt,address _xStreamBufferByt
     919              
     920                      .dwfde $C$DW$CIE, _xStreamBufferBytesAvailable
     921              $C$DW$95        .dwtag  DW_TAG_formal_parameter, DW_AT_name("xStreamBuffer")
     922                      .dwattr $C$DW$95, DW_AT_TI_symbol_name("_xStreamBuffer")
     923                      .dwattr $C$DW$95, DW_AT_type(*$C$DW$T$40)
     924                      .dwattr $C$DW$95, DW_AT_location[DW_OP_reg17]
     925              ;*******************************************************************************
     926              ;* FUNCTION NAME: xStreamBufferBytesAvailable                                  *
     927              ;*                                                                             *
     928              ;*   Function Uses Regs : AC0,AC0,T0,AR0,XAR0,AR3,XAR3,SP,M40,SATA,SATD,RDM,   *
     929              ;*                        FRCT,SMUL                                            *
     930              ;*   Stack Frame        : Compact (No Frame Pointer, w/ debug)                 *
     931              ;*   Total Frame Size   : 6 words                                              *
     932              ;*                        (1 return address/alignment)                         *
     933              ;*                        (5 local values)                                     *
     934              ;*   Min System Stack   : 1 word                                               *
     935              ;*******************************************************************************
     936 0001ac       _xStreamBufferBytesAvailable:
     937                      .dwcfi  cfa_offset, 1
     938                      .dwcfi  save_reg_to_mem, 91, -1
     939 0001ac 4EFB          AADD #-5, SP
     940                      .dwcfi  cfa_offset, 6
     941              $C$DW$96        .dwtag  DW_TAG_variable, DW_AT_name("xStreamBuffer")
     942                      .dwattr $C$DW$96, DW_AT_TI_symbol_name("_xStreamBuffer")
     943                      .dwattr $C$DW$96, DW_AT_type(*$C$DW$T$40)
     944                      .dwattr $C$DW$96, DW_AT_location[DW_OP_bregx 0x24 0]
     945              $C$DW$97        .dwtag  DW_TAG_variable, DW_AT_name("pxStreamBuffer")
     946                      .dwattr $C$DW$97, DW_AT_TI_symbol_name("_pxStreamBuffer")
     947                      .dwattr $C$DW$97, DW_AT_type(*$C$DW$T$36)
     948                      .dwattr $C$DW$97, DW_AT_location[DW_OP_bregx 0x24 2]
     949              $C$DW$98        .dwtag  DW_TAG_variable, DW_AT_name("xReturn")
     950                      .dwattr $C$DW$98, DW_AT_TI_symbol_name("_xReturn")
     951                      .dwattr $C$DW$98, DW_AT_type(*$C$DW$T$20)
     952                      .dwattr $C$DW$98, DW_AT_location[DW_OP_bregx 0x24 4]
     953 0001ae EB00          MOV XAR0, dbl(*SP(#0))
         0001b0 85   
     954                      .dwpsn  file "../FreeRTOS/Source/stream_buffer.c",line 496,column 30,is_stmt
     955 0001b1 ED00          MOV dbl(*SP(#0)), XAR3
         0001b3 BF   
     956 0001b4 EB04          MOV XAR3, dbl(*SP(#2))
         0001b6 B5   
     957                      .dwpsn  file "../FreeRTOS/Source/stream_buffer.c",line 499,column 2,is_stmt
     958 0001b7 90B0          MOV XAR3, AC0
     959 0001b9 6290          BCC $C$L29,AC0 != #0 ; |499| 
     960                                                      ; branchcc occurs ; |499| 
     961 0001bb 20     nop
     962 0001bc 46B3   bset INTM
     963 0001be       $C$L28:    
     964 0001be       $C$DW$L$_xStreamBufferBytesAvailable$3$B:
     965 0001be 4A7E          B $C$L28  ; |499| 
     966                                                      ; branch occurs ; |499| 
     967 0001c0       $C$DW$L$_xStreamBufferBytesAvailable$3$E:
     968 0001c0       $C$L29:    
     969                      .dwpsn  file "../FreeRTOS/Source/stream_buffer.c",line 501,column 2,is_stmt
TMS320C55x Assembler PC v4.4.1 Sat Oct 06 06:38:33 2018

Tools Copyright (c) 1996-2012 Texas Instruments Incorporated
stream_buffer.asm                                                    PAGE   20

     970              $C$DW$99        .dwtag  DW_TAG_TI_branch
     971                      .dwattr $C$DW$99, DW_AT_low_pc(0x00)
     972                      .dwattr $C$DW$99, DW_AT_name("_prvBytesInBuffer")
     973                      .dwattr $C$DW$99, DW_AT_TI_call
     974 0001c0 0807          CALL #_prvBytesInBuffer ; |501| 
         0001c2 F9   
     975                                                      ; call occurs [#_prvBytesInBuffer] ; |501| 
     976 0001c3 C408          MOV T0, *SP(#4) ; |501| 
     977                      .dwpsn  file "../FreeRTOS/Source/stream_buffer.c",line 502,column 2,is_stmt
     978                      .dwpsn  file "../FreeRTOS/Source/stream_buffer.c",line 503,column 1,is_stmt
     979 0001c5 4E05          AADD #5, SP
     980                      .dwcfi  cfa_offset, 1
     981              $C$DW$100       .dwtag  DW_TAG_TI_branch
     982                      .dwattr $C$DW$100, DW_AT_low_pc(0x00)
     983                      .dwattr $C$DW$100, DW_AT_TI_return
     984 0001c7 4804          RET
     985                                                      ; return occurs
     986              
     987              $C$DW$101       .dwtag  DW_TAG_TI_loop
     988                      .dwattr $C$DW$101, DW_AT_name("F:\eZdsp_DBG\tmp1\c55x-sim2\foo\Debug\stream_buffer.asm:$C$L28:1:15388
     989                      .dwattr $C$DW$101, DW_AT_TI_begin_file("../FreeRTOS/Source/stream_buffer.c")
     990                      .dwattr $C$DW$101, DW_AT_TI_begin_line(0x1f3)
     991                      .dwattr $C$DW$101, DW_AT_TI_end_line(0x1f3)
     992              $C$DW$102       .dwtag  DW_TAG_TI_loop_range
     993                      .dwattr $C$DW$102, DW_AT_low_pc($C$DW$L$_xStreamBufferBytesAvailable$3$B)
     994                      .dwattr $C$DW$102, DW_AT_high_pc($C$DW$L$_xStreamBufferBytesAvailable$3$E)
     995                      .dwendtag $C$DW$101
     996              
     997                      .dwattr $C$DW$94, DW_AT_TI_end_file("../FreeRTOS/Source/stream_buffer.c")
     998                      .dwattr $C$DW$94, DW_AT_TI_end_line(0x1f7)
     999                      .dwattr $C$DW$94, DW_AT_TI_end_column(0x01)
    1000                      .dwendentry
    1001                      .dwendtag $C$DW$94
    1002              
    1003 0001c9               .sect   ".text"
    1004                      .align 4
    1005                      .global _xStreamBufferSend
    1006              
    1007              $C$DW$103       .dwtag  DW_TAG_subprogram, DW_AT_name("xStreamBufferSend")
    1008                      .dwattr $C$DW$103, DW_AT_low_pc(_xStreamBufferSend)
    1009                      .dwattr $C$DW$103, DW_AT_high_pc(0x00)
    1010                      .dwattr $C$DW$103, DW_AT_TI_symbol_name("_xStreamBufferSend")
    1011                      .dwattr $C$DW$103, DW_AT_external
    1012                      .dwattr $C$DW$103, DW_AT_type(*$C$DW$T$20)
    1013                      .dwattr $C$DW$103, DW_AT_TI_begin_file("../FreeRTOS/Source/stream_buffer.c")
    1014                      .dwattr $C$DW$103, DW_AT_TI_begin_line(0x1fa)
    1015                      .dwattr $C$DW$103, DW_AT_TI_begin_column(0x08)
    1016                      .dwattr $C$DW$103, DW_AT_TI_max_frame_size(0x14)
    1017                      .dwpsn  file "../FreeRTOS/Source/stream_buffer.c",line 510,column 1,is_stmt,address _xStreamBufferSen
    1018              
    1019                      .dwfde $C$DW$CIE, _xStreamBufferSend
    1020              $C$DW$104       .dwtag  DW_TAG_formal_parameter, DW_AT_name("xStreamBuffer")
    1021                      .dwattr $C$DW$104, DW_AT_TI_symbol_name("_xStreamBuffer")
    1022                      .dwattr $C$DW$104, DW_AT_type(*$C$DW$T$40)
    1023                      .dwattr $C$DW$104, DW_AT_location[DW_OP_reg17]
TMS320C55x Assembler PC v4.4.1 Sat Oct 06 06:38:33 2018

Tools Copyright (c) 1996-2012 Texas Instruments Incorporated
stream_buffer.asm                                                    PAGE   21

    1024              $C$DW$105       .dwtag  DW_TAG_formal_parameter, DW_AT_name("pvTxData")
    1025                      .dwattr $C$DW$105, DW_AT_TI_symbol_name("_pvTxData")
    1026                      .dwattr $C$DW$105, DW_AT_type(*$C$DW$T$43)
    1027                      .dwattr $C$DW$105, DW_AT_location[DW_OP_reg19]
    1028              $C$DW$106       .dwtag  DW_TAG_formal_parameter, DW_AT_name("xDataLengthBytes")
    1029                      .dwattr $C$DW$106, DW_AT_TI_symbol_name("_xDataLengthBytes")
    1030                      .dwattr $C$DW$106, DW_AT_type(*$C$DW$T$20)
    1031                      .dwattr $C$DW$106, DW_AT_location[DW_OP_reg12]
    1032              $C$DW$107       .dwtag  DW_TAG_formal_parameter, DW_AT_name("xTicksToWait")
    1033                      .dwattr $C$DW$107, DW_AT_TI_symbol_name("_xTicksToWait")
    1034                      .dwattr $C$DW$107, DW_AT_type(*$C$DW$T$29)
    1035                      .dwattr $C$DW$107, DW_AT_location[DW_OP_reg0]
    1036              ;*******************************************************************************
    1037              ;* FUNCTION NAME: xStreamBufferSend                                            *
    1038              ;*                                                                             *
    1039              ;*   Function Uses Regs : AC0,AC0,AC1,AC1,AC2,AC2,T0,T1,AR0,XAR0,AR1,XAR1,AR2, *
    1040              ;*                        AR3,XAR3,SP,CARRY,TC1,M40,SATA,SATD,RDM,FRCT,SMUL    *
    1041              ;*   Stack Frame        : Compact (No Frame Pointer, w/ debug)                 *
    1042              ;*   Total Frame Size   : 20 words                                             *
    1043              ;*                        (2 return address/alignment)                         *
    1044              ;*                        (18 local values)                                    *
    1045              ;*   Min System Stack   : 1 word                                               *
    1046              ;*******************************************************************************
    1047 0001cc       _xStreamBufferSend:
    1048                      .dwcfi  cfa_offset, 1
    1049                      .dwcfi  save_reg_to_mem, 91, -1
    1050 0001cc 4EED          AADD #-19, SP
    1051                      .dwcfi  cfa_offset, 20
    1052              $C$DW$108       .dwtag  DW_TAG_variable, DW_AT_name("xStreamBuffer")
    1053                      .dwattr $C$DW$108, DW_AT_TI_symbol_name("_xStreamBuffer")
    1054                      .dwattr $C$DW$108, DW_AT_type(*$C$DW$T$40)
    1055                      .dwattr $C$DW$108, DW_AT_location[DW_OP_bregx 0x24 0]
    1056              $C$DW$109       .dwtag  DW_TAG_variable, DW_AT_name("pvTxData")
    1057                      .dwattr $C$DW$109, DW_AT_TI_symbol_name("_pvTxData")
    1058                      .dwattr $C$DW$109, DW_AT_type(*$C$DW$T$43)
    1059                      .dwattr $C$DW$109, DW_AT_location[DW_OP_bregx 0x24 2]
    1060              $C$DW$110       .dwtag  DW_TAG_variable, DW_AT_name("xDataLengthBytes")
    1061                      .dwattr $C$DW$110, DW_AT_TI_symbol_name("_xDataLengthBytes")
    1062                      .dwattr $C$DW$110, DW_AT_type(*$C$DW$T$20)
    1063                      .dwattr $C$DW$110, DW_AT_location[DW_OP_bregx 0x24 4]
    1064              $C$DW$111       .dwtag  DW_TAG_variable, DW_AT_name("xTicksToWait")
    1065                      .dwattr $C$DW$111, DW_AT_TI_symbol_name("_xTicksToWait")
    1066                      .dwattr $C$DW$111, DW_AT_type(*$C$DW$T$29)
    1067                      .dwattr $C$DW$111, DW_AT_location[DW_OP_bregx 0x24 6]
    1068              $C$DW$112       .dwtag  DW_TAG_variable, DW_AT_name("pxStreamBuffer")
    1069                      .dwattr $C$DW$112, DW_AT_TI_symbol_name("_pxStreamBuffer")
    1070                      .dwattr $C$DW$112, DW_AT_type(*$C$DW$T$38)
    1071                      .dwattr $C$DW$112, DW_AT_location[DW_OP_bregx 0x24 8]
    1072              $C$DW$113       .dwtag  DW_TAG_variable, DW_AT_name("xReturn")
    1073                      .dwattr $C$DW$113, DW_AT_TI_symbol_name("_xReturn")
    1074                      .dwattr $C$DW$113, DW_AT_type(*$C$DW$T$20)
    1075                      .dwattr $C$DW$113, DW_AT_location[DW_OP_bregx 0x24 10]
    1076              $C$DW$114       .dwtag  DW_TAG_variable, DW_AT_name("xSpace")
    1077                      .dwattr $C$DW$114, DW_AT_TI_symbol_name("_xSpace")
    1078                      .dwattr $C$DW$114, DW_AT_type(*$C$DW$T$20)
TMS320C55x Assembler PC v4.4.1 Sat Oct 06 06:38:33 2018

Tools Copyright (c) 1996-2012 Texas Instruments Incorporated
stream_buffer.asm                                                    PAGE   22

    1079                      .dwattr $C$DW$114, DW_AT_location[DW_OP_bregx 0x24 11]
    1080              $C$DW$115       .dwtag  DW_TAG_variable, DW_AT_name("xRequiredSpace")
    1081                      .dwattr $C$DW$115, DW_AT_TI_symbol_name("_xRequiredSpace")
    1082                      .dwattr $C$DW$115, DW_AT_type(*$C$DW$T$20)
    1083                      .dwattr $C$DW$115, DW_AT_location[DW_OP_bregx 0x24 12]
    1084              $C$DW$116       .dwtag  DW_TAG_variable, DW_AT_name("xTimeOut")
    1085                      .dwattr $C$DW$116, DW_AT_TI_symbol_name("_xTimeOut")
    1086                      .dwattr $C$DW$116, DW_AT_type(*$C$DW$T$53)
    1087                      .dwattr $C$DW$116, DW_AT_location[DW_OP_bregx 0x24 14]
    1088 0001ce EB0C          MOV AC0, dbl(*SP(#6)) ; |510| 
         0001d0 08   
    1089 0001d1 C408          MOV T0, *SP(#4) ; |510| 
    1090 0001d3 EB04          MOV XAR1, dbl(*SP(#2))
         0001d5 95   
    1091 0001d6 EB00          MOV XAR0, dbl(*SP(#0))
         0001d8 85   
    1092                      .dwpsn  file "../FreeRTOS/Source/stream_buffer.c",line 511,column 24,is_stmt
    1093 0001d9 ED00          MOV dbl(*SP(#0)), XAR3
         0001db BF   
    1094 0001dc EB10          MOV XAR3, dbl(*SP(#8))
         0001de B5   
    1095                      .dwpsn  file "../FreeRTOS/Source/stream_buffer.c",line 512,column 17,is_stmt
    1096 0001df E616          MOV #0, *SP(#11) ; |512| 
         0001e1 00   
    1097                      .dwpsn  file "../FreeRTOS/Source/stream_buffer.c",line 513,column 8,is_stmt
    1098 0001e2 A908          MOV *SP(#4), AR1 ; |513| 
    1099 0001e4 C918          MOV AR1, *SP(#12) ; |513| 
    1100                      .dwpsn  file "../FreeRTOS/Source/stream_buffer.c",line 516,column 2,is_stmt
    1101 0001e6 ED04          MOV dbl(*SP(#2)), XAR3
         0001e8 BF   
    1102 0001e9 90B0          MOV XAR3, AC0
    1103 0001eb 6290          BCC $C$L31,AC0 != #0 ; |516| 
    1104                                                      ; branchcc occurs ; |516| 
    1105 0001ed 20     nop
    1106 0001ee 46B3   bset INTM
    1107 0001f0       $C$L30:    
    1108 0001f0       $C$DW$L$_xStreamBufferSend$3$B:
    1109 0001f0 4A7E          B $C$L30  ; |516| 
    1110                                                      ; branch occurs ; |516| 
    1111 0001f2       $C$DW$L$_xStreamBufferSend$3$E:
    1112 0001f2       $C$L31:    
    1113                      .dwpsn  file "../FreeRTOS/Source/stream_buffer.c",line 517,column 2,is_stmt
    1114 0001f2 ED10          MOV dbl(*SP(#8)), XAR3
         0001f4 BF   
    1115 0001f5 90B0          MOV XAR3, AC0
    1116 0001f7 6290          BCC $C$L33,AC0 != #0 ; |517| 
    1117                                                      ; branchcc occurs ; |517| 
    1118 0001f9 20     nop
    1119 0001fa 46B3   bset INTM
    1120 0001fc       $C$L32:    
    1121 0001fc       $C$DW$L$_xStreamBufferSend$6$B:
    1122 0001fc 4A7E          B $C$L32  ; |517| 
    1123                                                      ; branch occurs ; |517| 
    1124 0001fe       $C$DW$L$_xStreamBufferSend$6$E:
    1125 0001fe       $C$L33:    
TMS320C55x Assembler PC v4.4.1 Sat Oct 06 06:38:33 2018

Tools Copyright (c) 1996-2012 Texas Instruments Incorporated
stream_buffer.asm                                                    PAGE   23

    1126                      .dwpsn  file "../FreeRTOS/Source/stream_buffer.c",line 523,column 2,is_stmt
    1127 0001fe DC6D          BTST #0, *AR3(#10), TC1 ; |523| 
         000200 0000 
         000202 0A   
    1128 000203 0474          BCC $C$L36,!TC1 ; |523| 
         000205 18   
    1129                                                      ; branchcc occurs ; |523| 
    1130                      .dwpsn  file "../FreeRTOS/Source/stream_buffer.c",line 525,column 3,is_stmt
    1131 000206 F718          ADD #1, *SP(#12) ; |525| 
         000208 0001 
    1132                      .dwpsn  file "../FreeRTOS/Source/stream_buffer.c",line 528,column 3,is_stmt
    1133 00020a AA08          MOV *SP(#4), AR2 ; |528| 
    1134 00020c AB18          MOV *SP(#12), AR3 ; |528| 
    1135 00020e 12A8          CMPU AR3 <= AR2, TC1 ; |528| 
         000210 B4   
    1136 000211 3C09          MOV #0, AR1
    1137 000213 6164          BCC $C$L34,TC1 ; |528| 
    1138                                                      ; branchcc occurs ; |528| 
    1139 000215 3C19          MOV #1, AR1
    1140 000217       $C$L34:    
    1141 000217 6299          BCC $C$L36,AR1 != #0 ; |528| 
    1142                                                      ; branchcc occurs ; |528| 
    1143 000219 20     nop
    1144 00021a 46B3   bset INTM
    1145 00021c       $C$L35:    
    1146 00021c       $C$DW$L$_xStreamBufferSend$12$B:
    1147 00021c 4A7E          B $C$L35  ; |528| 
    1148                                                      ; branch occurs ; |528| 
    1149 00021e       $C$DW$L$_xStreamBufferSend$12$E:
    1150 00021e       $C$L36:    
    1151                      .dwpsn  file "../FreeRTOS/Source/stream_buffer.c",line 535,column 2,is_stmt
    1152 00021e ED0C          MOV dbl(*SP(#6)), AC0 ; |535| 
         000220 08   
    1153 000221 6D00          BCC $C$L44,AC0 == #0 ; |535| 
         000223 00B1 
    1154                                                      ; branchcc occurs ; |535| 
    1155                      .dwpsn  file "../FreeRTOS/Source/stream_buffer.c",line 537,column 3,is_stmt
    1156 000225 EC1C          AMAR *SP(#14), XAR0
         000227 8E   
    1157              $C$DW$117       .dwtag  DW_TAG_TI_branch
    1158                      .dwattr $C$DW$117, DW_AT_low_pc(0x00)
    1159                      .dwattr $C$DW$117, DW_AT_name("_vTaskSetTimeOutState")
    1160                      .dwattr $C$DW$117, DW_AT_TI_call
    1161 000228 6C00          CALL #_vTaskSetTimeOutState ; |537| 
         00022a 0000!
    1162                                                      ; call occurs [#_vTaskSetTimeOutState] ; |537| 
    1163 00022c       $C$L37:    
    1164 00022c       $C$DW$L$_xStreamBufferSend$16$B:
    1165                      .dwpsn  file "../FreeRTOS/Source/stream_buffer.c",line 543,column 4,is_stmt
    1166 00022c 20     nop
    1167 00022d 46B3   bset INTM
    1168 00022f F731          ADD #1, *(#_usCriticalNesting) ; |543| 
         000231 0001 
         000233 0000 
         000235 00!  
TMS320C55x Assembler PC v4.4.1 Sat Oct 06 06:38:33 2018

Tools Copyright (c) 1996-2012 Texas Instruments Incorporated
stream_buffer.asm                                                    PAGE   24

    1169                      .dwpsn  file "../FreeRTOS/Source/stream_buffer.c",line 545,column 5,is_stmt
    1170 000236 ED10          MOV dbl(*SP(#8)), XAR0
         000238 8F   
    1171              $C$DW$118       .dwtag  DW_TAG_TI_branch
    1172                      .dwattr $C$DW$118, DW_AT_low_pc(0x00)
    1173                      .dwattr $C$DW$118, DW_AT_name("_xStreamBufferSpacesAvailable")
    1174                      .dwattr $C$DW$118, DW_AT_TI_call
    1175 000239 08FF          CALL #_xStreamBufferSpacesAvailable ; |545| 
         00023b 28   
    1176                                                      ; call occurs [#_xStreamBufferSpacesAvailable] ; |545| 
    1177 00023c C416          MOV T0, *SP(#11) ; |545| 
    1178                      .dwpsn  file "../FreeRTOS/Source/stream_buffer.c",line 547,column 5,is_stmt
    1179              
    1180 00023e A918          MOV *SP(#12), AR1 ; |547| 
    1181 000240 234A  ||      MOV T0, AR2 ; |547| 
    1182              
    1183 000242 12A8          CMPU AR2 >= AR1, TC1 ; |547| 
         000244 94   
    1184 000245 0464          BCC $C$L41,TC1 ; |547| 
         000247 2B   
    1185                                                      ; branchcc occurs ; |547| 
    1186 000248       $C$DW$L$_xStreamBufferSend$16$E:
    1187 000248       $C$DW$L$_xStreamBufferSend$17$B:
    1188                      .dwpsn  file "../FreeRTOS/Source/stream_buffer.c",line 550,column 6,is_stmt
    1189 000248 EC31          AMOV #0, XAR0 ; |550| 
         00024a 8E00 
         00024c 0000 
    1190              $C$DW$119       .dwtag  DW_TAG_TI_branch
    1191                      .dwattr $C$DW$119, DW_AT_low_pc(0x00)
    1192                      .dwattr $C$DW$119, DW_AT_name("_xTaskNotifyStateClear")
    1193                      .dwattr $C$DW$119, DW_AT_TI_call
    1194 00024e 6C00          CALL #_xTaskNotifyStateClear ; |550| 
         000250 0000!
    1195                                                      ; call occurs [#_xTaskNotifyStateClear] ; |550| 
    1196                      .dwpsn  file "../FreeRTOS/Source/stream_buffer.c",line 553,column 6,is_stmt
    1197 000252 ED10          MOV dbl(*SP(#8)), XAR3
         000254 BF   
    1198 000255 ED7D          MOV dbl(*AR3(short(#6))), XAR3
         000257 BF   
    1199 000258 90B0          MOV XAR3, AC0
    1200 00025a 3C09          MOV #0, AR1
    1201 00025c 6110          BCC $C$L38,AC0 != #0 ; |553| 
    1202                                                      ; branchcc occurs ; |553| 
    1203 00025e       $C$DW$L$_xStreamBufferSend$17$E:
    1204 00025e       $C$DW$L$_xStreamBufferSend$18$B:
    1205 00025e 3C19          MOV #1, AR1
    1206 000260       $C$DW$L$_xStreamBufferSend$18$E:
    1207 000260       $C$L38:    
    1208 000260       $C$DW$L$_xStreamBufferSend$19$B:
    1209 000260 6299          BCC $C$L40,AR1 != #0 ; |553| 
    1210                                                      ; branchcc occurs ; |553| 
    1211 000262       $C$DW$L$_xStreamBufferSend$19$E:
    1212 000262 20     nop
    1213 000263 46B3   bset INTM
    1214 000265       $C$L39:    
TMS320C55x Assembler PC v4.4.1 Sat Oct 06 06:38:33 2018

Tools Copyright (c) 1996-2012 Texas Instruments Incorporated
stream_buffer.asm                                                    PAGE   25

    1215 000265       $C$DW$L$_xStreamBufferSend$21$B:
    1216 000265 4A7E          B $C$L39  ; |553| 
    1217                                                      ; branch occurs ; |553| 
    1218 000267       $C$DW$L$_xStreamBufferSend$21$E:
    1219 000267       $C$L40:    
    1220 000267       $C$DW$L$_xStreamBufferSend$22$B:
    1221                      .dwpsn  file "../FreeRTOS/Source/stream_buffer.c",line 554,column 6,is_stmt
    1222              $C$DW$120       .dwtag  DW_TAG_TI_branch
    1223                      .dwattr $C$DW$120, DW_AT_low_pc(0x00)
    1224                      .dwattr $C$DW$120, DW_AT_name("_xTaskGetCurrentTaskHandle")
    1225                      .dwattr $C$DW$120, DW_AT_TI_call
    1226 000267 6C00          CALL #_xTaskGetCurrentTaskHandle ; |554| 
         000269 0000!
    1227                                                      ; call occurs [#_xTaskGetCurrentTaskHandle] ; |554| 
    1228 00026b ED10          MOV dbl(*SP(#8)), XAR3
         00026d BF   
    1229 00026e EB7D          MOV XAR0, dbl(*AR3(short(#6)))
         000270 85   
    1230                      .dwpsn  file "../FreeRTOS/Source/stream_buffer.c",line 555,column 5,is_stmt
    1231 000271 4A20          B $C$L42  ; |555| 
    1232                                                      ; branch occurs ; |555| 
    1233 000273       $C$DW$L$_xStreamBufferSend$22$E:
    1234 000273       $C$L41:    
    1235                      .dwpsn  file "../FreeRTOS/Source/stream_buffer.c",line 558,column 6,is_stmt
    1236 000273 A931          MOV *(#_usCriticalNesting), AR1 ; |558| 
         000275 0000 
         000277 00!  
    1237 000278 0409          BCC $C$L44,AR1 == #0 ; |558| 
         00027a 5B   
    1238                                                      ; branchcc occurs ; |558| 
    1239 00027b F731          SUB #1, *(#_usCriticalNesting) ; |558| 
         00027d FFFF 
         00027f 0000 
         000281 00!  
    1240 000282 20            NOP
    1241 000283 20            NOP
    1242 000284 20            NOP
    1243 000285 A931          MOV *(#_usCriticalNesting), AR1 ; |558| 
         000287 0000 
         000289 00!  
    1244 00028a 0419          BCC $C$L44,AR1 != #0 ; |558| 
         00028c 49   
    1245                                                      ; branchcc occurs ; |558| 
    1246 00028d 20     nop
    1247 00028e 46B2   bclr INTM
    1248                      .dwpsn  file "../FreeRTOS/Source/stream_buffer.c",line 559,column 6,is_stmt
    1249 000290 0600          B $C$L44  ; |559| 
         000292 43   
    1250                                                      ; branch occurs ; |559| 
    1251 000293       $C$L42:    
    1252 000293       $C$DW$L$_xStreamBufferSend$26$B:
    1253                      .dwpsn  file "../FreeRTOS/Source/stream_buffer.c",line 562,column 4,is_stmt
    1254 000293 A931          MOV *(#_usCriticalNesting), AR1 ; |562| 
         000295 0000 
         000297 00!  
TMS320C55x Assembler PC v4.4.1 Sat Oct 06 06:38:33 2018

Tools Copyright (c) 1996-2012 Texas Instruments Incorporated
stream_buffer.asm                                                    PAGE   26

    1255 000298 0409          BCC $C$L43,AR1 == #0 ; |562| 
         00029a 14   
    1256                                                      ; branchcc occurs ; |562| 
    1257 00029b       $C$DW$L$_xStreamBufferSend$26$E:
    1258 00029b       $C$DW$L$_xStreamBufferSend$27$B:
    1259 00029b F731          SUB #1, *(#_usCriticalNesting) ; |562| 
         00029d FFFF 
         00029f 0000 
         0002a1 00!  
    1260 0002a2 20            NOP
    1261 0002a3 20            NOP
    1262 0002a4 20            NOP
    1263 0002a5 A931          MOV *(#_usCriticalNesting), AR1 ; |562| 
         0002a7 0000 
         0002a9 00!  
    1264 0002aa 6199          BCC $C$L43,AR1 != #0 ; |562| 
    1265                                                      ; branchcc occurs ; |562| 
    1266 0002ac       $C$DW$L$_xStreamBufferSend$27$E:
    1267 0002ac       $C$DW$L$_xStreamBufferSend$28$B:
    1268 0002ac 20     nop
    1269 0002ad 46B2   bclr INTM
    1270 0002af       $C$DW$L$_xStreamBufferSend$28$E:
    1271 0002af       $C$L43:    
    1272 0002af       $C$DW$L$_xStreamBufferSend$29$B:
    1273                      .dwpsn  file "../FreeRTOS/Source/stream_buffer.c",line 565,column 4,is_stmt
    1274 0002af EC31          AMOV #0, XAR0 ; |565| 
         0002b1 8E00 
         0002b3 0000 
    1275              
    1276 0002b8 3D00          MOV #0, AC0 ; |565| 
    1277 0002b5 ED0C  ||      MOV dbl(*SP(#6)), AC2 ; |565| 
         0002b7 28   
    1278              
    1279              $C$DW$121       .dwtag  DW_TAG_TI_branch
    1280                      .dwattr $C$DW$121, DW_AT_low_pc(0x00)
    1281                      .dwattr $C$DW$121, DW_AT_name("_xTaskNotifyWait")
    1282                      .dwattr $C$DW$121, DW_AT_TI_call
    1283              
    1284 0002ba 6C00          CALL #_xTaskNotifyWait ; |565| 
         0002bc 0000!
    1285 0002be 3D01  ||      MOV #0, AC1 ; |565| 
    1286              
    1287                                                      ; call occurs [#_xTaskNotifyWait] ; |565| 
    1288                      .dwpsn  file "../FreeRTOS/Source/stream_buffer.c",line 566,column 4,is_stmt
    1289 0002c0 ED10          MOV dbl(*SP(#8)), XAR3
         0002c2 BF   
    1290 0002c3 3C00          MOV #0, AC0 ; |566| 
    1291 0002c5 EB7D          MOV AC0, dbl(*AR3(short(#6)))
         0002c7 08   
    1292                      .dwpsn  file "../FreeRTOS/Source/stream_buffer.c",line 568,column 12,is_stmt
    1293 0002c8 EC0C          AMAR *SP(#6), XAR1
         0002ca 9E   
    1294 0002cb EC1C          AMAR *SP(#14), XAR0
         0002cd 8E   
    1295              $C$DW$122       .dwtag  DW_TAG_TI_branch
TMS320C55x Assembler PC v4.4.1 Sat Oct 06 06:38:33 2018

Tools Copyright (c) 1996-2012 Texas Instruments Incorporated
stream_buffer.asm                                                    PAGE   27

    1296                      .dwattr $C$DW$122, DW_AT_low_pc(0x00)
    1297                      .dwattr $C$DW$122, DW_AT_name("_xTaskCheckForTimeOut")
    1298                      .dwattr $C$DW$122, DW_AT_TI_call
    1299 0002ce 6C00          CALL #_xTaskCheckForTimeOut ; |568| 
         0002d0 0000!
    1300                                                      ; call occurs [#_xTaskCheckForTimeOut] ; |568| 
    1301 0002d2 6D04          BCC $C$L37,T0 == #0 ; |568| 
         0002d4 FF56 
    1302                                                      ; branchcc occurs ; |568| 
    1303 0002d6       $C$DW$L$_xStreamBufferSend$29$E:
    1304                      .dwpsn  file "../FreeRTOS/Source/stream_buffer.c",line 569,column 2,is_stmt
    1305 0002d6       $C$L44:    
    1306                      .dwpsn  file "../FreeRTOS/Source/stream_buffer.c",line 575,column 2,is_stmt
    1307 0002d6 A916          MOV *SP(#11), AR1 ; |575| 
    1308 0002d8 6419          BCC $C$L45,AR1 != #0 ; |575| 
    1309                                                      ; branchcc occurs ; |575| 
    1310                      .dwpsn  file "../FreeRTOS/Source/stream_buffer.c",line 577,column 3,is_stmt
    1311 0002da ED10          MOV dbl(*SP(#8)), XAR0
         0002dc 8F   
    1312              $C$DW$123       .dwtag  DW_TAG_TI_branch
    1313                      .dwattr $C$DW$123, DW_AT_low_pc(0x00)
    1314                      .dwattr $C$DW$123, DW_AT_name("_xStreamBufferSpacesAvailable")
    1315                      .dwattr $C$DW$123, DW_AT_TI_call
    1316 0002dd 08FE          CALL #_xStreamBufferSpacesAvailable ; |577| 
         0002df 84   
    1317                                                      ; call occurs [#_xStreamBufferSpacesAvailable] ; |577| 
    1318 0002e0 C416          MOV T0, *SP(#11) ; |577| 
    1319                      .dwpsn  file "../FreeRTOS/Source/stream_buffer.c",line 578,column 2,is_stmt
    1320 0002e2       $C$L45:    
    1321                      .dwpsn  file "../FreeRTOS/Source/stream_buffer.c",line 584,column 2,is_stmt
    1322 0002e2 ED10          MOV dbl(*SP(#8)), XAR0
         0002e4 8F   
    1323 0002e5 ED04          MOV dbl(*SP(#2)), XAR1
         0002e7 9F   
    1324 0002e8 A408          MOV *SP(#4), T0 ; |584| 
    1325 0002ea A516          MOV *SP(#11), T1 ; |584| 
    1326 0002ec AA18          MOV *SP(#12), AR2 ; |584| 
    1327              $C$DW$124       .dwtag  DW_TAG_TI_branch
    1328                      .dwattr $C$DW$124, DW_AT_low_pc(0x00)
    1329                      .dwattr $C$DW$124, DW_AT_name("_prvWriteMessageToBuffer")
    1330                      .dwattr $C$DW$124, DW_AT_TI_call
    1331 0002ee 0800          CALL #_prvWriteMessageToBuffer ; |584| 
         0002f0 EF   
    1332                                                      ; call occurs [#_prvWriteMessageToBuffer] ; |584| 
    1333 0002f1 C414          MOV T0, *SP(#10) ; |584| 
    1334                      .dwpsn  file "../FreeRTOS/Source/stream_buffer.c",line 586,column 2,is_stmt
    1335 0002f3 2249          MOV T0, AR1
    1336 0002f5 0409          BCC $C$L47,AR1 == #0 ; |586| 
         0002f7 42   
    1337                                                      ; branchcc occurs ; |586| 
    1338                      .dwpsn  file "../FreeRTOS/Source/stream_buffer.c",line 591,column 3,is_stmt
    1339 0002f8 ED10          MOV dbl(*SP(#8)), XAR0
         0002fa 8F   
    1340              $C$DW$125       .dwtag  DW_TAG_TI_branch
    1341                      .dwattr $C$DW$125, DW_AT_low_pc(0x00)
TMS320C55x Assembler PC v4.4.1 Sat Oct 06 06:38:33 2018

Tools Copyright (c) 1996-2012 Texas Instruments Incorporated
stream_buffer.asm                                                    PAGE   28

    1342                      .dwattr $C$DW$125, DW_AT_name("_prvBytesInBuffer")
    1343                      .dwattr $C$DW$125, DW_AT_TI_call
    1344 0002fb 0806          CALL #_prvBytesInBuffer ; |591| 
         0002fd BE   
    1345                                                      ; call occurs [#_prvBytesInBuffer] ; |591| 
    1346 0002fe ED10          MOV dbl(*SP(#8)), XAR3
         000300 BF   
    1347 000301 A977          MOV *AR3(short(#3)), AR1 ; |591| 
    1348 000303 1244          CMPU T0 < AR1, TC1 ; |591| 
         000305 94   
    1349 000306 0464          BCC $C$L47,TC1 ; |591| 
         000308 31   
    1350                                                      ; branchcc occurs ; |591| 
    1351                      .dwpsn  file "../FreeRTOS/Source/stream_buffer.c",line 593,column 4,is_stmt
    1352              $C$DW$126       .dwtag  DW_TAG_TI_branch
    1353                      .dwattr $C$DW$126, DW_AT_low_pc(0x00)
    1354                      .dwattr $C$DW$126, DW_AT_name("_vTaskSuspendAll")
    1355                      .dwattr $C$DW$126, DW_AT_TI_call
    1356 000309 6C00          CALL #_vTaskSuspendAll ; |593| 
         00030b 0000!
    1357                                                      ; call occurs [#_vTaskSuspendAll] ; |593| 
    1358 00030d ED10          MOV dbl(*SP(#8)), XAR3
         00030f BF   
    1359 000310 ED79          MOV dbl(*AR3(short(#4))), XAR3
         000312 BF   
    1360 000313 90B0          MOV XAR3, AC0
    1361 000315 0400          BCC $C$L46,AC0 == #0 ; |593| 
         000317 1C   
    1362                                                      ; branchcc occurs ; |593| 
    1363 000318 ED10          MOV dbl(*SP(#8)), XAR3
         00031a BF   
    1364 00031b EC31          AMOV #0, XAR1 ; |593| 
         00031d 9E00 
         00031f 0000 
    1365 000321 3C00          MOV #0, AC0 ; |593| 
    1366 000323 ED79          MOV dbl(*AR3(short(#4))), XAR0
         000325 8F   
    1367              $C$DW$127       .dwtag  DW_TAG_TI_branch
    1368                      .dwattr $C$DW$127, DW_AT_low_pc(0x00)
    1369                      .dwattr $C$DW$127, DW_AT_name("_xTaskGenericNotify")
    1370                      .dwattr $C$DW$127, DW_AT_TI_call
    1371              
    1372 000326 6C00          CALL #_xTaskGenericNotify ; |593| 
         000328 0000!
    1373 00032a 3D04  ||      MOV #0, T0
    1374              
    1375                                                      ; call occurs [#_xTaskGenericNotify] ; |593| 
    1376 00032c ED10          MOV dbl(*SP(#8)), XAR3
         00032e BF   
    1377 00032f 3C00          MOV #0, AC0 ; |593| 
    1378 000331 EB79          MOV AC0, dbl(*AR3(short(#4)))
         000333 08   
    1379              $C$L46:    
    1380              $C$DW$128       .dwtag  DW_TAG_TI_branch
    1381                      .dwattr $C$DW$128, DW_AT_low_pc(0x00)
TMS320C55x Assembler PC v4.4.1 Sat Oct 06 06:38:33 2018

Tools Copyright (c) 1996-2012 Texas Instruments Incorporated
stream_buffer.asm                                                    PAGE   29

    1382                      .dwattr $C$DW$128, DW_AT_name("_xTaskResumeAll")
    1383                      .dwattr $C$DW$128, DW_AT_TI_call
    1384 000334 6C00          CALL #_xTaskResumeAll ; |593| 
         000336 0000!
    1385                                                      ; call occurs [#_xTaskResumeAll] ; |593| 
    1386                      .dwpsn  file "../FreeRTOS/Source/stream_buffer.c",line 594,column 3,is_stmt
    1387 000338 4A00          B $C$L47  ; |594| 
    1388                                                      ; branch occurs ; |594| 
    1389 00033a       $C$L47:    
    1390                      .dwpsn  file "../FreeRTOS/Source/stream_buffer.c",line 606,column 2,is_stmt
    1391 00033a A414          MOV *SP(#10), T0 ; |606| 
    1392                      .dwpsn  file "../FreeRTOS/Source/stream_buffer.c",line 607,column 1,is_stmt
    1393 00033c 4E13          AADD #19, SP
    1394                      .dwcfi  cfa_offset, 1
    1395              $C$DW$129       .dwtag  DW_TAG_TI_branch
    1396                      .dwattr $C$DW$129, DW_AT_low_pc(0x00)
    1397                      .dwattr $C$DW$129, DW_AT_TI_return
    1398 00033e 4804          RET
    1399                                                      ; return occurs
    1400              
    1401              $C$DW$130       .dwtag  DW_TAG_TI_loop
    1402                      .dwattr $C$DW$130, DW_AT_name("F:\eZdsp_DBG\tmp1\c55x-sim2\foo\Debug\stream_buffer.asm:$C$L39:1:15388
    1403                      .dwattr $C$DW$130, DW_AT_TI_begin_file("../FreeRTOS/Source/stream_buffer.c")
    1404                      .dwattr $C$DW$130, DW_AT_TI_begin_line(0x229)
    1405                      .dwattr $C$DW$130, DW_AT_TI_end_line(0x229)
    1406              $C$DW$131       .dwtag  DW_TAG_TI_loop_range
    1407                      .dwattr $C$DW$131, DW_AT_low_pc($C$DW$L$_xStreamBufferSend$21$B)
    1408                      .dwattr $C$DW$131, DW_AT_high_pc($C$DW$L$_xStreamBufferSend$21$E)
    1409                      .dwendtag $C$DW$130
    1410              
    1411              
    1412              $C$DW$132       .dwtag  DW_TAG_TI_loop
    1413                      .dwattr $C$DW$132, DW_AT_name("F:\eZdsp_DBG\tmp1\c55x-sim2\foo\Debug\stream_buffer.asm:$C$L37:1:15388
    1414                      .dwattr $C$DW$132, DW_AT_TI_begin_file("../FreeRTOS/Source/stream_buffer.c")
    1415                      .dwattr $C$DW$132, DW_AT_TI_begin_line(0x21b)
    1416                      .dwattr $C$DW$132, DW_AT_TI_end_line(0x238)
    1417              $C$DW$133       .dwtag  DW_TAG_TI_loop_range
    1418                      .dwattr $C$DW$133, DW_AT_low_pc($C$DW$L$_xStreamBufferSend$16$B)
    1419                      .dwattr $C$DW$133, DW_AT_high_pc($C$DW$L$_xStreamBufferSend$16$E)
    1420              $C$DW$134       .dwtag  DW_TAG_TI_loop_range
    1421                      .dwattr $C$DW$134, DW_AT_low_pc($C$DW$L$_xStreamBufferSend$17$B)
    1422                      .dwattr $C$DW$134, DW_AT_high_pc($C$DW$L$_xStreamBufferSend$17$E)
    1423              $C$DW$135       .dwtag  DW_TAG_TI_loop_range
    1424                      .dwattr $C$DW$135, DW_AT_low_pc($C$DW$L$_xStreamBufferSend$18$B)
    1425                      .dwattr $C$DW$135, DW_AT_high_pc($C$DW$L$_xStreamBufferSend$18$E)
    1426              $C$DW$136       .dwtag  DW_TAG_TI_loop_range
    1427                      .dwattr $C$DW$136, DW_AT_low_pc($C$DW$L$_xStreamBufferSend$19$B)
    1428                      .dwattr $C$DW$136, DW_AT_high_pc($C$DW$L$_xStreamBufferSend$19$E)
    1429              $C$DW$137       .dwtag  DW_TAG_TI_loop_range
    1430                      .dwattr $C$DW$137, DW_AT_low_pc($C$DW$L$_xStreamBufferSend$22$B)
    1431                      .dwattr $C$DW$137, DW_AT_high_pc($C$DW$L$_xStreamBufferSend$22$E)
    1432              $C$DW$138       .dwtag  DW_TAG_TI_loop_range
    1433                      .dwattr $C$DW$138, DW_AT_low_pc($C$DW$L$_xStreamBufferSend$26$B)
    1434                      .dwattr $C$DW$138, DW_AT_high_pc($C$DW$L$_xStreamBufferSend$26$E)
    1435              $C$DW$139       .dwtag  DW_TAG_TI_loop_range
TMS320C55x Assembler PC v4.4.1 Sat Oct 06 06:38:33 2018

Tools Copyright (c) 1996-2012 Texas Instruments Incorporated
stream_buffer.asm                                                    PAGE   30

    1436                      .dwattr $C$DW$139, DW_AT_low_pc($C$DW$L$_xStreamBufferSend$27$B)
    1437                      .dwattr $C$DW$139, DW_AT_high_pc($C$DW$L$_xStreamBufferSend$27$E)
    1438              $C$DW$140       .dwtag  DW_TAG_TI_loop_range
    1439                      .dwattr $C$DW$140, DW_AT_low_pc($C$DW$L$_xStreamBufferSend$28$B)
    1440                      .dwattr $C$DW$140, DW_AT_high_pc($C$DW$L$_xStreamBufferSend$28$E)
    1441              $C$DW$141       .dwtag  DW_TAG_TI_loop_range
    1442                      .dwattr $C$DW$141, DW_AT_low_pc($C$DW$L$_xStreamBufferSend$29$B)
    1443                      .dwattr $C$DW$141, DW_AT_high_pc($C$DW$L$_xStreamBufferSend$29$E)
    1444                      .dwendtag $C$DW$132
    1445              
    1446              
    1447              $C$DW$142       .dwtag  DW_TAG_TI_loop
    1448                      .dwattr $C$DW$142, DW_AT_name("F:\eZdsp_DBG\tmp1\c55x-sim2\foo\Debug\stream_buffer.asm:$C$L35:1:15388
    1449                      .dwattr $C$DW$142, DW_AT_TI_begin_file("../FreeRTOS/Source/stream_buffer.c")
    1450                      .dwattr $C$DW$142, DW_AT_TI_begin_line(0x210)
    1451                      .dwattr $C$DW$142, DW_AT_TI_end_line(0x210)
    1452              $C$DW$143       .dwtag  DW_TAG_TI_loop_range
    1453                      .dwattr $C$DW$143, DW_AT_low_pc($C$DW$L$_xStreamBufferSend$12$B)
    1454                      .dwattr $C$DW$143, DW_AT_high_pc($C$DW$L$_xStreamBufferSend$12$E)
    1455                      .dwendtag $C$DW$142
    1456              
    1457              
    1458              $C$DW$144       .dwtag  DW_TAG_TI_loop
    1459                      .dwattr $C$DW$144, DW_AT_name("F:\eZdsp_DBG\tmp1\c55x-sim2\foo\Debug\stream_buffer.asm:$C$L32:1:15388
    1460                      .dwattr $C$DW$144, DW_AT_TI_begin_file("../FreeRTOS/Source/stream_buffer.c")
    1461                      .dwattr $C$DW$144, DW_AT_TI_begin_line(0x205)
    1462                      .dwattr $C$DW$144, DW_AT_TI_end_line(0x205)
    1463              $C$DW$145       .dwtag  DW_TAG_TI_loop_range
    1464                      .dwattr $C$DW$145, DW_AT_low_pc($C$DW$L$_xStreamBufferSend$6$B)
    1465                      .dwattr $C$DW$145, DW_AT_high_pc($C$DW$L$_xStreamBufferSend$6$E)
    1466                      .dwendtag $C$DW$144
    1467              
    1468              
    1469              $C$DW$146       .dwtag  DW_TAG_TI_loop
    1470                      .dwattr $C$DW$146, DW_AT_name("F:\eZdsp_DBG\tmp1\c55x-sim2\foo\Debug\stream_buffer.asm:$C$L30:1:15388
    1471                      .dwattr $C$DW$146, DW_AT_TI_begin_file("../FreeRTOS/Source/stream_buffer.c")
    1472                      .dwattr $C$DW$146, DW_AT_TI_begin_line(0x204)
    1473                      .dwattr $C$DW$146, DW_AT_TI_end_line(0x204)
    1474              $C$DW$147       .dwtag  DW_TAG_TI_loop_range
    1475                      .dwattr $C$DW$147, DW_AT_low_pc($C$DW$L$_xStreamBufferSend$3$B)
    1476                      .dwattr $C$DW$147, DW_AT_high_pc($C$DW$L$_xStreamBufferSend$3$E)
    1477                      .dwendtag $C$DW$146
    1478              
    1479                      .dwattr $C$DW$103, DW_AT_TI_end_file("../FreeRTOS/Source/stream_buffer.c")
    1480                      .dwattr $C$DW$103, DW_AT_TI_end_line(0x25f)
    1481                      .dwattr $C$DW$103, DW_AT_TI_end_column(0x01)
    1482                      .dwendentry
    1483                      .dwendtag $C$DW$103
    1484              
    1485 000340               .sect   ".text"
    1486                      .align 4
    1487                      .global _xStreamBufferSendFromISR
    1488              
    1489              $C$DW$148       .dwtag  DW_TAG_subprogram, DW_AT_name("xStreamBufferSendFromISR")
    1490                      .dwattr $C$DW$148, DW_AT_low_pc(_xStreamBufferSendFromISR)
TMS320C55x Assembler PC v4.4.1 Sat Oct 06 06:38:33 2018

Tools Copyright (c) 1996-2012 Texas Instruments Incorporated
stream_buffer.asm                                                    PAGE   31

    1491                      .dwattr $C$DW$148, DW_AT_high_pc(0x00)
    1492                      .dwattr $C$DW$148, DW_AT_TI_symbol_name("_xStreamBufferSendFromISR")
    1493                      .dwattr $C$DW$148, DW_AT_external
    1494                      .dwattr $C$DW$148, DW_AT_type(*$C$DW$T$20)
    1495                      .dwattr $C$DW$148, DW_AT_TI_begin_file("../FreeRTOS/Source/stream_buffer.c")
    1496                      .dwattr $C$DW$148, DW_AT_TI_begin_line(0x262)
    1497                      .dwattr $C$DW$148, DW_AT_TI_begin_column(0x08)
    1498                      .dwattr $C$DW$148, DW_AT_TI_max_frame_size(0x10)
    1499                      .dwpsn  file "../FreeRTOS/Source/stream_buffer.c",line 614,column 1,is_stmt,address _xStreamBufferSen
    1500              
    1501                      .dwfde $C$DW$CIE, _xStreamBufferSendFromISR
    1502              $C$DW$149       .dwtag  DW_TAG_formal_parameter, DW_AT_name("xStreamBuffer")
    1503                      .dwattr $C$DW$149, DW_AT_TI_symbol_name("_xStreamBuffer")
    1504                      .dwattr $C$DW$149, DW_AT_type(*$C$DW$T$40)
    1505                      .dwattr $C$DW$149, DW_AT_location[DW_OP_reg17]
    1506              $C$DW$150       .dwtag  DW_TAG_formal_parameter, DW_AT_name("pvTxData")
    1507                      .dwattr $C$DW$150, DW_AT_TI_symbol_name("_pvTxData")
    1508                      .dwattr $C$DW$150, DW_AT_type(*$C$DW$T$43)
    1509                      .dwattr $C$DW$150, DW_AT_location[DW_OP_reg19]
    1510              $C$DW$151       .dwtag  DW_TAG_formal_parameter, DW_AT_name("xDataLengthBytes")
    1511                      .dwattr $C$DW$151, DW_AT_TI_symbol_name("_xDataLengthBytes")
    1512                      .dwattr $C$DW$151, DW_AT_type(*$C$DW$T$20)
    1513                      .dwattr $C$DW$151, DW_AT_location[DW_OP_reg12]
    1514              $C$DW$152       .dwtag  DW_TAG_formal_parameter, DW_AT_name("pxHigherPriorityTaskWoken")
    1515                      .dwattr $C$DW$152, DW_AT_TI_symbol_name("_pxHigherPriorityTaskWoken")
    1516                      .dwattr $C$DW$152, DW_AT_type(*$C$DW$T$72)
    1517                      .dwattr $C$DW$152, DW_AT_location[DW_OP_reg21]
    1518              ;*******************************************************************************
    1519              ;* FUNCTION NAME: xStreamBufferSendFromISR                                     *
    1520              ;*                                                                             *
    1521              ;*   Function Uses Regs : AC0,AC0,T0,T1,AR0,XAR0,AR1,XAR1,AR2,XAR2,AR3,XAR3,SP,*
    1522              ;*                        CARRY,TC1,M40,SATA,SATD,RDM,FRCT,SMUL                *
    1523              ;*   Stack Frame        : Compact (No Frame Pointer, w/ debug)                 *
    1524              ;*   Total Frame Size   : 16 words                                             *
    1525              ;*                        (2 return address/alignment)                         *
    1526              ;*                        (14 local values)                                    *
    1527              ;*   Min System Stack   : 1 word                                               *
    1528              ;*******************************************************************************
    1529 000340       _xStreamBufferSendFromISR:
    1530                      .dwcfi  cfa_offset, 1
    1531                      .dwcfi  save_reg_to_mem, 91, -1
    1532 000340 4EF1          AADD #-15, SP
    1533                      .dwcfi  cfa_offset, 16
    1534              $C$DW$153       .dwtag  DW_TAG_variable, DW_AT_name("xStreamBuffer")
    1535                      .dwattr $C$DW$153, DW_AT_TI_symbol_name("_xStreamBuffer")
    1536                      .dwattr $C$DW$153, DW_AT_type(*$C$DW$T$40)
    1537                      .dwattr $C$DW$153, DW_AT_location[DW_OP_bregx 0x24 0]
    1538              $C$DW$154       .dwtag  DW_TAG_variable, DW_AT_name("pvTxData")
    1539                      .dwattr $C$DW$154, DW_AT_TI_symbol_name("_pvTxData")
    1540                      .dwattr $C$DW$154, DW_AT_type(*$C$DW$T$43)
    1541                      .dwattr $C$DW$154, DW_AT_location[DW_OP_bregx 0x24 2]
    1542              $C$DW$155       .dwtag  DW_TAG_variable, DW_AT_name("xDataLengthBytes")
    1543                      .dwattr $C$DW$155, DW_AT_TI_symbol_name("_xDataLengthBytes")
    1544                      .dwattr $C$DW$155, DW_AT_type(*$C$DW$T$20)
    1545                      .dwattr $C$DW$155, DW_AT_location[DW_OP_bregx 0x24 4]
TMS320C55x Assembler PC v4.4.1 Sat Oct 06 06:38:33 2018

Tools Copyright (c) 1996-2012 Texas Instruments Incorporated
stream_buffer.asm                                                    PAGE   32

    1546              $C$DW$156       .dwtag  DW_TAG_variable, DW_AT_name("pxHigherPriorityTaskWoken")
    1547                      .dwattr $C$DW$156, DW_AT_TI_symbol_name("_pxHigherPriorityTaskWoken")
    1548                      .dwattr $C$DW$156, DW_AT_type(*$C$DW$T$72)
    1549                      .dwattr $C$DW$156, DW_AT_location[DW_OP_bregx 0x24 6]
    1550              $C$DW$157       .dwtag  DW_TAG_variable, DW_AT_name("pxStreamBuffer")
    1551                      .dwattr $C$DW$157, DW_AT_TI_symbol_name("_pxStreamBuffer")
    1552                      .dwattr $C$DW$157, DW_AT_type(*$C$DW$T$38)
    1553                      .dwattr $C$DW$157, DW_AT_location[DW_OP_bregx 0x24 8]
    1554              $C$DW$158       .dwtag  DW_TAG_variable, DW_AT_name("xReturn")
    1555                      .dwattr $C$DW$158, DW_AT_TI_symbol_name("_xReturn")
    1556                      .dwattr $C$DW$158, DW_AT_type(*$C$DW$T$20)
    1557                      .dwattr $C$DW$158, DW_AT_location[DW_OP_bregx 0x24 10]
    1558              $C$DW$159       .dwtag  DW_TAG_variable, DW_AT_name("xSpace")
    1559                      .dwattr $C$DW$159, DW_AT_TI_symbol_name("_xSpace")
    1560                      .dwattr $C$DW$159, DW_AT_type(*$C$DW$T$20)
    1561                      .dwattr $C$DW$159, DW_AT_location[DW_OP_bregx 0x24 11]
    1562              $C$DW$160       .dwtag  DW_TAG_variable, DW_AT_name("xRequiredSpace")
    1563                      .dwattr $C$DW$160, DW_AT_TI_symbol_name("_xRequiredSpace")
    1564                      .dwattr $C$DW$160, DW_AT_type(*$C$DW$T$20)
    1565                      .dwattr $C$DW$160, DW_AT_location[DW_OP_bregx 0x24 12]
    1566 000342 EB0C          MOV XAR2, dbl(*SP(#6))
         000344 A5   
    1567 000345 C408          MOV T0, *SP(#4) ; |614| 
    1568 000347 EB04          MOV XAR1, dbl(*SP(#2))
         000349 95   
    1569 00034a EB00          MOV XAR0, dbl(*SP(#0))
         00034c 85   
    1570                      .dwpsn  file "../FreeRTOS/Source/stream_buffer.c",line 615,column 24,is_stmt
    1571 00034d ED00          MOV dbl(*SP(#0)), XAR3
         00034f BF   
    1572 000350 EB10          MOV XAR3, dbl(*SP(#8))
         000352 B5   
    1573                      .dwpsn  file "../FreeRTOS/Source/stream_buffer.c",line 617,column 8,is_stmt
    1574 000353 A908          MOV *SP(#4), AR1 ; |617| 
    1575 000355 C918          MOV AR1, *SP(#12) ; |617| 
    1576                      .dwpsn  file "../FreeRTOS/Source/stream_buffer.c",line 619,column 2,is_stmt
    1577 000357 ED04          MOV dbl(*SP(#2)), XAR3
         000359 BF   
    1578 00035a 90B0          MOV XAR3, AC0
    1579 00035c 6290          BCC $C$L49,AC0 != #0 ; |619| 
    1580                                                      ; branchcc occurs ; |619| 
    1581 00035e 20     nop
    1582 00035f 46B3   bset INTM
    1583 000361       $C$L48:    
    1584 000361       $C$DW$L$_xStreamBufferSendFromISR$3$B:
    1585 000361 4A7E          B $C$L48  ; |619| 
    1586                                                      ; branch occurs ; |619| 
    1587 000363       $C$DW$L$_xStreamBufferSendFromISR$3$E:
    1588 000363       $C$L49:    
    1589                      .dwpsn  file "../FreeRTOS/Source/stream_buffer.c",line 620,column 2,is_stmt
    1590 000363 ED10          MOV dbl(*SP(#8)), XAR3
         000365 BF   
    1591 000366 90B0          MOV XAR3, AC0
    1592 000368 6290          BCC $C$L51,AC0 != #0 ; |620| 
    1593                                                      ; branchcc occurs ; |620| 
TMS320C55x Assembler PC v4.4.1 Sat Oct 06 06:38:33 2018

Tools Copyright (c) 1996-2012 Texas Instruments Incorporated
stream_buffer.asm                                                    PAGE   33

    1594 00036a 20     nop
    1595 00036b 46B3   bset INTM
    1596 00036d       $C$L50:    
    1597 00036d       $C$DW$L$_xStreamBufferSendFromISR$6$B:
    1598 00036d 4A7E          B $C$L50  ; |620| 
    1599                                                      ; branch occurs ; |620| 
    1600 00036f       $C$DW$L$_xStreamBufferSendFromISR$6$E:
    1601 00036f       $C$L51:    
    1602                      .dwpsn  file "../FreeRTOS/Source/stream_buffer.c",line 626,column 2,is_stmt
    1603 00036f DC6D          BTST #0, *AR3(#10), TC1 ; |626| 
         000371 0000 
         000373 0A   
    1604 000374 6274          BCC $C$L52,!TC1 ; |626| 
    1605                                                      ; branchcc occurs ; |626| 
    1606                      .dwpsn  file "../FreeRTOS/Source/stream_buffer.c",line 628,column 3,is_stmt
    1607 000376 F718          ADD #1, *SP(#12) ; |628| 
         000378 0001 
    1608                      .dwpsn  file "../FreeRTOS/Source/stream_buffer.c",line 629,column 2,is_stmt
    1609 00037a       $C$L52:    
    1610                      .dwpsn  file "../FreeRTOS/Source/stream_buffer.c",line 635,column 2,is_stmt
    1611 00037a ED10          MOV dbl(*SP(#8)), XAR0
         00037c 8F   
    1612              $C$DW$161       .dwtag  DW_TAG_TI_branch
    1613                      .dwattr $C$DW$161, DW_AT_low_pc(0x00)
    1614                      .dwattr $C$DW$161, DW_AT_name("_xStreamBufferSpacesAvailable")
    1615                      .dwattr $C$DW$161, DW_AT_TI_call
    1616 00037d 08FD          CALL #_xStreamBufferSpacesAvailable ; |635| 
         00037f E4   
    1617                                                      ; call occurs [#_xStreamBufferSpacesAvailable] ; |635| 
    1618 000380 C416          MOV T0, *SP(#11) ; |635| 
    1619                      .dwpsn  file "../FreeRTOS/Source/stream_buffer.c",line 636,column 2,is_stmt
    1620 000382 A516          MOV *SP(#11), T1 ; |636| 
    1621 000384 ED04          MOV dbl(*SP(#2)), XAR1
         000386 9F   
    1622 000387 AA18          MOV *SP(#12), AR2 ; |636| 
    1623 000389 A408          MOV *SP(#4), T0 ; |636| 
    1624 00038b ED10          MOV dbl(*SP(#8)), XAR0
         00038d 8F   
    1625              $C$DW$162       .dwtag  DW_TAG_TI_branch
    1626                      .dwattr $C$DW$162, DW_AT_low_pc(0x00)
    1627                      .dwattr $C$DW$162, DW_AT_name("_prvWriteMessageToBuffer")
    1628                      .dwattr $C$DW$162, DW_AT_TI_call
    1629 00038e 0800          CALL #_prvWriteMessageToBuffer ; |636| 
         000390 4F   
    1630                                                      ; call occurs [#_prvWriteMessageToBuffer] ; |636| 
    1631 000391 C414          MOV T0, *SP(#10) ; |636| 
    1632                      .dwpsn  file "../FreeRTOS/Source/stream_buffer.c",line 638,column 2,is_stmt
    1633 000393 2249          MOV T0, AR1
    1634 000395 0409          BCC $C$L53,AR1 == #0 ; |638| 
         000397 40   
    1635                                                      ; branchcc occurs ; |638| 
    1636                      .dwpsn  file "../FreeRTOS/Source/stream_buffer.c",line 641,column 3,is_stmt
    1637 000398 ED10          MOV dbl(*SP(#8)), XAR0
         00039a 8F   
    1638              $C$DW$163       .dwtag  DW_TAG_TI_branch
TMS320C55x Assembler PC v4.4.1 Sat Oct 06 06:38:33 2018

Tools Copyright (c) 1996-2012 Texas Instruments Incorporated
stream_buffer.asm                                                    PAGE   34

    1639                      .dwattr $C$DW$163, DW_AT_low_pc(0x00)
    1640                      .dwattr $C$DW$163, DW_AT_name("_prvBytesInBuffer")
    1641                      .dwattr $C$DW$163, DW_AT_TI_call
    1642 00039b 0806          CALL #_prvBytesInBuffer ; |641| 
         00039d 1E   
    1643                                                      ; call occurs [#_prvBytesInBuffer] ; |641| 
    1644 00039e ED10          MOV dbl(*SP(#8)), XAR3
         0003a0 BF   
    1645 0003a1 A977          MOV *AR3(short(#3)), AR1 ; |641| 
    1646 0003a3 1244          CMPU T0 < AR1, TC1 ; |641| 
         0003a5 94   
    1647 0003a6 0464          BCC $C$L53,TC1 ; |641| 
         0003a8 2F   
    1648                                                      ; branchcc occurs ; |641| 
    1649              
    1650              $C$DW$164       .dwtag  DW_TAG_lexical_block, DW_AT_low_pc(0x00), DW_AT_high_pc(0x00)
    1651              $C$DW$165       .dwtag  DW_TAG_variable, DW_AT_name("uxSavedInterruptStatus")
    1652                      .dwattr $C$DW$165, DW_AT_TI_symbol_name("_uxSavedInterruptStatus")
    1653                      .dwattr $C$DW$165, DW_AT_type(*$C$DW$T$86)
    1654                      .dwattr $C$DW$165, DW_AT_location[DW_OP_bregx 0x24 13]
    1655                      .dwpsn  file "../FreeRTOS/Source/stream_buffer.c",line 643,column 4,is_stmt
    1656 0003a9 E61A          MOV #0, *SP(#13) ; |643| 
         0003ab 00   
    1657 0003ac ED10          MOV dbl(*SP(#8)), XAR3
         0003ae BF   
    1658 0003af ED79          MOV dbl(*AR3(short(#4))), XAR3
         0003b1 BF   
    1659 0003b2 90B0          MOV XAR3, AC0
    1660 0003b4 0400          BCC $C$L53,AC0 == #0 ; |643| 
         0003b6 21   
    1661                                                      ; branchcc occurs ; |643| 
    1662 0003b7 ED10          MOV dbl(*SP(#8)), XAR3
         0003b9 BF   
    1663 0003ba ED0C          MOV dbl(*SP(#6)), XAR2
         0003bc AF   
    1664 0003bd EC31          AMOV #0, XAR1 ; |643| 
         0003bf 9E00 
         0003c1 0000 
    1665 0003c3 3C00          MOV #0, AC0 ; |643| 
    1666 0003c5 ED79          MOV dbl(*AR3(short(#4))), XAR0
         0003c7 8F   
    1667              $C$DW$166       .dwtag  DW_TAG_TI_branch
    1668                      .dwattr $C$DW$166, DW_AT_low_pc(0x00)
    1669                      .dwattr $C$DW$166, DW_AT_name("_xTaskGenericNotifyFromISR")
    1670                      .dwattr $C$DW$166, DW_AT_TI_call
    1671              
    1672 0003c8 6C00          CALL #_xTaskGenericNotifyFromISR ; |643| 
         0003ca 0000!
    1673 0003cc 3D04  ||      MOV #0, T0
    1674              
    1675                                                      ; call occurs [#_xTaskGenericNotifyFromISR] ; |643| 
    1676 0003ce ED10          MOV dbl(*SP(#8)), XAR3
         0003d0 BF   
    1677 0003d1 3C00          MOV #0, AC0 ; |643| 
    1678 0003d3 EB79          MOV AC0, dbl(*AR3(short(#4)))
TMS320C55x Assembler PC v4.4.1 Sat Oct 06 06:38:33 2018

Tools Copyright (c) 1996-2012 Texas Instruments Incorporated
stream_buffer.asm                                                    PAGE   35

         0003d5 08   
    1679                      .dwendtag $C$DW$164
    1680              
    1681                      .dwpsn  file "../FreeRTOS/Source/stream_buffer.c",line 644,column 3,is_stmt
    1682 0003d6 4A00          B $C$L53  ; |644| 
    1683                                                      ; branch occurs ; |644| 
    1684 0003d8       $C$L53:    
    1685                      .dwpsn  file "../FreeRTOS/Source/stream_buffer.c",line 657,column 2,is_stmt
    1686 0003d8 A414          MOV *SP(#10), T0 ; |657| 
    1687                      .dwpsn  file "../FreeRTOS/Source/stream_buffer.c",line 658,column 1,is_stmt
    1688 0003da 4E0F          AADD #15, SP
    1689                      .dwcfi  cfa_offset, 1
    1690              $C$DW$167       .dwtag  DW_TAG_TI_branch
    1691                      .dwattr $C$DW$167, DW_AT_low_pc(0x00)
    1692                      .dwattr $C$DW$167, DW_AT_TI_return
    1693 0003dc 4804          RET
    1694                                                      ; return occurs
    1695              
    1696              $C$DW$168       .dwtag  DW_TAG_TI_loop
    1697                      .dwattr $C$DW$168, DW_AT_name("F:\eZdsp_DBG\tmp1\c55x-sim2\foo\Debug\stream_buffer.asm:$C$L50:1:15388
    1698                      .dwattr $C$DW$168, DW_AT_TI_begin_file("../FreeRTOS/Source/stream_buffer.c")
    1699                      .dwattr $C$DW$168, DW_AT_TI_begin_line(0x26c)
    1700                      .dwattr $C$DW$168, DW_AT_TI_end_line(0x26c)
    1701              $C$DW$169       .dwtag  DW_TAG_TI_loop_range
    1702                      .dwattr $C$DW$169, DW_AT_low_pc($C$DW$L$_xStreamBufferSendFromISR$6$B)
    1703                      .dwattr $C$DW$169, DW_AT_high_pc($C$DW$L$_xStreamBufferSendFromISR$6$E)
    1704                      .dwendtag $C$DW$168
    1705              
    1706              
    1707              $C$DW$170       .dwtag  DW_TAG_TI_loop
    1708                      .dwattr $C$DW$170, DW_AT_name("F:\eZdsp_DBG\tmp1\c55x-sim2\foo\Debug\stream_buffer.asm:$C$L48:1:15388
    1709                      .dwattr $C$DW$170, DW_AT_TI_begin_file("../FreeRTOS/Source/stream_buffer.c")
    1710                      .dwattr $C$DW$170, DW_AT_TI_begin_line(0x26b)
    1711                      .dwattr $C$DW$170, DW_AT_TI_end_line(0x26b)
    1712              $C$DW$171       .dwtag  DW_TAG_TI_loop_range
    1713                      .dwattr $C$DW$171, DW_AT_low_pc($C$DW$L$_xStreamBufferSendFromISR$3$B)
    1714                      .dwattr $C$DW$171, DW_AT_high_pc($C$DW$L$_xStreamBufferSendFromISR$3$E)
    1715                      .dwendtag $C$DW$170
    1716              
    1717                      .dwattr $C$DW$148, DW_AT_TI_end_file("../FreeRTOS/Source/stream_buffer.c")
    1718                      .dwattr $C$DW$148, DW_AT_TI_end_line(0x292)
    1719                      .dwattr $C$DW$148, DW_AT_TI_end_column(0x01)
    1720                      .dwendentry
    1721                      .dwendtag $C$DW$148
    1722              
    1723 0003de               .sect   ".text"
    1724                      .align 4
    1725              
    1726              $C$DW$172       .dwtag  DW_TAG_subprogram, DW_AT_name("prvWriteMessageToBuffer")
    1727                      .dwattr $C$DW$172, DW_AT_low_pc(_prvWriteMessageToBuffer)
    1728                      .dwattr $C$DW$172, DW_AT_high_pc(0x00)
    1729                      .dwattr $C$DW$172, DW_AT_TI_symbol_name("_prvWriteMessageToBuffer")
    1730                      .dwattr $C$DW$172, DW_AT_type(*$C$DW$T$20)
    1731                      .dwattr $C$DW$172, DW_AT_TI_begin_file("../FreeRTOS/Source/stream_buffer.c")
    1732                      .dwattr $C$DW$172, DW_AT_TI_begin_line(0x295)
TMS320C55x Assembler PC v4.4.1 Sat Oct 06 06:38:33 2018

Tools Copyright (c) 1996-2012 Texas Instruments Incorporated
stream_buffer.asm                                                    PAGE   36

    1733                      .dwattr $C$DW$172, DW_AT_TI_begin_column(0x0f)
    1734                      .dwattr $C$DW$172, DW_AT_TI_max_frame_size(0x0a)
    1735                      .dwpsn  file "../FreeRTOS/Source/stream_buffer.c",line 666,column 1,is_stmt,address _prvWriteMessageT
    1736              
    1737                      .dwfde $C$DW$CIE, _prvWriteMessageToBuffer
    1738              $C$DW$173       .dwtag  DW_TAG_formal_parameter, DW_AT_name("pxStreamBuffer")
    1739                      .dwattr $C$DW$173, DW_AT_TI_symbol_name("_pxStreamBuffer")
    1740                      .dwattr $C$DW$173, DW_AT_type(*$C$DW$T$38)
    1741                      .dwattr $C$DW$173, DW_AT_location[DW_OP_reg17]
    1742              $C$DW$174       .dwtag  DW_TAG_formal_parameter, DW_AT_name("pvTxData")
    1743                      .dwattr $C$DW$174, DW_AT_TI_symbol_name("_pvTxData")
    1744                      .dwattr $C$DW$174, DW_AT_type(*$C$DW$T$43)
    1745                      .dwattr $C$DW$174, DW_AT_location[DW_OP_reg19]
    1746              $C$DW$175       .dwtag  DW_TAG_formal_parameter, DW_AT_name("xDataLengthBytes")
    1747                      .dwattr $C$DW$175, DW_AT_TI_symbol_name("_xDataLengthBytes")
    1748                      .dwattr $C$DW$175, DW_AT_type(*$C$DW$T$20)
    1749                      .dwattr $C$DW$175, DW_AT_location[DW_OP_reg12]
    1750              $C$DW$176       .dwtag  DW_TAG_formal_parameter, DW_AT_name("xSpace")
    1751                      .dwattr $C$DW$176, DW_AT_TI_symbol_name("_xSpace")
    1752                      .dwattr $C$DW$176, DW_AT_type(*$C$DW$T$20)
    1753                      .dwattr $C$DW$176, DW_AT_location[DW_OP_reg13]
    1754              $C$DW$177       .dwtag  DW_TAG_formal_parameter, DW_AT_name("xRequiredSpace")
    1755                      .dwattr $C$DW$177, DW_AT_TI_symbol_name("_xRequiredSpace")
    1756                      .dwattr $C$DW$177, DW_AT_type(*$C$DW$T$20)
    1757                      .dwattr $C$DW$177, DW_AT_location[DW_OP_reg20]
    1758              ;*******************************************************************************
    1759              ;* FUNCTION NAME: prvWriteMessageToBuffer                                      *
    1760              ;*                                                                             *
    1761              ;*   Function Uses Regs : T0,T1,AR0,XAR0,AR1,XAR1,AR2,AR3,XAR3,SP,TC1,M40,SATA,*
    1762              ;*                        SATD,RDM,FRCT,SMUL                                   *
    1763              ;*   Stack Frame        : Compact (No Frame Pointer, w/ debug)                 *
    1764              ;*   Total Frame Size   : 10 words                                             *
    1765              ;*                        (1 return address/alignment)                         *
    1766              ;*                        (9 local values)                                     *
    1767              ;*   Min System Stack   : 1 word                                               *
    1768              ;*******************************************************************************
    1769 0003e0       _prvWriteMessageToBuffer:
    1770                      .dwcfi  cfa_offset, 1
    1771                      .dwcfi  save_reg_to_mem, 91, -1
    1772 0003e0 4EF7          AADD #-9, SP
    1773                      .dwcfi  cfa_offset, 10
    1774              $C$DW$178       .dwtag  DW_TAG_variable, DW_AT_name("pxStreamBuffer")
    1775                      .dwattr $C$DW$178, DW_AT_TI_symbol_name("_pxStreamBuffer")
    1776                      .dwattr $C$DW$178, DW_AT_type(*$C$DW$T$38)
    1777                      .dwattr $C$DW$178, DW_AT_location[DW_OP_bregx 0x24 0]
    1778              $C$DW$179       .dwtag  DW_TAG_variable, DW_AT_name("pvTxData")
    1779                      .dwattr $C$DW$179, DW_AT_TI_symbol_name("_pvTxData")
    1780                      .dwattr $C$DW$179, DW_AT_type(*$C$DW$T$43)
    1781                      .dwattr $C$DW$179, DW_AT_location[DW_OP_bregx 0x24 2]
    1782              $C$DW$180       .dwtag  DW_TAG_variable, DW_AT_name("xDataLengthBytes")
    1783                      .dwattr $C$DW$180, DW_AT_TI_symbol_name("_xDataLengthBytes")
    1784                      .dwattr $C$DW$180, DW_AT_type(*$C$DW$T$20)
    1785                      .dwattr $C$DW$180, DW_AT_location[DW_OP_bregx 0x24 4]
    1786              $C$DW$181       .dwtag  DW_TAG_variable, DW_AT_name("xSpace")
    1787                      .dwattr $C$DW$181, DW_AT_TI_symbol_name("_xSpace")
TMS320C55x Assembler PC v4.4.1 Sat Oct 06 06:38:33 2018

Tools Copyright (c) 1996-2012 Texas Instruments Incorporated
stream_buffer.asm                                                    PAGE   37

    1788                      .dwattr $C$DW$181, DW_AT_type(*$C$DW$T$20)
    1789                      .dwattr $C$DW$181, DW_AT_location[DW_OP_bregx 0x24 5]
    1790              $C$DW$182       .dwtag  DW_TAG_variable, DW_AT_name("xRequiredSpace")
    1791                      .dwattr $C$DW$182, DW_AT_TI_symbol_name("_xRequiredSpace")
    1792                      .dwattr $C$DW$182, DW_AT_type(*$C$DW$T$20)
    1793                      .dwattr $C$DW$182, DW_AT_location[DW_OP_bregx 0x24 6]
    1794              $C$DW$183       .dwtag  DW_TAG_variable, DW_AT_name("xShouldWrite")
    1795                      .dwattr $C$DW$183, DW_AT_TI_symbol_name("_xShouldWrite")
    1796                      .dwattr $C$DW$183, DW_AT_type(*$C$DW$T$28)
    1797                      .dwattr $C$DW$183, DW_AT_location[DW_OP_bregx 0x24 7]
    1798              $C$DW$184       .dwtag  DW_TAG_variable, DW_AT_name("xReturn")
    1799                      .dwattr $C$DW$184, DW_AT_TI_symbol_name("_xReturn")
    1800                      .dwattr $C$DW$184, DW_AT_type(*$C$DW$T$20)
    1801                      .dwattr $C$DW$184, DW_AT_location[DW_OP_bregx 0x24 8]
    1802 0003e2 CA0C          MOV AR2, *SP(#6) ; |666| 
    1803 0003e4 C50A          MOV T1, *SP(#5) ; |666| 
    1804 0003e6 C408          MOV T0, *SP(#4) ; |666| 
    1805 0003e8 EB04          MOV XAR1, dbl(*SP(#2))
         0003ea 95   
    1806 0003eb EB00          MOV XAR0, dbl(*SP(#0))
         0003ed 85   
    1807                      .dwpsn  file "../FreeRTOS/Source/stream_buffer.c",line 670,column 2,is_stmt
    1808 0003ee A90A          MOV *SP(#5), AR1 ; |670| 
    1809 0003f0 6299          BCC $C$L54,AR1 != #0 ; |670| 
    1810                                                      ; branchcc occurs ; |670| 
    1811                      .dwpsn  file "../FreeRTOS/Source/stream_buffer.c",line 674,column 3,is_stmt
    1812 0003f2 E60E          MOV #0, *SP(#7) ; |674| 
         0003f4 00   
    1813                      .dwpsn  file "../FreeRTOS/Source/stream_buffer.c",line 675,column 2,is_stmt
    1814 0003f5 4A3A          B $C$L58  ; |675| 
    1815                                                      ; branch occurs ; |675| 
    1816 0003f7       $C$L54:    
    1817                      .dwpsn  file "../FreeRTOS/Source/stream_buffer.c",line 676,column 7,is_stmt
    1818 0003f7 ED00          MOV dbl(*SP(#0)), XAR3
         0003f9 BF   
    1819 0003fa DC6D          BTST #0, *AR3(#10), TC1 ; |676| 
         0003fc 0000 
         0003fe 0A   
    1820 0003ff 0464          BCC $C$L56,TC1 ; |676| 
         000401 12   
    1821                                                      ; branchcc occurs ; |676| 
    1822                      .dwpsn  file "../FreeRTOS/Source/stream_buffer.c",line 681,column 3,is_stmt
    1823 000402 E60E          MOV #1, *SP(#7) ; |681| 
         000404 01   
    1824                      .dwpsn  file "../FreeRTOS/Source/stream_buffer.c",line 682,column 3,is_stmt
    1825 000405 A90A          MOV *SP(#5), AR1 ; |682| 
    1826 000407 AA08          MOV *SP(#4), AR2 ; |682| 
    1827 000409 12A8          CMPU AR2 >= AR1, TC1 ; |682| 
         00040b 94   
    1828 00040c 6164          BCC $C$L55,TC1 ; |682| 
    1829                                                      ; branchcc occurs ; |682| 
    1830 00040e 22A9          MOV AR2, AR1
    1831 000410       $C$L55:    
    1832 000410 C908          MOV AR1, *SP(#4) ; |682| 
    1833                      .dwpsn  file "../FreeRTOS/Source/stream_buffer.c",line 683,column 2,is_stmt
TMS320C55x Assembler PC v4.4.1 Sat Oct 06 06:38:33 2018

Tools Copyright (c) 1996-2012 Texas Instruments Incorporated
stream_buffer.asm                                                    PAGE   38

    1834 000412 4A1D          B $C$L58  ; |683| 
    1835                                                      ; branch occurs ; |683| 
    1836 000414       $C$L56:    
    1837                      .dwpsn  file "../FreeRTOS/Source/stream_buffer.c",line 684,column 7,is_stmt
    1838 000414 A90C          MOV *SP(#6), AR1 ; |684| 
    1839 000416 AA0A          MOV *SP(#5), AR2 ; |684| 
    1840 000418 12A4          CMPU AR2 < AR1, TC1 ; |684| 
         00041a 94   
    1841 00041b 0464          BCC $C$L57,TC1 ; |684| 
         00041d 10   
    1842                                                      ; branchcc occurs ; |684| 
    1843                      .dwpsn  file "../FreeRTOS/Source/stream_buffer.c",line 690,column 3,is_stmt
    1844 00041e E60E          MOV #1, *SP(#7) ; |690| 
         000420 01   
    1845                      .dwpsn  file "../FreeRTOS/Source/stream_buffer.c",line 691,column 3,is_stmt
    1846 000421 EC08          AMAR *SP(#4), XAR1
         000423 9E   
    1847 000424 ED00          MOV dbl(*SP(#0)), XAR0
         000426 8F   
    1848              $C$DW$185       .dwtag  DW_TAG_TI_branch
    1849                      .dwattr $C$DW$185, DW_AT_low_pc(0x00)
    1850                      .dwattr $C$DW$185, DW_AT_name("_prvWriteBytesToBuffer")
    1851                      .dwattr $C$DW$185, DW_AT_TI_call
    1852              
    1853 000427 0803          CALL #_prvWriteBytesToBuffer ; |691| 
         000429 D8   
    1854 00042a 3D14  ||      MOV #1, T0
    1855              
    1856                                                      ; call occurs [#_prvWriteBytesToBuffer] ; |691| 
    1857                      .dwpsn  file "../FreeRTOS/Source/stream_buffer.c",line 692,column 2,is_stmt
    1858 00042c 4A03          B $C$L58  ; |692| 
    1859                                                      ; branch occurs ; |692| 
    1860 00042e       $C$L57:    
    1861                      .dwpsn  file "../FreeRTOS/Source/stream_buffer.c",line 696,column 3,is_stmt
    1862 00042e E60E          MOV #0, *SP(#7) ; |696| 
         000430 00   
    1863 000431       $C$L58:    
    1864                      .dwpsn  file "../FreeRTOS/Source/stream_buffer.c",line 699,column 2,is_stmt
    1865 000431 A90E          MOV *SP(#7), AR1 ; |699| 
    1866 000433 6789          BCC $C$L59,AR1 == #0 ; |699| 
    1867                                                      ; branchcc occurs ; |699| 
    1868                      .dwpsn  file "../FreeRTOS/Source/stream_buffer.c",line 702,column 3,is_stmt
    1869 000435 ED00          MOV dbl(*SP(#0)), XAR0
         000437 8F   
    1870 000438 ED04          MOV dbl(*SP(#2)), XAR1
         00043a 9F   
    1871 00043b A408          MOV *SP(#4), T0 ; |702| 
    1872              $C$DW$186       .dwtag  DW_TAG_TI_branch
    1873                      .dwattr $C$DW$186, DW_AT_low_pc(0x00)
    1874                      .dwattr $C$DW$186, DW_AT_name("_prvWriteBytesToBuffer")
    1875                      .dwattr $C$DW$186, DW_AT_TI_call
    1876 00043d 0803          CALL #_prvWriteBytesToBuffer ; |702| 
         00043f C4   
    1877                                                      ; call occurs [#_prvWriteBytesToBuffer] ; |702| 
    1878 000440 C410          MOV T0, *SP(#8) ; |702| 
TMS320C55x Assembler PC v4.4.1 Sat Oct 06 06:38:33 2018

Tools Copyright (c) 1996-2012 Texas Instruments Incorporated
stream_buffer.asm                                                    PAGE   39

    1879                      .dwpsn  file "../FreeRTOS/Source/stream_buffer.c",line 703,column 2,is_stmt
    1880 000442 4A03          B $C$L60  ; |703| 
    1881                                                      ; branch occurs ; |703| 
    1882 000444       $C$L59:    
    1883                      .dwpsn  file "../FreeRTOS/Source/stream_buffer.c",line 706,column 3,is_stmt
    1884 000444 E610          MOV #0, *SP(#8) ; |706| 
         000446 00   
    1885 000447       $C$L60:    
    1886                      .dwpsn  file "../FreeRTOS/Source/stream_buffer.c",line 709,column 2,is_stmt
    1887 000447 A410          MOV *SP(#8), T0 ; |709| 
    1888                      .dwpsn  file "../FreeRTOS/Source/stream_buffer.c",line 710,column 1,is_stmt
    1889 000449 4E09          AADD #9, SP
    1890                      .dwcfi  cfa_offset, 1
    1891              $C$DW$187       .dwtag  DW_TAG_TI_branch
    1892                      .dwattr $C$DW$187, DW_AT_low_pc(0x00)
    1893                      .dwattr $C$DW$187, DW_AT_TI_return
    1894 00044b 4804          RET
    1895                                                      ; return occurs
    1896                      .dwattr $C$DW$172, DW_AT_TI_end_file("../FreeRTOS/Source/stream_buffer.c")
    1897                      .dwattr $C$DW$172, DW_AT_TI_end_line(0x2c6)
    1898                      .dwattr $C$DW$172, DW_AT_TI_end_column(0x01)
    1899                      .dwendentry
    1900                      .dwendtag $C$DW$172
    1901              
    1902 00044d               .sect   ".text"
    1903                      .align 4
    1904                      .global _xStreamBufferReceive
    1905              
    1906              $C$DW$188       .dwtag  DW_TAG_subprogram, DW_AT_name("xStreamBufferReceive")
    1907                      .dwattr $C$DW$188, DW_AT_low_pc(_xStreamBufferReceive)
    1908                      .dwattr $C$DW$188, DW_AT_high_pc(0x00)
    1909                      .dwattr $C$DW$188, DW_AT_TI_symbol_name("_xStreamBufferReceive")
    1910                      .dwattr $C$DW$188, DW_AT_external
    1911                      .dwattr $C$DW$188, DW_AT_type(*$C$DW$T$20)
    1912                      .dwattr $C$DW$188, DW_AT_TI_begin_file("../FreeRTOS/Source/stream_buffer.c")
    1913                      .dwattr $C$DW$188, DW_AT_TI_begin_line(0x2c9)
    1914                      .dwattr $C$DW$188, DW_AT_TI_begin_column(0x08)
    1915                      .dwattr $C$DW$188, DW_AT_TI_max_frame_size(0x0e)
    1916                      .dwpsn  file "../FreeRTOS/Source/stream_buffer.c",line 717,column 1,is_stmt,address _xStreamBufferRec
    1917              
    1918                      .dwfde $C$DW$CIE, _xStreamBufferReceive
    1919              $C$DW$189       .dwtag  DW_TAG_formal_parameter, DW_AT_name("xStreamBuffer")
    1920                      .dwattr $C$DW$189, DW_AT_TI_symbol_name("_xStreamBuffer")
    1921                      .dwattr $C$DW$189, DW_AT_type(*$C$DW$T$40)
    1922                      .dwattr $C$DW$189, DW_AT_location[DW_OP_reg17]
    1923              $C$DW$190       .dwtag  DW_TAG_formal_parameter, DW_AT_name("pvRxData")
    1924                      .dwattr $C$DW$190, DW_AT_TI_symbol_name("_pvRxData")
    1925                      .dwattr $C$DW$190, DW_AT_type(*$C$DW$T$3)
    1926                      .dwattr $C$DW$190, DW_AT_location[DW_OP_reg19]
    1927              $C$DW$191       .dwtag  DW_TAG_formal_parameter, DW_AT_name("xBufferLengthBytes")
    1928                      .dwattr $C$DW$191, DW_AT_TI_symbol_name("_xBufferLengthBytes")
    1929                      .dwattr $C$DW$191, DW_AT_type(*$C$DW$T$20)
    1930                      .dwattr $C$DW$191, DW_AT_location[DW_OP_reg12]
    1931              $C$DW$192       .dwtag  DW_TAG_formal_parameter, DW_AT_name("xTicksToWait")
    1932                      .dwattr $C$DW$192, DW_AT_TI_symbol_name("_xTicksToWait")
TMS320C55x Assembler PC v4.4.1 Sat Oct 06 06:38:33 2018

Tools Copyright (c) 1996-2012 Texas Instruments Incorporated
stream_buffer.asm                                                    PAGE   40

    1933                      .dwattr $C$DW$192, DW_AT_type(*$C$DW$T$29)
    1934                      .dwattr $C$DW$192, DW_AT_location[DW_OP_reg0]
    1935              ;*******************************************************************************
    1936              ;* FUNCTION NAME: xStreamBufferReceive                                         *
    1937              ;*                                                                             *
    1938              ;*   Function Uses Regs : AC0,AC0,AC1,AC1,AC2,AC2,T0,T1,AR0,XAR0,AR1,XAR1,AR2, *
    1939              ;*                        AR3,XAR3,SP,CARRY,TC1,M40,SATA,SATD,RDM,FRCT,SMUL    *
    1940              ;*   Stack Frame        : Compact (No Frame Pointer, w/ debug)                 *
    1941              ;*   Total Frame Size   : 14 words                                             *
    1942              ;*                        (1 return address/alignment)                         *
    1943              ;*                        (13 local values)                                    *
    1944              ;*   Min System Stack   : 1 word                                               *
    1945              ;*******************************************************************************
    1946 000450       _xStreamBufferReceive:
    1947                      .dwcfi  cfa_offset, 1
    1948                      .dwcfi  save_reg_to_mem, 91, -1
    1949 000450 4EF3          AADD #-13, SP
    1950                      .dwcfi  cfa_offset, 14
    1951              $C$DW$193       .dwtag  DW_TAG_variable, DW_AT_name("xStreamBuffer")
    1952                      .dwattr $C$DW$193, DW_AT_TI_symbol_name("_xStreamBuffer")
    1953                      .dwattr $C$DW$193, DW_AT_type(*$C$DW$T$40)
    1954                      .dwattr $C$DW$193, DW_AT_location[DW_OP_bregx 0x24 0]
    1955              $C$DW$194       .dwtag  DW_TAG_variable, DW_AT_name("pvRxData")
    1956                      .dwattr $C$DW$194, DW_AT_TI_symbol_name("_pvRxData")
    1957                      .dwattr $C$DW$194, DW_AT_type(*$C$DW$T$3)
    1958                      .dwattr $C$DW$194, DW_AT_location[DW_OP_bregx 0x24 2]
    1959              $C$DW$195       .dwtag  DW_TAG_variable, DW_AT_name("xBufferLengthBytes")
    1960                      .dwattr $C$DW$195, DW_AT_TI_symbol_name("_xBufferLengthBytes")
    1961                      .dwattr $C$DW$195, DW_AT_type(*$C$DW$T$20)
    1962                      .dwattr $C$DW$195, DW_AT_location[DW_OP_bregx 0x24 4]
    1963              $C$DW$196       .dwtag  DW_TAG_variable, DW_AT_name("xTicksToWait")
    1964                      .dwattr $C$DW$196, DW_AT_TI_symbol_name("_xTicksToWait")
    1965                      .dwattr $C$DW$196, DW_AT_type(*$C$DW$T$29)
    1966                      .dwattr $C$DW$196, DW_AT_location[DW_OP_bregx 0x24 6]
    1967              $C$DW$197       .dwtag  DW_TAG_variable, DW_AT_name("pxStreamBuffer")
    1968                      .dwattr $C$DW$197, DW_AT_TI_symbol_name("_pxStreamBuffer")
    1969                      .dwattr $C$DW$197, DW_AT_type(*$C$DW$T$38)
    1970                      .dwattr $C$DW$197, DW_AT_location[DW_OP_bregx 0x24 8]
    1971              $C$DW$198       .dwtag  DW_TAG_variable, DW_AT_name("xReceivedLength")
    1972                      .dwattr $C$DW$198, DW_AT_TI_symbol_name("_xReceivedLength")
    1973                      .dwattr $C$DW$198, DW_AT_type(*$C$DW$T$20)
    1974                      .dwattr $C$DW$198, DW_AT_location[DW_OP_bregx 0x24 10]
    1975              $C$DW$199       .dwtag  DW_TAG_variable, DW_AT_name("xBytesAvailable")
    1976                      .dwattr $C$DW$199, DW_AT_TI_symbol_name("_xBytesAvailable")
    1977                      .dwattr $C$DW$199, DW_AT_type(*$C$DW$T$20)
    1978                      .dwattr $C$DW$199, DW_AT_location[DW_OP_bregx 0x24 11]
    1979              $C$DW$200       .dwtag  DW_TAG_variable, DW_AT_name("xBytesToStoreMessageLength")
    1980                      .dwattr $C$DW$200, DW_AT_TI_symbol_name("_xBytesToStoreMessageLength")
    1981                      .dwattr $C$DW$200, DW_AT_type(*$C$DW$T$20)
    1982                      .dwattr $C$DW$200, DW_AT_location[DW_OP_bregx 0x24 12]
    1983 000452 EB0C          MOV AC0, dbl(*SP(#6)) ; |717| 
         000454 08   
    1984 000455 C408          MOV T0, *SP(#4) ; |717| 
    1985 000457 EB04          MOV XAR1, dbl(*SP(#2))
         000459 95   
TMS320C55x Assembler PC v4.4.1 Sat Oct 06 06:38:33 2018

Tools Copyright (c) 1996-2012 Texas Instruments Incorporated
stream_buffer.asm                                                    PAGE   41

    1986 00045a EB00          MOV XAR0, dbl(*SP(#0))
         00045c 85   
    1987                      .dwpsn  file "../FreeRTOS/Source/stream_buffer.c",line 718,column 24,is_stmt
    1988 00045d ED00          MOV dbl(*SP(#0)), XAR3
         00045f BF   
    1989 000460 EB10          MOV XAR3, dbl(*SP(#8))
         000462 B5   
    1990                      .dwpsn  file "../FreeRTOS/Source/stream_buffer.c",line 719,column 8,is_stmt
    1991 000463 E614          MOV #0, *SP(#10) ; |719| 
         000465 00   
    1992                      .dwpsn  file "../FreeRTOS/Source/stream_buffer.c",line 721,column 2,is_stmt
    1993 000466 ED04          MOV dbl(*SP(#2)), XAR3
         000468 BF   
    1994 000469 90B0          MOV XAR3, AC0
    1995 00046b 6290          BCC $C$L62,AC0 != #0 ; |721| 
    1996                                                      ; branchcc occurs ; |721| 
    1997 00046d 20     nop
    1998 00046e 46B3   bset INTM
    1999 000470       $C$L61:    
    2000 000470       $C$DW$L$_xStreamBufferReceive$3$B:
    2001 000470 4A7E          B $C$L61  ; |721| 
    2002                                                      ; branch occurs ; |721| 
    2003 000472       $C$DW$L$_xStreamBufferReceive$3$E:
    2004 000472       $C$L62:    
    2005                      .dwpsn  file "../FreeRTOS/Source/stream_buffer.c",line 722,column 2,is_stmt
    2006 000472 ED10          MOV dbl(*SP(#8)), XAR3
         000474 BF   
    2007 000475 90B0          MOV XAR3, AC0
    2008 000477 6290          BCC $C$L64,AC0 != #0 ; |722| 
    2009                                                      ; branchcc occurs ; |722| 
    2010 000479 20     nop
    2011 00047a 46B3   bset INTM
    2012 00047c       $C$L63:    
    2013 00047c       $C$DW$L$_xStreamBufferReceive$6$B:
    2014 00047c 4A7E          B $C$L63  ; |722| 
    2015                                                      ; branch occurs ; |722| 
    2016 00047e       $C$DW$L$_xStreamBufferReceive$6$E:
    2017 00047e       $C$L64:    
    2018                      .dwpsn  file "../FreeRTOS/Source/stream_buffer.c",line 729,column 2,is_stmt
    2019 00047e DC6D          BTST #0, *AR3(#10), TC1 ; |729| 
         000480 0000 
         000482 0A   
    2020 000483 62F4          BCC $C$L65,!TC1 ; |729| 
    2021                                                      ; branchcc occurs ; |729| 
    2022                      .dwpsn  file "../FreeRTOS/Source/stream_buffer.c",line 731,column 3,is_stmt
    2023 000485 E618          MOV #1, *SP(#12) ; |731| 
         000487 01   
    2024                      .dwpsn  file "../FreeRTOS/Source/stream_buffer.c",line 732,column 2,is_stmt
    2025 000488 4A03          B $C$L66  ; |732| 
    2026                                                      ; branch occurs ; |732| 
    2027 00048a       $C$L65:    
    2028                      .dwpsn  file "../FreeRTOS/Source/stream_buffer.c",line 735,column 3,is_stmt
    2029 00048a E618          MOV #0, *SP(#12) ; |735| 
         00048c 00   
    2030 00048d       $C$L66:    
TMS320C55x Assembler PC v4.4.1 Sat Oct 06 06:38:33 2018

Tools Copyright (c) 1996-2012 Texas Instruments Incorporated
stream_buffer.asm                                                    PAGE   42

    2031                      .dwpsn  file "../FreeRTOS/Source/stream_buffer.c",line 738,column 2,is_stmt
    2032 00048d ED0C          MOV dbl(*SP(#6)), AC0 ; |738| 
         00048f 08   
    2033 000490 6D00          BCC $C$L72,AC0 == #0 ; |738| 
         000492 008E 
    2034                                                      ; branchcc occurs ; |738| 
    2035                      .dwpsn  file "../FreeRTOS/Source/stream_buffer.c",line 742,column 3,is_stmt
    2036 000494 20     nop
    2037 000495 46B3   bset INTM
    2038 000497 F731          ADD #1, *(#_usCriticalNesting) ; |742| 
         000499 0001 
         00049b 0000 
         00049d 00!  
    2039                      .dwpsn  file "../FreeRTOS/Source/stream_buffer.c",line 744,column 4,is_stmt
    2040 00049e ED10          MOV dbl(*SP(#8)), XAR0
         0004a0 8F   
    2041              $C$DW$201       .dwtag  DW_TAG_TI_branch
    2042                      .dwattr $C$DW$201, DW_AT_low_pc(0x00)
    2043                      .dwattr $C$DW$201, DW_AT_name("_prvBytesInBuffer")
    2044                      .dwattr $C$DW$201, DW_AT_TI_call
    2045 0004a1 0805          CALL #_prvBytesInBuffer ; |744| 
         0004a3 18   
    2046                                                      ; call occurs [#_prvBytesInBuffer] ; |744| 
    2047 0004a4 C416          MOV T0, *SP(#11) ; |744| 
    2048                      .dwpsn  file "../FreeRTOS/Source/stream_buffer.c",line 751,column 4,is_stmt
    2049              
    2050 0004a6 A918          MOV *SP(#12), AR1 ; |751| 
    2051 0004a8 234A  ||      MOV T0, AR2 ; |751| 
    2052              
    2053 0004aa 1294          CMPU AR2 > AR1, TC1 ; |751| 
         0004ac A4   
    2054 0004ad 0464          BCC $C$L70,TC1 ; |751| 
         0004af 29   
    2055                                                      ; branchcc occurs ; |751| 
    2056                      .dwpsn  file "../FreeRTOS/Source/stream_buffer.c",line 754,column 5,is_stmt
    2057 0004b0 EC31          AMOV #0, XAR0 ; |754| 
         0004b2 8E00 
         0004b4 0000 
    2058              $C$DW$202       .dwtag  DW_TAG_TI_branch
    2059                      .dwattr $C$DW$202, DW_AT_low_pc(0x00)
    2060                      .dwattr $C$DW$202, DW_AT_name("_xTaskNotifyStateClear")
    2061                      .dwattr $C$DW$202, DW_AT_TI_call
    2062 0004b6 6C00          CALL #_xTaskNotifyStateClear ; |754| 
         0004b8 0000!
    2063                                                      ; call occurs [#_xTaskNotifyStateClear] ; |754| 
    2064                      .dwpsn  file "../FreeRTOS/Source/stream_buffer.c",line 757,column 5,is_stmt
    2065 0004ba ED10          MOV dbl(*SP(#8)), XAR3
         0004bc BF   
    2066 0004bd ED79          MOV dbl(*AR3(short(#4))), XAR3
         0004bf BF   
    2067 0004c0 90B0          MOV XAR3, AC0
    2068 0004c2 3C09          MOV #0, AR1
    2069 0004c4 6110          BCC $C$L67,AC0 != #0 ; |757| 
    2070                                                      ; branchcc occurs ; |757| 
    2071 0004c6 3C19          MOV #1, AR1
TMS320C55x Assembler PC v4.4.1 Sat Oct 06 06:38:33 2018

Tools Copyright (c) 1996-2012 Texas Instruments Incorporated
stream_buffer.asm                                                    PAGE   43

    2072 0004c8       $C$L67:    
    2073 0004c8 6299          BCC $C$L69,AR1 != #0 ; |757| 
    2074                                                      ; branchcc occurs ; |757| 
    2075 0004ca 20     nop
    2076 0004cb 46B3   bset INTM
    2077 0004cd       $C$L68:    
    2078 0004cd       $C$DW$L$_xStreamBufferReceive$16$B:
    2079 0004cd 4A7E          B $C$L68  ; |757| 
    2080                                                      ; branch occurs ; |757| 
    2081 0004cf       $C$DW$L$_xStreamBufferReceive$16$E:
    2082 0004cf       $C$L69:    
    2083                      .dwpsn  file "../FreeRTOS/Source/stream_buffer.c",line 758,column 5,is_stmt
    2084              $C$DW$203       .dwtag  DW_TAG_TI_branch
    2085                      .dwattr $C$DW$203, DW_AT_low_pc(0x00)
    2086                      .dwattr $C$DW$203, DW_AT_name("_xTaskGetCurrentTaskHandle")
    2087                      .dwattr $C$DW$203, DW_AT_TI_call
    2088 0004cf 6C00          CALL #_xTaskGetCurrentTaskHandle ; |758| 
         0004d1 0000!
    2089                                                      ; call occurs [#_xTaskGetCurrentTaskHandle] ; |758| 
    2090 0004d3 ED10          MOV dbl(*SP(#8)), XAR3
         0004d5 BF   
    2091 0004d6 EB79          MOV XAR0, dbl(*AR3(short(#4)))
         0004d8 85   
    2092                      .dwpsn  file "../FreeRTOS/Source/stream_buffer.c",line 759,column 4,is_stmt
    2093 0004d9       $C$L70:    
    2094                      .dwpsn  file "../FreeRTOS/Source/stream_buffer.c",line 765,column 3,is_stmt
    2095 0004d9 A931          MOV *(#_usCriticalNesting), AR1 ; |765| 
         0004db 0000 
         0004dd 00!  
    2096 0004de 0409          BCC $C$L71,AR1 == #0 ; |765| 
         0004e0 14   
    2097                                                      ; branchcc occurs ; |765| 
    2098 0004e1 F731          SUB #1, *(#_usCriticalNesting) ; |765| 
         0004e3 FFFF 
         0004e5 0000 
         0004e7 00!  
    2099 0004e8 20            NOP
    2100 0004e9 20            NOP
    2101 0004ea 20            NOP
    2102 0004eb A931          MOV *(#_usCriticalNesting), AR1 ; |765| 
         0004ed 0000 
         0004ef 00!  
    2103 0004f0 6199          BCC $C$L71,AR1 != #0 ; |765| 
    2104                                                      ; branchcc occurs ; |765| 
    2105 0004f2 20     nop
    2106 0004f3 46B2   bclr INTM
    2107 0004f5       $C$L71:    
    2108                      .dwpsn  file "../FreeRTOS/Source/stream_buffer.c",line 767,column 3,is_stmt
    2109 0004f5 A918          MOV *SP(#12), AR1 ; |767| 
    2110 0004f7 AA16          MOV *SP(#11), AR2 ; |767| 
    2111 0004f9 1294          CMPU AR2 > AR1, TC1 ; |767| 
         0004fb A4   
    2112 0004fc 0464          BCC $C$L73,TC1 ; |767| 
         0004fe 2B   
    2113                                                      ; branchcc occurs ; |767| 
TMS320C55x Assembler PC v4.4.1 Sat Oct 06 06:38:33 2018

Tools Copyright (c) 1996-2012 Texas Instruments Incorporated
stream_buffer.asm                                                    PAGE   44

    2114                      .dwpsn  file "../FreeRTOS/Source/stream_buffer.c",line 771,column 4,is_stmt
    2115 0004ff EC31          AMOV #0, XAR0 ; |771| 
         000501 8E00 
         000503 0000 
    2116              
    2117 000508 3D00          MOV #0, AC0 ; |771| 
    2118 000505 ED0C  ||      MOV dbl(*SP(#6)), AC2 ; |771| 
         000507 28   
    2119              
    2120              $C$DW$204       .dwtag  DW_TAG_TI_branch
    2121                      .dwattr $C$DW$204, DW_AT_low_pc(0x00)
    2122                      .dwattr $C$DW$204, DW_AT_name("_xTaskNotifyWait")
    2123                      .dwattr $C$DW$204, DW_AT_TI_call
    2124              
    2125 00050a 6C00          CALL #_xTaskNotifyWait ; |771| 
         00050c 0000!
    2126 00050e 3D01  ||      MOV #0, AC1 ; |771| 
    2127              
    2128                                                      ; call occurs [#_xTaskNotifyWait] ; |771| 
    2129                      .dwpsn  file "../FreeRTOS/Source/stream_buffer.c",line 772,column 4,is_stmt
    2130 000510 ED10          MOV dbl(*SP(#8)), XAR3
         000512 BF   
    2131 000513 3C00          MOV #0, AC0 ; |772| 
    2132 000515 EB79          MOV AC0, dbl(*AR3(short(#4)))
         000517 08   
    2133                      .dwpsn  file "../FreeRTOS/Source/stream_buffer.c",line 775,column 4,is_stmt
    2134 000518 ED10          MOV dbl(*SP(#8)), XAR0
         00051a 8F   
    2135              $C$DW$205       .dwtag  DW_TAG_TI_branch
    2136                      .dwattr $C$DW$205, DW_AT_low_pc(0x00)
    2137                      .dwattr $C$DW$205, DW_AT_name("_prvBytesInBuffer")
    2138                      .dwattr $C$DW$205, DW_AT_TI_call
    2139 00051b 0804          CALL #_prvBytesInBuffer ; |775| 
         00051d 9E   
    2140                                                      ; call occurs [#_prvBytesInBuffer] ; |775| 
    2141 00051e C416          MOV T0, *SP(#11) ; |775| 
    2142                      .dwpsn  file "../FreeRTOS/Source/stream_buffer.c",line 776,column 3,is_stmt
    2143 000520 4A08          B $C$L73  ; |776| 
    2144                                                      ; branch occurs ; |776| 
    2145 000522       $C$L72:    
    2146                      .dwpsn  file "../FreeRTOS/Source/stream_buffer.c",line 784,column 3,is_stmt
    2147 000522 ED10          MOV dbl(*SP(#8)), XAR0
         000524 8F   
    2148              $C$DW$206       .dwtag  DW_TAG_TI_branch
    2149                      .dwattr $C$DW$206, DW_AT_low_pc(0x00)
    2150                      .dwattr $C$DW$206, DW_AT_name("_prvBytesInBuffer")
    2151                      .dwattr $C$DW$206, DW_AT_TI_call
    2152 000525 0804          CALL #_prvBytesInBuffer ; |784| 
         000527 94   
    2153                                                      ; call occurs [#_prvBytesInBuffer] ; |784| 
    2154 000528 C416          MOV T0, *SP(#11) ; |784| 
    2155 00052a       $C$L73:    
    2156                      .dwpsn  file "../FreeRTOS/Source/stream_buffer.c",line 792,column 2,is_stmt
    2157 00052a A918          MOV *SP(#12), AR1 ; |792| 
    2158 00052c AA16          MOV *SP(#11), AR2 ; |792| 
TMS320C55x Assembler PC v4.4.1 Sat Oct 06 06:38:33 2018

Tools Copyright (c) 1996-2012 Texas Instruments Incorporated
stream_buffer.asm                                                    PAGE   45

    2159 00052e 1298          CMPU AR2 <= AR1, TC1 ; |792| 
         000530 A4   
    2160 000531 0464          BCC $C$L75,TC1 ; |792| 
         000533 47   
    2161                                                      ; branchcc occurs ; |792| 
    2162                      .dwpsn  file "../FreeRTOS/Source/stream_buffer.c",line 794,column 3,is_stmt
    2163 000534 ED10          MOV dbl(*SP(#8)), XAR0
         000536 8F   
    2164 000537 ED04          MOV dbl(*SP(#2)), XAR1
         000539 9F   
    2165 00053a A408          MOV *SP(#4), T0 ; |794| 
    2166              
    2167 00053c AA18          MOV *SP(#12), AR2 ; |794| 
    2168 00053e 23A5  ||      MOV AR2, T1 ; |794| 
    2169              
    2170              $C$DW$207       .dwtag  DW_TAG_TI_branch
    2171                      .dwattr $C$DW$207, DW_AT_low_pc(0x00)
    2172                      .dwattr $C$DW$207, DW_AT_name("_prvReadMessageFromBuffer")
    2173                      .dwattr $C$DW$207, DW_AT_TI_call
    2174 000540 0801          CALL #_prvReadMessageFromBuffer ; |794| 
         000542 49   
    2175                                                      ; call occurs [#_prvReadMessageFromBuffer] ; |794| 
    2176 000543 C414          MOV T0, *SP(#10) ; |794| 
    2177                      .dwpsn  file "../FreeRTOS/Source/stream_buffer.c",line 797,column 3,is_stmt
    2178 000545 2249          MOV T0, AR1
    2179 000547 0409          BCC $C$L75,AR1 == #0 ; |797| 
         000549 31   
    2180                                                      ; branchcc occurs ; |797| 
    2181                      .dwpsn  file "../FreeRTOS/Source/stream_buffer.c",line 800,column 4,is_stmt
    2182              $C$DW$208       .dwtag  DW_TAG_TI_branch
    2183                      .dwattr $C$DW$208, DW_AT_low_pc(0x00)
    2184                      .dwattr $C$DW$208, DW_AT_name("_vTaskSuspendAll")
    2185                      .dwattr $C$DW$208, DW_AT_TI_call
    2186 00054a 6C00          CALL #_vTaskSuspendAll ; |800| 
         00054c 0000!
    2187                                                      ; call occurs [#_vTaskSuspendAll] ; |800| 
    2188 00054e ED10          MOV dbl(*SP(#8)), XAR3
         000550 BF   
    2189 000551 ED7D          MOV dbl(*AR3(short(#6))), XAR3
         000553 BF   
    2190 000554 90B0          MOV XAR3, AC0
    2191 000556 0400          BCC $C$L74,AC0 == #0 ; |800| 
         000558 1C   
    2192                                                      ; branchcc occurs ; |800| 
    2193 000559 ED10          MOV dbl(*SP(#8)), XAR3
         00055b BF   
    2194 00055c EC31          AMOV #0, XAR1 ; |800| 
         00055e 9E00 
         000560 0000 
    2195 000562 3C00          MOV #0, AC0 ; |800| 
    2196 000564 ED7D          MOV dbl(*AR3(short(#6))), XAR0
         000566 8F   
    2197              $C$DW$209       .dwtag  DW_TAG_TI_branch
    2198                      .dwattr $C$DW$209, DW_AT_low_pc(0x00)
    2199                      .dwattr $C$DW$209, DW_AT_name("_xTaskGenericNotify")
TMS320C55x Assembler PC v4.4.1 Sat Oct 06 06:38:33 2018

Tools Copyright (c) 1996-2012 Texas Instruments Incorporated
stream_buffer.asm                                                    PAGE   46

    2200                      .dwattr $C$DW$209, DW_AT_TI_call
    2201              
    2202 000567 6C00          CALL #_xTaskGenericNotify ; |800| 
         000569 0000!
    2203 00056b 3D04  ||      MOV #0, T0
    2204              
    2205                                                      ; call occurs [#_xTaskGenericNotify] ; |800| 
    2206 00056d ED10          MOV dbl(*SP(#8)), XAR3
         00056f BF   
    2207 000570 3C00          MOV #0, AC0 ; |800| 
    2208 000572 EB7D          MOV AC0, dbl(*AR3(short(#6)))
         000574 08   
    2209              $C$L74:    
    2210              $C$DW$210       .dwtag  DW_TAG_TI_branch
    2211                      .dwattr $C$DW$210, DW_AT_low_pc(0x00)
    2212                      .dwattr $C$DW$210, DW_AT_name("_xTaskResumeAll")
    2213                      .dwattr $C$DW$210, DW_AT_TI_call
    2214 000575 6C00          CALL #_xTaskResumeAll ; |800| 
         000577 0000!
    2215                                                      ; call occurs [#_xTaskResumeAll] ; |800| 
    2216                      .dwpsn  file "../FreeRTOS/Source/stream_buffer.c",line 801,column 3,is_stmt
    2217 000579 4A00          B $C$L75  ; |801| 
    2218                                                      ; branch occurs ; |801| 
    2219 00057b       $C$L75:    
    2220                      .dwpsn  file "../FreeRTOS/Source/stream_buffer.c",line 813,column 2,is_stmt
    2221 00057b A414          MOV *SP(#10), T0 ; |813| 
    2222                      .dwpsn  file "../FreeRTOS/Source/stream_buffer.c",line 814,column 1,is_stmt
    2223 00057d 4E0D          AADD #13, SP
    2224                      .dwcfi  cfa_offset, 1
    2225              $C$DW$211       .dwtag  DW_TAG_TI_branch
    2226                      .dwattr $C$DW$211, DW_AT_low_pc(0x00)
    2227                      .dwattr $C$DW$211, DW_AT_TI_return
    2228 00057f 4804          RET
    2229                                                      ; return occurs
    2230              
    2231              $C$DW$212       .dwtag  DW_TAG_TI_loop
    2232                      .dwattr $C$DW$212, DW_AT_name("F:\eZdsp_DBG\tmp1\c55x-sim2\foo\Debug\stream_buffer.asm:$C$L68:1:15388
    2233                      .dwattr $C$DW$212, DW_AT_TI_begin_file("../FreeRTOS/Source/stream_buffer.c")
    2234                      .dwattr $C$DW$212, DW_AT_TI_begin_line(0x2f5)
    2235                      .dwattr $C$DW$212, DW_AT_TI_end_line(0x2f5)
    2236              $C$DW$213       .dwtag  DW_TAG_TI_loop_range
    2237                      .dwattr $C$DW$213, DW_AT_low_pc($C$DW$L$_xStreamBufferReceive$16$B)
    2238                      .dwattr $C$DW$213, DW_AT_high_pc($C$DW$L$_xStreamBufferReceive$16$E)
    2239                      .dwendtag $C$DW$212
    2240              
    2241              
    2242              $C$DW$214       .dwtag  DW_TAG_TI_loop
    2243                      .dwattr $C$DW$214, DW_AT_name("F:\eZdsp_DBG\tmp1\c55x-sim2\foo\Debug\stream_buffer.asm:$C$L63:1:15388
    2244                      .dwattr $C$DW$214, DW_AT_TI_begin_file("../FreeRTOS/Source/stream_buffer.c")
    2245                      .dwattr $C$DW$214, DW_AT_TI_begin_line(0x2d2)
    2246                      .dwattr $C$DW$214, DW_AT_TI_end_line(0x2d2)
    2247              $C$DW$215       .dwtag  DW_TAG_TI_loop_range
    2248                      .dwattr $C$DW$215, DW_AT_low_pc($C$DW$L$_xStreamBufferReceive$6$B)
    2249                      .dwattr $C$DW$215, DW_AT_high_pc($C$DW$L$_xStreamBufferReceive$6$E)
    2250                      .dwendtag $C$DW$214
TMS320C55x Assembler PC v4.4.1 Sat Oct 06 06:38:33 2018

Tools Copyright (c) 1996-2012 Texas Instruments Incorporated
stream_buffer.asm                                                    PAGE   47

    2251              
    2252              
    2253              $C$DW$216       .dwtag  DW_TAG_TI_loop
    2254                      .dwattr $C$DW$216, DW_AT_name("F:\eZdsp_DBG\tmp1\c55x-sim2\foo\Debug\stream_buffer.asm:$C$L61:1:15388
    2255                      .dwattr $C$DW$216, DW_AT_TI_begin_file("../FreeRTOS/Source/stream_buffer.c")
    2256                      .dwattr $C$DW$216, DW_AT_TI_begin_line(0x2d1)
    2257                      .dwattr $C$DW$216, DW_AT_TI_end_line(0x2d1)
    2258              $C$DW$217       .dwtag  DW_TAG_TI_loop_range
    2259                      .dwattr $C$DW$217, DW_AT_low_pc($C$DW$L$_xStreamBufferReceive$3$B)
    2260                      .dwattr $C$DW$217, DW_AT_high_pc($C$DW$L$_xStreamBufferReceive$3$E)
    2261                      .dwendtag $C$DW$216
    2262              
    2263                      .dwattr $C$DW$188, DW_AT_TI_end_file("../FreeRTOS/Source/stream_buffer.c")
    2264                      .dwattr $C$DW$188, DW_AT_TI_end_line(0x32e)
    2265                      .dwattr $C$DW$188, DW_AT_TI_end_column(0x01)
    2266                      .dwendentry
    2267                      .dwendtag $C$DW$188
    2268              
    2269 000581               .sect   ".text"
    2270                      .align 4
    2271                      .global _xStreamBufferNextMessageLengthBytes
    2272              
    2273              $C$DW$218       .dwtag  DW_TAG_subprogram, DW_AT_name("xStreamBufferNextMessageLengthBytes")
    2274                      .dwattr $C$DW$218, DW_AT_low_pc(_xStreamBufferNextMessageLengthBytes)
    2275                      .dwattr $C$DW$218, DW_AT_high_pc(0x00)
    2276                      .dwattr $C$DW$218, DW_AT_TI_symbol_name("_xStreamBufferNextMessageLengthBytes")
    2277                      .dwattr $C$DW$218, DW_AT_external
    2278                      .dwattr $C$DW$218, DW_AT_type(*$C$DW$T$20)
    2279                      .dwattr $C$DW$218, DW_AT_TI_begin_file("../FreeRTOS/Source/stream_buffer.c")
    2280                      .dwattr $C$DW$218, DW_AT_TI_begin_line(0x331)
    2281                      .dwattr $C$DW$218, DW_AT_TI_begin_column(0x08)
    2282                      .dwattr $C$DW$218, DW_AT_TI_max_frame_size(0x0a)
    2283                      .dwpsn  file "../FreeRTOS/Source/stream_buffer.c",line 818,column 1,is_stmt,address _xStreamBufferNex
    2284              
    2285                      .dwfde $C$DW$CIE, _xStreamBufferNextMessageLengthBytes
    2286              $C$DW$219       .dwtag  DW_TAG_formal_parameter, DW_AT_name("xStreamBuffer")
    2287                      .dwattr $C$DW$219, DW_AT_TI_symbol_name("_xStreamBuffer")
    2288                      .dwattr $C$DW$219, DW_AT_type(*$C$DW$T$40)
    2289                      .dwattr $C$DW$219, DW_AT_location[DW_OP_reg17]
    2290              ;*******************************************************************************
    2291              ;* FUNCTION NAME: xStreamBufferNextMessageLengthBytes                          *
    2292              ;*                                                                             *
    2293              ;*   Function Uses Regs : AC0,AC0,T0,T1,AR0,XAR0,AR1,XAR1,AR2,AR3,XAR3,SP,TC1, *
    2294              ;*                        M40,SATA,SATD,RDM,FRCT,SMUL                          *
    2295              ;*   Stack Frame        : Compact (No Frame Pointer, w/ debug)                 *
    2296              ;*   Total Frame Size   : 10 words                                             *
    2297              ;*                        (2 return address/alignment)                         *
    2298              ;*                        (8 local values)                                     *
    2299              ;*   Min System Stack   : 1 word                                               *
    2300              ;*******************************************************************************
    2301 000584       _xStreamBufferNextMessageLengthBytes:
    2302                      .dwcfi  cfa_offset, 1
    2303                      .dwcfi  save_reg_to_mem, 91, -1
    2304 000584 4EF7          AADD #-9, SP
    2305                      .dwcfi  cfa_offset, 10
TMS320C55x Assembler PC v4.4.1 Sat Oct 06 06:38:33 2018

Tools Copyright (c) 1996-2012 Texas Instruments Incorporated
stream_buffer.asm                                                    PAGE   48

    2306              $C$DW$220       .dwtag  DW_TAG_variable, DW_AT_name("xStreamBuffer")
    2307                      .dwattr $C$DW$220, DW_AT_TI_symbol_name("_xStreamBuffer")
    2308                      .dwattr $C$DW$220, DW_AT_type(*$C$DW$T$40)
    2309                      .dwattr $C$DW$220, DW_AT_location[DW_OP_bregx 0x24 0]
    2310              $C$DW$221       .dwtag  DW_TAG_variable, DW_AT_name("pxStreamBuffer")
    2311                      .dwattr $C$DW$221, DW_AT_TI_symbol_name("_pxStreamBuffer")
    2312                      .dwattr $C$DW$221, DW_AT_type(*$C$DW$T$38)
    2313                      .dwattr $C$DW$221, DW_AT_location[DW_OP_bregx 0x24 2]
    2314              $C$DW$222       .dwtag  DW_TAG_variable, DW_AT_name("xReturn")
    2315                      .dwattr $C$DW$222, DW_AT_TI_symbol_name("_xReturn")
    2316                      .dwattr $C$DW$222, DW_AT_type(*$C$DW$T$20)
    2317                      .dwattr $C$DW$222, DW_AT_location[DW_OP_bregx 0x24 4]
    2318              $C$DW$223       .dwtag  DW_TAG_variable, DW_AT_name("xBytesAvailable")
    2319                      .dwattr $C$DW$223, DW_AT_TI_symbol_name("_xBytesAvailable")
    2320                      .dwattr $C$DW$223, DW_AT_type(*$C$DW$T$20)
    2321                      .dwattr $C$DW$223, DW_AT_location[DW_OP_bregx 0x24 5]
    2322              $C$DW$224       .dwtag  DW_TAG_variable, DW_AT_name("xOriginalTail")
    2323                      .dwattr $C$DW$224, DW_AT_TI_symbol_name("_xOriginalTail")
    2324                      .dwattr $C$DW$224, DW_AT_type(*$C$DW$T$20)
    2325                      .dwattr $C$DW$224, DW_AT_location[DW_OP_bregx 0x24 6]
    2326              $C$DW$225       .dwtag  DW_TAG_variable, DW_AT_name("xTempReturn")
    2327                      .dwattr $C$DW$225, DW_AT_TI_symbol_name("_xTempReturn")
    2328                      .dwattr $C$DW$225, DW_AT_type(*$C$DW$T$20)
    2329                      .dwattr $C$DW$225, DW_AT_location[DW_OP_bregx 0x24 7]
    2330 000586 EB00          MOV XAR0, dbl(*SP(#0))
         000588 85   
    2331                      .dwpsn  file "../FreeRTOS/Source/stream_buffer.c",line 819,column 24,is_stmt
    2332 000589 ED00          MOV dbl(*SP(#0)), XAR3
         00058b BF   
    2333 00058c EB04          MOV XAR3, dbl(*SP(#2))
         00058e B5   
    2334                      .dwpsn  file "../FreeRTOS/Source/stream_buffer.c",line 823,column 2,is_stmt
    2335 00058f 90B0          MOV XAR3, AC0
    2336 000591 6290          BCC $C$L77,AC0 != #0 ; |823| 
    2337                                                      ; branchcc occurs ; |823| 
    2338 000593 20     nop
    2339 000594 46B3   bset INTM
    2340 000596       $C$L76:    
    2341 000596       $C$DW$L$_xStreamBufferNextMessageLengthBytes$3$B:
    2342 000596 4A7E          B $C$L76  ; |823| 
    2343                                                      ; branch occurs ; |823| 
    2344 000598       $C$DW$L$_xStreamBufferNextMessageLengthBytes$3$E:
    2345 000598       $C$L77:    
    2346                      .dwpsn  file "../FreeRTOS/Source/stream_buffer.c",line 826,column 2,is_stmt
    2347 000598 DC6D          BTST #0, *AR3(#10), TC1 ; |826| 
         00059a 0000 
         00059c 0A   
    2348 00059d 0474          BCC $C$L82,!TC1 ; |826| 
         00059f 44   
    2349                                                      ; branchcc occurs ; |826| 
    2350                      .dwpsn  file "../FreeRTOS/Source/stream_buffer.c",line 828,column 3,is_stmt
    2351              $C$DW$226       .dwtag  DW_TAG_TI_branch
    2352                      .dwattr $C$DW$226, DW_AT_low_pc(0x00)
    2353                      .dwattr $C$DW$226, DW_AT_name("_prvBytesInBuffer")
    2354                      .dwattr $C$DW$226, DW_AT_TI_call
TMS320C55x Assembler PC v4.4.1 Sat Oct 06 06:38:33 2018

Tools Copyright (c) 1996-2012 Texas Instruments Incorporated
stream_buffer.asm                                                    PAGE   49

    2355 0005a0 0804          CALL #_prvBytesInBuffer ; |828| 
         0005a2 19   
    2356                                                      ; call occurs [#_prvBytesInBuffer] ; |828| 
    2357 0005a3 C40A          MOV T0, *SP(#5) ; |828| 
    2358                      .dwpsn  file "../FreeRTOS/Source/stream_buffer.c",line 829,column 3,is_stmt
    2359              
    2360 0005a5 2249          MOV T0, AR1
    2361 0005a7 3D1A  ||      MOV #1, AR2
    2362              
    2363 0005a9 12A8          CMPU AR1 <= AR2, TC1 ; |829| 
         0005ab 94   
    2364 0005ac 0464          BCC $C$L78,TC1 ; |829| 
         0005ae 21   
    2365                                                      ; branchcc occurs ; |829| 
    2366                      .dwpsn  file "../FreeRTOS/Source/stream_buffer.c",line 837,column 4,is_stmt
    2367 0005af ED04          MOV dbl(*SP(#2)), XAR3
         0005b1 BF   
    2368 0005b2 A961          MOV *AR3, AR1 ; |837| 
    2369 0005b4 C90C          MOV AR1, *SP(#6) ; |837| 
    2370                      .dwpsn  file "../FreeRTOS/Source/stream_buffer.c",line 838,column 4,is_stmt
    2371 0005b6 ED04          MOV dbl(*SP(#2)), XAR0
         0005b8 8F   
    2372 0005b9 A50A          MOV *SP(#5), T1 ; |838| 
    2373 0005bb EC0E          AMAR *SP(#7), XAR1
         0005bd 9E   
    2374              $C$DW$227       .dwtag  DW_TAG_TI_branch
    2375                      .dwattr $C$DW$227, DW_AT_low_pc(0x00)
    2376                      .dwattr $C$DW$227, DW_AT_name("_prvReadBytesFromBuffer")
    2377                      .dwattr $C$DW$227, DW_AT_TI_call
    2378              
    2379 0005be 0803          CALL #_prvReadBytesFromBuffer ; |838| 
         0005c0 15   
    2380 0005c1 3D14  ||      MOV #1, T0
    2381              
    2382                                                      ; call occurs [#_prvReadBytesFromBuffer] ; |838| 
    2383                      .dwpsn  file "../FreeRTOS/Source/stream_buffer.c",line 839,column 4,is_stmt
    2384 0005c3 A90E          MOV *SP(#7), AR1 ; |839| 
    2385 0005c5 C908          MOV AR1, *SP(#4) ; |839| 
    2386                      .dwpsn  file "../FreeRTOS/Source/stream_buffer.c",line 840,column 4,is_stmt
    2387 0005c7 ED04          MOV dbl(*SP(#2)), XAR3
         0005c9 BF   
    2388 0005ca A90C          MOV *SP(#6), AR1 ; |840| 
    2389 0005cc C961          MOV AR1, *AR3 ; |840| 
    2390                      .dwpsn  file "../FreeRTOS/Source/stream_buffer.c",line 841,column 3,is_stmt
    2391 0005ce 4A17          B $C$L83  ; |841| 
    2392                                                      ; branch occurs ; |841| 
    2393 0005d0       $C$L78:    
    2394                      .dwpsn  file "../FreeRTOS/Source/stream_buffer.c",line 848,column 4,is_stmt
    2395 0005d0 224A          MOV T0, AR2
    2396 0005d2 3C09          MOV #0, AR1
    2397 0005d4 611A          BCC $C$L79,AR2 != #0 ; |848| 
    2398                                                      ; branchcc occurs ; |848| 
    2399 0005d6 3C19          MOV #1, AR1
    2400 0005d8       $C$L79:    
    2401 0005d8 6299          BCC $C$L81,AR1 != #0 ; |848| 
TMS320C55x Assembler PC v4.4.1 Sat Oct 06 06:38:33 2018

Tools Copyright (c) 1996-2012 Texas Instruments Incorporated
stream_buffer.asm                                                    PAGE   50

    2402                                                      ; branchcc occurs ; |848| 
    2403 0005da 20     nop
    2404 0005db 46B3   bset INTM
    2405 0005dd       $C$L80:    
    2406 0005dd       $C$DW$L$_xStreamBufferNextMessageLengthBytes$11$B:
    2407 0005dd 4A7E          B $C$L80  ; |848| 
    2408                                                      ; branch occurs ; |848| 
    2409 0005df       $C$DW$L$_xStreamBufferNextMessageLengthBytes$11$E:
    2410 0005df       $C$L81:    
    2411                      .dwpsn  file "../FreeRTOS/Source/stream_buffer.c",line 849,column 4,is_stmt
    2412 0005df E608          MOV #0, *SP(#4) ; |849| 
         0005e1 00   
    2413                      .dwpsn  file "../FreeRTOS/Source/stream_buffer.c",line 851,column 2,is_stmt
    2414 0005e2 4A03          B $C$L83  ; |851| 
    2415                                                      ; branch occurs ; |851| 
    2416 0005e4       $C$L82:    
    2417                      .dwpsn  file "../FreeRTOS/Source/stream_buffer.c",line 854,column 3,is_stmt
    2418 0005e4 E608          MOV #0, *SP(#4) ; |854| 
         0005e6 00   
    2419 0005e7       $C$L83:    
    2420                      .dwpsn  file "../FreeRTOS/Source/stream_buffer.c",line 857,column 2,is_stmt
    2421 0005e7 A408          MOV *SP(#4), T0 ; |857| 
    2422                      .dwpsn  file "../FreeRTOS/Source/stream_buffer.c",line 858,column 1,is_stmt
    2423 0005e9 4E09          AADD #9, SP
    2424                      .dwcfi  cfa_offset, 1
    2425              $C$DW$228       .dwtag  DW_TAG_TI_branch
    2426                      .dwattr $C$DW$228, DW_AT_low_pc(0x00)
    2427                      .dwattr $C$DW$228, DW_AT_TI_return
    2428 0005eb 4804          RET
    2429                                                      ; return occurs
    2430              
    2431              $C$DW$229       .dwtag  DW_TAG_TI_loop
    2432                      .dwattr $C$DW$229, DW_AT_name("F:\eZdsp_DBG\tmp1\c55x-sim2\foo\Debug\stream_buffer.asm:$C$L80:1:15388
    2433                      .dwattr $C$DW$229, DW_AT_TI_begin_file("../FreeRTOS/Source/stream_buffer.c")
    2434                      .dwattr $C$DW$229, DW_AT_TI_begin_line(0x350)
    2435                      .dwattr $C$DW$229, DW_AT_TI_end_line(0x350)
    2436              $C$DW$230       .dwtag  DW_TAG_TI_loop_range
    2437                      .dwattr $C$DW$230, DW_AT_low_pc($C$DW$L$_xStreamBufferNextMessageLengthBytes$11$B)
    2438                      .dwattr $C$DW$230, DW_AT_high_pc($C$DW$L$_xStreamBufferNextMessageLengthBytes$11$E)
    2439                      .dwendtag $C$DW$229
    2440              
    2441              
    2442              $C$DW$231       .dwtag  DW_TAG_TI_loop
    2443                      .dwattr $C$DW$231, DW_AT_name("F:\eZdsp_DBG\tmp1\c55x-sim2\foo\Debug\stream_buffer.asm:$C$L76:1:15388
    2444                      .dwattr $C$DW$231, DW_AT_TI_begin_file("../FreeRTOS/Source/stream_buffer.c")
    2445                      .dwattr $C$DW$231, DW_AT_TI_begin_line(0x337)
    2446                      .dwattr $C$DW$231, DW_AT_TI_end_line(0x337)
    2447              $C$DW$232       .dwtag  DW_TAG_TI_loop_range
    2448                      .dwattr $C$DW$232, DW_AT_low_pc($C$DW$L$_xStreamBufferNextMessageLengthBytes$3$B)
    2449                      .dwattr $C$DW$232, DW_AT_high_pc($C$DW$L$_xStreamBufferNextMessageLengthBytes$3$E)
    2450                      .dwendtag $C$DW$231
    2451              
    2452                      .dwattr $C$DW$218, DW_AT_TI_end_file("../FreeRTOS/Source/stream_buffer.c")
    2453                      .dwattr $C$DW$218, DW_AT_TI_end_line(0x35a)
    2454                      .dwattr $C$DW$218, DW_AT_TI_end_column(0x01)
TMS320C55x Assembler PC v4.4.1 Sat Oct 06 06:38:33 2018

Tools Copyright (c) 1996-2012 Texas Instruments Incorporated
stream_buffer.asm                                                    PAGE   51

    2455                      .dwendentry
    2456                      .dwendtag $C$DW$218
    2457              
    2458 0005ed               .sect   ".text"
    2459                      .align 4
    2460                      .global _xStreamBufferReceiveFromISR
    2461              
    2462              $C$DW$233       .dwtag  DW_TAG_subprogram, DW_AT_name("xStreamBufferReceiveFromISR")
    2463                      .dwattr $C$DW$233, DW_AT_low_pc(_xStreamBufferReceiveFromISR)
    2464                      .dwattr $C$DW$233, DW_AT_high_pc(0x00)
    2465                      .dwattr $C$DW$233, DW_AT_TI_symbol_name("_xStreamBufferReceiveFromISR")
    2466                      .dwattr $C$DW$233, DW_AT_external
    2467                      .dwattr $C$DW$233, DW_AT_type(*$C$DW$T$20)
    2468                      .dwattr $C$DW$233, DW_AT_TI_begin_file("../FreeRTOS/Source/stream_buffer.c")
    2469                      .dwattr $C$DW$233, DW_AT_TI_begin_line(0x35d)
    2470                      .dwattr $C$DW$233, DW_AT_TI_begin_column(0x08)
    2471                      .dwattr $C$DW$233, DW_AT_TI_max_frame_size(0x10)
    2472                      .dwpsn  file "../FreeRTOS/Source/stream_buffer.c",line 865,column 1,is_stmt,address _xStreamBufferRec
    2473              
    2474                      .dwfde $C$DW$CIE, _xStreamBufferReceiveFromISR
    2475              $C$DW$234       .dwtag  DW_TAG_formal_parameter, DW_AT_name("xStreamBuffer")
    2476                      .dwattr $C$DW$234, DW_AT_TI_symbol_name("_xStreamBuffer")
    2477                      .dwattr $C$DW$234, DW_AT_type(*$C$DW$T$40)
    2478                      .dwattr $C$DW$234, DW_AT_location[DW_OP_reg17]
    2479              $C$DW$235       .dwtag  DW_TAG_formal_parameter, DW_AT_name("pvRxData")
    2480                      .dwattr $C$DW$235, DW_AT_TI_symbol_name("_pvRxData")
    2481                      .dwattr $C$DW$235, DW_AT_type(*$C$DW$T$3)
    2482                      .dwattr $C$DW$235, DW_AT_location[DW_OP_reg19]
    2483              $C$DW$236       .dwtag  DW_TAG_formal_parameter, DW_AT_name("xBufferLengthBytes")
    2484                      .dwattr $C$DW$236, DW_AT_TI_symbol_name("_xBufferLengthBytes")
    2485                      .dwattr $C$DW$236, DW_AT_type(*$C$DW$T$20)
    2486                      .dwattr $C$DW$236, DW_AT_location[DW_OP_reg12]
    2487              $C$DW$237       .dwtag  DW_TAG_formal_parameter, DW_AT_name("pxHigherPriorityTaskWoken")
    2488                      .dwattr $C$DW$237, DW_AT_TI_symbol_name("_pxHigherPriorityTaskWoken")
    2489                      .dwattr $C$DW$237, DW_AT_type(*$C$DW$T$72)
    2490                      .dwattr $C$DW$237, DW_AT_location[DW_OP_reg21]
    2491              ;*******************************************************************************
    2492              ;* FUNCTION NAME: xStreamBufferReceiveFromISR                                  *
    2493              ;*                                                                             *
    2494              ;*   Function Uses Regs : AC0,AC0,T0,T1,AR0,XAR0,AR1,XAR1,AR2,XAR2,AR3,XAR3,SP,*
    2495              ;*                        TC1,M40,SATA,SATD,RDM,FRCT,SMUL                      *
    2496              ;*   Stack Frame        : Compact (No Frame Pointer, w/ debug)                 *
    2497              ;*   Total Frame Size   : 16 words                                             *
    2498              ;*                        (2 return address/alignment)                         *
    2499              ;*                        (14 local values)                                    *
    2500              ;*   Min System Stack   : 1 word                                               *
    2501              ;*******************************************************************************
    2502 0005f0       _xStreamBufferReceiveFromISR:
    2503                      .dwcfi  cfa_offset, 1
    2504                      .dwcfi  save_reg_to_mem, 91, -1
    2505 0005f0 4EF1          AADD #-15, SP
    2506                      .dwcfi  cfa_offset, 16
    2507              $C$DW$238       .dwtag  DW_TAG_variable, DW_AT_name("xStreamBuffer")
    2508                      .dwattr $C$DW$238, DW_AT_TI_symbol_name("_xStreamBuffer")
    2509                      .dwattr $C$DW$238, DW_AT_type(*$C$DW$T$40)
TMS320C55x Assembler PC v4.4.1 Sat Oct 06 06:38:33 2018

Tools Copyright (c) 1996-2012 Texas Instruments Incorporated
stream_buffer.asm                                                    PAGE   52

    2510                      .dwattr $C$DW$238, DW_AT_location[DW_OP_bregx 0x24 0]
    2511              $C$DW$239       .dwtag  DW_TAG_variable, DW_AT_name("pvRxData")
    2512                      .dwattr $C$DW$239, DW_AT_TI_symbol_name("_pvRxData")
    2513                      .dwattr $C$DW$239, DW_AT_type(*$C$DW$T$3)
    2514                      .dwattr $C$DW$239, DW_AT_location[DW_OP_bregx 0x24 2]
    2515              $C$DW$240       .dwtag  DW_TAG_variable, DW_AT_name("xBufferLengthBytes")
    2516                      .dwattr $C$DW$240, DW_AT_TI_symbol_name("_xBufferLengthBytes")
    2517                      .dwattr $C$DW$240, DW_AT_type(*$C$DW$T$20)
    2518                      .dwattr $C$DW$240, DW_AT_location[DW_OP_bregx 0x24 4]
    2519              $C$DW$241       .dwtag  DW_TAG_variable, DW_AT_name("pxHigherPriorityTaskWoken")
    2520                      .dwattr $C$DW$241, DW_AT_TI_symbol_name("_pxHigherPriorityTaskWoken")
    2521                      .dwattr $C$DW$241, DW_AT_type(*$C$DW$T$72)
    2522                      .dwattr $C$DW$241, DW_AT_location[DW_OP_bregx 0x24 6]
    2523              $C$DW$242       .dwtag  DW_TAG_variable, DW_AT_name("pxStreamBuffer")
    2524                      .dwattr $C$DW$242, DW_AT_TI_symbol_name("_pxStreamBuffer")
    2525                      .dwattr $C$DW$242, DW_AT_type(*$C$DW$T$38)
    2526                      .dwattr $C$DW$242, DW_AT_location[DW_OP_bregx 0x24 8]
    2527              $C$DW$243       .dwtag  DW_TAG_variable, DW_AT_name("xReceivedLength")
    2528                      .dwattr $C$DW$243, DW_AT_TI_symbol_name("_xReceivedLength")
    2529                      .dwattr $C$DW$243, DW_AT_type(*$C$DW$T$20)
    2530                      .dwattr $C$DW$243, DW_AT_location[DW_OP_bregx 0x24 10]
    2531              $C$DW$244       .dwtag  DW_TAG_variable, DW_AT_name("xBytesAvailable")
    2532                      .dwattr $C$DW$244, DW_AT_TI_symbol_name("_xBytesAvailable")
    2533                      .dwattr $C$DW$244, DW_AT_type(*$C$DW$T$20)
    2534                      .dwattr $C$DW$244, DW_AT_location[DW_OP_bregx 0x24 11]
    2535              $C$DW$245       .dwtag  DW_TAG_variable, DW_AT_name("xBytesToStoreMessageLength")
    2536                      .dwattr $C$DW$245, DW_AT_TI_symbol_name("_xBytesToStoreMessageLength")
    2537                      .dwattr $C$DW$245, DW_AT_type(*$C$DW$T$20)
    2538                      .dwattr $C$DW$245, DW_AT_location[DW_OP_bregx 0x24 12]
    2539 0005f2 EB0C          MOV XAR2, dbl(*SP(#6))
         0005f4 A5   
    2540 0005f5 C408          MOV T0, *SP(#4) ; |865| 
    2541 0005f7 EB04          MOV XAR1, dbl(*SP(#2))
         0005f9 95   
    2542 0005fa EB00          MOV XAR0, dbl(*SP(#0))
         0005fc 85   
    2543                      .dwpsn  file "../FreeRTOS/Source/stream_buffer.c",line 866,column 24,is_stmt
    2544 0005fd ED00          MOV dbl(*SP(#0)), XAR3
         0005ff BF   
    2545 000600 EB10          MOV XAR3, dbl(*SP(#8))
         000602 B5   
    2546                      .dwpsn  file "../FreeRTOS/Source/stream_buffer.c",line 867,column 8,is_stmt
    2547 000603 E614          MOV #0, *SP(#10) ; |867| 
         000605 00   
    2548                      .dwpsn  file "../FreeRTOS/Source/stream_buffer.c",line 869,column 2,is_stmt
    2549 000606 ED04          MOV dbl(*SP(#2)), XAR3
         000608 BF   
    2550 000609 90B0          MOV XAR3, AC0
    2551 00060b 6290          BCC $C$L85,AC0 != #0 ; |869| 
    2552                                                      ; branchcc occurs ; |869| 
    2553 00060d 20     nop
    2554 00060e 46B3   bset INTM
    2555 000610       $C$L84:    
    2556 000610       $C$DW$L$_xStreamBufferReceiveFromISR$3$B:
    2557 000610 4A7E          B $C$L84  ; |869| 
TMS320C55x Assembler PC v4.4.1 Sat Oct 06 06:38:33 2018

Tools Copyright (c) 1996-2012 Texas Instruments Incorporated
stream_buffer.asm                                                    PAGE   53

    2558                                                      ; branch occurs ; |869| 
    2559 000612       $C$DW$L$_xStreamBufferReceiveFromISR$3$E:
    2560 000612       $C$L85:    
    2561                      .dwpsn  file "../FreeRTOS/Source/stream_buffer.c",line 870,column 2,is_stmt
    2562 000612 ED10          MOV dbl(*SP(#8)), XAR3
         000614 BF   
    2563 000615 90B0          MOV XAR3, AC0
    2564 000617 6290          BCC $C$L87,AC0 != #0 ; |870| 
    2565                                                      ; branchcc occurs ; |870| 
    2566 000619 20     nop
    2567 00061a 46B3   bset INTM
    2568 00061c       $C$L86:    
    2569 00061c       $C$DW$L$_xStreamBufferReceiveFromISR$6$B:
    2570 00061c 4A7E          B $C$L86  ; |870| 
    2571                                                      ; branch occurs ; |870| 
    2572 00061e       $C$DW$L$_xStreamBufferReceiveFromISR$6$E:
    2573 00061e       $C$L87:    
    2574                      .dwpsn  file "../FreeRTOS/Source/stream_buffer.c",line 877,column 2,is_stmt
    2575 00061e DC6D          BTST #0, *AR3(#10), TC1 ; |877| 
         000620 0000 
         000622 0A   
    2576 000623 62F4          BCC $C$L88,!TC1 ; |877| 
    2577                                                      ; branchcc occurs ; |877| 
    2578                      .dwpsn  file "../FreeRTOS/Source/stream_buffer.c",line 879,column 3,is_stmt
    2579 000625 E618          MOV #1, *SP(#12) ; |879| 
         000627 01   
    2580                      .dwpsn  file "../FreeRTOS/Source/stream_buffer.c",line 880,column 2,is_stmt
    2581 000628 4A03          B $C$L89  ; |880| 
    2582                                                      ; branch occurs ; |880| 
    2583 00062a       $C$L88:    
    2584                      .dwpsn  file "../FreeRTOS/Source/stream_buffer.c",line 883,column 3,is_stmt
    2585 00062a E618          MOV #0, *SP(#12) ; |883| 
         00062c 00   
    2586 00062d       $C$L89:    
    2587                      .dwpsn  file "../FreeRTOS/Source/stream_buffer.c",line 886,column 2,is_stmt
    2588 00062d ED10          MOV dbl(*SP(#8)), XAR0
         00062f 8F   
    2589              $C$DW$246       .dwtag  DW_TAG_TI_branch
    2590                      .dwattr $C$DW$246, DW_AT_low_pc(0x00)
    2591                      .dwattr $C$DW$246, DW_AT_name("_prvBytesInBuffer")
    2592                      .dwattr $C$DW$246, DW_AT_TI_call
    2593 000630 0803          CALL #_prvBytesInBuffer ; |886| 
         000632 89   
    2594                                                      ; call occurs [#_prvBytesInBuffer] ; |886| 
    2595 000633 C416          MOV T0, *SP(#11) ; |886| 
    2596                      .dwpsn  file "../FreeRTOS/Source/stream_buffer.c",line 893,column 2,is_stmt
    2597              
    2598 000635 A918          MOV *SP(#12), AR1 ; |893| 
    2599 000637 234A  ||      MOV T0, AR2 ; |893| 
    2600              
    2601 000639 1298          CMPU AR2 <= AR1, TC1 ; |893| 
         00063b A4   
    2602 00063c 0464          BCC $C$L90,TC1 ; |893| 
         00063e 45   
    2603                                                      ; branchcc occurs ; |893| 
TMS320C55x Assembler PC v4.4.1 Sat Oct 06 06:38:33 2018

Tools Copyright (c) 1996-2012 Texas Instruments Incorporated
stream_buffer.asm                                                    PAGE   54

    2604                      .dwpsn  file "../FreeRTOS/Source/stream_buffer.c",line 895,column 3,is_stmt
    2605 00063f ED10          MOV dbl(*SP(#8)), XAR0
         000641 8F   
    2606 000642 ED04          MOV dbl(*SP(#2)), XAR1
         000644 9F   
    2607 000645 A408          MOV *SP(#4), T0 ; |895| 
    2608              
    2609 000647 AA18          MOV *SP(#12), AR2 ; |895| 
    2610 000649 23A5  ||      MOV AR2, T1 ; |895| 
    2611              
    2612              $C$DW$247       .dwtag  DW_TAG_TI_branch
    2613                      .dwattr $C$DW$247, DW_AT_low_pc(0x00)
    2614                      .dwattr $C$DW$247, DW_AT_name("_prvReadMessageFromBuffer")
    2615                      .dwattr $C$DW$247, DW_AT_TI_call
    2616 00064b 0800          CALL #_prvReadMessageFromBuffer ; |895| 
         00064d 3E   
    2617                                                      ; call occurs [#_prvReadMessageFromBuffer] ; |895| 
    2618 00064e C414          MOV T0, *SP(#10) ; |895| 
    2619                      .dwpsn  file "../FreeRTOS/Source/stream_buffer.c",line 898,column 3,is_stmt
    2620 000650 2249          MOV T0, AR1
    2621 000652 0409          BCC $C$L90,AR1 == #0 ; |898| 
         000654 2F   
    2622                                                      ; branchcc occurs ; |898| 
    2623              
    2624              $C$DW$248       .dwtag  DW_TAG_lexical_block, DW_AT_low_pc(0x00), DW_AT_high_pc(0x00)
    2625              $C$DW$249       .dwtag  DW_TAG_variable, DW_AT_name("uxSavedInterruptStatus")
    2626                      .dwattr $C$DW$249, DW_AT_TI_symbol_name("_uxSavedInterruptStatus")
    2627                      .dwattr $C$DW$249, DW_AT_type(*$C$DW$T$86)
    2628                      .dwattr $C$DW$249, DW_AT_location[DW_OP_bregx 0x24 13]
    2629                      .dwpsn  file "../FreeRTOS/Source/stream_buffer.c",line 900,column 4,is_stmt
    2630 000655 E61A          MOV #0, *SP(#13) ; |900| 
         000657 00   
    2631 000658 ED10          MOV dbl(*SP(#8)), XAR3
         00065a BF   
    2632 00065b ED7D          MOV dbl(*AR3(short(#6))), XAR3
         00065d BF   
    2633 00065e 90B0          MOV XAR3, AC0
    2634 000660 0400          BCC $C$L90,AC0 == #0 ; |900| 
         000662 21   
    2635                                                      ; branchcc occurs ; |900| 
    2636 000663 ED10          MOV dbl(*SP(#8)), XAR3
         000665 BF   
    2637 000666 ED0C          MOV dbl(*SP(#6)), XAR2
         000668 AF   
    2638 000669 EC31          AMOV #0, XAR1 ; |900| 
         00066b 9E00 
         00066d 0000 
    2639 00066f 3C00          MOV #0, AC0 ; |900| 
    2640 000671 ED7D          MOV dbl(*AR3(short(#6))), XAR0
         000673 8F   
    2641              $C$DW$250       .dwtag  DW_TAG_TI_branch
    2642                      .dwattr $C$DW$250, DW_AT_low_pc(0x00)
    2643                      .dwattr $C$DW$250, DW_AT_name("_xTaskGenericNotifyFromISR")
    2644                      .dwattr $C$DW$250, DW_AT_TI_call
    2645              
TMS320C55x Assembler PC v4.4.1 Sat Oct 06 06:38:33 2018

Tools Copyright (c) 1996-2012 Texas Instruments Incorporated
stream_buffer.asm                                                    PAGE   55

    2646 000674 6C00          CALL #_xTaskGenericNotifyFromISR ; |900| 
         000676 0000!
    2647 000678 3D04  ||      MOV #0, T0
    2648              
    2649                                                      ; call occurs [#_xTaskGenericNotifyFromISR] ; |900| 
    2650 00067a ED10          MOV dbl(*SP(#8)), XAR3
         00067c BF   
    2651 00067d 3C00          MOV #0, AC0 ; |900| 
    2652 00067f EB7D          MOV AC0, dbl(*AR3(short(#6)))
         000681 08   
    2653                      .dwendtag $C$DW$248
    2654              
    2655                      .dwpsn  file "../FreeRTOS/Source/stream_buffer.c",line 901,column 3,is_stmt
    2656 000682 4A00          B $C$L90  ; |901| 
    2657                                                      ; branch occurs ; |901| 
    2658 000684       $C$L90:    
    2659                      .dwpsn  file "../FreeRTOS/Source/stream_buffer.c",line 914,column 2,is_stmt
    2660 000684 A414          MOV *SP(#10), T0 ; |914| 
    2661                      .dwpsn  file "../FreeRTOS/Source/stream_buffer.c",line 915,column 1,is_stmt
    2662 000686 4E0F          AADD #15, SP
    2663                      .dwcfi  cfa_offset, 1
    2664              $C$DW$251       .dwtag  DW_TAG_TI_branch
    2665                      .dwattr $C$DW$251, DW_AT_low_pc(0x00)
    2666                      .dwattr $C$DW$251, DW_AT_TI_return
    2667 000688 4804          RET
    2668                                                      ; return occurs
    2669              
    2670              $C$DW$252       .dwtag  DW_TAG_TI_loop
    2671                      .dwattr $C$DW$252, DW_AT_name("F:\eZdsp_DBG\tmp1\c55x-sim2\foo\Debug\stream_buffer.asm:$C$L86:1:15388
    2672                      .dwattr $C$DW$252, DW_AT_TI_begin_file("../FreeRTOS/Source/stream_buffer.c")
    2673                      .dwattr $C$DW$252, DW_AT_TI_begin_line(0x366)
    2674                      .dwattr $C$DW$252, DW_AT_TI_end_line(0x366)
    2675              $C$DW$253       .dwtag  DW_TAG_TI_loop_range
    2676                      .dwattr $C$DW$253, DW_AT_low_pc($C$DW$L$_xStreamBufferReceiveFromISR$6$B)
    2677                      .dwattr $C$DW$253, DW_AT_high_pc($C$DW$L$_xStreamBufferReceiveFromISR$6$E)
    2678                      .dwendtag $C$DW$252
    2679              
    2680              
    2681              $C$DW$254       .dwtag  DW_TAG_TI_loop
    2682                      .dwattr $C$DW$254, DW_AT_name("F:\eZdsp_DBG\tmp1\c55x-sim2\foo\Debug\stream_buffer.asm:$C$L84:1:15388
    2683                      .dwattr $C$DW$254, DW_AT_TI_begin_file("../FreeRTOS/Source/stream_buffer.c")
    2684                      .dwattr $C$DW$254, DW_AT_TI_begin_line(0x365)
    2685                      .dwattr $C$DW$254, DW_AT_TI_end_line(0x365)
    2686              $C$DW$255       .dwtag  DW_TAG_TI_loop_range
    2687                      .dwattr $C$DW$255, DW_AT_low_pc($C$DW$L$_xStreamBufferReceiveFromISR$3$B)
    2688                      .dwattr $C$DW$255, DW_AT_high_pc($C$DW$L$_xStreamBufferReceiveFromISR$3$E)
    2689                      .dwendtag $C$DW$254
    2690              
    2691                      .dwattr $C$DW$233, DW_AT_TI_end_file("../FreeRTOS/Source/stream_buffer.c")
    2692                      .dwattr $C$DW$233, DW_AT_TI_end_line(0x393)
    2693                      .dwattr $C$DW$233, DW_AT_TI_end_column(0x01)
    2694                      .dwendentry
    2695                      .dwendtag $C$DW$233
    2696              
    2697 00068a               .sect   ".text"
TMS320C55x Assembler PC v4.4.1 Sat Oct 06 06:38:33 2018

Tools Copyright (c) 1996-2012 Texas Instruments Incorporated
stream_buffer.asm                                                    PAGE   56

    2698                      .align 4
    2699              
    2700              $C$DW$256       .dwtag  DW_TAG_subprogram, DW_AT_name("prvReadMessageFromBuffer")
    2701                      .dwattr $C$DW$256, DW_AT_low_pc(_prvReadMessageFromBuffer)
    2702                      .dwattr $C$DW$256, DW_AT_high_pc(0x00)
    2703                      .dwattr $C$DW$256, DW_AT_TI_symbol_name("_prvReadMessageFromBuffer")
    2704                      .dwattr $C$DW$256, DW_AT_type(*$C$DW$T$20)
    2705                      .dwattr $C$DW$256, DW_AT_TI_begin_file("../FreeRTOS/Source/stream_buffer.c")
    2706                      .dwattr $C$DW$256, DW_AT_TI_begin_line(0x396)
    2707                      .dwattr $C$DW$256, DW_AT_TI_begin_column(0x0f)
    2708                      .dwattr $C$DW$256, DW_AT_TI_max_frame_size(0x0c)
    2709                      .dwpsn  file "../FreeRTOS/Source/stream_buffer.c",line 923,column 1,is_stmt,address _prvReadMessageFr
    2710              
    2711                      .dwfde $C$DW$CIE, _prvReadMessageFromBuffer
    2712              $C$DW$257       .dwtag  DW_TAG_formal_parameter, DW_AT_name("pxStreamBuffer")
    2713                      .dwattr $C$DW$257, DW_AT_TI_symbol_name("_pxStreamBuffer")
    2714                      .dwattr $C$DW$257, DW_AT_type(*$C$DW$T$37)
    2715                      .dwattr $C$DW$257, DW_AT_location[DW_OP_reg17]
    2716              $C$DW$258       .dwtag  DW_TAG_formal_parameter, DW_AT_name("pvRxData")
    2717                      .dwattr $C$DW$258, DW_AT_TI_symbol_name("_pvRxData")
    2718                      .dwattr $C$DW$258, DW_AT_type(*$C$DW$T$3)
    2719                      .dwattr $C$DW$258, DW_AT_location[DW_OP_reg19]
    2720              $C$DW$259       .dwtag  DW_TAG_formal_parameter, DW_AT_name("xBufferLengthBytes")
    2721                      .dwattr $C$DW$259, DW_AT_TI_symbol_name("_xBufferLengthBytes")
    2722                      .dwattr $C$DW$259, DW_AT_type(*$C$DW$T$20)
    2723                      .dwattr $C$DW$259, DW_AT_location[DW_OP_reg12]
    2724              $C$DW$260       .dwtag  DW_TAG_formal_parameter, DW_AT_name("xBytesAvailable")
    2725                      .dwattr $C$DW$260, DW_AT_TI_symbol_name("_xBytesAvailable")
    2726                      .dwattr $C$DW$260, DW_AT_type(*$C$DW$T$20)
    2727                      .dwattr $C$DW$260, DW_AT_location[DW_OP_reg13]
    2728              $C$DW$261       .dwtag  DW_TAG_formal_parameter, DW_AT_name("xBytesToStoreMessageLength")
    2729                      .dwattr $C$DW$261, DW_AT_TI_symbol_name("_xBytesToStoreMessageLength")
    2730                      .dwattr $C$DW$261, DW_AT_type(*$C$DW$T$20)
    2731                      .dwattr $C$DW$261, DW_AT_location[DW_OP_reg20]
    2732              ;*******************************************************************************
    2733              ;* FUNCTION NAME: prvReadMessageFromBuffer                                     *
    2734              ;*                                                                             *
    2735              ;*   Function Uses Regs : AC0,T0,T1,AR0,XAR0,AR1,XAR1,AR2,AR3,XAR3,SP,CARRY,   *
    2736              ;*                        TC1,M40,SATA,SATD,RDM,FRCT,SMUL                      *
    2737              ;*   Stack Frame        : Compact (No Frame Pointer, w/ debug)                 *
    2738              ;*   Total Frame Size   : 12 words                                             *
    2739              ;*                        (1 return address/alignment)                         *
    2740              ;*                        (11 local values)                                    *
    2741              ;*   Min System Stack   : 1 word                                               *
    2742              ;*******************************************************************************
    2743 00068c       _prvReadMessageFromBuffer:
    2744                      .dwcfi  cfa_offset, 1
    2745                      .dwcfi  save_reg_to_mem, 91, -1
    2746 00068c 4EF5          AADD #-11, SP
    2747                      .dwcfi  cfa_offset, 12
    2748              $C$DW$262       .dwtag  DW_TAG_variable, DW_AT_name("pxStreamBuffer")
    2749                      .dwattr $C$DW$262, DW_AT_TI_symbol_name("_pxStreamBuffer")
    2750                      .dwattr $C$DW$262, DW_AT_type(*$C$DW$T$37)
    2751                      .dwattr $C$DW$262, DW_AT_location[DW_OP_bregx 0x24 0]
    2752              $C$DW$263       .dwtag  DW_TAG_variable, DW_AT_name("pvRxData")
TMS320C55x Assembler PC v4.4.1 Sat Oct 06 06:38:33 2018

Tools Copyright (c) 1996-2012 Texas Instruments Incorporated
stream_buffer.asm                                                    PAGE   57

    2753                      .dwattr $C$DW$263, DW_AT_TI_symbol_name("_pvRxData")
    2754                      .dwattr $C$DW$263, DW_AT_type(*$C$DW$T$3)
    2755                      .dwattr $C$DW$263, DW_AT_location[DW_OP_bregx 0x24 2]
    2756              $C$DW$264       .dwtag  DW_TAG_variable, DW_AT_name("xBufferLengthBytes")
    2757                      .dwattr $C$DW$264, DW_AT_TI_symbol_name("_xBufferLengthBytes")
    2758                      .dwattr $C$DW$264, DW_AT_type(*$C$DW$T$20)
    2759                      .dwattr $C$DW$264, DW_AT_location[DW_OP_bregx 0x24 4]
    2760              $C$DW$265       .dwtag  DW_TAG_variable, DW_AT_name("xBytesAvailable")
    2761                      .dwattr $C$DW$265, DW_AT_TI_symbol_name("_xBytesAvailable")
    2762                      .dwattr $C$DW$265, DW_AT_type(*$C$DW$T$20)
    2763                      .dwattr $C$DW$265, DW_AT_location[DW_OP_bregx 0x24 5]
    2764              $C$DW$266       .dwtag  DW_TAG_variable, DW_AT_name("xBytesToStoreMessageLength")
    2765                      .dwattr $C$DW$266, DW_AT_TI_symbol_name("_xBytesToStoreMessageLength")
    2766                      .dwattr $C$DW$266, DW_AT_type(*$C$DW$T$20)
    2767                      .dwattr $C$DW$266, DW_AT_location[DW_OP_bregx 0x24 6]
    2768              $C$DW$267       .dwtag  DW_TAG_variable, DW_AT_name("xOriginalTail")
    2769                      .dwattr $C$DW$267, DW_AT_TI_symbol_name("_xOriginalTail")
    2770                      .dwattr $C$DW$267, DW_AT_type(*$C$DW$T$20)
    2771                      .dwattr $C$DW$267, DW_AT_location[DW_OP_bregx 0x24 7]
    2772              $C$DW$268       .dwtag  DW_TAG_variable, DW_AT_name("xReceivedLength")
    2773                      .dwattr $C$DW$268, DW_AT_TI_symbol_name("_xReceivedLength")
    2774                      .dwattr $C$DW$268, DW_AT_type(*$C$DW$T$20)
    2775                      .dwattr $C$DW$268, DW_AT_location[DW_OP_bregx 0x24 8]
    2776              $C$DW$269       .dwtag  DW_TAG_variable, DW_AT_name("xNextMessageLength")
    2777                      .dwattr $C$DW$269, DW_AT_TI_symbol_name("_xNextMessageLength")
    2778                      .dwattr $C$DW$269, DW_AT_type(*$C$DW$T$20)
    2779                      .dwattr $C$DW$269, DW_AT_location[DW_OP_bregx 0x24 9]
    2780              $C$DW$270       .dwtag  DW_TAG_variable, DW_AT_name("xTempNextMessageLength")
    2781                      .dwattr $C$DW$270, DW_AT_TI_symbol_name("_xTempNextMessageLength")
    2782                      .dwattr $C$DW$270, DW_AT_type(*$C$DW$T$20)
    2783                      .dwattr $C$DW$270, DW_AT_location[DW_OP_bregx 0x24 10]
    2784 00068e CA0C          MOV AR2, *SP(#6) ; |923| 
    2785 000690 C50A          MOV T1, *SP(#5) ; |923| 
    2786 000692 C408          MOV T0, *SP(#4) ; |923| 
    2787 000694 EB04          MOV XAR1, dbl(*SP(#2))
         000696 95   
    2788 000697 EB00          MOV XAR0, dbl(*SP(#0))
         000699 85   
    2789                      .dwpsn  file "../FreeRTOS/Source/stream_buffer.c",line 927,column 2,is_stmt
    2790 00069a A90C          MOV *SP(#6), AR1 ; |927| 
    2791 00069c 0409          BCC $C$L91,AR1 == #0 ; |927| 
         00069e 35   
    2792                                                      ; branchcc occurs ; |927| 
    2793                      .dwpsn  file "../FreeRTOS/Source/stream_buffer.c",line 933,column 3,is_stmt
    2794 00069f ED00          MOV dbl(*SP(#0)), XAR3
         0006a1 BF   
    2795 0006a2 A961          MOV *AR3, AR1 ; |933| 
    2796 0006a4 C90E          MOV AR1, *SP(#7) ; |933| 
    2797                      .dwpsn  file "../FreeRTOS/Source/stream_buffer.c",line 934,column 3,is_stmt
    2798 0006a6 ED00          MOV dbl(*SP(#0)), XAR0
         0006a8 8F   
    2799 0006a9 A40C          MOV *SP(#6), T0 ; |934| 
    2800 0006ab A50A          MOV *SP(#5), T1 ; |934| 
    2801 0006ad EC14          AMAR *SP(#10), XAR1
         0006af 9E   
TMS320C55x Assembler PC v4.4.1 Sat Oct 06 06:38:33 2018

Tools Copyright (c) 1996-2012 Texas Instruments Incorporated
stream_buffer.asm                                                    PAGE   58

    2802              $C$DW$271       .dwtag  DW_TAG_TI_branch
    2803                      .dwattr $C$DW$271, DW_AT_low_pc(0x00)
    2804                      .dwattr $C$DW$271, DW_AT_name("_prvReadBytesFromBuffer")
    2805                      .dwattr $C$DW$271, DW_AT_TI_call
    2806 0006b0 0802          CALL #_prvReadBytesFromBuffer ; |934| 
         0006b2 25   
    2807                                                      ; call occurs [#_prvReadBytesFromBuffer] ; |934| 
    2808                      .dwpsn  file "../FreeRTOS/Source/stream_buffer.c",line 935,column 3,is_stmt
    2809 0006b3 A914          MOV *SP(#10), AR1 ; |935| 
    2810 0006b5 C912          MOV AR1, *SP(#9) ; |935| 
    2811                      .dwpsn  file "../FreeRTOS/Source/stream_buffer.c",line 939,column 3,is_stmt
    2812 0006b7 A00A          MOV *SP(#5), AC0 ; |939| 
    2813 0006b9 DF0C          SUB uns(*SP(#6)), AC0, AC0 ; |939| 
         0006bb 0F   
    2814 0006bc C00A          MOV AC0, *SP(#5) ; |939| 
    2815                      .dwpsn  file "../FreeRTOS/Source/stream_buffer.c",line 943,column 3,is_stmt
    2816 0006be AA12          MOV *SP(#9), AR2 ; |943| 
    2817 0006c0 A908          MOV *SP(#4), AR1 ; |943| 
    2818 0006c2 1298          CMPU AR2 <= AR1, TC1 ; |943| 
         0006c4 A4   
    2819 0006c5 0464          BCC $C$L92,TC1 ; |943| 
         0006c7 10   
    2820                                                      ; branchcc occurs ; |943| 
    2821                      .dwpsn  file "../FreeRTOS/Source/stream_buffer.c",line 948,column 4,is_stmt
    2822 0006c8 ED00          MOV dbl(*SP(#0)), XAR3
         0006ca BF   
    2823 0006cb A90E          MOV *SP(#7), AR1 ; |948| 
    2824 0006cd C961          MOV AR1, *AR3 ; |948| 
    2825                      .dwpsn  file "../FreeRTOS/Source/stream_buffer.c",line 949,column 4,is_stmt
    2826 0006cf E612          MOV #0, *SP(#9) ; |949| 
         0006d1 00   
    2827                      .dwpsn  file "../FreeRTOS/Source/stream_buffer.c",line 950,column 3,is_stmt
    2828 0006d2 4A04          B $C$L92  ; |950| 
    2829                                                      ; branch occurs ; |950| 
    2830 0006d4       $C$L91:    
    2831                      .dwpsn  file "../FreeRTOS/Source/stream_buffer.c",line 960,column 3,is_stmt
    2832 0006d4 A908          MOV *SP(#4), AR1 ; |960| 
    2833 0006d6 C912          MOV AR1, *SP(#9) ; |960| 
    2834 0006d8       $C$L92:    
    2835                      .dwpsn  file "../FreeRTOS/Source/stream_buffer.c",line 964,column 2,is_stmt
    2836 0006d8 ED00          MOV dbl(*SP(#0)), XAR0
         0006da 8F   
    2837 0006db ED04          MOV dbl(*SP(#2)), XAR1
         0006dd 9F   
    2838 0006de A412          MOV *SP(#9), T0 ; |964| 
    2839 0006e0 A50A          MOV *SP(#5), T1 ; |964| 
    2840              $C$DW$272       .dwtag  DW_TAG_TI_branch
    2841                      .dwattr $C$DW$272, DW_AT_low_pc(0x00)
    2842                      .dwattr $C$DW$272, DW_AT_name("_prvReadBytesFromBuffer")
    2843                      .dwattr $C$DW$272, DW_AT_TI_call
    2844 0006e2 0801          CALL #_prvReadBytesFromBuffer ; |964| 
         0006e4 F3   
    2845                                                      ; call occurs [#_prvReadBytesFromBuffer] ; |964| 
    2846 0006e5 C410          MOV T0, *SP(#8) ; |964| 
    2847                      .dwpsn  file "../FreeRTOS/Source/stream_buffer.c",line 966,column 2,is_stmt
TMS320C55x Assembler PC v4.4.1 Sat Oct 06 06:38:33 2018

Tools Copyright (c) 1996-2012 Texas Instruments Incorporated
stream_buffer.asm                                                    PAGE   59

    2848                      .dwpsn  file "../FreeRTOS/Source/stream_buffer.c",line 967,column 1,is_stmt
    2849 0006e7 4E0B          AADD #11, SP
    2850                      .dwcfi  cfa_offset, 1
    2851              $C$DW$273       .dwtag  DW_TAG_TI_branch
    2852                      .dwattr $C$DW$273, DW_AT_low_pc(0x00)
    2853                      .dwattr $C$DW$273, DW_AT_TI_return
    2854 0006e9 4804          RET
    2855                                                      ; return occurs
    2856                      .dwattr $C$DW$256, DW_AT_TI_end_file("../FreeRTOS/Source/stream_buffer.c")
    2857                      .dwattr $C$DW$256, DW_AT_TI_end_line(0x3c7)
    2858                      .dwattr $C$DW$256, DW_AT_TI_end_column(0x01)
    2859                      .dwendentry
    2860                      .dwendtag $C$DW$256
    2861              
    2862 0006eb               .sect   ".text"
    2863                      .align 4
    2864                      .global _xStreamBufferIsEmpty
    2865              
    2866              $C$DW$274       .dwtag  DW_TAG_subprogram, DW_AT_name("xStreamBufferIsEmpty")
    2867                      .dwattr $C$DW$274, DW_AT_low_pc(_xStreamBufferIsEmpty)
    2868                      .dwattr $C$DW$274, DW_AT_high_pc(0x00)
    2869                      .dwattr $C$DW$274, DW_AT_TI_symbol_name("_xStreamBufferIsEmpty")
    2870                      .dwattr $C$DW$274, DW_AT_external
    2871                      .dwattr $C$DW$274, DW_AT_type(*$C$DW$T$28)
    2872                      .dwattr $C$DW$274, DW_AT_TI_begin_file("../FreeRTOS/Source/stream_buffer.c")
    2873                      .dwattr $C$DW$274, DW_AT_TI_begin_line(0x3ca)
    2874                      .dwattr $C$DW$274, DW_AT_TI_begin_column(0x0c)
    2875                      .dwattr $C$DW$274, DW_AT_TI_max_frame_size(0x08)
    2876                      .dwpsn  file "../FreeRTOS/Source/stream_buffer.c",line 971,column 1,is_stmt,address _xStreamBufferIsE
    2877              
    2878                      .dwfde $C$DW$CIE, _xStreamBufferIsEmpty
    2879              $C$DW$275       .dwtag  DW_TAG_formal_parameter, DW_AT_name("xStreamBuffer")
    2880                      .dwattr $C$DW$275, DW_AT_TI_symbol_name("_xStreamBuffer")
    2881                      .dwattr $C$DW$275, DW_AT_type(*$C$DW$T$40)
    2882                      .dwattr $C$DW$275, DW_AT_location[DW_OP_reg17]
    2883              ;*******************************************************************************
    2884              ;* FUNCTION NAME: xStreamBufferIsEmpty                                         *
    2885              ;*                                                                             *
    2886              ;*   Function Uses Regs : AC0,AC0,T0,AR0,XAR0,AR1,AR2,AR3,XAR3,SP,TC1,M40,SATA,*
    2887              ;*                        SATD,RDM,FRCT,SMUL                                   *
    2888              ;*   Stack Frame        : Compact (No Frame Pointer, w/ debug)                 *
    2889              ;*   Total Frame Size   : 8 words                                              *
    2890              ;*                        (2 return address/alignment)                         *
    2891              ;*                        (6 local values)                                     *
    2892              ;*   Min System Stack   : 1 word                                               *
    2893              ;*******************************************************************************
    2894 0006ec       _xStreamBufferIsEmpty:
    2895                      .dwcfi  cfa_offset, 1
    2896                      .dwcfi  save_reg_to_mem, 91, -1
    2897 0006ec 4EF9          AADD #-7, SP
    2898                      .dwcfi  cfa_offset, 8
    2899              $C$DW$276       .dwtag  DW_TAG_variable, DW_AT_name("xStreamBuffer")
    2900                      .dwattr $C$DW$276, DW_AT_TI_symbol_name("_xStreamBuffer")
    2901                      .dwattr $C$DW$276, DW_AT_type(*$C$DW$T$40)
    2902                      .dwattr $C$DW$276, DW_AT_location[DW_OP_bregx 0x24 0]
TMS320C55x Assembler PC v4.4.1 Sat Oct 06 06:38:33 2018

Tools Copyright (c) 1996-2012 Texas Instruments Incorporated
stream_buffer.asm                                                    PAGE   60

    2903              $C$DW$277       .dwtag  DW_TAG_variable, DW_AT_name("pxStreamBuffer")
    2904                      .dwattr $C$DW$277, DW_AT_TI_symbol_name("_pxStreamBuffer")
    2905                      .dwattr $C$DW$277, DW_AT_type(*$C$DW$T$36)
    2906                      .dwattr $C$DW$277, DW_AT_location[DW_OP_bregx 0x24 2]
    2907              $C$DW$278       .dwtag  DW_TAG_variable, DW_AT_name("xReturn")
    2908                      .dwattr $C$DW$278, DW_AT_TI_symbol_name("_xReturn")
    2909                      .dwattr $C$DW$278, DW_AT_type(*$C$DW$T$28)
    2910                      .dwattr $C$DW$278, DW_AT_location[DW_OP_bregx 0x24 4]
    2911              $C$DW$279       .dwtag  DW_TAG_variable, DW_AT_name("xTail")
    2912                      .dwattr $C$DW$279, DW_AT_TI_symbol_name("_xTail")
    2913                      .dwattr $C$DW$279, DW_AT_type(*$C$DW$T$20)
    2914                      .dwattr $C$DW$279, DW_AT_location[DW_OP_bregx 0x24 5]
    2915 0006ee EB00          MOV XAR0, dbl(*SP(#0))
         0006f0 85   
    2916                      .dwpsn  file "../FreeRTOS/Source/stream_buffer.c",line 972,column 30,is_stmt
    2917 0006f1 ED00          MOV dbl(*SP(#0)), XAR3
         0006f3 BF   
    2918 0006f4 EB04          MOV XAR3, dbl(*SP(#2))
         0006f6 B5   
    2919                      .dwpsn  file "../FreeRTOS/Source/stream_buffer.c",line 976,column 2,is_stmt
    2920 0006f7 90B0          MOV XAR3, AC0
    2921 0006f9 6290          BCC $C$L94,AC0 != #0 ; |976| 
    2922                                                      ; branchcc occurs ; |976| 
    2923 0006fb 20     nop
    2924 0006fc 46B3   bset INTM
    2925 0006fe       $C$L93:    
    2926 0006fe       $C$DW$L$_xStreamBufferIsEmpty$3$B:
    2927 0006fe 4A7E          B $C$L93  ; |976| 
    2928                                                      ; branch occurs ; |976| 
    2929 000700       $C$DW$L$_xStreamBufferIsEmpty$3$E:
    2930 000700       $C$L94:    
    2931                      .dwpsn  file "../FreeRTOS/Source/stream_buffer.c",line 979,column 2,is_stmt
    2932 000700 A961          MOV *AR3, AR1 ; |979| 
    2933 000702 C90A          MOV AR1, *SP(#5) ; |979| 
    2934                      .dwpsn  file "../FreeRTOS/Source/stream_buffer.c",line 980,column 2,is_stmt
    2935 000704 ED04          MOV dbl(*SP(#2)), XAR3
         000706 BF   
    2936 000707 AA73          MOV *AR3(short(#1)), AR2 ; |980| 
    2937 000709 12AC          CMPU AR2 != AR1, TC1 ; |980| 
         00070b 94   
    2938 00070c 62E4          BCC $C$L95,TC1 ; |980| 
    2939                                                      ; branchcc occurs ; |980| 
    2940                      .dwpsn  file "../FreeRTOS/Source/stream_buffer.c",line 982,column 3,is_stmt
    2941 00070e E608          MOV #1, *SP(#4) ; |982| 
         000710 01   
    2942                      .dwpsn  file "../FreeRTOS/Source/stream_buffer.c",line 983,column 2,is_stmt
    2943 000711 4A03          B $C$L96  ; |983| 
    2944                                                      ; branch occurs ; |983| 
    2945 000713       $C$L95:    
    2946                      .dwpsn  file "../FreeRTOS/Source/stream_buffer.c",line 986,column 3,is_stmt
    2947 000713 E608          MOV #0, *SP(#4) ; |986| 
         000715 00   
    2948 000716       $C$L96:    
    2949                      .dwpsn  file "../FreeRTOS/Source/stream_buffer.c",line 989,column 2,is_stmt
    2950 000716 A408          MOV *SP(#4), T0 ; |989| 
TMS320C55x Assembler PC v4.4.1 Sat Oct 06 06:38:33 2018

Tools Copyright (c) 1996-2012 Texas Instruments Incorporated
stream_buffer.asm                                                    PAGE   61

    2951                      .dwpsn  file "../FreeRTOS/Source/stream_buffer.c",line 990,column 1,is_stmt
    2952 000718 4E07          AADD #7, SP
    2953                      .dwcfi  cfa_offset, 1
    2954              $C$DW$280       .dwtag  DW_TAG_TI_branch
    2955                      .dwattr $C$DW$280, DW_AT_low_pc(0x00)
    2956                      .dwattr $C$DW$280, DW_AT_TI_return
    2957 00071a 4804          RET
    2958                                                      ; return occurs
    2959              
    2960              $C$DW$281       .dwtag  DW_TAG_TI_loop
    2961                      .dwattr $C$DW$281, DW_AT_name("F:\eZdsp_DBG\tmp1\c55x-sim2\foo\Debug\stream_buffer.asm:$C$L93:1:15388
    2962                      .dwattr $C$DW$281, DW_AT_TI_begin_file("../FreeRTOS/Source/stream_buffer.c")
    2963                      .dwattr $C$DW$281, DW_AT_TI_begin_line(0x3d0)
    2964                      .dwattr $C$DW$281, DW_AT_TI_end_line(0x3d0)
    2965              $C$DW$282       .dwtag  DW_TAG_TI_loop_range
    2966                      .dwattr $C$DW$282, DW_AT_low_pc($C$DW$L$_xStreamBufferIsEmpty$3$B)
    2967                      .dwattr $C$DW$282, DW_AT_high_pc($C$DW$L$_xStreamBufferIsEmpty$3$E)
    2968                      .dwendtag $C$DW$281
    2969              
    2970                      .dwattr $C$DW$274, DW_AT_TI_end_file("../FreeRTOS/Source/stream_buffer.c")
    2971                      .dwattr $C$DW$274, DW_AT_TI_end_line(0x3de)
    2972                      .dwattr $C$DW$274, DW_AT_TI_end_column(0x01)
    2973                      .dwendentry
    2974                      .dwendtag $C$DW$274
    2975              
    2976 00071c               .sect   ".text"
    2977                      .align 4
    2978                      .global _xStreamBufferIsFull
    2979              
    2980              $C$DW$283       .dwtag  DW_TAG_subprogram, DW_AT_name("xStreamBufferIsFull")
    2981                      .dwattr $C$DW$283, DW_AT_low_pc(_xStreamBufferIsFull)
    2982                      .dwattr $C$DW$283, DW_AT_high_pc(0x00)
    2983                      .dwattr $C$DW$283, DW_AT_TI_symbol_name("_xStreamBufferIsFull")
    2984                      .dwattr $C$DW$283, DW_AT_external
    2985                      .dwattr $C$DW$283, DW_AT_type(*$C$DW$T$28)
    2986                      .dwattr $C$DW$283, DW_AT_TI_begin_file("../FreeRTOS/Source/stream_buffer.c")
    2987                      .dwattr $C$DW$283, DW_AT_TI_begin_line(0x3e1)
    2988                      .dwattr $C$DW$283, DW_AT_TI_begin_column(0x0c)
    2989                      .dwattr $C$DW$283, DW_AT_TI_max_frame_size(0x08)
    2990                      .dwpsn  file "../FreeRTOS/Source/stream_buffer.c",line 994,column 1,is_stmt,address _xStreamBufferIsF
    2991              
    2992                      .dwfde $C$DW$CIE, _xStreamBufferIsFull
    2993              $C$DW$284       .dwtag  DW_TAG_formal_parameter, DW_AT_name("xStreamBuffer")
    2994                      .dwattr $C$DW$284, DW_AT_TI_symbol_name("_xStreamBuffer")
    2995                      .dwattr $C$DW$284, DW_AT_type(*$C$DW$T$40)
    2996                      .dwattr $C$DW$284, DW_AT_location[DW_OP_reg17]
    2997              ;*******************************************************************************
    2998              ;* FUNCTION NAME: xStreamBufferIsFull                                          *
    2999              ;*                                                                             *
    3000              ;*   Function Uses Regs : AC0,AC0,T0,AR0,XAR0,AR1,AR3,XAR3,SP,TC1,M40,SATA,    *
    3001              ;*                        SATD,RDM,FRCT,SMUL                                   *
    3002              ;*   Stack Frame        : Compact (No Frame Pointer, w/ debug)                 *
    3003              ;*   Total Frame Size   : 8 words                                              *
    3004              ;*                        (2 return address/alignment)                         *
    3005              ;*                        (6 local values)                                     *
TMS320C55x Assembler PC v4.4.1 Sat Oct 06 06:38:33 2018

Tools Copyright (c) 1996-2012 Texas Instruments Incorporated
stream_buffer.asm                                                    PAGE   62

    3006              ;*   Min System Stack   : 1 word                                               *
    3007              ;*******************************************************************************
    3008 00071c       _xStreamBufferIsFull:
    3009                      .dwcfi  cfa_offset, 1
    3010                      .dwcfi  save_reg_to_mem, 91, -1
    3011 00071c 4EF9          AADD #-7, SP
    3012                      .dwcfi  cfa_offset, 8
    3013              $C$DW$285       .dwtag  DW_TAG_variable, DW_AT_name("xStreamBuffer")
    3014                      .dwattr $C$DW$285, DW_AT_TI_symbol_name("_xStreamBuffer")
    3015                      .dwattr $C$DW$285, DW_AT_type(*$C$DW$T$40)
    3016                      .dwattr $C$DW$285, DW_AT_location[DW_OP_bregx 0x24 0]
    3017              $C$DW$286       .dwtag  DW_TAG_variable, DW_AT_name("xReturn")
    3018                      .dwattr $C$DW$286, DW_AT_TI_symbol_name("_xReturn")
    3019                      .dwattr $C$DW$286, DW_AT_type(*$C$DW$T$28)
    3020                      .dwattr $C$DW$286, DW_AT_location[DW_OP_bregx 0x24 2]
    3021              $C$DW$287       .dwtag  DW_TAG_variable, DW_AT_name("xBytesToStoreMessageLength")
    3022                      .dwattr $C$DW$287, DW_AT_TI_symbol_name("_xBytesToStoreMessageLength")
    3023                      .dwattr $C$DW$287, DW_AT_type(*$C$DW$T$20)
    3024                      .dwattr $C$DW$287, DW_AT_location[DW_OP_bregx 0x24 3]
    3025              $C$DW$288       .dwtag  DW_TAG_variable, DW_AT_name("pxStreamBuffer")
    3026                      .dwattr $C$DW$288, DW_AT_TI_symbol_name("_pxStreamBuffer")
    3027                      .dwattr $C$DW$288, DW_AT_type(*$C$DW$T$36)
    3028                      .dwattr $C$DW$288, DW_AT_location[DW_OP_bregx 0x24 4]
    3029 00071e EB00          MOV XAR0, dbl(*SP(#0))
         000720 85   
    3030                      .dwpsn  file "../FreeRTOS/Source/stream_buffer.c",line 997,column 30,is_stmt
    3031 000721 ED00          MOV dbl(*SP(#0)), XAR3
         000723 BF   
    3032 000724 EB08          MOV XAR3, dbl(*SP(#4))
         000726 B5   
    3033                      .dwpsn  file "../FreeRTOS/Source/stream_buffer.c",line 999,column 2,is_stmt
    3034 000727 90B0          MOV XAR3, AC0
    3035 000729 6290          BCC $C$L98,AC0 != #0 ; |999| 
    3036                                                      ; branchcc occurs ; |999| 
    3037 00072b 20     nop
    3038 00072c 46B3   bset INTM
    3039 00072e       $C$L97:    
    3040 00072e       $C$DW$L$_xStreamBufferIsFull$3$B:
    3041 00072e 4A7E          B $C$L97  ; |999| 
    3042                                                      ; branch occurs ; |999| 
    3043 000730       $C$DW$L$_xStreamBufferIsFull$3$E:
    3044 000730       $C$L98:    
    3045                      .dwpsn  file "../FreeRTOS/Source/stream_buffer.c",line 1005,column 2,is_stmt
    3046 000730 DC6D          BTST #0, *AR3(#10), TC1 ; |1005| 
         000732 0000 
         000734 0A   
    3047 000735 62F4          BCC $C$L99,!TC1 ; |1005| 
    3048                                                      ; branchcc occurs ; |1005| 
    3049                      .dwpsn  file "../FreeRTOS/Source/stream_buffer.c",line 1007,column 3,is_stmt
    3050 000737 E606          MOV #1, *SP(#3) ; |1007| 
         000739 01   
    3051                      .dwpsn  file "../FreeRTOS/Source/stream_buffer.c",line 1008,column 2,is_stmt
    3052 00073a 4A03          B $C$L100 ; |1008| 
    3053                                                      ; branch occurs ; |1008| 
    3054 00073c       $C$L99:    
TMS320C55x Assembler PC v4.4.1 Sat Oct 06 06:38:33 2018

Tools Copyright (c) 1996-2012 Texas Instruments Incorporated
stream_buffer.asm                                                    PAGE   63

    3055                      .dwpsn  file "../FreeRTOS/Source/stream_buffer.c",line 1011,column 3,is_stmt
    3056 00073c E606          MOV #0, *SP(#3) ; |1011| 
         00073e 00   
    3057 00073f       $C$L100:    
    3058                      .dwpsn  file "../FreeRTOS/Source/stream_buffer.c",line 1015,column 2,is_stmt
    3059 00073f ED00          MOV dbl(*SP(#0)), XAR0
         000741 8F   
    3060              $C$DW$289       .dwtag  DW_TAG_TI_branch
    3061                      .dwattr $C$DW$289, DW_AT_low_pc(0x00)
    3062                      .dwattr $C$DW$289, DW_AT_name("_xStreamBufferSpacesAvailable")
    3063                      .dwattr $C$DW$289, DW_AT_TI_call
    3064 000742 08FA          CALL #_xStreamBufferSpacesAvailable ; |1015| 
         000744 1F   
    3065                                                      ; call occurs [#_xStreamBufferSpacesAvailable] ; |1015| 
    3066 000745 A906          MOV *SP(#3), AR1 ; |1015| 
    3067 000747 1294          CMPU T0 > AR1, TC1 ; |1015| 
         000749 44   
    3068 00074a 62E4          BCC $C$L101,TC1 ; |1015| 
    3069                                                      ; branchcc occurs ; |1015| 
    3070                      .dwpsn  file "../FreeRTOS/Source/stream_buffer.c",line 1017,column 3,is_stmt
    3071 00074c E604          MOV #1, *SP(#2) ; |1017| 
         00074e 01   
    3072                      .dwpsn  file "../FreeRTOS/Source/stream_buffer.c",line 1018,column 2,is_stmt
    3073 00074f 4A03          B $C$L102 ; |1018| 
    3074                                                      ; branch occurs ; |1018| 
    3075 000751       $C$L101:    
    3076                      .dwpsn  file "../FreeRTOS/Source/stream_buffer.c",line 1021,column 3,is_stmt
    3077 000751 E604          MOV #0, *SP(#2) ; |1021| 
         000753 00   
    3078 000754       $C$L102:    
    3079                      .dwpsn  file "../FreeRTOS/Source/stream_buffer.c",line 1024,column 2,is_stmt
    3080 000754 A404          MOV *SP(#2), T0 ; |1024| 
    3081                      .dwpsn  file "../FreeRTOS/Source/stream_buffer.c",line 1025,column 1,is_stmt
    3082 000756 4E07          AADD #7, SP
    3083                      .dwcfi  cfa_offset, 1
    3084              $C$DW$290       .dwtag  DW_TAG_TI_branch
    3085                      .dwattr $C$DW$290, DW_AT_low_pc(0x00)
    3086                      .dwattr $C$DW$290, DW_AT_TI_return
    3087 000758 4804          RET
    3088                                                      ; return occurs
    3089              
    3090              $C$DW$291       .dwtag  DW_TAG_TI_loop
    3091                      .dwattr $C$DW$291, DW_AT_name("F:\eZdsp_DBG\tmp1\c55x-sim2\foo\Debug\stream_buffer.asm:$C$L97:1:15388
    3092                      .dwattr $C$DW$291, DW_AT_TI_begin_file("../FreeRTOS/Source/stream_buffer.c")
    3093                      .dwattr $C$DW$291, DW_AT_TI_begin_line(0x3e7)
    3094                      .dwattr $C$DW$291, DW_AT_TI_end_line(0x3e7)
    3095              $C$DW$292       .dwtag  DW_TAG_TI_loop_range
    3096                      .dwattr $C$DW$292, DW_AT_low_pc($C$DW$L$_xStreamBufferIsFull$3$B)
    3097                      .dwattr $C$DW$292, DW_AT_high_pc($C$DW$L$_xStreamBufferIsFull$3$E)
    3098                      .dwendtag $C$DW$291
    3099              
    3100                      .dwattr $C$DW$283, DW_AT_TI_end_file("../FreeRTOS/Source/stream_buffer.c")
    3101                      .dwattr $C$DW$283, DW_AT_TI_end_line(0x401)
    3102                      .dwattr $C$DW$283, DW_AT_TI_end_column(0x01)
    3103                      .dwendentry
TMS320C55x Assembler PC v4.4.1 Sat Oct 06 06:38:33 2018

Tools Copyright (c) 1996-2012 Texas Instruments Incorporated
stream_buffer.asm                                                    PAGE   64

    3104                      .dwendtag $C$DW$283
    3105              
    3106 00075a               .sect   ".text"
    3107                      .align 4
    3108                      .global _xStreamBufferSendCompletedFromISR
    3109              
    3110              $C$DW$293       .dwtag  DW_TAG_subprogram, DW_AT_name("xStreamBufferSendCompletedFromISR")
    3111                      .dwattr $C$DW$293, DW_AT_low_pc(_xStreamBufferSendCompletedFromISR)
    3112                      .dwattr $C$DW$293, DW_AT_high_pc(0x00)
    3113                      .dwattr $C$DW$293, DW_AT_TI_symbol_name("_xStreamBufferSendCompletedFromISR")
    3114                      .dwattr $C$DW$293, DW_AT_external
    3115                      .dwattr $C$DW$293, DW_AT_type(*$C$DW$T$28)
    3116                      .dwattr $C$DW$293, DW_AT_TI_begin_file("../FreeRTOS/Source/stream_buffer.c")
    3117                      .dwattr $C$DW$293, DW_AT_TI_begin_line(0x404)
    3118                      .dwattr $C$DW$293, DW_AT_TI_begin_column(0x0c)
    3119                      .dwattr $C$DW$293, DW_AT_TI_max_frame_size(0x0a)
    3120                      .dwpsn  file "../FreeRTOS/Source/stream_buffer.c",line 1029,column 1,is_stmt,address _xStreamBufferSe
    3121              
    3122                      .dwfde $C$DW$CIE, _xStreamBufferSendCompletedFromISR
    3123              $C$DW$294       .dwtag  DW_TAG_formal_parameter, DW_AT_name("xStreamBuffer")
    3124                      .dwattr $C$DW$294, DW_AT_TI_symbol_name("_xStreamBuffer")
    3125                      .dwattr $C$DW$294, DW_AT_type(*$C$DW$T$40)
    3126                      .dwattr $C$DW$294, DW_AT_location[DW_OP_reg17]
    3127              $C$DW$295       .dwtag  DW_TAG_formal_parameter, DW_AT_name("pxHigherPriorityTaskWoken")
    3128                      .dwattr $C$DW$295, DW_AT_TI_symbol_name("_pxHigherPriorityTaskWoken")
    3129                      .dwattr $C$DW$295, DW_AT_type(*$C$DW$T$71)
    3130                      .dwattr $C$DW$295, DW_AT_location[DW_OP_reg19]
    3131              ;*******************************************************************************
    3132              ;* FUNCTION NAME: xStreamBufferSendCompletedFromISR                            *
    3133              ;*                                                                             *
    3134              ;*   Function Uses Regs : AC0,AC0,T0,AR0,XAR0,AR1,XAR1,AR2,XAR2,AR3,XAR3,SP,   *
    3135              ;*                        M40,SATA,SATD,RDM,FRCT,SMUL                          *
    3136              ;*   Stack Frame        : Compact (No Frame Pointer, w/ debug)                 *
    3137              ;*   Total Frame Size   : 10 words                                             *
    3138              ;*                        (2 return address/alignment)                         *
    3139              ;*                        (8 local values)                                     *
    3140              ;*   Min System Stack   : 1 word                                               *
    3141              ;*******************************************************************************
    3142 00075c       _xStreamBufferSendCompletedFromISR:
    3143                      .dwcfi  cfa_offset, 1
    3144                      .dwcfi  save_reg_to_mem, 91, -1
    3145 00075c 4EF7          AADD #-9, SP
    3146                      .dwcfi  cfa_offset, 10
    3147              $C$DW$296       .dwtag  DW_TAG_variable, DW_AT_name("xStreamBuffer")
    3148                      .dwattr $C$DW$296, DW_AT_TI_symbol_name("_xStreamBuffer")
    3149                      .dwattr $C$DW$296, DW_AT_type(*$C$DW$T$40)
    3150                      .dwattr $C$DW$296, DW_AT_location[DW_OP_bregx 0x24 0]
    3151              $C$DW$297       .dwtag  DW_TAG_variable, DW_AT_name("pxHigherPriorityTaskWoken")
    3152                      .dwattr $C$DW$297, DW_AT_TI_symbol_name("_pxHigherPriorityTaskWoken")
    3153                      .dwattr $C$DW$297, DW_AT_type(*$C$DW$T$71)
    3154                      .dwattr $C$DW$297, DW_AT_location[DW_OP_bregx 0x24 2]
    3155              $C$DW$298       .dwtag  DW_TAG_variable, DW_AT_name("pxStreamBuffer")
    3156                      .dwattr $C$DW$298, DW_AT_TI_symbol_name("_pxStreamBuffer")
    3157                      .dwattr $C$DW$298, DW_AT_type(*$C$DW$T$38)
    3158                      .dwattr $C$DW$298, DW_AT_location[DW_OP_bregx 0x24 4]
TMS320C55x Assembler PC v4.4.1 Sat Oct 06 06:38:33 2018

Tools Copyright (c) 1996-2012 Texas Instruments Incorporated
stream_buffer.asm                                                    PAGE   65

    3159              $C$DW$299       .dwtag  DW_TAG_variable, DW_AT_name("xReturn")
    3160                      .dwattr $C$DW$299, DW_AT_TI_symbol_name("_xReturn")
    3161                      .dwattr $C$DW$299, DW_AT_type(*$C$DW$T$28)
    3162                      .dwattr $C$DW$299, DW_AT_location[DW_OP_bregx 0x24 6]
    3163              $C$DW$300       .dwtag  DW_TAG_variable, DW_AT_name("uxSavedInterruptStatus")
    3164                      .dwattr $C$DW$300, DW_AT_TI_symbol_name("_uxSavedInterruptStatus")
    3165                      .dwattr $C$DW$300, DW_AT_type(*$C$DW$T$86)
    3166                      .dwattr $C$DW$300, DW_AT_location[DW_OP_bregx 0x24 7]
    3167 00075e EB04          MOV XAR1, dbl(*SP(#2))
         000760 95   
    3168 000761 EB00          MOV XAR0, dbl(*SP(#0))
         000763 85   
    3169                      .dwpsn  file "../FreeRTOS/Source/stream_buffer.c",line 1030,column 24,is_stmt
    3170 000764 ED00          MOV dbl(*SP(#0)), XAR3
         000766 BF   
    3171 000767 EB08          MOV XAR3, dbl(*SP(#4))
         000769 B5   
    3172                      .dwpsn  file "../FreeRTOS/Source/stream_buffer.c",line 1034,column 2,is_stmt
    3173 00076a 90B0          MOV XAR3, AC0
    3174 00076c 6290          BCC $C$L104,AC0 != #0 ; |1034| 
    3175                                                      ; branchcc occurs ; |1034| 
    3176 00076e 20     nop
    3177 00076f 46B3   bset INTM
    3178 000771       $C$L103:    
    3179 000771       $C$DW$L$_xStreamBufferSendCompletedFromISR$3$B:
    3180 000771 4A7E          B $C$L103 ; |1034| 
    3181                                                      ; branch occurs ; |1034| 
    3182 000773       $C$DW$L$_xStreamBufferSendCompletedFromISR$3$E:
    3183 000773       $C$L104:    
    3184                      .dwpsn  file "../FreeRTOS/Source/stream_buffer.c",line 1036,column 2,is_stmt
    3185 000773 E60E          MOV #0, *SP(#7) ; |1036| 
         000775 00   
    3186                      .dwpsn  file "../FreeRTOS/Source/stream_buffer.c",line 1038,column 3,is_stmt
    3187 000776 ED08          MOV dbl(*SP(#4)), XAR3
         000778 BF   
    3188 000779 ED79          MOV dbl(*AR3(short(#4))), XAR3
         00077b BF   
    3189 00077c 90B0          MOV XAR3, AC0
    3190 00077e 0400          BCC $C$L105,AC0 == #0 ; |1038| 
         000780 24   
    3191                                                      ; branchcc occurs ; |1038| 
    3192                      .dwpsn  file "../FreeRTOS/Source/stream_buffer.c",line 1040,column 4,is_stmt
    3193 000781 ED08          MOV dbl(*SP(#4)), XAR3
         000783 BF   
    3194 000784 ED04          MOV dbl(*SP(#2)), XAR2
         000786 AF   
    3195 000787 EC31          AMOV #0, XAR1 ; |1040| 
         000789 9E00 
         00078b 0000 
    3196 00078d 3C00          MOV #0, AC0 ; |1040| 
    3197 00078f ED79          MOV dbl(*AR3(short(#4))), XAR0
         000791 8F   
    3198              $C$DW$301       .dwtag  DW_TAG_TI_branch
    3199                      .dwattr $C$DW$301, DW_AT_low_pc(0x00)
    3200                      .dwattr $C$DW$301, DW_AT_name("_xTaskGenericNotifyFromISR")
TMS320C55x Assembler PC v4.4.1 Sat Oct 06 06:38:33 2018

Tools Copyright (c) 1996-2012 Texas Instruments Incorporated
stream_buffer.asm                                                    PAGE   66

    3201                      .dwattr $C$DW$301, DW_AT_TI_call
    3202              
    3203 000792 6C00          CALL #_xTaskGenericNotifyFromISR ; |1040| 
         000794 0000!
    3204 000796 3D04  ||      MOV #0, T0
    3205              
    3206                                                      ; call occurs [#_xTaskGenericNotifyFromISR] ; |1040| 
    3207                      .dwpsn  file "../FreeRTOS/Source/stream_buffer.c",line 1044,column 4,is_stmt
    3208 000798 ED08          MOV dbl(*SP(#4)), XAR3
         00079a BF   
    3209 00079b 3C00          MOV #0, AC0 ; |1044| 
    3210 00079d EB79          MOV AC0, dbl(*AR3(short(#4)))
         00079f 08   
    3211                      .dwpsn  file "../FreeRTOS/Source/stream_buffer.c",line 1045,column 4,is_stmt
    3212 0007a0 E60C          MOV #1, *SP(#6) ; |1045| 
         0007a2 01   
    3213                      .dwpsn  file "../FreeRTOS/Source/stream_buffer.c",line 1046,column 3,is_stmt
    3214 0007a3 4A03          B $C$L106 ; |1046| 
    3215                                                      ; branch occurs ; |1046| 
    3216 0007a5       $C$L105:    
    3217                      .dwpsn  file "../FreeRTOS/Source/stream_buffer.c",line 1049,column 4,is_stmt
    3218 0007a5 E60C          MOV #0, *SP(#6) ; |1049| 
         0007a7 00   
    3219 0007a8       $C$L106:    
    3220                      .dwpsn  file "../FreeRTOS/Source/stream_buffer.c",line 1052,column 2,is_stmt
    3221                      .dwpsn  file "../FreeRTOS/Source/stream_buffer.c",line 1054,column 2,is_stmt
    3222 0007a8 A40C          MOV *SP(#6), T0 ; |1054| 
    3223                      .dwpsn  file "../FreeRTOS/Source/stream_buffer.c",line 1055,column 1,is_stmt
    3224 0007aa 4E09          AADD #9, SP
    3225                      .dwcfi  cfa_offset, 1
    3226              $C$DW$302       .dwtag  DW_TAG_TI_branch
    3227                      .dwattr $C$DW$302, DW_AT_low_pc(0x00)
    3228                      .dwattr $C$DW$302, DW_AT_TI_return
    3229 0007ac 4804          RET
    3230                                                      ; return occurs
    3231              
    3232              $C$DW$303       .dwtag  DW_TAG_TI_loop
    3233                      .dwattr $C$DW$303, DW_AT_name("F:\eZdsp_DBG\tmp1\c55x-sim2\foo\Debug\stream_buffer.asm:$C$L103:1:1538
    3234                      .dwattr $C$DW$303, DW_AT_TI_begin_file("../FreeRTOS/Source/stream_buffer.c")
    3235                      .dwattr $C$DW$303, DW_AT_TI_begin_line(0x40a)
    3236                      .dwattr $C$DW$303, DW_AT_TI_end_line(0x40a)
    3237              $C$DW$304       .dwtag  DW_TAG_TI_loop_range
    3238                      .dwattr $C$DW$304, DW_AT_low_pc($C$DW$L$_xStreamBufferSendCompletedFromISR$3$B)
    3239                      .dwattr $C$DW$304, DW_AT_high_pc($C$DW$L$_xStreamBufferSendCompletedFromISR$3$E)
    3240                      .dwendtag $C$DW$303
    3241              
    3242                      .dwattr $C$DW$293, DW_AT_TI_end_file("../FreeRTOS/Source/stream_buffer.c")
    3243                      .dwattr $C$DW$293, DW_AT_TI_end_line(0x41f)
    3244                      .dwattr $C$DW$293, DW_AT_TI_end_column(0x01)
    3245                      .dwendentry
    3246                      .dwendtag $C$DW$293
    3247              
    3248 0007ae               .sect   ".text"
    3249                      .align 4
    3250                      .global _xStreamBufferReceiveCompletedFromISR
TMS320C55x Assembler PC v4.4.1 Sat Oct 06 06:38:33 2018

Tools Copyright (c) 1996-2012 Texas Instruments Incorporated
stream_buffer.asm                                                    PAGE   67

    3251              
    3252              $C$DW$305       .dwtag  DW_TAG_subprogram, DW_AT_name("xStreamBufferReceiveCompletedFromISR")
    3253                      .dwattr $C$DW$305, DW_AT_low_pc(_xStreamBufferReceiveCompletedFromISR)
    3254                      .dwattr $C$DW$305, DW_AT_high_pc(0x00)
    3255                      .dwattr $C$DW$305, DW_AT_TI_symbol_name("_xStreamBufferReceiveCompletedFromISR")
    3256                      .dwattr $C$DW$305, DW_AT_external
    3257                      .dwattr $C$DW$305, DW_AT_type(*$C$DW$T$28)
    3258                      .dwattr $C$DW$305, DW_AT_TI_begin_file("../FreeRTOS/Source/stream_buffer.c")
    3259                      .dwattr $C$DW$305, DW_AT_TI_begin_line(0x422)
    3260                      .dwattr $C$DW$305, DW_AT_TI_begin_column(0x0c)
    3261                      .dwattr $C$DW$305, DW_AT_TI_max_frame_size(0x0a)
    3262                      .dwpsn  file "../FreeRTOS/Source/stream_buffer.c",line 1059,column 1,is_stmt,address _xStreamBufferRe
    3263              
    3264                      .dwfde $C$DW$CIE, _xStreamBufferReceiveCompletedFromISR
    3265              $C$DW$306       .dwtag  DW_TAG_formal_parameter, DW_AT_name("xStreamBuffer")
    3266                      .dwattr $C$DW$306, DW_AT_TI_symbol_name("_xStreamBuffer")
    3267                      .dwattr $C$DW$306, DW_AT_type(*$C$DW$T$40)
    3268                      .dwattr $C$DW$306, DW_AT_location[DW_OP_reg17]
    3269              $C$DW$307       .dwtag  DW_TAG_formal_parameter, DW_AT_name("pxHigherPriorityTaskWoken")
    3270                      .dwattr $C$DW$307, DW_AT_TI_symbol_name("_pxHigherPriorityTaskWoken")
    3271                      .dwattr $C$DW$307, DW_AT_type(*$C$DW$T$71)
    3272                      .dwattr $C$DW$307, DW_AT_location[DW_OP_reg19]
    3273              ;*******************************************************************************
    3274              ;* FUNCTION NAME: xStreamBufferReceiveCompletedFromISR                         *
    3275              ;*                                                                             *
    3276              ;*   Function Uses Regs : AC0,AC0,T0,AR0,XAR0,AR1,XAR1,AR2,XAR2,AR3,XAR3,SP,   *
    3277              ;*                        M40,SATA,SATD,RDM,FRCT,SMUL                          *
    3278              ;*   Stack Frame        : Compact (No Frame Pointer, w/ debug)                 *
    3279              ;*   Total Frame Size   : 10 words                                             *
    3280              ;*                        (2 return address/alignment)                         *
    3281              ;*                        (8 local values)                                     *
    3282              ;*   Min System Stack   : 1 word                                               *
    3283              ;*******************************************************************************
    3284 0007b0       _xStreamBufferReceiveCompletedFromISR:
    3285                      .dwcfi  cfa_offset, 1
    3286                      .dwcfi  save_reg_to_mem, 91, -1
    3287 0007b0 4EF7          AADD #-9, SP
    3288                      .dwcfi  cfa_offset, 10
    3289              $C$DW$308       .dwtag  DW_TAG_variable, DW_AT_name("xStreamBuffer")
    3290                      .dwattr $C$DW$308, DW_AT_TI_symbol_name("_xStreamBuffer")
    3291                      .dwattr $C$DW$308, DW_AT_type(*$C$DW$T$40)
    3292                      .dwattr $C$DW$308, DW_AT_location[DW_OP_bregx 0x24 0]
    3293              $C$DW$309       .dwtag  DW_TAG_variable, DW_AT_name("pxHigherPriorityTaskWoken")
    3294                      .dwattr $C$DW$309, DW_AT_TI_symbol_name("_pxHigherPriorityTaskWoken")
    3295                      .dwattr $C$DW$309, DW_AT_type(*$C$DW$T$71)
    3296                      .dwattr $C$DW$309, DW_AT_location[DW_OP_bregx 0x24 2]
    3297              $C$DW$310       .dwtag  DW_TAG_variable, DW_AT_name("pxStreamBuffer")
    3298                      .dwattr $C$DW$310, DW_AT_TI_symbol_name("_pxStreamBuffer")
    3299                      .dwattr $C$DW$310, DW_AT_type(*$C$DW$T$38)
    3300                      .dwattr $C$DW$310, DW_AT_location[DW_OP_bregx 0x24 4]
    3301              $C$DW$311       .dwtag  DW_TAG_variable, DW_AT_name("xReturn")
    3302                      .dwattr $C$DW$311, DW_AT_TI_symbol_name("_xReturn")
    3303                      .dwattr $C$DW$311, DW_AT_type(*$C$DW$T$28)
    3304                      .dwattr $C$DW$311, DW_AT_location[DW_OP_bregx 0x24 6]
    3305              $C$DW$312       .dwtag  DW_TAG_variable, DW_AT_name("uxSavedInterruptStatus")
TMS320C55x Assembler PC v4.4.1 Sat Oct 06 06:38:33 2018

Tools Copyright (c) 1996-2012 Texas Instruments Incorporated
stream_buffer.asm                                                    PAGE   68

    3306                      .dwattr $C$DW$312, DW_AT_TI_symbol_name("_uxSavedInterruptStatus")
    3307                      .dwattr $C$DW$312, DW_AT_type(*$C$DW$T$86)
    3308                      .dwattr $C$DW$312, DW_AT_location[DW_OP_bregx 0x24 7]
    3309 0007b2 EB04          MOV XAR1, dbl(*SP(#2))
         0007b4 95   
    3310 0007b5 EB00          MOV XAR0, dbl(*SP(#0))
         0007b7 85   
    3311                      .dwpsn  file "../FreeRTOS/Source/stream_buffer.c",line 1060,column 24,is_stmt
    3312 0007b8 ED00          MOV dbl(*SP(#0)), XAR3
         0007ba BF   
    3313 0007bb EB08          MOV XAR3, dbl(*SP(#4))
         0007bd B5   
    3314                      .dwpsn  file "../FreeRTOS/Source/stream_buffer.c",line 1064,column 2,is_stmt
    3315 0007be 90B0          MOV XAR3, AC0
    3316 0007c0 6290          BCC $C$L108,AC0 != #0 ; |1064| 
    3317                                                      ; branchcc occurs ; |1064| 
    3318 0007c2 20     nop
    3319 0007c3 46B3   bset INTM
    3320 0007c5       $C$L107:    
    3321 0007c5       $C$DW$L$_xStreamBufferReceiveCompletedFromISR$3$B:
    3322 0007c5 4A7E          B $C$L107 ; |1064| 
    3323                                                      ; branch occurs ; |1064| 
    3324 0007c7       $C$DW$L$_xStreamBufferReceiveCompletedFromISR$3$E:
    3325 0007c7       $C$L108:    
    3326                      .dwpsn  file "../FreeRTOS/Source/stream_buffer.c",line 1066,column 2,is_stmt
    3327 0007c7 E60E          MOV #0, *SP(#7) ; |1066| 
         0007c9 00   
    3328                      .dwpsn  file "../FreeRTOS/Source/stream_buffer.c",line 1068,column 3,is_stmt
    3329 0007ca ED08          MOV dbl(*SP(#4)), XAR3
         0007cc BF   
    3330 0007cd ED7D          MOV dbl(*AR3(short(#6))), XAR3
         0007cf BF   
    3331 0007d0 90B0          MOV XAR3, AC0
    3332 0007d2 0400          BCC $C$L109,AC0 == #0 ; |1068| 
         0007d4 24   
    3333                                                      ; branchcc occurs ; |1068| 
    3334                      .dwpsn  file "../FreeRTOS/Source/stream_buffer.c",line 1070,column 4,is_stmt
    3335 0007d5 ED08          MOV dbl(*SP(#4)), XAR3
         0007d7 BF   
    3336 0007d8 ED04          MOV dbl(*SP(#2)), XAR2
         0007da AF   
    3337 0007db EC31          AMOV #0, XAR1 ; |1070| 
         0007dd 9E00 
         0007df 0000 
    3338 0007e1 3C00          MOV #0, AC0 ; |1070| 
    3339 0007e3 ED7D          MOV dbl(*AR3(short(#6))), XAR0
         0007e5 8F   
    3340              $C$DW$313       .dwtag  DW_TAG_TI_branch
    3341                      .dwattr $C$DW$313, DW_AT_low_pc(0x00)
    3342                      .dwattr $C$DW$313, DW_AT_name("_xTaskGenericNotifyFromISR")
    3343                      .dwattr $C$DW$313, DW_AT_TI_call
    3344              
    3345 0007e6 6C00          CALL #_xTaskGenericNotifyFromISR ; |1070| 
         0007e8 0000!
    3346 0007ea 3D04  ||      MOV #0, T0
TMS320C55x Assembler PC v4.4.1 Sat Oct 06 06:38:33 2018

Tools Copyright (c) 1996-2012 Texas Instruments Incorporated
stream_buffer.asm                                                    PAGE   69

    3347              
    3348                                                      ; call occurs [#_xTaskGenericNotifyFromISR] ; |1070| 
    3349                      .dwpsn  file "../FreeRTOS/Source/stream_buffer.c",line 1074,column 4,is_stmt
    3350 0007ec ED08          MOV dbl(*SP(#4)), XAR3
         0007ee BF   
    3351 0007ef 3C00          MOV #0, AC0 ; |1074| 
    3352 0007f1 EB7D          MOV AC0, dbl(*AR3(short(#6)))
         0007f3 08   
    3353                      .dwpsn  file "../FreeRTOS/Source/stream_buffer.c",line 1075,column 4,is_stmt
    3354 0007f4 E60C          MOV #1, *SP(#6) ; |1075| 
         0007f6 01   
    3355                      .dwpsn  file "../FreeRTOS/Source/stream_buffer.c",line 1076,column 3,is_stmt
    3356 0007f7 4A03          B $C$L110 ; |1076| 
    3357                                                      ; branch occurs ; |1076| 
    3358 0007f9       $C$L109:    
    3359                      .dwpsn  file "../FreeRTOS/Source/stream_buffer.c",line 1079,column 4,is_stmt
    3360 0007f9 E60C          MOV #0, *SP(#6) ; |1079| 
         0007fb 00   
    3361 0007fc       $C$L110:    
    3362                      .dwpsn  file "../FreeRTOS/Source/stream_buffer.c",line 1082,column 2,is_stmt
    3363                      .dwpsn  file "../FreeRTOS/Source/stream_buffer.c",line 1084,column 2,is_stmt
    3364 0007fc A40C          MOV *SP(#6), T0 ; |1084| 
    3365                      .dwpsn  file "../FreeRTOS/Source/stream_buffer.c",line 1085,column 1,is_stmt
    3366 0007fe 4E09          AADD #9, SP
    3367                      .dwcfi  cfa_offset, 1
    3368              $C$DW$314       .dwtag  DW_TAG_TI_branch
    3369                      .dwattr $C$DW$314, DW_AT_low_pc(0x00)
    3370                      .dwattr $C$DW$314, DW_AT_TI_return
    3371 000800 4804          RET
    3372                                                      ; return occurs
    3373              
    3374              $C$DW$315       .dwtag  DW_TAG_TI_loop
    3375                      .dwattr $C$DW$315, DW_AT_name("F:\eZdsp_DBG\tmp1\c55x-sim2\foo\Debug\stream_buffer.asm:$C$L107:1:1538
    3376                      .dwattr $C$DW$315, DW_AT_TI_begin_file("../FreeRTOS/Source/stream_buffer.c")
    3377                      .dwattr $C$DW$315, DW_AT_TI_begin_line(0x428)
    3378                      .dwattr $C$DW$315, DW_AT_TI_end_line(0x428)
    3379              $C$DW$316       .dwtag  DW_TAG_TI_loop_range
    3380                      .dwattr $C$DW$316, DW_AT_low_pc($C$DW$L$_xStreamBufferReceiveCompletedFromISR$3$B)
    3381                      .dwattr $C$DW$316, DW_AT_high_pc($C$DW$L$_xStreamBufferReceiveCompletedFromISR$3$E)
    3382                      .dwendtag $C$DW$315
    3383              
    3384                      .dwattr $C$DW$305, DW_AT_TI_end_file("../FreeRTOS/Source/stream_buffer.c")
    3385                      .dwattr $C$DW$305, DW_AT_TI_end_line(0x43d)
    3386                      .dwattr $C$DW$305, DW_AT_TI_end_column(0x01)
    3387                      .dwendentry
    3388                      .dwendtag $C$DW$305
    3389              
    3390 000802               .sect   ".text"
    3391                      .align 4
    3392              
    3393              $C$DW$317       .dwtag  DW_TAG_subprogram, DW_AT_name("prvWriteBytesToBuffer")
    3394                      .dwattr $C$DW$317, DW_AT_low_pc(_prvWriteBytesToBuffer)
    3395                      .dwattr $C$DW$317, DW_AT_high_pc(0x00)
    3396                      .dwattr $C$DW$317, DW_AT_TI_symbol_name("_prvWriteBytesToBuffer")
    3397                      .dwattr $C$DW$317, DW_AT_type(*$C$DW$T$20)
TMS320C55x Assembler PC v4.4.1 Sat Oct 06 06:38:33 2018

Tools Copyright (c) 1996-2012 Texas Instruments Incorporated
stream_buffer.asm                                                    PAGE   70

    3398                      .dwattr $C$DW$317, DW_AT_TI_begin_file("../FreeRTOS/Source/stream_buffer.c")
    3399                      .dwattr $C$DW$317, DW_AT_TI_begin_line(0x440)
    3400                      .dwattr $C$DW$317, DW_AT_TI_begin_column(0x0f)
    3401                      .dwattr $C$DW$317, DW_AT_TI_max_frame_size(0x08)
    3402                      .dwpsn  file "../FreeRTOS/Source/stream_buffer.c",line 1089,column 1,is_stmt,address _prvWriteBytesTo
    3403              
    3404                      .dwfde $C$DW$CIE, _prvWriteBytesToBuffer
    3405              $C$DW$318       .dwtag  DW_TAG_formal_parameter, DW_AT_name("pxStreamBuffer")
    3406                      .dwattr $C$DW$318, DW_AT_TI_symbol_name("_pxStreamBuffer")
    3407                      .dwattr $C$DW$318, DW_AT_type(*$C$DW$T$38)
    3408                      .dwattr $C$DW$318, DW_AT_location[DW_OP_reg17]
    3409              $C$DW$319       .dwtag  DW_TAG_formal_parameter, DW_AT_name("pucData")
    3410                      .dwattr $C$DW$319, DW_AT_TI_symbol_name("_pucData")
    3411                      .dwattr $C$DW$319, DW_AT_type(*$C$DW$T$63)
    3412                      .dwattr $C$DW$319, DW_AT_location[DW_OP_reg19]
    3413              $C$DW$320       .dwtag  DW_TAG_formal_parameter, DW_AT_name("xCount")
    3414                      .dwattr $C$DW$320, DW_AT_TI_symbol_name("_xCount")
    3415                      .dwattr $C$DW$320, DW_AT_type(*$C$DW$T$20)
    3416                      .dwattr $C$DW$320, DW_AT_location[DW_OP_reg12]
    3417              ;*******************************************************************************
    3418              ;* FUNCTION NAME: prvWriteBytesToBuffer                                        *
    3419              ;*                                                                             *
    3420              ;*   Function Uses Regs : AC0,T0,AR0,XAR0,AR1,XAR1,AR2,AR3,XAR3,SP,CARRY,TC1,  *
    3421              ;*                        M40,SATA,SATD,RDM,FRCT,SMUL                          *
    3422              ;*   Stack Frame        : Compact (No Frame Pointer, w/ debug)                 *
    3423              ;*   Total Frame Size   : 8 words                                              *
    3424              ;*                        (1 return address/alignment)                         *
    3425              ;*                        (7 local values)                                     *
    3426              ;*   Min System Stack   : 1 word                                               *
    3427              ;*******************************************************************************
    3428 000804       _prvWriteBytesToBuffer:
    3429                      .dwcfi  cfa_offset, 1
    3430                      .dwcfi  save_reg_to_mem, 91, -1
    3431 000804 4EF9          AADD #-7, SP
    3432                      .dwcfi  cfa_offset, 8
    3433              $C$DW$321       .dwtag  DW_TAG_variable, DW_AT_name("pxStreamBuffer")
    3434                      .dwattr $C$DW$321, DW_AT_TI_symbol_name("_pxStreamBuffer")
    3435                      .dwattr $C$DW$321, DW_AT_type(*$C$DW$T$38)
    3436                      .dwattr $C$DW$321, DW_AT_location[DW_OP_bregx 0x24 0]
    3437              $C$DW$322       .dwtag  DW_TAG_variable, DW_AT_name("pucData")
    3438                      .dwattr $C$DW$322, DW_AT_TI_symbol_name("_pucData")
    3439                      .dwattr $C$DW$322, DW_AT_type(*$C$DW$T$63)
    3440                      .dwattr $C$DW$322, DW_AT_location[DW_OP_bregx 0x24 2]
    3441              $C$DW$323       .dwtag  DW_TAG_variable, DW_AT_name("xCount")
    3442                      .dwattr $C$DW$323, DW_AT_TI_symbol_name("_xCount")
    3443                      .dwattr $C$DW$323, DW_AT_type(*$C$DW$T$20)
    3444                      .dwattr $C$DW$323, DW_AT_location[DW_OP_bregx 0x24 4]
    3445              $C$DW$324       .dwtag  DW_TAG_variable, DW_AT_name("xNextHead")
    3446                      .dwattr $C$DW$324, DW_AT_TI_symbol_name("_xNextHead")
    3447                      .dwattr $C$DW$324, DW_AT_type(*$C$DW$T$20)
    3448                      .dwattr $C$DW$324, DW_AT_location[DW_OP_bregx 0x24 5]
    3449              $C$DW$325       .dwtag  DW_TAG_variable, DW_AT_name("xFirstLength")
    3450                      .dwattr $C$DW$325, DW_AT_TI_symbol_name("_xFirstLength")
    3451                      .dwattr $C$DW$325, DW_AT_type(*$C$DW$T$20)
    3452                      .dwattr $C$DW$325, DW_AT_location[DW_OP_bregx 0x24 6]
TMS320C55x Assembler PC v4.4.1 Sat Oct 06 06:38:33 2018

Tools Copyright (c) 1996-2012 Texas Instruments Incorporated
stream_buffer.asm                                                    PAGE   71

    3453 000806 C408          MOV T0, *SP(#4) ; |1089| 
    3454 000808 EB04          MOV XAR1, dbl(*SP(#2))
         00080a 95   
    3455 00080b EB00          MOV XAR0, dbl(*SP(#0))
         00080d 85   
    3456                      .dwpsn  file "../FreeRTOS/Source/stream_buffer.c",line 1092,column 2,is_stmt
    3457 00080e AA08          MOV *SP(#4), AR2 ; |1092| 
    3458              
    3459 000810 610A          BCC $C$L111,AR2 == #0 ; |1092| 
    3460 000812 3D09  ||      MOV #0, AR1
    3461              
    3462                                                      ; branchcc occurs ; |1092| 
    3463 000814 3C19          MOV #1, AR1
    3464 000816       $C$L111:    
    3465 000816 6299          BCC $C$L113,AR1 != #0 ; |1092| 
    3466                                                      ; branchcc occurs ; |1092| 
    3467 000818 20     nop
    3468 000819 46B3   bset INTM
    3469 00081b       $C$L112:    
    3470 00081b       $C$DW$L$_prvWriteBytesToBuffer$5$B:
    3471 00081b 4A7E          B $C$L112 ; |1092| 
    3472                                                      ; branch occurs ; |1092| 
    3473 00081d       $C$DW$L$_prvWriteBytesToBuffer$5$E:
    3474 00081d       $C$L113:    
    3475                      .dwpsn  file "../FreeRTOS/Source/stream_buffer.c",line 1094,column 2,is_stmt
    3476 00081d ED00          MOV dbl(*SP(#0)), XAR3
         00081f BF   
    3477 000820 A973          MOV *AR3(short(#1)), AR1 ; |1094| 
    3478 000822 C90A          MOV AR1, *SP(#5) ; |1094| 
    3479                      .dwpsn  file "../FreeRTOS/Source/stream_buffer.c",line 1099,column 2,is_stmt
    3480 000824 ED00          MOV dbl(*SP(#0)), XAR3
         000826 BF   
    3481 000827 A075          MOV *AR3(short(#2)), AC0 ; |1099| 
    3482 000829 DF0A          SUB uns(*SP(#5)), AC0, AC0 ; |1099| 
         00082b 0F   
    3483              
    3484 00082e 2309          MOV AC0, AR1 ; |1099| 
    3485 00082c AA08  ||      MOV *SP(#4), AR2 ; |1099| 
    3486              
    3487 000830 1298          CMPU AR1 >= AR2, TC1 ; |1099| 
         000832 A4   
    3488 000833 63E4          BCC $C$L114,TC1 ; |1099| 
    3489                                                      ; branchcc occurs ; |1099| 
    3490 000835 A075          MOV *AR3(short(#2)), AC0 ; |1099| 
    3491 000837 DF0A          SUB uns(*SP(#5)), AC0, AC0 ; |1099| 
         000839 0F   
    3492 00083a 4A02          B $C$L115 ; |1099| 
    3493                                                      ; branch occurs ; |1099| 
    3494 00083c       $C$L114:    
    3495 00083c 22A0          MOV AR2, AC0
    3496 00083e       $C$L115:    
    3497 00083e C00C          MOV AC0, *SP(#6) ; |1099| 
    3498                      .dwpsn  file "../FreeRTOS/Source/stream_buffer.c",line 1102,column 2,is_stmt
    3499 000840 ED00          MOV dbl(*SP(#0)), XAR3
         000842 BF   
TMS320C55x Assembler PC v4.4.1 Sat Oct 06 06:38:33 2018

Tools Copyright (c) 1996-2012 Texas Instruments Incorporated
stream_buffer.asm                                                    PAGE   72

    3500              
    3501 000845 230B          MOV AC0, AR3 ; |1102| 
    3502 000843 AA75  ||      MOV *AR3(short(#2)), AR2 ; |1102| 
    3503              
    3504 000847 D60A          ADD *SP(#5), AR3, AR3 ; |1102| 
         000849 BB   
    3505 00084a 12A4          CMPU AR3 > AR2, TC1 ; |1102| 
         00084c B4   
    3506 00084d 3C09          MOV #0, AR1
    3507 00084f 6164          BCC $C$L116,TC1 ; |1102| 
    3508                                                      ; branchcc occurs ; |1102| 
    3509 000851 3C19          MOV #1, AR1
    3510 000853       $C$L116:    
    3511 000853 6299          BCC $C$L118,AR1 != #0 ; |1102| 
    3512                                                      ; branchcc occurs ; |1102| 
    3513 000855 20     nop
    3514 000856 46B3   bset INTM
    3515 000858       $C$L117:    
    3516 000858       $C$DW$L$_prvWriteBytesToBuffer$13$B:
    3517 000858 4A7E          B $C$L117 ; |1102| 
    3518                                                      ; branch occurs ; |1102| 
    3519 00085a       $C$DW$L$_prvWriteBytesToBuffer$13$E:
    3520 00085a       $C$L118:    
    3521                      .dwpsn  file "../FreeRTOS/Source/stream_buffer.c",line 1103,column 2,is_stmt
    3522 00085a ED00          MOV dbl(*SP(#0)), XAR3
         00085c BF   
    3523 00085d A90A          MOV *SP(#5), AR1 ; |1103| 
    3524 00085f ED6D          MOV dbl(*AR3(#8)), XAR0
         000861 8F00 
         000863 08   
    3525 000864 1490          AADD AR1, AR0 ; |1103| 
         000866 80   
    3526 000867 ED04          MOV dbl(*SP(#2)), XAR1
         000869 9F   
    3527              $C$DW$326       .dwtag  DW_TAG_TI_branch
    3528                      .dwattr $C$DW$326, DW_AT_low_pc(0x00)
    3529                      .dwattr $C$DW$326, DW_AT_name("_memcpy")
    3530                      .dwattr $C$DW$326, DW_AT_TI_call
    3531              
    3532 00086a 6C00          CALL #_memcpy ; |1103| 
         00086c 0000!
    3533 00086e 2304  ||      MOV AC0, T0
    3534              
    3535                                                      ; call occurs [#_memcpy] ; |1103| 
    3536                      .dwpsn  file "../FreeRTOS/Source/stream_buffer.c",line 1107,column 2,is_stmt
    3537 000870 AA08          MOV *SP(#4), AR2 ; |1107| 
    3538 000872 A90C          MOV *SP(#6), AR1 ; |1107| 
    3539 000874 1298          CMPU AR2 <= AR1, TC1 ; |1107| 
         000876 A4   
    3540 000877 0464          BCC $C$L122,TC1 ; |1107| 
         000879 37   
    3541                                                      ; branchcc occurs ; |1107| 
    3542                      .dwpsn  file "../FreeRTOS/Source/stream_buffer.c",line 1110,column 3,is_stmt
    3543 00087a ED00          MOV dbl(*SP(#0)), XAR3
         00087c BF   
TMS320C55x Assembler PC v4.4.1 Sat Oct 06 06:38:33 2018

Tools Copyright (c) 1996-2012 Texas Instruments Incorporated
stream_buffer.asm                                                    PAGE   73

    3544 00087d 22A0          MOV AR2, AC0 ; |1110| 
    3545 00087f DF0C          SUB uns(*SP(#6)), AC0, AC0 ; |1110| 
         000881 0F   
    3546              
    3547 000882 AB75          MOV *AR3(short(#2)), AR3 ; |1110| 
    3548 000884 230A  ||      MOV AC0, AR2 ; |1110| 
    3549              
    3550 000886 12B4          CMPU AR2 > AR3, TC1 ; |1110| 
         000888 A4   
    3551 000889 3C09          MOV #0, AR1
    3552 00088b 6164          BCC $C$L119,TC1 ; |1110| 
    3553                                                      ; branchcc occurs ; |1110| 
    3554 00088d 3C19          MOV #1, AR1
    3555 00088f       $C$L119:    
    3556 00088f 6299          BCC $C$L121,AR1 != #0 ; |1110| 
    3557                                                      ; branchcc occurs ; |1110| 
    3558 000891 20     nop
    3559 000892 46B3   bset INTM
    3560 000894       $C$L120:    
    3561 000894       $C$DW$L$_prvWriteBytesToBuffer$19$B:
    3562 000894 4A7E          B $C$L120 ; |1110| 
    3563                                                      ; branch occurs ; |1110| 
    3564 000896       $C$DW$L$_prvWriteBytesToBuffer$19$E:
    3565 000896       $C$L121:    
    3566                      .dwpsn  file "../FreeRTOS/Source/stream_buffer.c",line 1111,column 3,is_stmt
    3567 000896 ED00          MOV dbl(*SP(#0)), XAR3
         000898 BF   
    3568 000899 ED04          MOV dbl(*SP(#2)), XAR1
         00089b 9F   
    3569 00089c AA0C          MOV *SP(#6), AR2 ; |1111| 
    3570 00089e A008          MOV *SP(#4), AC0 ; |1111| 
    3571 0008a0 ED6D          MOV dbl(*AR3(#8)), XAR0
         0008a2 8F00 
         0008a4 08   
    3572              
    3573                      AADD AR2, AR1 ; |1111| 
    3574 0008a5 8D0C  ||      SUB uns(*SP(#6)), AC0, AC0 ; |1111| 
         0008a7 9F18 
         0008a9 0FA0 
    3575              
    3576              $C$DW$327       .dwtag  DW_TAG_TI_branch
    3577                      .dwattr $C$DW$327, DW_AT_low_pc(0x00)
    3578                      .dwattr $C$DW$327, DW_AT_name("_memcpy")
    3579                      .dwattr $C$DW$327, DW_AT_TI_call
    3580              
    3581 0008ab 6C00          CALL #_memcpy ; |1111| 
         0008ad 0000!
    3582 0008af 2304  ||      MOV AC0, T0 ; |1111| 
    3583              
    3584                                                      ; call occurs [#_memcpy] ; |1111| 
    3585                      .dwpsn  file "../FreeRTOS/Source/stream_buffer.c",line 1112,column 2,is_stmt
    3586 0008b1       $C$L122:    
    3587                      .dwpsn  file "../FreeRTOS/Source/stream_buffer.c",line 1118,column 2,is_stmt
    3588 0008b1 A908          MOV *SP(#4), AR1 ; |1118| 
    3589 0008b3 D60A          ADD *SP(#5), AR1, AR1 ; |1118| 
TMS320C55x Assembler PC v4.4.1 Sat Oct 06 06:38:33 2018

Tools Copyright (c) 1996-2012 Texas Instruments Incorporated
stream_buffer.asm                                                    PAGE   74

         0008b5 99   
    3590 0008b6 C90A          MOV AR1, *SP(#5) ; |1118| 
    3591                      .dwpsn  file "../FreeRTOS/Source/stream_buffer.c",line 1119,column 2,is_stmt
    3592 0008b8 ED00          MOV dbl(*SP(#0)), XAR3
         0008ba BF   
    3593 0008bb AA0A          MOV *SP(#5), AR2 ; |1119| 
    3594 0008bd A975          MOV *AR3(short(#2)), AR1 ; |1119| 
    3595 0008bf 12A4          CMPU AR2 < AR1, TC1 ; |1119| 
         0008c1 94   
    3596 0008c2 63E4          BCC $C$L123,TC1 ; |1119| 
    3597                                                      ; branchcc occurs ; |1119| 
    3598                      .dwpsn  file "../FreeRTOS/Source/stream_buffer.c",line 1121,column 3,is_stmt
    3599 0008c4 22A0          MOV AR2, AC0
    3600 0008c6 DF75          SUB uns(*AR3(short(#2))), AC0, AC0 ; |1121| 
         0008c8 0F   
    3601 0008c9 C00A          MOV AC0, *SP(#5) ; |1121| 
    3602                      .dwpsn  file "../FreeRTOS/Source/stream_buffer.c",line 1122,column 2,is_stmt
    3603 0008cb       $C$L123:    
    3604                      .dwpsn  file "../FreeRTOS/Source/stream_buffer.c",line 1128,column 2,is_stmt
    3605 0008cb ED00          MOV dbl(*SP(#0)), XAR3
         0008cd BF   
    3606 0008ce A90A          MOV *SP(#5), AR1 ; |1128| 
    3607 0008d0 C973          MOV AR1, *AR3(short(#1)) ; |1128| 
    3608                      .dwpsn  file "../FreeRTOS/Source/stream_buffer.c",line 1130,column 2,is_stmt
    3609 0008d2 A408          MOV *SP(#4), T0 ; |1130| 
    3610                      .dwpsn  file "../FreeRTOS/Source/stream_buffer.c",line 1131,column 1,is_stmt
    3611 0008d4 4E07          AADD #7, SP
    3612                      .dwcfi  cfa_offset, 1
    3613              $C$DW$328       .dwtag  DW_TAG_TI_branch
    3614                      .dwattr $C$DW$328, DW_AT_low_pc(0x00)
    3615                      .dwattr $C$DW$328, DW_AT_TI_return
    3616 0008d6 4804          RET
    3617                                                      ; return occurs
    3618              
    3619              $C$DW$329       .dwtag  DW_TAG_TI_loop
    3620                      .dwattr $C$DW$329, DW_AT_name("F:\eZdsp_DBG\tmp1\c55x-sim2\foo\Debug\stream_buffer.asm:$C$L120:1:1538
    3621                      .dwattr $C$DW$329, DW_AT_TI_begin_file("../FreeRTOS/Source/stream_buffer.c")
    3622                      .dwattr $C$DW$329, DW_AT_TI_begin_line(0x456)
    3623                      .dwattr $C$DW$329, DW_AT_TI_end_line(0x456)
    3624              $C$DW$330       .dwtag  DW_TAG_TI_loop_range
    3625                      .dwattr $C$DW$330, DW_AT_low_pc($C$DW$L$_prvWriteBytesToBuffer$19$B)
    3626                      .dwattr $C$DW$330, DW_AT_high_pc($C$DW$L$_prvWriteBytesToBuffer$19$E)
    3627                      .dwendtag $C$DW$329
    3628              
    3629              
    3630              $C$DW$331       .dwtag  DW_TAG_TI_loop
    3631                      .dwattr $C$DW$331, DW_AT_name("F:\eZdsp_DBG\tmp1\c55x-sim2\foo\Debug\stream_buffer.asm:$C$L117:1:1538
    3632                      .dwattr $C$DW$331, DW_AT_TI_begin_file("../FreeRTOS/Source/stream_buffer.c")
    3633                      .dwattr $C$DW$331, DW_AT_TI_begin_line(0x44e)
    3634                      .dwattr $C$DW$331, DW_AT_TI_end_line(0x44e)
    3635              $C$DW$332       .dwtag  DW_TAG_TI_loop_range
    3636                      .dwattr $C$DW$332, DW_AT_low_pc($C$DW$L$_prvWriteBytesToBuffer$13$B)
    3637                      .dwattr $C$DW$332, DW_AT_high_pc($C$DW$L$_prvWriteBytesToBuffer$13$E)
    3638                      .dwendtag $C$DW$331
    3639              
TMS320C55x Assembler PC v4.4.1 Sat Oct 06 06:38:33 2018

Tools Copyright (c) 1996-2012 Texas Instruments Incorporated
stream_buffer.asm                                                    PAGE   75

    3640              
    3641              $C$DW$333       .dwtag  DW_TAG_TI_loop
    3642                      .dwattr $C$DW$333, DW_AT_name("F:\eZdsp_DBG\tmp1\c55x-sim2\foo\Debug\stream_buffer.asm:$C$L112:1:1538
    3643                      .dwattr $C$DW$333, DW_AT_TI_begin_file("../FreeRTOS/Source/stream_buffer.c")
    3644                      .dwattr $C$DW$333, DW_AT_TI_begin_line(0x444)
    3645                      .dwattr $C$DW$333, DW_AT_TI_end_line(0x444)
    3646              $C$DW$334       .dwtag  DW_TAG_TI_loop_range
    3647                      .dwattr $C$DW$334, DW_AT_low_pc($C$DW$L$_prvWriteBytesToBuffer$5$B)
    3648                      .dwattr $C$DW$334, DW_AT_high_pc($C$DW$L$_prvWriteBytesToBuffer$5$E)
    3649                      .dwendtag $C$DW$333
    3650              
    3651                      .dwattr $C$DW$317, DW_AT_TI_end_file("../FreeRTOS/Source/stream_buffer.c")
    3652                      .dwattr $C$DW$317, DW_AT_TI_end_line(0x46b)
    3653                      .dwattr $C$DW$317, DW_AT_TI_end_column(0x01)
    3654                      .dwendentry
    3655                      .dwendtag $C$DW$317
    3656              
    3657 0008d8               .sect   ".text"
    3658                      .align 4
    3659              
    3660              $C$DW$335       .dwtag  DW_TAG_subprogram, DW_AT_name("prvReadBytesFromBuffer")
    3661                      .dwattr $C$DW$335, DW_AT_low_pc(_prvReadBytesFromBuffer)
    3662                      .dwattr $C$DW$335, DW_AT_high_pc(0x00)
    3663                      .dwattr $C$DW$335, DW_AT_TI_symbol_name("_prvReadBytesFromBuffer")
    3664                      .dwattr $C$DW$335, DW_AT_type(*$C$DW$T$20)
    3665                      .dwattr $C$DW$335, DW_AT_TI_begin_file("../FreeRTOS/Source/stream_buffer.c")
    3666                      .dwattr $C$DW$335, DW_AT_TI_begin_line(0x46e)
    3667                      .dwattr $C$DW$335, DW_AT_TI_begin_column(0x0f)
    3668                      .dwattr $C$DW$335, DW_AT_TI_max_frame_size(0x0a)
    3669                      .dwpsn  file "../FreeRTOS/Source/stream_buffer.c",line 1135,column 1,is_stmt,address _prvReadBytesFro
    3670              
    3671                      .dwfde $C$DW$CIE, _prvReadBytesFromBuffer
    3672              $C$DW$336       .dwtag  DW_TAG_formal_parameter, DW_AT_name("pxStreamBuffer")
    3673                      .dwattr $C$DW$336, DW_AT_TI_symbol_name("_pxStreamBuffer")
    3674                      .dwattr $C$DW$336, DW_AT_type(*$C$DW$T$37)
    3675                      .dwattr $C$DW$336, DW_AT_location[DW_OP_reg17]
    3676              $C$DW$337       .dwtag  DW_TAG_formal_parameter, DW_AT_name("pucData")
    3677                      .dwattr $C$DW$337, DW_AT_TI_symbol_name("_pucData")
    3678                      .dwattr $C$DW$337, DW_AT_type(*$C$DW$T$26)
    3679                      .dwattr $C$DW$337, DW_AT_location[DW_OP_reg19]
    3680              $C$DW$338       .dwtag  DW_TAG_formal_parameter, DW_AT_name("xMaxCount")
    3681                      .dwattr $C$DW$338, DW_AT_TI_symbol_name("_xMaxCount")
    3682                      .dwattr $C$DW$338, DW_AT_type(*$C$DW$T$20)
    3683                      .dwattr $C$DW$338, DW_AT_location[DW_OP_reg12]
    3684              $C$DW$339       .dwtag  DW_TAG_formal_parameter, DW_AT_name("xBytesAvailable")
    3685                      .dwattr $C$DW$339, DW_AT_TI_symbol_name("_xBytesAvailable")
    3686                      .dwattr $C$DW$339, DW_AT_type(*$C$DW$T$20)
    3687                      .dwattr $C$DW$339, DW_AT_location[DW_OP_reg13]
    3688              ;*******************************************************************************
    3689              ;* FUNCTION NAME: prvReadBytesFromBuffer                                       *
    3690              ;*                                                                             *
    3691              ;*   Function Uses Regs : AC0,T0,T1,AR0,XAR0,AR1,XAR1,AR2,AR3,XAR3,SP,CARRY,   *
    3692              ;*                        TC1,M40,SATA,SATD,RDM,FRCT,SMUL                      *
    3693              ;*   Stack Frame        : Compact (No Frame Pointer, w/ debug)                 *
    3694              ;*   Total Frame Size   : 10 words                                             *
TMS320C55x Assembler PC v4.4.1 Sat Oct 06 06:38:33 2018

Tools Copyright (c) 1996-2012 Texas Instruments Incorporated
stream_buffer.asm                                                    PAGE   76

    3695              ;*                        (1 return address/alignment)                         *
    3696              ;*                        (9 local values)                                     *
    3697              ;*   Min System Stack   : 1 word                                               *
    3698              ;*******************************************************************************
    3699 0008d8       _prvReadBytesFromBuffer:
    3700                      .dwcfi  cfa_offset, 1
    3701                      .dwcfi  save_reg_to_mem, 91, -1
    3702 0008d8 4EF7          AADD #-9, SP
    3703                      .dwcfi  cfa_offset, 10
    3704              $C$DW$340       .dwtag  DW_TAG_variable, DW_AT_name("pxStreamBuffer")
    3705                      .dwattr $C$DW$340, DW_AT_TI_symbol_name("_pxStreamBuffer")
    3706                      .dwattr $C$DW$340, DW_AT_type(*$C$DW$T$37)
    3707                      .dwattr $C$DW$340, DW_AT_location[DW_OP_bregx 0x24 0]
    3708              $C$DW$341       .dwtag  DW_TAG_variable, DW_AT_name("pucData")
    3709                      .dwattr $C$DW$341, DW_AT_TI_symbol_name("_pucData")
    3710                      .dwattr $C$DW$341, DW_AT_type(*$C$DW$T$26)
    3711                      .dwattr $C$DW$341, DW_AT_location[DW_OP_bregx 0x24 2]
    3712              $C$DW$342       .dwtag  DW_TAG_variable, DW_AT_name("xMaxCount")
    3713                      .dwattr $C$DW$342, DW_AT_TI_symbol_name("_xMaxCount")
    3714                      .dwattr $C$DW$342, DW_AT_type(*$C$DW$T$20)
    3715                      .dwattr $C$DW$342, DW_AT_location[DW_OP_bregx 0x24 4]
    3716              $C$DW$343       .dwtag  DW_TAG_variable, DW_AT_name("xBytesAvailable")
    3717                      .dwattr $C$DW$343, DW_AT_TI_symbol_name("_xBytesAvailable")
    3718                      .dwattr $C$DW$343, DW_AT_type(*$C$DW$T$20)
    3719                      .dwattr $C$DW$343, DW_AT_location[DW_OP_bregx 0x24 5]
    3720              $C$DW$344       .dwtag  DW_TAG_variable, DW_AT_name("xCount")
    3721                      .dwattr $C$DW$344, DW_AT_TI_symbol_name("_xCount")
    3722                      .dwattr $C$DW$344, DW_AT_type(*$C$DW$T$20)
    3723                      .dwattr $C$DW$344, DW_AT_location[DW_OP_bregx 0x24 6]
    3724              $C$DW$345       .dwtag  DW_TAG_variable, DW_AT_name("xFirstLength")
    3725                      .dwattr $C$DW$345, DW_AT_TI_symbol_name("_xFirstLength")
    3726                      .dwattr $C$DW$345, DW_AT_type(*$C$DW$T$20)
    3727                      .dwattr $C$DW$345, DW_AT_location[DW_OP_bregx 0x24 7]
    3728              $C$DW$346       .dwtag  DW_TAG_variable, DW_AT_name("xNextTail")
    3729                      .dwattr $C$DW$346, DW_AT_TI_symbol_name("_xNextTail")
    3730                      .dwattr $C$DW$346, DW_AT_type(*$C$DW$T$20)
    3731                      .dwattr $C$DW$346, DW_AT_location[DW_OP_bregx 0x24 8]
    3732 0008da C50A          MOV T1, *SP(#5) ; |1135| 
    3733 0008dc C408          MOV T0, *SP(#4) ; |1135| 
    3734 0008de EB04          MOV XAR1, dbl(*SP(#2))
         0008e0 95   
    3735 0008e1 EB00          MOV XAR0, dbl(*SP(#0))
         0008e3 85   
    3736                      .dwpsn  file "../FreeRTOS/Source/stream_buffer.c",line 1139,column 2,is_stmt
    3737 0008e4 AA0A          MOV *SP(#5), AR2 ; |1139| 
    3738 0008e6 A908          MOV *SP(#4), AR1 ; |1139| 
    3739 0008e8 12A8          CMPU AR2 >= AR1, TC1 ; |1139| 
         0008ea 94   
    3740 0008eb 6164          BCC $C$L124,TC1 ; |1139| 
    3741                                                      ; branchcc occurs ; |1139| 
    3742 0008ed 22A9          MOV AR2, AR1
    3743 0008ef       $C$L124:    
    3744 0008ef C90C          MOV AR1, *SP(#6) ; |1139| 
    3745                      .dwpsn  file "../FreeRTOS/Source/stream_buffer.c",line 1141,column 2,is_stmt
    3746 0008f1 6D09          BCC $C$L138,AR1 == #0 ; |1141| 
TMS320C55x Assembler PC v4.4.1 Sat Oct 06 06:38:33 2018

Tools Copyright (c) 1996-2012 Texas Instruments Incorporated
stream_buffer.asm                                                    PAGE   77

         0008f3 00C1 
    3747                                                      ; branchcc occurs ; |1141| 
    3748                      .dwpsn  file "../FreeRTOS/Source/stream_buffer.c",line 1143,column 3,is_stmt
    3749 0008f5 ED00          MOV dbl(*SP(#0)), XAR3
         0008f7 BF   
    3750 0008f8 A961          MOV *AR3, AR1 ; |1143| 
    3751 0008fa C910          MOV AR1, *SP(#8) ; |1143| 
    3752                      .dwpsn  file "../FreeRTOS/Source/stream_buffer.c",line 1148,column 3,is_stmt
    3753 0008fc ED00          MOV dbl(*SP(#0)), XAR3
         0008fe BF   
    3754 0008ff A075          MOV *AR3(short(#2)), AC0 ; |1148| 
    3755 000901 DF10          SUB uns(*SP(#8)), AC0, AC0 ; |1148| 
         000903 0F   
    3756              
    3757 000906 2309          MOV AC0, AR1 ; |1148| 
    3758 000904 AA0C  ||      MOV *SP(#6), AR2 ; |1148| 
    3759              
    3760 000908 1298          CMPU AR1 >= AR2, TC1 ; |1148| 
         00090a A4   
    3761 00090b 63E4          BCC $C$L125,TC1 ; |1148| 
    3762                                                      ; branchcc occurs ; |1148| 
    3763 00090d A075          MOV *AR3(short(#2)), AC0 ; |1148| 
    3764 00090f DF10          SUB uns(*SP(#8)), AC0, AC0 ; |1148| 
         000911 0F   
    3765 000912 4A02          B $C$L126 ; |1148| 
    3766                                                      ; branch occurs ; |1148| 
    3767 000914       $C$L125:    
    3768 000914 22A0          MOV AR2, AC0
    3769 000916       $C$L126:    
    3770 000916 C00E          MOV AC0, *SP(#7) ; |1148| 
    3771                      .dwpsn  file "../FreeRTOS/Source/stream_buffer.c",line 1152,column 3,is_stmt
    3772              
    3773 000918 AA08          MOV *SP(#4), AR2 ; |1152| 
    3774 00091a 230B  ||      MOV AC0, AR3 ; |1152| 
    3775              
    3776 00091c 12A4          CMPU AR3 > AR2, TC1 ; |1152| 
         00091e B4   
    3777 00091f 3C09          MOV #0, AR1
    3778 000921 6164          BCC $C$L127,TC1 ; |1152| 
    3779                                                      ; branchcc occurs ; |1152| 
    3780 000923 3C19          MOV #1, AR1
    3781 000925       $C$L127:    
    3782 000925 6299          BCC $C$L129,AR1 != #0 ; |1152| 
    3783                                                      ; branchcc occurs ; |1152| 
    3784 000927 20     nop
    3785 000928 46B3   bset INTM
    3786 00092a       $C$L128:    
    3787 00092a       $C$DW$L$_prvReadBytesFromBuffer$11$B:
    3788 00092a 4A7E          B $C$L128 ; |1152| 
    3789                                                      ; branch occurs ; |1152| 
    3790 00092c       $C$DW$L$_prvReadBytesFromBuffer$11$E:
    3791 00092c       $C$L129:    
    3792                      .dwpsn  file "../FreeRTOS/Source/stream_buffer.c",line 1153,column 3,is_stmt
    3793 00092c ED00          MOV dbl(*SP(#0)), XAR3
         00092e BF   
TMS320C55x Assembler PC v4.4.1 Sat Oct 06 06:38:33 2018

Tools Copyright (c) 1996-2012 Texas Instruments Incorporated
stream_buffer.asm                                                    PAGE   78

    3794              
    3795 000931 230B          MOV AC0, AR3 ; |1153| 
    3796 00092f AA75  ||      MOV *AR3(short(#2)), AR2 ; |1153| 
    3797              
    3798 000933 D610          ADD *SP(#8), AR3, AR3 ; |1153| 
         000935 BB   
    3799 000936 12A4          CMPU AR3 > AR2, TC1 ; |1153| 
         000938 B4   
    3800 000939 3C09          MOV #0, AR1
    3801 00093b 6164          BCC $C$L130,TC1 ; |1153| 
    3802                                                      ; branchcc occurs ; |1153| 
    3803 00093d 3C19          MOV #1, AR1
    3804 00093f       $C$L130:    
    3805 00093f 6299          BCC $C$L132,AR1 != #0 ; |1153| 
    3806                                                      ; branchcc occurs ; |1153| 
    3807 000941 20     nop
    3808 000942 46B3   bset INTM
    3809 000944       $C$L131:    
    3810 000944       $C$DW$L$_prvReadBytesFromBuffer$16$B:
    3811 000944 4A7E          B $C$L131 ; |1153| 
    3812                                                      ; branch occurs ; |1153| 
    3813 000946       $C$DW$L$_prvReadBytesFromBuffer$16$E:
    3814 000946       $C$L132:    
    3815                      .dwpsn  file "../FreeRTOS/Source/stream_buffer.c",line 1154,column 3,is_stmt
    3816 000946 ED00          MOV dbl(*SP(#0)), XAR3
         000948 BF   
    3817 000949 AA10          MOV *SP(#8), AR2 ; |1154| 
    3818 00094b ED6D          MOV dbl(*AR3(#8)), XAR1
         00094d 9F00 
         00094f 08   
    3819 000950 ED04          MOV dbl(*SP(#2)), XAR0
         000952 8F   
    3820 000953 14A0          AADD AR2, AR1 ; |1154| 
         000955 90   
    3821              $C$DW$347       .dwtag  DW_TAG_TI_branch
    3822                      .dwattr $C$DW$347, DW_AT_low_pc(0x00)
    3823                      .dwattr $C$DW$347, DW_AT_name("_memcpy")
    3824                      .dwattr $C$DW$347, DW_AT_TI_call
    3825              
    3826 000956 6C00          CALL #_memcpy ; |1154| 
         000958 0000!
    3827 00095a 2304  ||      MOV AC0, T0
    3828              
    3829                                                      ; call occurs [#_memcpy] ; |1154| 
    3830                      .dwpsn  file "../FreeRTOS/Source/stream_buffer.c",line 1158,column 3,is_stmt
    3831 00095c AA0C          MOV *SP(#6), AR2 ; |1158| 
    3832 00095e A90E          MOV *SP(#7), AR1 ; |1158| 
    3833 000960 1298          CMPU AR2 <= AR1, TC1 ; |1158| 
         000962 A4   
    3834 000963 0464          BCC $C$L136,TC1 ; |1158| 
         000965 2F   
    3835                                                      ; branchcc occurs ; |1158| 
    3836                      .dwpsn  file "../FreeRTOS/Source/stream_buffer.c",line 1161,column 4,is_stmt
    3837 000966 AA08          MOV *SP(#4), AR2 ; |1161| 
    3838 000968 AB0C          MOV *SP(#6), AR3 ; |1161| 
TMS320C55x Assembler PC v4.4.1 Sat Oct 06 06:38:33 2018

Tools Copyright (c) 1996-2012 Texas Instruments Incorporated
stream_buffer.asm                                                    PAGE   79

    3839 00096a 12A4          CMPU AR3 > AR2, TC1 ; |1161| 
         00096c B4   
    3840 00096d 3C09          MOV #0, AR1
    3841 00096f 6164          BCC $C$L133,TC1 ; |1161| 
    3842                                                      ; branchcc occurs ; |1161| 
    3843 000971 3C19          MOV #1, AR1
    3844 000973       $C$L133:    
    3845 000973 6299          BCC $C$L135,AR1 != #0 ; |1161| 
    3846                                                      ; branchcc occurs ; |1161| 
    3847 000975 20     nop
    3848 000976 46B3   bset INTM
    3849 000978       $C$L134:    
    3850 000978       $C$DW$L$_prvReadBytesFromBuffer$22$B:
    3851 000978 4A7E          B $C$L134 ; |1161| 
    3852                                                      ; branch occurs ; |1161| 
    3853 00097a       $C$DW$L$_prvReadBytesFromBuffer$22$E:
    3854 00097a       $C$L135:    
    3855                      .dwpsn  file "../FreeRTOS/Source/stream_buffer.c",line 1162,column 4,is_stmt
    3856 00097a ED04          MOV dbl(*SP(#2)), XAR0
         00097c 8F   
    3857 00097d A90E          MOV *SP(#7), AR1 ; |1162| 
    3858 00097f ED00          MOV dbl(*SP(#0)), XAR3
         000981 BF   
    3859 000982 A00C          MOV *SP(#6), AC0 ; |1162| 
    3860              
    3861                      AADD AR1, AR0 ; |1162| 
    3862 000984 8D0E  ||      SUB uns(*SP(#7)), AC0, AC0 ; |1162| 
         000986 8F18 
         000988 0F90 
    3863              
    3864 00098a ED6D          MOV dbl(*AR3(#8)), XAR1
         00098c 9F00 
         00098e 08   
    3865              $C$DW$348       .dwtag  DW_TAG_TI_branch
    3866                      .dwattr $C$DW$348, DW_AT_low_pc(0x00)
    3867                      .dwattr $C$DW$348, DW_AT_name("_memcpy")
    3868                      .dwattr $C$DW$348, DW_AT_TI_call
    3869              
    3870 00098f 6C00          CALL #_memcpy ; |1162| 
         000991 0000!
    3871 000993 2304  ||      MOV AC0, T0 ; |1162| 
    3872              
    3873                                                      ; call occurs [#_memcpy] ; |1162| 
    3874                      .dwpsn  file "../FreeRTOS/Source/stream_buffer.c",line 1163,column 3,is_stmt
    3875 000995       $C$L136:    
    3876                      .dwpsn  file "../FreeRTOS/Source/stream_buffer.c",line 1171,column 3,is_stmt
    3877 000995 A90C          MOV *SP(#6), AR1 ; |1171| 
    3878 000997 D610          ADD *SP(#8), AR1, AR1 ; |1171| 
         000999 99   
    3879 00099a C910          MOV AR1, *SP(#8) ; |1171| 
    3880                      .dwpsn  file "../FreeRTOS/Source/stream_buffer.c",line 1173,column 3,is_stmt
    3881 00099c ED00          MOV dbl(*SP(#0)), XAR3
         00099e BF   
    3882 00099f AA10          MOV *SP(#8), AR2 ; |1173| 
    3883 0009a1 A975          MOV *AR3(short(#2)), AR1 ; |1173| 
TMS320C55x Assembler PC v4.4.1 Sat Oct 06 06:38:33 2018

Tools Copyright (c) 1996-2012 Texas Instruments Incorporated
stream_buffer.asm                                                    PAGE   80

    3884 0009a3 12A4          CMPU AR2 < AR1, TC1 ; |1173| 
         0009a5 94   
    3885 0009a6 63E4          BCC $C$L137,TC1 ; |1173| 
    3886                                                      ; branchcc occurs ; |1173| 
    3887                      .dwpsn  file "../FreeRTOS/Source/stream_buffer.c",line 1175,column 4,is_stmt
    3888 0009a8 22A0          MOV AR2, AC0
    3889 0009aa DF75          SUB uns(*AR3(short(#2))), AC0, AC0 ; |1175| 
         0009ac 0F   
    3890 0009ad C010          MOV AC0, *SP(#8) ; |1175| 
    3891 0009af       $C$L137:    
    3892                      .dwpsn  file "../FreeRTOS/Source/stream_buffer.c",line 1178,column 3,is_stmt
    3893 0009af ED00          MOV dbl(*SP(#0)), XAR3
         0009b1 BF   
    3894 0009b2 A910          MOV *SP(#8), AR1 ; |1178| 
    3895 0009b4 C961          MOV AR1, *AR3 ; |1178| 
    3896                      .dwpsn  file "../FreeRTOS/Source/stream_buffer.c",line 1179,column 2,is_stmt
    3897 0009b6       $C$L138:    
    3898                      .dwpsn  file "../FreeRTOS/Source/stream_buffer.c",line 1185,column 2,is_stmt
    3899 0009b6 A40C          MOV *SP(#6), T0 ; |1185| 
    3900                      .dwpsn  file "../FreeRTOS/Source/stream_buffer.c",line 1186,column 1,is_stmt
    3901 0009b8 4E09          AADD #9, SP
    3902                      .dwcfi  cfa_offset, 1
    3903              $C$DW$349       .dwtag  DW_TAG_TI_branch
    3904                      .dwattr $C$DW$349, DW_AT_low_pc(0x00)
    3905                      .dwattr $C$DW$349, DW_AT_TI_return
    3906 0009ba 4804          RET
    3907                                                      ; return occurs
    3908              
    3909              $C$DW$350       .dwtag  DW_TAG_TI_loop
    3910                      .dwattr $C$DW$350, DW_AT_name("F:\eZdsp_DBG\tmp1\c55x-sim2\foo\Debug\stream_buffer.asm:$C$L134:1:1538
    3911                      .dwattr $C$DW$350, DW_AT_TI_begin_file("../FreeRTOS/Source/stream_buffer.c")
    3912                      .dwattr $C$DW$350, DW_AT_TI_begin_line(0x489)
    3913                      .dwattr $C$DW$350, DW_AT_TI_end_line(0x489)
    3914              $C$DW$351       .dwtag  DW_TAG_TI_loop_range
    3915                      .dwattr $C$DW$351, DW_AT_low_pc($C$DW$L$_prvReadBytesFromBuffer$22$B)
    3916                      .dwattr $C$DW$351, DW_AT_high_pc($C$DW$L$_prvReadBytesFromBuffer$22$E)
    3917                      .dwendtag $C$DW$350
    3918              
    3919              
    3920              $C$DW$352       .dwtag  DW_TAG_TI_loop
    3921                      .dwattr $C$DW$352, DW_AT_name("F:\eZdsp_DBG\tmp1\c55x-sim2\foo\Debug\stream_buffer.asm:$C$L131:1:1538
    3922                      .dwattr $C$DW$352, DW_AT_TI_begin_file("../FreeRTOS/Source/stream_buffer.c")
    3923                      .dwattr $C$DW$352, DW_AT_TI_begin_line(0x481)
    3924                      .dwattr $C$DW$352, DW_AT_TI_end_line(0x481)
    3925              $C$DW$353       .dwtag  DW_TAG_TI_loop_range
    3926                      .dwattr $C$DW$353, DW_AT_low_pc($C$DW$L$_prvReadBytesFromBuffer$16$B)
    3927                      .dwattr $C$DW$353, DW_AT_high_pc($C$DW$L$_prvReadBytesFromBuffer$16$E)
    3928                      .dwendtag $C$DW$352
    3929              
    3930              
    3931              $C$DW$354       .dwtag  DW_TAG_TI_loop
    3932                      .dwattr $C$DW$354, DW_AT_name("F:\eZdsp_DBG\tmp1\c55x-sim2\foo\Debug\stream_buffer.asm:$C$L128:1:1538
    3933                      .dwattr $C$DW$354, DW_AT_TI_begin_file("../FreeRTOS/Source/stream_buffer.c")
    3934                      .dwattr $C$DW$354, DW_AT_TI_begin_line(0x480)
    3935                      .dwattr $C$DW$354, DW_AT_TI_end_line(0x480)
TMS320C55x Assembler PC v4.4.1 Sat Oct 06 06:38:33 2018

Tools Copyright (c) 1996-2012 Texas Instruments Incorporated
stream_buffer.asm                                                    PAGE   81

    3936              $C$DW$355       .dwtag  DW_TAG_TI_loop_range
    3937                      .dwattr $C$DW$355, DW_AT_low_pc($C$DW$L$_prvReadBytesFromBuffer$11$B)
    3938                      .dwattr $C$DW$355, DW_AT_high_pc($C$DW$L$_prvReadBytesFromBuffer$11$E)
    3939                      .dwendtag $C$DW$354
    3940              
    3941                      .dwattr $C$DW$335, DW_AT_TI_end_file("../FreeRTOS/Source/stream_buffer.c")
    3942                      .dwattr $C$DW$335, DW_AT_TI_end_line(0x4a2)
    3943                      .dwattr $C$DW$335, DW_AT_TI_end_column(0x01)
    3944                      .dwendentry
    3945                      .dwendtag $C$DW$335
    3946              
    3947 0009bc               .sect   ".text"
    3948                      .align 4
    3949              
    3950              $C$DW$356       .dwtag  DW_TAG_subprogram, DW_AT_name("prvBytesInBuffer")
    3951                      .dwattr $C$DW$356, DW_AT_low_pc(_prvBytesInBuffer)
    3952                      .dwattr $C$DW$356, DW_AT_high_pc(0x00)
    3953                      .dwattr $C$DW$356, DW_AT_TI_symbol_name("_prvBytesInBuffer")
    3954                      .dwattr $C$DW$356, DW_AT_type(*$C$DW$T$20)
    3955                      .dwattr $C$DW$356, DW_AT_TI_begin_file("../FreeRTOS/Source/stream_buffer.c")
    3956                      .dwattr $C$DW$356, DW_AT_TI_begin_line(0x4a5)
    3957                      .dwattr $C$DW$356, DW_AT_TI_begin_column(0x0f)
    3958                      .dwattr $C$DW$356, DW_AT_TI_max_frame_size(0x04)
    3959                      .dwpsn  file "../FreeRTOS/Source/stream_buffer.c",line 1190,column 1,is_stmt,address _prvBytesInBuffe
    3960              
    3961                      .dwfde $C$DW$CIE, _prvBytesInBuffer
    3962              $C$DW$357       .dwtag  DW_TAG_formal_parameter, DW_AT_name("pxStreamBuffer")
    3963                      .dwattr $C$DW$357, DW_AT_TI_symbol_name("_pxStreamBuffer")
    3964                      .dwattr $C$DW$357, DW_AT_type(*$C$DW$T$36)
    3965                      .dwattr $C$DW$357, DW_AT_location[DW_OP_reg17]
    3966              ;*******************************************************************************
    3967              ;* FUNCTION NAME: prvBytesInBuffer                                             *
    3968              ;*                                                                             *
    3969              ;*   Function Uses Regs : AC0,T0,AR0,XAR0,AR1,AR2,XAR2,AR3,XAR3,SP,CARRY,TC1,  *
    3970              ;*                        M40,SATA,SATD,RDM,FRCT,SMUL                          *
    3971              ;*   Stack Frame        : Compact (No Frame Pointer, w/ debug)                 *
    3972              ;*   Total Frame Size   : 4 words                                              *
    3973              ;*                        (1 return address/alignment)                         *
    3974              ;*                        (3 local values)                                     *
    3975              ;*   Min System Stack   : 1 word                                               *
    3976              ;*******************************************************************************
    3977 0009bc       _prvBytesInBuffer:
    3978                      .dwcfi  cfa_offset, 1
    3979                      .dwcfi  save_reg_to_mem, 91, -1
    3980 0009bc 4EFD          AADD #-3, SP
    3981                      .dwcfi  cfa_offset, 4
    3982              $C$DW$358       .dwtag  DW_TAG_variable, DW_AT_name("pxStreamBuffer")
    3983                      .dwattr $C$DW$358, DW_AT_TI_symbol_name("_pxStreamBuffer")
    3984                      .dwattr $C$DW$358, DW_AT_type(*$C$DW$T$36)
    3985                      .dwattr $C$DW$358, DW_AT_location[DW_OP_bregx 0x24 0]
    3986              $C$DW$359       .dwtag  DW_TAG_variable, DW_AT_name("xCount")
    3987                      .dwattr $C$DW$359, DW_AT_TI_symbol_name("_xCount")
    3988                      .dwattr $C$DW$359, DW_AT_type(*$C$DW$T$20)
    3989                      .dwattr $C$DW$359, DW_AT_location[DW_OP_bregx 0x24 2]
    3990 0009be EB00          MOV XAR0, dbl(*SP(#0))
TMS320C55x Assembler PC v4.4.1 Sat Oct 06 06:38:33 2018

Tools Copyright (c) 1996-2012 Texas Instruments Incorporated
stream_buffer.asm                                                    PAGE   82

         0009c0 85   
    3991                      .dwpsn  file "../FreeRTOS/Source/stream_buffer.c",line 1194,column 2,is_stmt
    3992 0009c1 ED00          MOV dbl(*SP(#0)), XAR2
         0009c3 AF   
    3993 0009c4 ED00          MOV dbl(*SP(#0)), XAR3
         0009c6 BF   
    3994 0009c7 A953          MOV *AR2(short(#1)), AR1 ; |1194| 
    3995 0009c9 D675          ADD *AR3(short(#2)), AR1, AR1 ; |1194| 
         0009cb 99   
    3996 0009cc C904          MOV AR1, *SP(#2) ; |1194| 
    3997                      .dwpsn  file "../FreeRTOS/Source/stream_buffer.c",line 1195,column 2,is_stmt
    3998 0009ce ED00          MOV dbl(*SP(#0)), XAR3
         0009d0 BF   
    3999 0009d1 2290          MOV AR1, AC0
    4000 0009d3 DF61          SUB uns(*AR3), AC0, AC0 ; |1195| 
         0009d5 0F   
    4001 0009d6 C004          MOV AC0, *SP(#2) ; |1195| 
    4002                      .dwpsn  file "../FreeRTOS/Source/stream_buffer.c",line 1196,column 2,is_stmt
    4003 0009d8 ED00          MOV dbl(*SP(#0)), XAR3
         0009da BF   
    4004              
    4005 0009db A975          MOV *AR3(short(#2)), AR1 ; |1196| 
    4006 0009dd 230A  ||      MOV AC0, AR2 ; |1196| 
    4007              
    4008 0009df 12A4          CMPU AR2 < AR1, TC1 ; |1196| 
         0009e1 94   
    4009 0009e2 62E4          BCC $C$L139,TC1 ; |1196| 
    4010                                                      ; branchcc occurs ; |1196| 
    4011                      .dwpsn  file "../FreeRTOS/Source/stream_buffer.c",line 1198,column 3,is_stmt
    4012 0009e4 DF75          SUB uns(*AR3(short(#2))), AC0, AC0 ; |1198| 
         0009e6 0F   
    4013 0009e7 C004          MOV AC0, *SP(#2) ; |1198| 
    4014                      .dwpsn  file "../FreeRTOS/Source/stream_buffer.c",line 1199,column 2,is_stmt
    4015 0009e9       $C$L139:    
    4016                      .dwpsn  file "../FreeRTOS/Source/stream_buffer.c",line 1205,column 2,is_stmt
    4017 0009e9 2204          MOV AC0, T0
    4018                      .dwpsn  file "../FreeRTOS/Source/stream_buffer.c",line 1206,column 1,is_stmt
    4019 0009eb 4E03          AADD #3, SP
    4020                      .dwcfi  cfa_offset, 1
    4021              $C$DW$360       .dwtag  DW_TAG_TI_branch
    4022                      .dwattr $C$DW$360, DW_AT_low_pc(0x00)
    4023                      .dwattr $C$DW$360, DW_AT_TI_return
    4024 0009ed 4804          RET
    4025                                                      ; return occurs
    4026                      .dwattr $C$DW$356, DW_AT_TI_end_file("../FreeRTOS/Source/stream_buffer.c")
    4027                      .dwattr $C$DW$356, DW_AT_TI_end_line(0x4b6)
    4028                      .dwattr $C$DW$356, DW_AT_TI_end_column(0x01)
    4029                      .dwendentry
    4030                      .dwendtag $C$DW$356
    4031              
    4032 0009ef               .sect   ".text"
    4033                      .align 4
    4034              
    4035              $C$DW$361       .dwtag  DW_TAG_subprogram, DW_AT_name("prvInitialiseNewStreamBuffer")
    4036                      .dwattr $C$DW$361, DW_AT_low_pc(_prvInitialiseNewStreamBuffer)
TMS320C55x Assembler PC v4.4.1 Sat Oct 06 06:38:33 2018

Tools Copyright (c) 1996-2012 Texas Instruments Incorporated
stream_buffer.asm                                                    PAGE   83

    4037                      .dwattr $C$DW$361, DW_AT_high_pc(0x00)
    4038                      .dwattr $C$DW$361, DW_AT_TI_symbol_name("_prvInitialiseNewStreamBuffer")
    4039                      .dwattr $C$DW$361, DW_AT_TI_begin_file("../FreeRTOS/Source/stream_buffer.c")
    4040                      .dwattr $C$DW$361, DW_AT_TI_begin_line(0x4b9)
    4041                      .dwattr $C$DW$361, DW_AT_TI_begin_column(0x0d)
    4042                      .dwattr $C$DW$361, DW_AT_TI_max_frame_size(0x0a)
    4043                      .dwpsn  file "../FreeRTOS/Source/stream_buffer.c",line 1214,column 1,is_stmt,address _prvInitialiseNe
    4044              
    4045                      .dwfde $C$DW$CIE, _prvInitialiseNewStreamBuffer
    4046              $C$DW$362       .dwtag  DW_TAG_formal_parameter, DW_AT_name("pxStreamBuffer")
    4047                      .dwattr $C$DW$362, DW_AT_TI_symbol_name("_pxStreamBuffer")
    4048                      .dwattr $C$DW$362, DW_AT_type(*$C$DW$T$38)
    4049                      .dwattr $C$DW$362, DW_AT_location[DW_OP_reg17]
    4050              $C$DW$363       .dwtag  DW_TAG_formal_parameter, DW_AT_name("pucBuffer")
    4051                      .dwattr $C$DW$363, DW_AT_TI_symbol_name("_pucBuffer")
    4052                      .dwattr $C$DW$363, DW_AT_type(*$C$DW$T$59)
    4053                      .dwattr $C$DW$363, DW_AT_location[DW_OP_reg19]
    4054              $C$DW$364       .dwtag  DW_TAG_formal_parameter, DW_AT_name("xBufferSizeBytes")
    4055                      .dwattr $C$DW$364, DW_AT_TI_symbol_name("_xBufferSizeBytes")
    4056                      .dwattr $C$DW$364, DW_AT_type(*$C$DW$T$20)
    4057                      .dwattr $C$DW$364, DW_AT_location[DW_OP_reg12]
    4058              $C$DW$365       .dwtag  DW_TAG_formal_parameter, DW_AT_name("xTriggerLevelBytes")
    4059                      .dwattr $C$DW$365, DW_AT_TI_symbol_name("_xTriggerLevelBytes")
    4060                      .dwattr $C$DW$365, DW_AT_type(*$C$DW$T$20)
    4061                      .dwattr $C$DW$365, DW_AT_location[DW_OP_reg13]
    4062              $C$DW$366       .dwtag  DW_TAG_formal_parameter, DW_AT_name("ucFlags")
    4063                      .dwattr $C$DW$366, DW_AT_TI_symbol_name("_ucFlags")
    4064                      .dwattr $C$DW$366, DW_AT_type(*$C$DW$T$25)
    4065                      .dwattr $C$DW$366, DW_AT_location[DW_OP_reg20]
    4066              ;*******************************************************************************
    4067              ;* FUNCTION NAME: prvInitialiseNewStreamBuffer                                 *
    4068              ;*                                                                             *
    4069              ;*   Function Uses Regs : AC0,AC0,AC1,AC1,T0,T1,T2,AR0,XAR0,AR1,XAR1,AR2,XAR2, *
    4070              ;*                        AR3,XAR3,SP,TC1,M40,SATA,SATD,RDM,FRCT,SMUL          *
    4071              ;*   Save On Entry Regs : T2                                                   *
    4072              ;*   Stack Frame        : Compact (No Frame Pointer, w/ debug)                 *
    4073              ;*   Total Frame Size   : 10 words                                             *
    4074              ;*                        (1 return address/alignment)                         *
    4075              ;*                        (8 local values)                                     *
    4076              ;*                        (1 register save area)                               *
    4077              ;*   Min System Stack   : 1 word                                               *
    4078              ;*******************************************************************************
    4079 0009f0       _prvInitialiseNewStreamBuffer:
    4080                      .dwcfi  cfa_offset, 1
    4081                      .dwcfi  save_reg_to_mem, 91, -1
    4082 0009f0 5066          PSH T2
    4083                      .dwcfi  cfa_offset, 2
    4084                      .dwcfi  save_reg_to_mem, 14, -2
    4085 0009f2 4EF8          AADD #-8, SP
    4086                      .dwcfi  cfa_offset, 10
    4087              $C$DW$367       .dwtag  DW_TAG_variable, DW_AT_name("pxStreamBuffer")
    4088                      .dwattr $C$DW$367, DW_AT_TI_symbol_name("_pxStreamBuffer")
    4089                      .dwattr $C$DW$367, DW_AT_type(*$C$DW$T$38)
    4090                      .dwattr $C$DW$367, DW_AT_location[DW_OP_bregx 0x24 0]
    4091              $C$DW$368       .dwtag  DW_TAG_variable, DW_AT_name("pucBuffer")
TMS320C55x Assembler PC v4.4.1 Sat Oct 06 06:38:33 2018

Tools Copyright (c) 1996-2012 Texas Instruments Incorporated
stream_buffer.asm                                                    PAGE   84

    4092                      .dwattr $C$DW$368, DW_AT_TI_symbol_name("_pucBuffer")
    4093                      .dwattr $C$DW$368, DW_AT_type(*$C$DW$T$59)
    4094                      .dwattr $C$DW$368, DW_AT_location[DW_OP_bregx 0x24 2]
    4095              $C$DW$369       .dwtag  DW_TAG_variable, DW_AT_name("xBufferSizeBytes")
    4096                      .dwattr $C$DW$369, DW_AT_TI_symbol_name("_xBufferSizeBytes")
    4097                      .dwattr $C$DW$369, DW_AT_type(*$C$DW$T$20)
    4098                      .dwattr $C$DW$369, DW_AT_location[DW_OP_bregx 0x24 4]
    4099              $C$DW$370       .dwtag  DW_TAG_variable, DW_AT_name("xTriggerLevelBytes")
    4100                      .dwattr $C$DW$370, DW_AT_TI_symbol_name("_xTriggerLevelBytes")
    4101                      .dwattr $C$DW$370, DW_AT_type(*$C$DW$T$20)
    4102                      .dwattr $C$DW$370, DW_AT_location[DW_OP_bregx 0x24 5]
    4103              $C$DW$371       .dwtag  DW_TAG_variable, DW_AT_name("ucFlags")
    4104                      .dwattr $C$DW$371, DW_AT_TI_symbol_name("_ucFlags")
    4105                      .dwattr $C$DW$371, DW_AT_type(*$C$DW$T$25)
    4106                      .dwattr $C$DW$371, DW_AT_location[DW_OP_bregx 0x24 6]
    4107 0009f4 CA0C          MOV AR2, *SP(#6) ; |1214| 
    4108 0009f6 C50A          MOV T1, *SP(#5) ; |1214| 
    4109 0009f8 C408          MOV T0, *SP(#4) ; |1214| 
    4110 0009fa EB04          MOV XAR1, dbl(*SP(#2))
         0009fc 95   
    4111 0009fd EB00          MOV XAR0, dbl(*SP(#0))
         0009ff 85   
    4112              
    4113              $C$DW$372       .dwtag  DW_TAG_lexical_block, DW_AT_low_pc(0x00), DW_AT_high_pc(0x00)
    4114              $C$DW$373       .dwtag  DW_TAG_variable, DW_AT_name("xWriteValue")
    4115                      .dwattr $C$DW$373, DW_AT_TI_symbol_name("_xWriteValue")
    4116                      .dwattr $C$DW$373, DW_AT_type(*$C$DW$T$64)
    4117                      .dwattr $C$DW$373, DW_AT_location[DW_OP_bregx 0x24 7]
    4118                      .dwpsn  file "../FreeRTOS/Source/stream_buffer.c",line 1223,column 20,is_stmt
    4119 000a00 E60E          MOV #85, *SP(#7) ; |1223| 
         000a02 55   
    4120                      .dwpsn  file "../FreeRTOS/Source/stream_buffer.c",line 1224,column 3,is_stmt
    4121 000a03 A40E          MOV *SP(#7), T0 ; |1224| 
    4122 000a05 A508          MOV *SP(#4), T1 ; |1224| 
    4123 000a07 ED04          MOV dbl(*SP(#2)), XAR0
         000a09 8F   
    4124              $C$DW$374       .dwtag  DW_TAG_TI_branch
    4125                      .dwattr $C$DW$374, DW_AT_low_pc(0x00)
    4126                      .dwattr $C$DW$374, DW_AT_name("_memset")
    4127                      .dwattr $C$DW$374, DW_AT_TI_call
    4128 000a0a 6C00          CALL #_memset ; |1224| 
         000a0c 0000!
    4129                                                      ; call occurs [#_memset] ; |1224| 
    4130 000a0e ED04          MOV dbl(*SP(#2)), XAR3
         000a10 BF   
    4131 000a11 9081          MOV XAR0, AC1
    4132 000a13 90B0          MOV XAR3, AC0
    4133 000a15 121C          CMPU AC1 != AC0, TC1 ; |1224| 
         000a17 04   
    4134              
    4135 000a18 6164          BCC $C$L140,TC1 ; |1224| 
    4136 000a1a 3D06  ||      MOV #0, T2
    4137              
    4138                                                      ; branchcc occurs ; |1224| 
    4139 000a1c 3C16          MOV #1, T2
TMS320C55x Assembler PC v4.4.1 Sat Oct 06 06:38:33 2018

Tools Copyright (c) 1996-2012 Texas Instruments Incorporated
stream_buffer.asm                                                    PAGE   85

    4140 000a1e       $C$L140:    
    4141 000a1e 6296          BCC $C$L142,T2 != #0 ; |1224| 
    4142                                                      ; branchcc occurs ; |1224| 
    4143 000a20 20     nop
    4144 000a21 46B3   bset INTM
    4145 000a23       $C$L141:    
    4146 000a23       $C$DW$L$_prvInitialiseNewStreamBuffer$5$B:
    4147 000a23 4A7E          B $C$L141 ; |1224| 
    4148                                                      ; branch occurs ; |1224| 
    4149              $C$DW$L$_prvInitialiseNewStreamBuffer$5$E:
    4150              $C$L142:    
    4151                      .dwendtag $C$DW$372
    4152              
    4153                      .dwpsn  file "../FreeRTOS/Source/stream_buffer.c",line 1228,column 2,is_stmt
    4154 000a25 ED00          MOV dbl(*SP(#0)), XAR0
         000a27 8F   
    4155 000a28 3C04          MOV #0, T0
    4156              $C$DW$375       .dwtag  DW_TAG_TI_branch
    4157                      .dwattr $C$DW$375, DW_AT_low_pc(0x00)
    4158                      .dwattr $C$DW$375, DW_AT_name("_memset")
    4159                      .dwattr $C$DW$375, DW_AT_TI_call
    4160              
    4161 000a2a 6C00          CALL #_memset ; |1228| 
         000a2c 0000!
    4162 000a2e 3DC5  ||      MOV #12, T1
    4163              
    4164                                                      ; call occurs [#_memset] ; |1228| 
    4165                      .dwpsn  file "../FreeRTOS/Source/stream_buffer.c",line 1229,column 2,is_stmt
    4166 000a30 ED00          MOV dbl(*SP(#0)), XAR2
         000a32 AF   
    4167 000a33 ED04          MOV dbl(*SP(#2)), XAR3
         000a35 BF   
    4168 000a36 EB4D          MOV XAR3, dbl(*AR2(#8))
         000a38 B500 
         000a3a 08   
    4169                      .dwpsn  file "../FreeRTOS/Source/stream_buffer.c",line 1230,column 2,is_stmt
    4170 000a3b ED00          MOV dbl(*SP(#0)), XAR3
         000a3d BF   
    4171 000a3e A908          MOV *SP(#4), AR1 ; |1230| 
    4172 000a40 C975          MOV AR1, *AR3(short(#2)) ; |1230| 
    4173                      .dwpsn  file "../FreeRTOS/Source/stream_buffer.c",line 1231,column 2,is_stmt
    4174 000a42 ED00          MOV dbl(*SP(#0)), XAR3
         000a44 BF   
    4175 000a45 A90A          MOV *SP(#5), AR1 ; |1231| 
    4176 000a47 C977          MOV AR1, *AR3(short(#3)) ; |1231| 
    4177                      .dwpsn  file "../FreeRTOS/Source/stream_buffer.c",line 1232,column 2,is_stmt
    4178 000a49 ED00          MOV dbl(*SP(#0)), XAR3
         000a4b BF   
    4179 000a4c A90C          MOV *SP(#6), AR1 ; |1232| 
    4180 000a4e C96D          MOV AR1, *AR3(#10) ; |1232| 
         000a50 000A 
    4181                      .dwpsn  file "../FreeRTOS/Source/stream_buffer.c",line 1233,column 1,is_stmt
    4182 000a52 4E08          AADD #8, SP
    4183                      .dwcfi  cfa_offset, 2
    4184 000a54 5062          POP T2
TMS320C55x Assembler PC v4.4.1 Sat Oct 06 06:38:33 2018

Tools Copyright (c) 1996-2012 Texas Instruments Incorporated
stream_buffer.asm                                                    PAGE   86

    4185                      .dwcfi  restore_reg, 14
    4186                      .dwcfi  cfa_offset, 1
    4187              $C$DW$376       .dwtag  DW_TAG_TI_branch
    4188                      .dwattr $C$DW$376, DW_AT_low_pc(0x00)
    4189                      .dwattr $C$DW$376, DW_AT_TI_return
    4190 000a56 4804          RET
    4191                                                      ; return occurs
    4192              
    4193              $C$DW$377       .dwtag  DW_TAG_TI_loop
    4194                      .dwattr $C$DW$377, DW_AT_name("F:\eZdsp_DBG\tmp1\c55x-sim2\foo\Debug\stream_buffer.asm:$C$L141:1:1538
    4195                      .dwattr $C$DW$377, DW_AT_TI_begin_file("../FreeRTOS/Source/stream_buffer.c")
    4196                      .dwattr $C$DW$377, DW_AT_TI_begin_line(0x4c8)
    4197                      .dwattr $C$DW$377, DW_AT_TI_end_line(0x4c8)
    4198              $C$DW$378       .dwtag  DW_TAG_TI_loop_range
    4199                      .dwattr $C$DW$378, DW_AT_low_pc($C$DW$L$_prvInitialiseNewStreamBuffer$5$B)
    4200                      .dwattr $C$DW$378, DW_AT_high_pc($C$DW$L$_prvInitialiseNewStreamBuffer$5$E)
    4201                      .dwendtag $C$DW$377
    4202              
    4203                      .dwattr $C$DW$361, DW_AT_TI_end_file("../FreeRTOS/Source/stream_buffer.c")
    4204                      .dwattr $C$DW$361, DW_AT_TI_end_line(0x4d1)
    4205                      .dwattr $C$DW$361, DW_AT_TI_end_column(0x01)
    4206                      .dwendentry
    4207                      .dwendtag $C$DW$361
    4208              
    4209              ;******************************************************************************
    4210              ;* UNDEFINED EXTERNAL REFERENCES                                              *
    4211              ;******************************************************************************
    4212                      .global _memset
    4213                      .global _pvPortMalloc
    4214                      .global _vPortFree
    4215                      .global _vTaskSuspendAll
    4216                      .global _xTaskResumeAll
    4217                      .global _xTaskGenericNotify
    4218                      .global _xTaskGenericNotifyFromISR
    4219                      .global _xTaskNotifyWait
    4220                      .global _xTaskNotifyStateClear
    4221                      .global _xTaskGetCurrentTaskHandle
    4222                      .global _vTaskSetTimeOutState
    4223                      .global _xTaskCheckForTimeOut
    4224                      .global _usCriticalNesting
    4225                      .global _memcpy
    4226              
    4227              ;*******************************************************************************
    4228              ;* TYPE INFORMATION                                                            *
    4229              ;*******************************************************************************
    4230              
    4231              $C$DW$T$31      .dwtag  DW_TAG_enumeration_type
    4232                      .dwattr $C$DW$T$31, DW_AT_byte_size(0x01)
    4233              $C$DW$379       .dwtag  DW_TAG_enumerator, DW_AT_name("eNoAction"), DW_AT_const_value(0x00)
    4234              $C$DW$380       .dwtag  DW_TAG_enumerator, DW_AT_name("eSetBits"), DW_AT_const_value(0x01)
    4235              $C$DW$381       .dwtag  DW_TAG_enumerator, DW_AT_name("eIncrement"), DW_AT_const_value(0x02)
    4236              $C$DW$382       .dwtag  DW_TAG_enumerator, DW_AT_name("eSetValueWithOverwrite"), DW_AT_const_value(0x03)
    4237              $C$DW$383       .dwtag  DW_TAG_enumerator, DW_AT_name("eSetValueWithoutOverwrite"), DW_AT_const_value(0x04)
    4238                      .dwendtag $C$DW$T$31
    4239              
TMS320C55x Assembler PC v4.4.1 Sat Oct 06 06:38:33 2018

Tools Copyright (c) 1996-2012 Texas Instruments Incorporated
stream_buffer.asm                                                    PAGE   87

    4240              $C$DW$T$32      .dwtag  DW_TAG_typedef, DW_AT_name("eNotifyAction")
    4241                      .dwattr $C$DW$T$32, DW_AT_type(*$C$DW$T$31)
    4242                      .dwattr $C$DW$T$32, DW_AT_language(DW_LANG_C)
    4243              
    4244              $C$DW$T$27      .dwtag  DW_TAG_structure_type
    4245                      .dwattr $C$DW$T$27, DW_AT_name("StreamBufferDef_t")
    4246                      .dwattr $C$DW$T$27, DW_AT_byte_size(0x0c)
    4247              $C$DW$384       .dwtag  DW_TAG_member
    4248                      .dwattr $C$DW$384, DW_AT_type(*$C$DW$T$21)
    4249                      .dwattr $C$DW$384, DW_AT_name("xTail")
    4250                      .dwattr $C$DW$384, DW_AT_TI_symbol_name("_xTail")
    4251                      .dwattr $C$DW$384, DW_AT_data_member_location[DW_OP_plus_uconst 0x0]
    4252                      .dwattr $C$DW$384, DW_AT_accessibility(DW_ACCESS_public)
    4253              $C$DW$385       .dwtag  DW_TAG_member
    4254                      .dwattr $C$DW$385, DW_AT_type(*$C$DW$T$21)
    4255                      .dwattr $C$DW$385, DW_AT_name("xHead")
    4256                      .dwattr $C$DW$385, DW_AT_TI_symbol_name("_xHead")
    4257                      .dwattr $C$DW$385, DW_AT_data_member_location[DW_OP_plus_uconst 0x1]
    4258                      .dwattr $C$DW$385, DW_AT_accessibility(DW_ACCESS_public)
    4259              $C$DW$386       .dwtag  DW_TAG_member
    4260                      .dwattr $C$DW$386, DW_AT_type(*$C$DW$T$20)
    4261                      .dwattr $C$DW$386, DW_AT_name("xLength")
    4262                      .dwattr $C$DW$386, DW_AT_TI_symbol_name("_xLength")
    4263                      .dwattr $C$DW$386, DW_AT_data_member_location[DW_OP_plus_uconst 0x2]
    4264                      .dwattr $C$DW$386, DW_AT_accessibility(DW_ACCESS_public)
    4265              $C$DW$387       .dwtag  DW_TAG_member
    4266                      .dwattr $C$DW$387, DW_AT_type(*$C$DW$T$20)
    4267                      .dwattr $C$DW$387, DW_AT_name("xTriggerLevelBytes")
    4268                      .dwattr $C$DW$387, DW_AT_TI_symbol_name("_xTriggerLevelBytes")
    4269                      .dwattr $C$DW$387, DW_AT_data_member_location[DW_OP_plus_uconst 0x3]
    4270                      .dwattr $C$DW$387, DW_AT_accessibility(DW_ACCESS_public)
    4271              $C$DW$388       .dwtag  DW_TAG_member
    4272                      .dwattr $C$DW$388, DW_AT_type(*$C$DW$T$24)
    4273                      .dwattr $C$DW$388, DW_AT_name("xTaskWaitingToReceive")
    4274                      .dwattr $C$DW$388, DW_AT_TI_symbol_name("_xTaskWaitingToReceive")
    4275                      .dwattr $C$DW$388, DW_AT_data_member_location[DW_OP_plus_uconst 0x4]
    4276                      .dwattr $C$DW$388, DW_AT_accessibility(DW_ACCESS_public)
    4277              $C$DW$389       .dwtag  DW_TAG_member
    4278                      .dwattr $C$DW$389, DW_AT_type(*$C$DW$T$24)
    4279                      .dwattr $C$DW$389, DW_AT_name("xTaskWaitingToSend")
    4280                      .dwattr $C$DW$389, DW_AT_TI_symbol_name("_xTaskWaitingToSend")
    4281                      .dwattr $C$DW$389, DW_AT_data_member_location[DW_OP_plus_uconst 0x6]
    4282                      .dwattr $C$DW$389, DW_AT_accessibility(DW_ACCESS_public)
    4283              $C$DW$390       .dwtag  DW_TAG_member
    4284                      .dwattr $C$DW$390, DW_AT_type(*$C$DW$T$26)
    4285                      .dwattr $C$DW$390, DW_AT_name("pucBuffer")
    4286                      .dwattr $C$DW$390, DW_AT_TI_symbol_name("_pucBuffer")
    4287                      .dwattr $C$DW$390, DW_AT_data_member_location[DW_OP_plus_uconst 0x8]
    4288                      .dwattr $C$DW$390, DW_AT_accessibility(DW_ACCESS_public)
    4289              $C$DW$391       .dwtag  DW_TAG_member
    4290                      .dwattr $C$DW$391, DW_AT_type(*$C$DW$T$25)
    4291                      .dwattr $C$DW$391, DW_AT_name("ucFlags")
    4292                      .dwattr $C$DW$391, DW_AT_TI_symbol_name("_ucFlags")
    4293                      .dwattr $C$DW$391, DW_AT_data_member_location[DW_OP_plus_uconst 0xa]
    4294                      .dwattr $C$DW$391, DW_AT_accessibility(DW_ACCESS_public)
TMS320C55x Assembler PC v4.4.1 Sat Oct 06 06:38:33 2018

Tools Copyright (c) 1996-2012 Texas Instruments Incorporated
stream_buffer.asm                                                    PAGE   88

    4295                      .dwendtag $C$DW$T$27
    4296              
    4297              $C$DW$T$33      .dwtag  DW_TAG_typedef, DW_AT_name("StreamBuffer_t")
    4298                      .dwattr $C$DW$T$33, DW_AT_type(*$C$DW$T$27)
    4299                      .dwattr $C$DW$T$33, DW_AT_language(DW_LANG_C)
    4300              $C$DW$392       .dwtag  DW_TAG_TI_far_type
    4301                      .dwattr $C$DW$392, DW_AT_type(*$C$DW$T$33)
    4302              $C$DW$T$34      .dwtag  DW_TAG_const_type
    4303                      .dwattr $C$DW$T$34, DW_AT_type(*$C$DW$392)
    4304              $C$DW$T$35      .dwtag  DW_TAG_pointer_type
    4305                      .dwattr $C$DW$T$35, DW_AT_type(*$C$DW$T$34)
    4306                      .dwattr $C$DW$T$35, DW_AT_address_class(0x17)
    4307              $C$DW$393       .dwtag  DW_TAG_TI_far_type
    4308                      .dwattr $C$DW$393, DW_AT_type(*$C$DW$T$35)
    4309              $C$DW$T$36      .dwtag  DW_TAG_const_type
    4310                      .dwattr $C$DW$T$36, DW_AT_type(*$C$DW$393)
    4311              $C$DW$T$37      .dwtag  DW_TAG_pointer_type
    4312                      .dwattr $C$DW$T$37, DW_AT_type(*$C$DW$T$33)
    4313                      .dwattr $C$DW$T$37, DW_AT_address_class(0x17)
    4314              $C$DW$394       .dwtag  DW_TAG_TI_far_type
    4315                      .dwattr $C$DW$394, DW_AT_type(*$C$DW$T$37)
    4316              $C$DW$T$38      .dwtag  DW_TAG_const_type
    4317                      .dwattr $C$DW$T$38, DW_AT_type(*$C$DW$394)
    4318              $C$DW$T$39      .dwtag  DW_TAG_pointer_type
    4319                      .dwattr $C$DW$T$39, DW_AT_type(*$C$DW$T$27)
    4320                      .dwattr $C$DW$T$39, DW_AT_address_class(0x17)
    4321              $C$DW$T$40      .dwtag  DW_TAG_typedef, DW_AT_name("StreamBufferHandle_t")
    4322                      .dwattr $C$DW$T$40, DW_AT_type(*$C$DW$T$39)
    4323                      .dwattr $C$DW$T$40, DW_AT_language(DW_LANG_C)
    4324              $C$DW$T$3       .dwtag  DW_TAG_pointer_type
    4325                      .dwattr $C$DW$T$3, DW_AT_address_class(0x17)
    4326              $C$DW$395       .dwtag  DW_TAG_TI_far_type
    4327              $C$DW$T$42      .dwtag  DW_TAG_const_type
    4328                      .dwattr $C$DW$T$42, DW_AT_type(*$C$DW$395)
    4329              $C$DW$T$43      .dwtag  DW_TAG_pointer_type
    4330                      .dwattr $C$DW$T$43, DW_AT_type(*$C$DW$T$42)
    4331                      .dwattr $C$DW$T$43, DW_AT_address_class(0x17)
    4332              $C$DW$T$4       .dwtag  DW_TAG_base_type
    4333                      .dwattr $C$DW$T$4, DW_AT_encoding(DW_ATE_boolean)
    4334                      .dwattr $C$DW$T$4, DW_AT_name("bool")
    4335                      .dwattr $C$DW$T$4, DW_AT_byte_size(0x01)
    4336              $C$DW$T$5       .dwtag  DW_TAG_base_type
    4337                      .dwattr $C$DW$T$5, DW_AT_encoding(DW_ATE_signed_char)
    4338                      .dwattr $C$DW$T$5, DW_AT_name("signed char")
    4339                      .dwattr $C$DW$T$5, DW_AT_byte_size(0x01)
    4340              $C$DW$T$6       .dwtag  DW_TAG_base_type
    4341                      .dwattr $C$DW$T$6, DW_AT_encoding(DW_ATE_unsigned_char)
    4342                      .dwattr $C$DW$T$6, DW_AT_name("unsigned char")
    4343                      .dwattr $C$DW$T$6, DW_AT_byte_size(0x01)
    4344              $C$DW$T$25      .dwtag  DW_TAG_typedef, DW_AT_name("uint8_t")
    4345                      .dwattr $C$DW$T$25, DW_AT_type(*$C$DW$T$6)
    4346                      .dwattr $C$DW$T$25, DW_AT_language(DW_LANG_C)
    4347              $C$DW$T$26      .dwtag  DW_TAG_pointer_type
    4348                      .dwattr $C$DW$T$26, DW_AT_type(*$C$DW$T$25)
    4349                      .dwattr $C$DW$T$26, DW_AT_address_class(0x17)
TMS320C55x Assembler PC v4.4.1 Sat Oct 06 06:38:33 2018

Tools Copyright (c) 1996-2012 Texas Instruments Incorporated
stream_buffer.asm                                                    PAGE   89

    4350              $C$DW$396       .dwtag  DW_TAG_TI_far_type
    4351                      .dwattr $C$DW$396, DW_AT_type(*$C$DW$T$26)
    4352              $C$DW$T$59      .dwtag  DW_TAG_const_type
    4353                      .dwattr $C$DW$T$59, DW_AT_type(*$C$DW$396)
    4354              $C$DW$397       .dwtag  DW_TAG_TI_far_type
    4355                      .dwattr $C$DW$397, DW_AT_type(*$C$DW$T$25)
    4356              $C$DW$T$62      .dwtag  DW_TAG_const_type
    4357                      .dwattr $C$DW$T$62, DW_AT_type(*$C$DW$397)
    4358              $C$DW$T$63      .dwtag  DW_TAG_pointer_type
    4359                      .dwattr $C$DW$T$63, DW_AT_type(*$C$DW$T$62)
    4360                      .dwattr $C$DW$T$63, DW_AT_address_class(0x17)
    4361              $C$DW$T$7       .dwtag  DW_TAG_base_type
    4362                      .dwattr $C$DW$T$7, DW_AT_encoding(DW_ATE_signed_char)
    4363                      .dwattr $C$DW$T$7, DW_AT_name("wchar_t")
    4364                      .dwattr $C$DW$T$7, DW_AT_byte_size(0x01)
    4365              $C$DW$T$8       .dwtag  DW_TAG_base_type
    4366                      .dwattr $C$DW$T$8, DW_AT_encoding(DW_ATE_signed)
    4367                      .dwattr $C$DW$T$8, DW_AT_name("short")
    4368                      .dwattr $C$DW$T$8, DW_AT_byte_size(0x01)
    4369              $C$DW$T$28      .dwtag  DW_TAG_typedef, DW_AT_name("BaseType_t")
    4370                      .dwattr $C$DW$T$28, DW_AT_type(*$C$DW$T$8)
    4371                      .dwattr $C$DW$T$28, DW_AT_language(DW_LANG_C)
    4372              $C$DW$398       .dwtag  DW_TAG_TI_far_type
    4373                      .dwattr $C$DW$398, DW_AT_type(*$C$DW$T$28)
    4374              $C$DW$T$64      .dwtag  DW_TAG_const_type
    4375                      .dwattr $C$DW$T$64, DW_AT_type(*$C$DW$398)
    4376              $C$DW$T$71      .dwtag  DW_TAG_pointer_type
    4377                      .dwattr $C$DW$T$71, DW_AT_type(*$C$DW$T$28)
    4378                      .dwattr $C$DW$T$71, DW_AT_address_class(0x17)
    4379              $C$DW$399       .dwtag  DW_TAG_TI_far_type
    4380                      .dwattr $C$DW$399, DW_AT_type(*$C$DW$T$71)
    4381              $C$DW$T$72      .dwtag  DW_TAG_const_type
    4382                      .dwattr $C$DW$T$72, DW_AT_type(*$C$DW$399)
    4383              $C$DW$T$9       .dwtag  DW_TAG_base_type
    4384                      .dwattr $C$DW$T$9, DW_AT_encoding(DW_ATE_unsigned)
    4385                      .dwattr $C$DW$T$9, DW_AT_name("unsigned short")
    4386                      .dwattr $C$DW$T$9, DW_AT_byte_size(0x01)
    4387              $C$DW$T$86      .dwtag  DW_TAG_typedef, DW_AT_name("UBaseType_t")
    4388                      .dwattr $C$DW$T$86, DW_AT_type(*$C$DW$T$9)
    4389                      .dwattr $C$DW$T$86, DW_AT_language(DW_LANG_C)
    4390              $C$DW$T$10      .dwtag  DW_TAG_base_type
    4391                      .dwattr $C$DW$T$10, DW_AT_encoding(DW_ATE_signed)
    4392                      .dwattr $C$DW$T$10, DW_AT_name("int")
    4393                      .dwattr $C$DW$T$10, DW_AT_byte_size(0x01)
    4394              $C$DW$T$11      .dwtag  DW_TAG_base_type
    4395                      .dwattr $C$DW$T$11, DW_AT_encoding(DW_ATE_unsigned)
    4396                      .dwattr $C$DW$T$11, DW_AT_name("unsigned int")
    4397                      .dwattr $C$DW$T$11, DW_AT_byte_size(0x01)
    4398              $C$DW$400       .dwtag  DW_TAG_TI_far_type
    4399                      .dwattr $C$DW$400, DW_AT_type(*$C$DW$T$11)
    4400              $C$DW$T$87      .dwtag  DW_TAG_volatile_type
    4401                      .dwattr $C$DW$T$87, DW_AT_type(*$C$DW$400)
    4402              $C$DW$T$20      .dwtag  DW_TAG_typedef, DW_AT_name("size_t")
    4403                      .dwattr $C$DW$T$20, DW_AT_type(*$C$DW$T$11)
    4404                      .dwattr $C$DW$T$20, DW_AT_language(DW_LANG_C)
TMS320C55x Assembler PC v4.4.1 Sat Oct 06 06:38:33 2018

Tools Copyright (c) 1996-2012 Texas Instruments Incorporated
stream_buffer.asm                                                    PAGE   90

    4405              $C$DW$401       .dwtag  DW_TAG_TI_far_type
    4406                      .dwattr $C$DW$401, DW_AT_type(*$C$DW$T$20)
    4407              $C$DW$T$21      .dwtag  DW_TAG_volatile_type
    4408                      .dwattr $C$DW$T$21, DW_AT_type(*$C$DW$401)
    4409              $C$DW$T$12      .dwtag  DW_TAG_base_type
    4410                      .dwattr $C$DW$T$12, DW_AT_encoding(DW_ATE_signed)
    4411                      .dwattr $C$DW$T$12, DW_AT_name("long")
    4412                      .dwattr $C$DW$T$12, DW_AT_byte_size(0x02)
    4413              $C$DW$T$13      .dwtag  DW_TAG_base_type
    4414                      .dwattr $C$DW$T$13, DW_AT_encoding(DW_ATE_unsigned)
    4415                      .dwattr $C$DW$T$13, DW_AT_name("unsigned long")
    4416                      .dwattr $C$DW$T$13, DW_AT_byte_size(0x02)
    4417              $C$DW$T$29      .dwtag  DW_TAG_typedef, DW_AT_name("TickType_t")
    4418                      .dwattr $C$DW$T$29, DW_AT_type(*$C$DW$T$13)
    4419                      .dwattr $C$DW$T$29, DW_AT_language(DW_LANG_C)
    4420              $C$DW$T$79      .dwtag  DW_TAG_pointer_type
    4421                      .dwattr $C$DW$T$79, DW_AT_type(*$C$DW$T$29)
    4422                      .dwattr $C$DW$T$79, DW_AT_address_class(0x17)
    4423              $C$DW$402       .dwtag  DW_TAG_TI_far_type
    4424                      .dwattr $C$DW$402, DW_AT_type(*$C$DW$T$79)
    4425              $C$DW$T$80      .dwtag  DW_TAG_const_type
    4426                      .dwattr $C$DW$T$80, DW_AT_type(*$C$DW$402)
    4427              $C$DW$T$67      .dwtag  DW_TAG_typedef, DW_AT_name("uint32_t")
    4428                      .dwattr $C$DW$T$67, DW_AT_type(*$C$DW$T$13)
    4429                      .dwattr $C$DW$T$67, DW_AT_language(DW_LANG_C)
    4430              $C$DW$T$68      .dwtag  DW_TAG_pointer_type
    4431                      .dwattr $C$DW$T$68, DW_AT_type(*$C$DW$T$67)
    4432                      .dwattr $C$DW$T$68, DW_AT_address_class(0x17)
    4433              $C$DW$T$14      .dwtag  DW_TAG_base_type
    4434                      .dwattr $C$DW$T$14, DW_AT_encoding(DW_ATE_signed)
    4435                      .dwattr $C$DW$T$14, DW_AT_name("long long")
    4436                      .dwattr $C$DW$T$14, DW_AT_byte_size(0x04)
    4437                      .dwattr $C$DW$T$14, DW_AT_bit_size(0x28)
    4438                      .dwattr $C$DW$T$14, DW_AT_bit_offset(0x18)
    4439              $C$DW$T$15      .dwtag  DW_TAG_base_type
    4440                      .dwattr $C$DW$T$15, DW_AT_encoding(DW_ATE_unsigned)
    4441                      .dwattr $C$DW$T$15, DW_AT_name("unsigned long long")
    4442                      .dwattr $C$DW$T$15, DW_AT_byte_size(0x04)
    4443                      .dwattr $C$DW$T$15, DW_AT_bit_size(0x28)
    4444                      .dwattr $C$DW$T$15, DW_AT_bit_offset(0x18)
    4445              $C$DW$T$16      .dwtag  DW_TAG_base_type
    4446                      .dwattr $C$DW$T$16, DW_AT_encoding(DW_ATE_float)
    4447                      .dwattr $C$DW$T$16, DW_AT_name("float")
    4448                      .dwattr $C$DW$T$16, DW_AT_byte_size(0x02)
    4449              $C$DW$T$17      .dwtag  DW_TAG_base_type
    4450                      .dwattr $C$DW$T$17, DW_AT_encoding(DW_ATE_float)
    4451                      .dwattr $C$DW$T$17, DW_AT_name("double")
    4452                      .dwattr $C$DW$T$17, DW_AT_byte_size(0x02)
    4453              $C$DW$T$18      .dwtag  DW_TAG_base_type
    4454                      .dwattr $C$DW$T$18, DW_AT_encoding(DW_ATE_float)
    4455                      .dwattr $C$DW$T$18, DW_AT_name("long double")
    4456                      .dwattr $C$DW$T$18, DW_AT_byte_size(0x02)
    4457              
    4458              $C$DW$T$19      .dwtag  DW_TAG_structure_type
    4459                      .dwattr $C$DW$T$19, DW_AT_name("tskTaskControlBlock")
TMS320C55x Assembler PC v4.4.1 Sat Oct 06 06:38:33 2018

Tools Copyright (c) 1996-2012 Texas Instruments Incorporated
stream_buffer.asm                                                    PAGE   91

    4460                      .dwattr $C$DW$T$19, DW_AT_declaration
    4461                      .dwendtag $C$DW$T$19
    4462              
    4463              $C$DW$T$22      .dwtag  DW_TAG_pointer_type
    4464                      .dwattr $C$DW$T$22, DW_AT_type(*$C$DW$T$19)
    4465                      .dwattr $C$DW$T$22, DW_AT_address_class(0x17)
    4466              $C$DW$T$23      .dwtag  DW_TAG_typedef, DW_AT_name("TaskHandle_t")
    4467                      .dwattr $C$DW$T$23, DW_AT_type(*$C$DW$T$22)
    4468                      .dwattr $C$DW$T$23, DW_AT_language(DW_LANG_C)
    4469              $C$DW$403       .dwtag  DW_TAG_TI_far_type
    4470                      .dwattr $C$DW$403, DW_AT_type(*$C$DW$T$23)
    4471              $C$DW$T$24      .dwtag  DW_TAG_volatile_type
    4472                      .dwattr $C$DW$T$24, DW_AT_type(*$C$DW$403)
    4473              
    4474              $C$DW$T$30      .dwtag  DW_TAG_structure_type
    4475                      .dwattr $C$DW$T$30, DW_AT_name("xTIME_OUT")
    4476                      .dwattr $C$DW$T$30, DW_AT_byte_size(0x04)
    4477              $C$DW$404       .dwtag  DW_TAG_member
    4478                      .dwattr $C$DW$404, DW_AT_type(*$C$DW$T$28)
    4479                      .dwattr $C$DW$404, DW_AT_name("xOverflowCount")
    4480                      .dwattr $C$DW$404, DW_AT_TI_symbol_name("_xOverflowCount")
    4481                      .dwattr $C$DW$404, DW_AT_data_member_location[DW_OP_plus_uconst 0x0]
    4482                      .dwattr $C$DW$404, DW_AT_accessibility(DW_ACCESS_public)
    4483              $C$DW$405       .dwtag  DW_TAG_member
    4484                      .dwattr $C$DW$405, DW_AT_type(*$C$DW$T$29)
    4485                      .dwattr $C$DW$405, DW_AT_name("xTimeOnEntering")
    4486                      .dwattr $C$DW$405, DW_AT_TI_symbol_name("_xTimeOnEntering")
    4487                      .dwattr $C$DW$405, DW_AT_data_member_location[DW_OP_plus_uconst 0x2]
    4488                      .dwattr $C$DW$405, DW_AT_accessibility(DW_ACCESS_public)
    4489                      .dwendtag $C$DW$T$30
    4490              
    4491              $C$DW$T$53      .dwtag  DW_TAG_typedef, DW_AT_name("TimeOut_t")
    4492                      .dwattr $C$DW$T$53, DW_AT_type(*$C$DW$T$30)
    4493                      .dwattr $C$DW$T$53, DW_AT_language(DW_LANG_C)
    4494              $C$DW$T$54      .dwtag  DW_TAG_pointer_type
    4495                      .dwattr $C$DW$T$54, DW_AT_type(*$C$DW$T$53)
    4496                      .dwattr $C$DW$T$54, DW_AT_address_class(0x17)
    4497              $C$DW$406       .dwtag  DW_TAG_TI_far_type
    4498                      .dwattr $C$DW$406, DW_AT_type(*$C$DW$T$54)
    4499              $C$DW$T$55      .dwtag  DW_TAG_const_type
    4500                      .dwattr $C$DW$T$55, DW_AT_type(*$C$DW$406)
    4501                      .dwattr $C$DW$CU, DW_AT_language(DW_LANG_C)
    4502              
    4503              ;***************************************************************
    4504              ;* DWARF CIE ENTRIES                                           *
    4505              ;***************************************************************
    4506              
    4507              $C$DW$CIE       .dwcie 91
    4508                      .dwcfi  cfa_register, 36
    4509                      .dwcfi  cfa_offset, 0
    4510                      .dwcfi  undefined, 0
    4511                      .dwcfi  undefined, 1
    4512                      .dwcfi  undefined, 2
    4513                      .dwcfi  undefined, 3
    4514                      .dwcfi  undefined, 4
TMS320C55x Assembler PC v4.4.1 Sat Oct 06 06:38:33 2018

Tools Copyright (c) 1996-2012 Texas Instruments Incorporated
stream_buffer.asm                                                    PAGE   92

    4515                      .dwcfi  undefined, 5
    4516                      .dwcfi  undefined, 6
    4517                      .dwcfi  undefined, 7
    4518                      .dwcfi  undefined, 8
    4519                      .dwcfi  undefined, 9
    4520                      .dwcfi  undefined, 10
    4521                      .dwcfi  undefined, 11
    4522                      .dwcfi  undefined, 12
    4523                      .dwcfi  undefined, 13
    4524                      .dwcfi  same_value, 14
    4525                      .dwcfi  same_value, 15
    4526                      .dwcfi  undefined, 16
    4527                      .dwcfi  undefined, 17
    4528                      .dwcfi  undefined, 18
    4529                      .dwcfi  undefined, 19
    4530                      .dwcfi  undefined, 20
    4531                      .dwcfi  undefined, 21
    4532                      .dwcfi  undefined, 22
    4533                      .dwcfi  undefined, 23
    4534                      .dwcfi  undefined, 24
    4535                      .dwcfi  undefined, 25
    4536                      .dwcfi  same_value, 26
    4537                      .dwcfi  same_value, 27
    4538                      .dwcfi  same_value, 28
    4539                      .dwcfi  same_value, 29
    4540                      .dwcfi  same_value, 30
    4541                      .dwcfi  same_value, 31
    4542                      .dwcfi  undefined, 32
    4543                      .dwcfi  undefined, 33
    4544                      .dwcfi  undefined, 34
    4545                      .dwcfi  undefined, 35
    4546                      .dwcfi  undefined, 36
    4547                      .dwcfi  undefined, 37
    4548                      .dwcfi  undefined, 38
    4549                      .dwcfi  undefined, 39
    4550                      .dwcfi  undefined, 40
    4551                      .dwcfi  undefined, 41
    4552                      .dwcfi  undefined, 42
    4553                      .dwcfi  undefined, 43
    4554                      .dwcfi  undefined, 44
    4555                      .dwcfi  undefined, 45
    4556                      .dwcfi  undefined, 46
    4557                      .dwcfi  undefined, 47
    4558                      .dwcfi  undefined, 48
    4559                      .dwcfi  undefined, 49
    4560                      .dwcfi  undefined, 50
    4561                      .dwcfi  undefined, 51
    4562                      .dwcfi  undefined, 52
    4563                      .dwcfi  undefined, 53
    4564                      .dwcfi  undefined, 54
    4565                      .dwcfi  undefined, 55
    4566                      .dwcfi  undefined, 56
    4567                      .dwcfi  undefined, 57
    4568                      .dwcfi  undefined, 58
    4569                      .dwcfi  undefined, 59
TMS320C55x Assembler PC v4.4.1 Sat Oct 06 06:38:33 2018

Tools Copyright (c) 1996-2012 Texas Instruments Incorporated
stream_buffer.asm                                                    PAGE   93

    4570                      .dwcfi  undefined, 60
    4571                      .dwcfi  undefined, 61
    4572                      .dwcfi  undefined, 62
    4573                      .dwcfi  undefined, 63
    4574                      .dwcfi  undefined, 64
    4575                      .dwcfi  undefined, 65
    4576                      .dwcfi  undefined, 66
    4577                      .dwcfi  undefined, 67
    4578                      .dwcfi  undefined, 68
    4579                      .dwcfi  undefined, 69
    4580                      .dwcfi  undefined, 70
    4581                      .dwcfi  undefined, 71
    4582                      .dwcfi  undefined, 72
    4583                      .dwcfi  undefined, 73
    4584                      .dwcfi  undefined, 74
    4585                      .dwcfi  undefined, 75
    4586                      .dwcfi  undefined, 76
    4587                      .dwcfi  undefined, 77
    4588                      .dwcfi  undefined, 78
    4589                      .dwcfi  undefined, 79
    4590                      .dwcfi  undefined, 80
    4591                      .dwcfi  undefined, 81
    4592                      .dwcfi  undefined, 82
    4593                      .dwcfi  undefined, 83
    4594                      .dwcfi  undefined, 84
    4595                      .dwcfi  undefined, 85
    4596                      .dwcfi  undefined, 86
    4597                      .dwcfi  undefined, 87
    4598                      .dwcfi  undefined, 88
    4599                      .dwcfi  undefined, 89
    4600                      .dwcfi  undefined, 90
    4601                      .dwcfi  undefined, 91
    4602                      .dwendentry
    4603              
    4604              ;***************************************************************
    4605              ;* DWARF REGISTER MAP                                          *
    4606              ;***************************************************************
    4607              
    4608              $C$DW$407       .dwtag  DW_TAG_TI_assign_register, DW_AT_name("AC0")
    4609                      .dwattr $C$DW$407, DW_AT_location[DW_OP_reg0]
    4610              $C$DW$408       .dwtag  DW_TAG_TI_assign_register, DW_AT_name("AC0")
    4611                      .dwattr $C$DW$408, DW_AT_location[DW_OP_reg1]
    4612              $C$DW$409       .dwtag  DW_TAG_TI_assign_register, DW_AT_name("AC0_G")
    4613                      .dwattr $C$DW$409, DW_AT_location[DW_OP_reg2]
    4614              $C$DW$410       .dwtag  DW_TAG_TI_assign_register, DW_AT_name("AC1")
    4615                      .dwattr $C$DW$410, DW_AT_location[DW_OP_reg3]
    4616              $C$DW$411       .dwtag  DW_TAG_TI_assign_register, DW_AT_name("AC1")
    4617                      .dwattr $C$DW$411, DW_AT_location[DW_OP_reg4]
    4618              $C$DW$412       .dwtag  DW_TAG_TI_assign_register, DW_AT_name("AC1_G")
    4619                      .dwattr $C$DW$412, DW_AT_location[DW_OP_reg5]
    4620              $C$DW$413       .dwtag  DW_TAG_TI_assign_register, DW_AT_name("AC2")
    4621                      .dwattr $C$DW$413, DW_AT_location[DW_OP_reg6]
    4622              $C$DW$414       .dwtag  DW_TAG_TI_assign_register, DW_AT_name("AC2")
    4623                      .dwattr $C$DW$414, DW_AT_location[DW_OP_reg7]
    4624              $C$DW$415       .dwtag  DW_TAG_TI_assign_register, DW_AT_name("AC2_G")
TMS320C55x Assembler PC v4.4.1 Sat Oct 06 06:38:33 2018

Tools Copyright (c) 1996-2012 Texas Instruments Incorporated
stream_buffer.asm                                                    PAGE   94

    4625                      .dwattr $C$DW$415, DW_AT_location[DW_OP_reg8]
    4626              $C$DW$416       .dwtag  DW_TAG_TI_assign_register, DW_AT_name("AC3")
    4627                      .dwattr $C$DW$416, DW_AT_location[DW_OP_reg9]
    4628              $C$DW$417       .dwtag  DW_TAG_TI_assign_register, DW_AT_name("AC3")
    4629                      .dwattr $C$DW$417, DW_AT_location[DW_OP_reg10]
    4630              $C$DW$418       .dwtag  DW_TAG_TI_assign_register, DW_AT_name("AC3_G")
    4631                      .dwattr $C$DW$418, DW_AT_location[DW_OP_reg11]
    4632              $C$DW$419       .dwtag  DW_TAG_TI_assign_register, DW_AT_name("T0")
    4633                      .dwattr $C$DW$419, DW_AT_location[DW_OP_reg12]
    4634              $C$DW$420       .dwtag  DW_TAG_TI_assign_register, DW_AT_name("T1")
    4635                      .dwattr $C$DW$420, DW_AT_location[DW_OP_reg13]
    4636              $C$DW$421       .dwtag  DW_TAG_TI_assign_register, DW_AT_name("T2")
    4637                      .dwattr $C$DW$421, DW_AT_location[DW_OP_reg14]
    4638              $C$DW$422       .dwtag  DW_TAG_TI_assign_register, DW_AT_name("T3")
    4639                      .dwattr $C$DW$422, DW_AT_location[DW_OP_reg15]
    4640              $C$DW$423       .dwtag  DW_TAG_TI_assign_register, DW_AT_name("AR0")
    4641                      .dwattr $C$DW$423, DW_AT_location[DW_OP_reg16]
    4642              $C$DW$424       .dwtag  DW_TAG_TI_assign_register, DW_AT_name("XAR0")
    4643                      .dwattr $C$DW$424, DW_AT_location[DW_OP_reg17]
    4644              $C$DW$425       .dwtag  DW_TAG_TI_assign_register, DW_AT_name("AR1")
    4645                      .dwattr $C$DW$425, DW_AT_location[DW_OP_reg18]
    4646              $C$DW$426       .dwtag  DW_TAG_TI_assign_register, DW_AT_name("XAR1")
    4647                      .dwattr $C$DW$426, DW_AT_location[DW_OP_reg19]
    4648              $C$DW$427       .dwtag  DW_TAG_TI_assign_register, DW_AT_name("AR2")
    4649                      .dwattr $C$DW$427, DW_AT_location[DW_OP_reg20]
    4650              $C$DW$428       .dwtag  DW_TAG_TI_assign_register, DW_AT_name("XAR2")
    4651                      .dwattr $C$DW$428, DW_AT_location[DW_OP_reg21]
    4652              $C$DW$429       .dwtag  DW_TAG_TI_assign_register, DW_AT_name("AR3")
    4653                      .dwattr $C$DW$429, DW_AT_location[DW_OP_reg22]
    4654              $C$DW$430       .dwtag  DW_TAG_TI_assign_register, DW_AT_name("XAR3")
    4655                      .dwattr $C$DW$430, DW_AT_location[DW_OP_reg23]
    4656              $C$DW$431       .dwtag  DW_TAG_TI_assign_register, DW_AT_name("AR4")
    4657                      .dwattr $C$DW$431, DW_AT_location[DW_OP_reg24]
    4658              $C$DW$432       .dwtag  DW_TAG_TI_assign_register, DW_AT_name("XAR4")
    4659                      .dwattr $C$DW$432, DW_AT_location[DW_OP_reg25]
    4660              $C$DW$433       .dwtag  DW_TAG_TI_assign_register, DW_AT_name("AR5")
    4661                      .dwattr $C$DW$433, DW_AT_location[DW_OP_reg26]
    4662              $C$DW$434       .dwtag  DW_TAG_TI_assign_register, DW_AT_name("XAR5")
    4663                      .dwattr $C$DW$434, DW_AT_location[DW_OP_reg27]
    4664              $C$DW$435       .dwtag  DW_TAG_TI_assign_register, DW_AT_name("AR6")
    4665                      .dwattr $C$DW$435, DW_AT_location[DW_OP_reg28]
    4666              $C$DW$436       .dwtag  DW_TAG_TI_assign_register, DW_AT_name("XAR6")
    4667                      .dwattr $C$DW$436, DW_AT_location[DW_OP_reg29]
    4668              $C$DW$437       .dwtag  DW_TAG_TI_assign_register, DW_AT_name("AR7")
    4669                      .dwattr $C$DW$437, DW_AT_location[DW_OP_reg30]
    4670              $C$DW$438       .dwtag  DW_TAG_TI_assign_register, DW_AT_name("XAR7")
    4671                      .dwattr $C$DW$438, DW_AT_location[DW_OP_reg31]
    4672              $C$DW$439       .dwtag  DW_TAG_TI_assign_register, DW_AT_name("FP")
    4673                      .dwattr $C$DW$439, DW_AT_location[DW_OP_regx 0x20]
    4674              $C$DW$440       .dwtag  DW_TAG_TI_assign_register, DW_AT_name("XFP")
    4675                      .dwattr $C$DW$440, DW_AT_location[DW_OP_regx 0x21]
    4676              $C$DW$441       .dwtag  DW_TAG_TI_assign_register, DW_AT_name("PC")
    4677                      .dwattr $C$DW$441, DW_AT_location[DW_OP_regx 0x22]
    4678              $C$DW$442       .dwtag  DW_TAG_TI_assign_register, DW_AT_name("SP")
    4679                      .dwattr $C$DW$442, DW_AT_location[DW_OP_regx 0x23]
TMS320C55x Assembler PC v4.4.1 Sat Oct 06 06:38:33 2018

Tools Copyright (c) 1996-2012 Texas Instruments Incorporated
stream_buffer.asm                                                    PAGE   95

    4680              $C$DW$443       .dwtag  DW_TAG_TI_assign_register, DW_AT_name("XSP")
    4681                      .dwattr $C$DW$443, DW_AT_location[DW_OP_regx 0x24]
    4682              $C$DW$444       .dwtag  DW_TAG_TI_assign_register, DW_AT_name("BKC")
    4683                      .dwattr $C$DW$444, DW_AT_location[DW_OP_regx 0x25]
    4684              $C$DW$445       .dwtag  DW_TAG_TI_assign_register, DW_AT_name("BK03")
    4685                      .dwattr $C$DW$445, DW_AT_location[DW_OP_regx 0x26]
    4686              $C$DW$446       .dwtag  DW_TAG_TI_assign_register, DW_AT_name("BK47")
    4687                      .dwattr $C$DW$446, DW_AT_location[DW_OP_regx 0x27]
    4688              $C$DW$447       .dwtag  DW_TAG_TI_assign_register, DW_AT_name("ST0")
    4689                      .dwattr $C$DW$447, DW_AT_location[DW_OP_regx 0x28]
    4690              $C$DW$448       .dwtag  DW_TAG_TI_assign_register, DW_AT_name("ST1")
    4691                      .dwattr $C$DW$448, DW_AT_location[DW_OP_regx 0x29]
    4692              $C$DW$449       .dwtag  DW_TAG_TI_assign_register, DW_AT_name("ST2")
    4693                      .dwattr $C$DW$449, DW_AT_location[DW_OP_regx 0x2a]
    4694              $C$DW$450       .dwtag  DW_TAG_TI_assign_register, DW_AT_name("ST3")
    4695                      .dwattr $C$DW$450, DW_AT_location[DW_OP_regx 0x2b]
    4696              $C$DW$451       .dwtag  DW_TAG_TI_assign_register, DW_AT_name("MDP")
    4697                      .dwattr $C$DW$451, DW_AT_location[DW_OP_regx 0x2c]
    4698              $C$DW$452       .dwtag  DW_TAG_TI_assign_register, DW_AT_name("MDP05")
    4699                      .dwattr $C$DW$452, DW_AT_location[DW_OP_regx 0x2d]
    4700              $C$DW$453       .dwtag  DW_TAG_TI_assign_register, DW_AT_name("MDP67")
    4701                      .dwattr $C$DW$453, DW_AT_location[DW_OP_regx 0x2e]
    4702              $C$DW$454       .dwtag  DW_TAG_TI_assign_register, DW_AT_name("BRC0")
    4703                      .dwattr $C$DW$454, DW_AT_location[DW_OP_regx 0x2f]
    4704              $C$DW$455       .dwtag  DW_TAG_TI_assign_register, DW_AT_name("RSA0")
    4705                      .dwattr $C$DW$455, DW_AT_location[DW_OP_regx 0x30]
    4706              $C$DW$456       .dwtag  DW_TAG_TI_assign_register, DW_AT_name("RSA0_H")
    4707                      .dwattr $C$DW$456, DW_AT_location[DW_OP_regx 0x31]
    4708              $C$DW$457       .dwtag  DW_TAG_TI_assign_register, DW_AT_name("REA0")
    4709                      .dwattr $C$DW$457, DW_AT_location[DW_OP_regx 0x32]
    4710              $C$DW$458       .dwtag  DW_TAG_TI_assign_register, DW_AT_name("REA0_H")
    4711                      .dwattr $C$DW$458, DW_AT_location[DW_OP_regx 0x33]
    4712              $C$DW$459       .dwtag  DW_TAG_TI_assign_register, DW_AT_name("BRS1")
    4713                      .dwattr $C$DW$459, DW_AT_location[DW_OP_regx 0x34]
    4714              $C$DW$460       .dwtag  DW_TAG_TI_assign_register, DW_AT_name("BRC1")
    4715                      .dwattr $C$DW$460, DW_AT_location[DW_OP_regx 0x35]
    4716              $C$DW$461       .dwtag  DW_TAG_TI_assign_register, DW_AT_name("RSA1")
    4717                      .dwattr $C$DW$461, DW_AT_location[DW_OP_regx 0x36]
    4718              $C$DW$462       .dwtag  DW_TAG_TI_assign_register, DW_AT_name("RSA1_H")
    4719                      .dwattr $C$DW$462, DW_AT_location[DW_OP_regx 0x37]
    4720              $C$DW$463       .dwtag  DW_TAG_TI_assign_register, DW_AT_name("REA1")
    4721                      .dwattr $C$DW$463, DW_AT_location[DW_OP_regx 0x38]
    4722              $C$DW$464       .dwtag  DW_TAG_TI_assign_register, DW_AT_name("REA1_H")
    4723                      .dwattr $C$DW$464, DW_AT_location[DW_OP_regx 0x39]
    4724              $C$DW$465       .dwtag  DW_TAG_TI_assign_register, DW_AT_name("CSR")
    4725                      .dwattr $C$DW$465, DW_AT_location[DW_OP_regx 0x3a]
    4726              $C$DW$466       .dwtag  DW_TAG_TI_assign_register, DW_AT_name("RPTC")
    4727                      .dwattr $C$DW$466, DW_AT_location[DW_OP_regx 0x3b]
    4728              $C$DW$467       .dwtag  DW_TAG_TI_assign_register, DW_AT_name("CDP")
    4729                      .dwattr $C$DW$467, DW_AT_location[DW_OP_regx 0x3c]
    4730              $C$DW$468       .dwtag  DW_TAG_TI_assign_register, DW_AT_name("XCDP")
    4731                      .dwattr $C$DW$468, DW_AT_location[DW_OP_regx 0x3d]
    4732              $C$DW$469       .dwtag  DW_TAG_TI_assign_register, DW_AT_name("TRN0")
    4733                      .dwattr $C$DW$469, DW_AT_location[DW_OP_regx 0x3e]
    4734              $C$DW$470       .dwtag  DW_TAG_TI_assign_register, DW_AT_name("TRN1")
TMS320C55x Assembler PC v4.4.1 Sat Oct 06 06:38:33 2018

Tools Copyright (c) 1996-2012 Texas Instruments Incorporated
stream_buffer.asm                                                    PAGE   96

    4735                      .dwattr $C$DW$470, DW_AT_location[DW_OP_regx 0x3f]
    4736              $C$DW$471       .dwtag  DW_TAG_TI_assign_register, DW_AT_name("BSA01")
    4737                      .dwattr $C$DW$471, DW_AT_location[DW_OP_regx 0x40]
    4738              $C$DW$472       .dwtag  DW_TAG_TI_assign_register, DW_AT_name("BSA23")
    4739                      .dwattr $C$DW$472, DW_AT_location[DW_OP_regx 0x41]
    4740              $C$DW$473       .dwtag  DW_TAG_TI_assign_register, DW_AT_name("BSA45")
    4741                      .dwattr $C$DW$473, DW_AT_location[DW_OP_regx 0x42]
    4742              $C$DW$474       .dwtag  DW_TAG_TI_assign_register, DW_AT_name("BSA67")
    4743                      .dwattr $C$DW$474, DW_AT_location[DW_OP_regx 0x43]
    4744              $C$DW$475       .dwtag  DW_TAG_TI_assign_register, DW_AT_name("BSAC")
    4745                      .dwattr $C$DW$475, DW_AT_location[DW_OP_regx 0x44]
    4746              $C$DW$476       .dwtag  DW_TAG_TI_assign_register, DW_AT_name("CARRY")
    4747                      .dwattr $C$DW$476, DW_AT_location[DW_OP_regx 0x45]
    4748              $C$DW$477       .dwtag  DW_TAG_TI_assign_register, DW_AT_name("TC1")
    4749                      .dwattr $C$DW$477, DW_AT_location[DW_OP_regx 0x46]
    4750              $C$DW$478       .dwtag  DW_TAG_TI_assign_register, DW_AT_name("TC2")
    4751                      .dwattr $C$DW$478, DW_AT_location[DW_OP_regx 0x47]
    4752              $C$DW$479       .dwtag  DW_TAG_TI_assign_register, DW_AT_name("M40")
    4753                      .dwattr $C$DW$479, DW_AT_location[DW_OP_regx 0x48]
    4754              $C$DW$480       .dwtag  DW_TAG_TI_assign_register, DW_AT_name("SXMD")
    4755                      .dwattr $C$DW$480, DW_AT_location[DW_OP_regx 0x49]
    4756              $C$DW$481       .dwtag  DW_TAG_TI_assign_register, DW_AT_name("ARMS")
    4757                      .dwattr $C$DW$481, DW_AT_location[DW_OP_regx 0x4a]
    4758              $C$DW$482       .dwtag  DW_TAG_TI_assign_register, DW_AT_name("C54CM")
    4759                      .dwattr $C$DW$482, DW_AT_location[DW_OP_regx 0x4b]
    4760              $C$DW$483       .dwtag  DW_TAG_TI_assign_register, DW_AT_name("SATA")
    4761                      .dwattr $C$DW$483, DW_AT_location[DW_OP_regx 0x4c]
    4762              $C$DW$484       .dwtag  DW_TAG_TI_assign_register, DW_AT_name("SATD")
    4763                      .dwattr $C$DW$484, DW_AT_location[DW_OP_regx 0x4d]
    4764              $C$DW$485       .dwtag  DW_TAG_TI_assign_register, DW_AT_name("RDM")
    4765                      .dwattr $C$DW$485, DW_AT_location[DW_OP_regx 0x4e]
    4766              $C$DW$486       .dwtag  DW_TAG_TI_assign_register, DW_AT_name("FRCT")
    4767                      .dwattr $C$DW$486, DW_AT_location[DW_OP_regx 0x4f]
    4768              $C$DW$487       .dwtag  DW_TAG_TI_assign_register, DW_AT_name("SMUL")
    4769                      .dwattr $C$DW$487, DW_AT_location[DW_OP_regx 0x50]
    4770              $C$DW$488       .dwtag  DW_TAG_TI_assign_register, DW_AT_name("INTM")
    4771                      .dwattr $C$DW$488, DW_AT_location[DW_OP_regx 0x51]
    4772              $C$DW$489       .dwtag  DW_TAG_TI_assign_register, DW_AT_name("AR0LC")
    4773                      .dwattr $C$DW$489, DW_AT_location[DW_OP_regx 0x52]
    4774              $C$DW$490       .dwtag  DW_TAG_TI_assign_register, DW_AT_name("AR1LC")
    4775                      .dwattr $C$DW$490, DW_AT_location[DW_OP_regx 0x53]
    4776              $C$DW$491       .dwtag  DW_TAG_TI_assign_register, DW_AT_name("AR2LC")
    4777                      .dwattr $C$DW$491, DW_AT_location[DW_OP_regx 0x54]
    4778              $C$DW$492       .dwtag  DW_TAG_TI_assign_register, DW_AT_name("AR3LC")
    4779                      .dwattr $C$DW$492, DW_AT_location[DW_OP_regx 0x55]
    4780              $C$DW$493       .dwtag  DW_TAG_TI_assign_register, DW_AT_name("AR4LC")
    4781                      .dwattr $C$DW$493, DW_AT_location[DW_OP_regx 0x56]
    4782              $C$DW$494       .dwtag  DW_TAG_TI_assign_register, DW_AT_name("AR5LC")
    4783                      .dwattr $C$DW$494, DW_AT_location[DW_OP_regx 0x57]
    4784              $C$DW$495       .dwtag  DW_TAG_TI_assign_register, DW_AT_name("AR6LC")
    4785                      .dwattr $C$DW$495, DW_AT_location[DW_OP_regx 0x58]
    4786              $C$DW$496       .dwtag  DW_TAG_TI_assign_register, DW_AT_name("AR7LC")
    4787                      .dwattr $C$DW$496, DW_AT_location[DW_OP_regx 0x59]
    4788              $C$DW$497       .dwtag  DW_TAG_TI_assign_register, DW_AT_name("CDPLC")
    4789                      .dwattr $C$DW$497, DW_AT_location[DW_OP_regx 0x5a]
TMS320C55x Assembler PC v4.4.1 Sat Oct 06 06:38:33 2018

Tools Copyright (c) 1996-2012 Texas Instruments Incorporated
stream_buffer.asm                                                    PAGE   97

    4790              $C$DW$498       .dwtag  DW_TAG_TI_assign_register, DW_AT_name("CIE_RETA")
    4791                      .dwattr $C$DW$498, DW_AT_location[DW_OP_regx 0x5b]
    4792                      .dwendtag $C$DW$CU
    4793              
    4793              
    4793              

No Assembly Errors, No Assembly Warnings
