TMS320C55x Assembler PC v4.4.1 Tue Oct 02 02:33:57 2018

Tools Copyright (c) 1996-2012 Texas Instruments Incorporated
tasks_sysStk.asm                                                     PAGE    1

    9984              ; Temporary Registers Used: None
       1              ;*******************************************************************************
       2              ;* TMS320C55x C/C++ Codegen                                          PC v4.4.1 *
       3              ;* Date/Time created: Tue Oct 02 02:33:54 2018                                 *
       4              ;*******************************************************************************
       5                      .compiler_opts --hll_source=on --mem_model:code=flat --mem_model:data=large --object_format=coff --si
       6                      .mmregs
       7                      .cpl_on
       8                      .arms_on
       9                      .c54cm_off
      10                      .asg AR6, FP
      11                      .asg XAR6, XFP
      12                      .asg DPH, MDP
      13                      .model call=c55_std
      14                      .model mem=large
      15                      .noremark 5002  ; code respects overwrite rules
      16              ;*******************************************************************************
      17              ;* GLOBAL FILE PARAMETERS                                                      *
      18              ;*                                                                             *
      19              ;*   Architecture       : TMS320C55x                                           *
      20              ;*   Optimizing for     : Speed                                                *
      21              ;*   Memory             : Large Model (23-Bit Data Pointers)                   *
      22              ;*   Calls              : Normal Library ASM calls                             *
      23              ;*   Debug Info         : Standard TI Debug Information                        *
      24              ;*******************************************************************************
      25              
      26              $C$DW$CU        .dwtag  DW_TAG_compile_unit
      27                      .dwattr $C$DW$CU, DW_AT_name("../FreeRTOS/Source/tasks_sysStk.c")
      28                      .dwattr $C$DW$CU, DW_AT_producer("TMS320C55x C/C++ Codegen PC v4.4.1 Copyright (c) 1996-2012 Texas In
      29                      .dwattr $C$DW$CU, DW_AT_TI_version(0x01)
      30                      .dwattr $C$DW$CU, DW_AT_comp_dir("F:\eZdsp-DBG-sim\tmp1\c55x-sim2\foo\Debug")
      31              ;******************************************************************************
      32              ;* CINIT RECORDS                                                              *
      33              ;******************************************************************************
      34 000000               .sect   ".cinit"
      35                      .align  1
      36 000000 0002          .field          2,16
      37 000001 0000-         .field          _wall_clk_ctr+0,24
         000002 0000 
      38 000002 0000          .field          0,8
      39 000003 0000          .field  0,32                    ; _wall_clk_ctr @ 0
         000004 0000 
      40              
      41 000005               .sect   ".cinit"
      42                      .align  1
      43 000005 0002          .field          2,16
      44 000006 0000-         .field          _pxCurrentTCB+0,24
         000007 0400 
      45 000007 0400          .field          0,8
      46 000008 0000          .field  0,32                    ; _pxCurrentTCB @ 0
         000009 0000 
      47              
      48 00000a               .sect   ".cinit"
      49                      .align  1
      50 00000a 0001          .field          1,16
TMS320C55x Assembler PC v4.4.1 Tue Oct 02 02:33:57 2018

Tools Copyright (c) 1996-2012 Texas Instruments Incorporated
tasks_sysStk.asm                                                     PAGE    2

      51 00000b 0000-         .field          _uxDeletedTasksWaitingCleanUp+0,24
         00000c 6400 
      52 00000c 6400          .field          0,8
      53 00000d 0000          .field  0,16                    ; _uxDeletedTasksWaitingCleanUp @ 0
      54              
      55 00000e               .sect   ".cinit"
      56                      .align  1
      57 00000e 0001          .field          1,16
      58 00000f 0000-         .field          _uxCurrentNumberOfTasks+0,24
         000010 6500 
      59 000010 6500          .field          0,8
      60 000011 0000          .field  0,16                    ; _uxCurrentNumberOfTasks @ 0
      61              
      62 000012               .sect   ".cinit"
      63                      .align  1
      64 000012 0002          .field          2,16
      65 000013 0000-         .field          _xTickCount+0,24
         000014 7000 
      66 000014 7000          .field          0,8
      67 000015 0000          .field  0,32                    ; _xTickCount @ 0
         000016 0000 
      68              
      69 000017               .sect   ".cinit"
      70                      .align  1
      71 000017 0001          .field          1,16
      72 000018 0000-         .field          _uxTopReadyPriority+0,24
         000019 7200 
      73 000019 7200          .field          0,8
      74 00001a 0000          .field  0,16                    ; _uxTopReadyPriority @ 0
      75              
      76 00001b               .sect   ".cinit"
      77                      .align  1
      78 00001b 0001          .field          1,16
      79 00001c 0000-         .field          _xSchedulerRunning+0,24
         00001d 7300 
      80 00001d 7300          .field          0,8
      81 00001e 0000          .field  0,16                    ; _xSchedulerRunning @ 0
      82              
      83 00001f               .sect   ".cinit"
      84                      .align  1
      85 00001f 0001          .field          1,16
      86 000020 0000-         .field          _uxPendedTicks+0,24
         000021 7400 
      87 000021 7400          .field          0,8
      88 000022 0000          .field  0,16                    ; _uxPendedTicks @ 0
      89              
      90 000023               .sect   ".cinit"
      91                      .align  1
      92 000023 0001          .field          1,16
      93 000024 0000-         .field          _xYieldPending+0,24
         000025 7500 
      94 000025 7500          .field          0,8
      95 000026 0000          .field  0,16                    ; _xYieldPending @ 0
      96              
      97 000027               .sect   ".cinit"
TMS320C55x Assembler PC v4.4.1 Tue Oct 02 02:33:57 2018

Tools Copyright (c) 1996-2012 Texas Instruments Incorporated
tasks_sysStk.asm                                                     PAGE    3

      98                      .align  1
      99 000027 0001          .field          1,16
     100 000028 0000-         .field          _xNumOfOverflows+0,24
         000029 7600 
     101 000029 7600          .field          0,8
     102 00002a 0000          .field  0,16                    ; _xNumOfOverflows @ 0
     103              
     104 00002b               .sect   ".cinit"
     105                      .align  1
     106 00002b 0001          .field          1,16
     107 00002c 0000-         .field          _uxTaskNumber+0,24
         00002d 7700 
     108 00002d 7700          .field          0,8
     109 00002e 0000          .field  0,16                    ; _uxTaskNumber @ 0
     110              
     111 00002f               .sect   ".cinit"
     112                      .align  1
     113 00002f 0002          .field          2,16
     114 000030 0000-         .field          _xNextTaskUnblockTime+0,24
         000031 7800 
     115 000031 7800          .field          0,8
     116 000032 0000          .field  0,32                    ; _xNextTaskUnblockTime @ 0
         000033 0000 
     117              
     118 000034               .sect   ".cinit"
     119                      .align  1
     120 000034 0002          .field          2,16
     121 000035 0000-         .field          _xIdleTaskHandle+0,24
         000036 7A00 
     122 000036 7A00          .field          0,8
     123 000037 0000          .field  0,32                    ; _xIdleTaskHandle @ 0
         000038 0000 
     124              
     125 000039               .sect   ".cinit"
     126                      .align  1
     127 000039 0001          .field          1,16
     128 00003a 0000-         .field          _uxSchedulerSuspended+0,24
         00003b 7C00 
     129 00003b 7C00          .field          0,8
     130 00003c 0000          .field  0,16                    ; _uxSchedulerSuspended @ 0
     131              
     132              
     133              $C$DW$1 .dwtag  DW_TAG_subprogram, DW_AT_name("memset")
     134                      .dwattr $C$DW$1, DW_AT_TI_symbol_name("_memset")
     135                      .dwattr $C$DW$1, DW_AT_type(*$C$DW$T$3)
     136                      .dwattr $C$DW$1, DW_AT_declaration
     137                      .dwattr $C$DW$1, DW_AT_external
     138              $C$DW$2 .dwtag  DW_TAG_formal_parameter
     139                      .dwattr $C$DW$2, DW_AT_type(*$C$DW$T$3)
     140              $C$DW$3 .dwtag  DW_TAG_formal_parameter
     141                      .dwattr $C$DW$3, DW_AT_type(*$C$DW$T$10)
     142              $C$DW$4 .dwtag  DW_TAG_formal_parameter
     143                      .dwattr $C$DW$4, DW_AT_type(*$C$DW$T$52)
     144                      .dwendtag $C$DW$1
     145              
TMS320C55x Assembler PC v4.4.1 Tue Oct 02 02:33:57 2018

Tools Copyright (c) 1996-2012 Texas Instruments Incorporated
tasks_sysStk.asm                                                     PAGE    4

     146              
     147              $C$DW$5 .dwtag  DW_TAG_subprogram, DW_AT_name("vPortYield")
     148                      .dwattr $C$DW$5, DW_AT_TI_symbol_name("_vPortYield")
     149                      .dwattr $C$DW$5, DW_AT_declaration
     150                      .dwattr $C$DW$5, DW_AT_external
     151              
     152              $C$DW$6 .dwtag  DW_TAG_subprogram, DW_AT_name("pxPortInitialiseStack")
     153                      .dwattr $C$DW$6, DW_AT_TI_symbol_name("_pxPortInitialiseStack")
     154                      .dwattr $C$DW$6, DW_AT_declaration
     155                      .dwattr $C$DW$6, DW_AT_external
     156              $C$DW$7 .dwtag  DW_TAG_formal_parameter
     157                      .dwattr $C$DW$7, DW_AT_type(*$C$DW$T$20)
     158              $C$DW$8 .dwtag  DW_TAG_formal_parameter
     159                      .dwattr $C$DW$8, DW_AT_type(*$C$DW$T$20)
     160              $C$DW$9 .dwtag  DW_TAG_formal_parameter
     161                      .dwattr $C$DW$9, DW_AT_type(*$C$DW$T$62)
     162              $C$DW$10        .dwtag  DW_TAG_formal_parameter
     163                      .dwattr $C$DW$10, DW_AT_type(*$C$DW$T$3)
     164                      .dwendtag $C$DW$6
     165              
     166              
     167              $C$DW$11        .dwtag  DW_TAG_subprogram, DW_AT_name("pvPortMalloc")
     168                      .dwattr $C$DW$11, DW_AT_TI_symbol_name("_pvPortMalloc")
     169                      .dwattr $C$DW$11, DW_AT_type(*$C$DW$T$3)
     170                      .dwattr $C$DW$11, DW_AT_declaration
     171                      .dwattr $C$DW$11, DW_AT_external
     172              $C$DW$12        .dwtag  DW_TAG_formal_parameter
     173                      .dwattr $C$DW$12, DW_AT_type(*$C$DW$T$52)
     174                      .dwendtag $C$DW$11
     175              
     176              
     177              $C$DW$13        .dwtag  DW_TAG_subprogram, DW_AT_name("vPortFree")
     178                      .dwattr $C$DW$13, DW_AT_TI_symbol_name("_vPortFree")
     179                      .dwattr $C$DW$13, DW_AT_declaration
     180                      .dwattr $C$DW$13, DW_AT_external
     181              $C$DW$14        .dwtag  DW_TAG_formal_parameter
     182                      .dwattr $C$DW$14, DW_AT_type(*$C$DW$T$3)
     183                      .dwendtag $C$DW$13
     184              
     185              
     186              $C$DW$15        .dwtag  DW_TAG_subprogram, DW_AT_name("xPortStartScheduler")
     187                      .dwattr $C$DW$15, DW_AT_TI_symbol_name("_xPortStartScheduler")
     188                      .dwattr $C$DW$15, DW_AT_type(*$C$DW$T$43)
     189                      .dwattr $C$DW$15, DW_AT_declaration
     190                      .dwattr $C$DW$15, DW_AT_external
     191              
     192              $C$DW$16        .dwtag  DW_TAG_subprogram, DW_AT_name("vPortEndScheduler")
     193                      .dwattr $C$DW$16, DW_AT_TI_symbol_name("_vPortEndScheduler")
     194                      .dwattr $C$DW$16, DW_AT_declaration
     195                      .dwattr $C$DW$16, DW_AT_external
     196              
     197              $C$DW$17        .dwtag  DW_TAG_subprogram, DW_AT_name("vListInitialise")
     198                      .dwattr $C$DW$17, DW_AT_TI_symbol_name("_vListInitialise")
     199                      .dwattr $C$DW$17, DW_AT_declaration
     200                      .dwattr $C$DW$17, DW_AT_external
TMS320C55x Assembler PC v4.4.1 Tue Oct 02 02:33:57 2018

Tools Copyright (c) 1996-2012 Texas Instruments Incorporated
tasks_sysStk.asm                                                     PAGE    5

     201              $C$DW$18        .dwtag  DW_TAG_formal_parameter
     202                      .dwattr $C$DW$18, DW_AT_type(*$C$DW$T$67)
     203                      .dwendtag $C$DW$17
     204              
     205              
     206              $C$DW$19        .dwtag  DW_TAG_subprogram, DW_AT_name("vListInitialiseItem")
     207                      .dwattr $C$DW$19, DW_AT_TI_symbol_name("_vListInitialiseItem")
     208                      .dwattr $C$DW$19, DW_AT_declaration
     209                      .dwattr $C$DW$19, DW_AT_external
     210              $C$DW$20        .dwtag  DW_TAG_formal_parameter
     211                      .dwattr $C$DW$20, DW_AT_type(*$C$DW$T$70)
     212                      .dwendtag $C$DW$19
     213              
     214              
     215              $C$DW$21        .dwtag  DW_TAG_subprogram, DW_AT_name("vListInsert")
     216                      .dwattr $C$DW$21, DW_AT_TI_symbol_name("_vListInsert")
     217                      .dwattr $C$DW$21, DW_AT_declaration
     218                      .dwattr $C$DW$21, DW_AT_external
     219              $C$DW$22        .dwtag  DW_TAG_formal_parameter
     220                      .dwattr $C$DW$22, DW_AT_type(*$C$DW$T$67)
     221              $C$DW$23        .dwtag  DW_TAG_formal_parameter
     222                      .dwattr $C$DW$23, DW_AT_type(*$C$DW$T$70)
     223                      .dwendtag $C$DW$21
     224              
     225              
     226              $C$DW$24        .dwtag  DW_TAG_subprogram, DW_AT_name("vListInsertEnd")
     227                      .dwattr $C$DW$24, DW_AT_TI_symbol_name("_vListInsertEnd")
     228                      .dwattr $C$DW$24, DW_AT_declaration
     229                      .dwattr $C$DW$24, DW_AT_external
     230              $C$DW$25        .dwtag  DW_TAG_formal_parameter
     231                      .dwattr $C$DW$25, DW_AT_type(*$C$DW$T$67)
     232              $C$DW$26        .dwtag  DW_TAG_formal_parameter
     233                      .dwattr $C$DW$26, DW_AT_type(*$C$DW$T$70)
     234                      .dwendtag $C$DW$24
     235              
     236              
     237              $C$DW$27        .dwtag  DW_TAG_subprogram, DW_AT_name("uxListRemove")
     238                      .dwattr $C$DW$27, DW_AT_TI_symbol_name("_uxListRemove")
     239                      .dwattr $C$DW$27, DW_AT_type(*$C$DW$T$25)
     240                      .dwattr $C$DW$27, DW_AT_declaration
     241                      .dwattr $C$DW$27, DW_AT_external
     242              $C$DW$28        .dwtag  DW_TAG_formal_parameter
     243                      .dwattr $C$DW$28, DW_AT_type(*$C$DW$T$70)
     244                      .dwendtag $C$DW$27
     245              
     246              
     247              $C$DW$29        .dwtag  DW_TAG_subprogram, DW_AT_name("vApplicationMallocFailedHook")
     248                      .dwattr $C$DW$29, DW_AT_TI_symbol_name("_vApplicationMallocFailedHook")
     249                      .dwattr $C$DW$29, DW_AT_declaration
     250                      .dwattr $C$DW$29, DW_AT_external
     251              
     252              $C$DW$30        .dwtag  DW_TAG_subprogram, DW_AT_name("vApplicationIdleHook")
     253                      .dwattr $C$DW$30, DW_AT_TI_symbol_name("_vApplicationIdleHook")
     254                      .dwattr $C$DW$30, DW_AT_declaration
     255                      .dwattr $C$DW$30, DW_AT_external
TMS320C55x Assembler PC v4.4.1 Tue Oct 02 02:33:57 2018

Tools Copyright (c) 1996-2012 Texas Instruments Incorporated
tasks_sysStk.asm                                                     PAGE    6

     256                      .global _wall_clk_ctr
     257 000000               .bss    _wall_clk_ctr,2,0,2
     258              $C$DW$31        .dwtag  DW_TAG_variable, DW_AT_name("wall_clk_ctr")
     259                      .dwattr $C$DW$31, DW_AT_TI_symbol_name("_wall_clk_ctr")
     260                      .dwattr $C$DW$31, DW_AT_location[DW_OP_addr _wall_clk_ctr]
     261                      .dwattr $C$DW$31, DW_AT_type(*$C$DW$T$13)
     262                      .dwattr $C$DW$31, DW_AT_external
     263                      .global _stackStruct
     264 000002               .bss    _stackStruct,2,0,2
     265              $C$DW$32        .dwtag  DW_TAG_variable, DW_AT_name("stackStruct")
     266                      .dwattr $C$DW$32, DW_AT_TI_symbol_name("_stackStruct")
     267                      .dwattr $C$DW$32, DW_AT_location[DW_OP_addr _stackStruct]
     268                      .dwattr $C$DW$32, DW_AT_type(*$C$DW$T$154)
     269                      .dwattr $C$DW$32, DW_AT_external
     270                      .global _pxCurrentTCB
     271 000004               .bss    _pxCurrentTCB,2,0,2
     272              $C$DW$33        .dwtag  DW_TAG_variable, DW_AT_name("pxCurrentTCB")
     273                      .dwattr $C$DW$33, DW_AT_TI_symbol_name("_pxCurrentTCB")
     274                      .dwattr $C$DW$33, DW_AT_location[DW_OP_addr _pxCurrentTCB]
     275                      .dwattr $C$DW$33, DW_AT_type(*$C$DW$T$159)
     276                      .dwattr $C$DW$33, DW_AT_external
     277 000006               .bss    _pxReadyTasksLists,50,0,2
     278              $C$DW$34        .dwtag  DW_TAG_variable, DW_AT_name("pxReadyTasksLists")
     279                      .dwattr $C$DW$34, DW_AT_TI_symbol_name("_pxReadyTasksLists")
     280                      .dwattr $C$DW$34, DW_AT_type(*$C$DW$T$162)
     281                      .dwattr $C$DW$34, DW_AT_location[DW_OP_addr _pxReadyTasksLists]
     282 000038               .bss    _xDelayedTaskList1,10,0,2
     283              $C$DW$35        .dwtag  DW_TAG_variable, DW_AT_name("xDelayedTaskList1")
     284                      .dwattr $C$DW$35, DW_AT_TI_symbol_name("_xDelayedTaskList1")
     285                      .dwattr $C$DW$35, DW_AT_type(*$C$DW$T$65)
     286                      .dwattr $C$DW$35, DW_AT_location[DW_OP_addr _xDelayedTaskList1]
     287 000042               .bss    _xDelayedTaskList2,10,0,2
     288              $C$DW$36        .dwtag  DW_TAG_variable, DW_AT_name("xDelayedTaskList2")
     289                      .dwattr $C$DW$36, DW_AT_TI_symbol_name("_xDelayedTaskList2")
     290                      .dwattr $C$DW$36, DW_AT_type(*$C$DW$T$65)
     291                      .dwattr $C$DW$36, DW_AT_location[DW_OP_addr _xDelayedTaskList2]
     292 00004c               .bss    _pxDelayedTaskList,2,0,2
     293              $C$DW$37        .dwtag  DW_TAG_variable, DW_AT_name("pxDelayedTaskList")
     294                      .dwattr $C$DW$37, DW_AT_TI_symbol_name("_pxDelayedTaskList")
     295                      .dwattr $C$DW$37, DW_AT_type(*$C$DW$T$161)
     296                      .dwattr $C$DW$37, DW_AT_location[DW_OP_addr _pxDelayedTaskList]
     297 00004e               .bss    _pxOverflowDelayedTaskList,2,0,2
     298              $C$DW$38        .dwtag  DW_TAG_variable, DW_AT_name("pxOverflowDelayedTaskList")
     299                      .dwattr $C$DW$38, DW_AT_TI_symbol_name("_pxOverflowDelayedTaskList")
     300                      .dwattr $C$DW$38, DW_AT_type(*$C$DW$T$161)
     301                      .dwattr $C$DW$38, DW_AT_location[DW_OP_addr _pxOverflowDelayedTaskList]
     302 000050               .bss    _xPendingReadyList,10,0,2
     303              $C$DW$39        .dwtag  DW_TAG_variable, DW_AT_name("xPendingReadyList")
     304                      .dwattr $C$DW$39, DW_AT_TI_symbol_name("_xPendingReadyList")
     305                      .dwattr $C$DW$39, DW_AT_type(*$C$DW$T$65)
     306                      .dwattr $C$DW$39, DW_AT_location[DW_OP_addr _xPendingReadyList]
     307 00005a               .bss    _xTasksWaitingTermination,10,0,2
     308              $C$DW$40        .dwtag  DW_TAG_variable, DW_AT_name("xTasksWaitingTermination")
     309                      .dwattr $C$DW$40, DW_AT_TI_symbol_name("_xTasksWaitingTermination")
     310                      .dwattr $C$DW$40, DW_AT_type(*$C$DW$T$65)
TMS320C55x Assembler PC v4.4.1 Tue Oct 02 02:33:57 2018

Tools Copyright (c) 1996-2012 Texas Instruments Incorporated
tasks_sysStk.asm                                                     PAGE    7

     311                      .dwattr $C$DW$40, DW_AT_location[DW_OP_addr _xTasksWaitingTermination]
     312 000064               .bss    _uxDeletedTasksWaitingCleanUp,1,0,0
     313              $C$DW$41        .dwtag  DW_TAG_variable, DW_AT_name("uxDeletedTasksWaitingCleanUp")
     314                      .dwattr $C$DW$41, DW_AT_TI_symbol_name("_uxDeletedTasksWaitingCleanUp")
     315                      .dwattr $C$DW$41, DW_AT_type(*$C$DW$T$33)
     316                      .dwattr $C$DW$41, DW_AT_location[DW_OP_addr _uxDeletedTasksWaitingCleanUp]
     317 000066               .bss    _xSuspendedTaskList,10,0,2
     318              $C$DW$42        .dwtag  DW_TAG_variable, DW_AT_name("xSuspendedTaskList")
     319                      .dwattr $C$DW$42, DW_AT_TI_symbol_name("_xSuspendedTaskList")
     320                      .dwattr $C$DW$42, DW_AT_type(*$C$DW$T$65)
     321                      .dwattr $C$DW$42, DW_AT_location[DW_OP_addr _xSuspendedTaskList]
     322 000065               .bss    _uxCurrentNumberOfTasks,1,0,0
     323              $C$DW$43        .dwtag  DW_TAG_variable, DW_AT_name("uxCurrentNumberOfTasks")
     324                      .dwattr $C$DW$43, DW_AT_TI_symbol_name("_uxCurrentNumberOfTasks")
     325                      .dwattr $C$DW$43, DW_AT_type(*$C$DW$T$33)
     326                      .dwattr $C$DW$43, DW_AT_location[DW_OP_addr _uxCurrentNumberOfTasks]
     327 000070               .bss    _xTickCount,2,0,2
     328              $C$DW$44        .dwtag  DW_TAG_variable, DW_AT_name("xTickCount")
     329                      .dwattr $C$DW$44, DW_AT_TI_symbol_name("_xTickCount")
     330                      .dwattr $C$DW$44, DW_AT_type(*$C$DW$T$146)
     331                      .dwattr $C$DW$44, DW_AT_location[DW_OP_addr _xTickCount]
     332 000072               .bss    _uxTopReadyPriority,1,0,0
     333              $C$DW$45        .dwtag  DW_TAG_variable, DW_AT_name("uxTopReadyPriority")
     334                      .dwattr $C$DW$45, DW_AT_TI_symbol_name("_uxTopReadyPriority")
     335                      .dwattr $C$DW$45, DW_AT_type(*$C$DW$T$33)
     336                      .dwattr $C$DW$45, DW_AT_location[DW_OP_addr _uxTopReadyPriority]
     337 000073               .bss    _xSchedulerRunning,1,0,0
     338              $C$DW$46        .dwtag  DW_TAG_variable, DW_AT_name("xSchedulerRunning")
     339                      .dwattr $C$DW$46, DW_AT_TI_symbol_name("_xSchedulerRunning")
     340                      .dwattr $C$DW$46, DW_AT_type(*$C$DW$T$118)
     341                      .dwattr $C$DW$46, DW_AT_location[DW_OP_addr _xSchedulerRunning]
     342 000074               .bss    _uxPendedTicks,1,0,0
     343              $C$DW$47        .dwtag  DW_TAG_variable, DW_AT_name("uxPendedTicks")
     344                      .dwattr $C$DW$47, DW_AT_TI_symbol_name("_uxPendedTicks")
     345                      .dwattr $C$DW$47, DW_AT_type(*$C$DW$T$33)
     346                      .dwattr $C$DW$47, DW_AT_location[DW_OP_addr _uxPendedTicks]
     347 000075               .bss    _xYieldPending,1,0,0
     348              $C$DW$48        .dwtag  DW_TAG_variable, DW_AT_name("xYieldPending")
     349                      .dwattr $C$DW$48, DW_AT_TI_symbol_name("_xYieldPending")
     350                      .dwattr $C$DW$48, DW_AT_type(*$C$DW$T$118)
     351                      .dwattr $C$DW$48, DW_AT_location[DW_OP_addr _xYieldPending]
     352 000076               .bss    _xNumOfOverflows,1,0,0
     353              $C$DW$49        .dwtag  DW_TAG_variable, DW_AT_name("xNumOfOverflows")
     354                      .dwattr $C$DW$49, DW_AT_TI_symbol_name("_xNumOfOverflows")
     355                      .dwattr $C$DW$49, DW_AT_type(*$C$DW$T$118)
     356                      .dwattr $C$DW$49, DW_AT_location[DW_OP_addr _xNumOfOverflows]
     357 000077               .bss    _uxTaskNumber,1,0,0
     358              $C$DW$50        .dwtag  DW_TAG_variable, DW_AT_name("uxTaskNumber")
     359                      .dwattr $C$DW$50, DW_AT_TI_symbol_name("_uxTaskNumber")
     360                      .dwattr $C$DW$50, DW_AT_type(*$C$DW$T$25)
     361                      .dwattr $C$DW$50, DW_AT_location[DW_OP_addr _uxTaskNumber]
     362 000078               .bss    _xNextTaskUnblockTime,2,0,2
     363              $C$DW$51        .dwtag  DW_TAG_variable, DW_AT_name("xNextTaskUnblockTime")
     364                      .dwattr $C$DW$51, DW_AT_TI_symbol_name("_xNextTaskUnblockTime")
     365                      .dwattr $C$DW$51, DW_AT_type(*$C$DW$T$146)
TMS320C55x Assembler PC v4.4.1 Tue Oct 02 02:33:57 2018

Tools Copyright (c) 1996-2012 Texas Instruments Incorporated
tasks_sysStk.asm                                                     PAGE    8

     366                      .dwattr $C$DW$51, DW_AT_location[DW_OP_addr _xNextTaskUnblockTime]
     367 00007a               .bss    _xIdleTaskHandle,2,0,2
     368              $C$DW$52        .dwtag  DW_TAG_variable, DW_AT_name("xIdleTaskHandle")
     369                      .dwattr $C$DW$52, DW_AT_TI_symbol_name("_xIdleTaskHandle")
     370                      .dwattr $C$DW$52, DW_AT_type(*$C$DW$T$48)
     371                      .dwattr $C$DW$52, DW_AT_location[DW_OP_addr _xIdleTaskHandle]
     372 00007c               .bss    _uxSchedulerSuspended,1,0,0
     373              $C$DW$53        .dwtag  DW_TAG_variable, DW_AT_name("uxSchedulerSuspended")
     374                      .dwattr $C$DW$53, DW_AT_TI_symbol_name("_uxSchedulerSuspended")
     375                      .dwattr $C$DW$53, DW_AT_type(*$C$DW$T$33)
     376                      .dwattr $C$DW$53, DW_AT_location[DW_OP_addr _uxSchedulerSuspended]
     377              $C$DW$54        .dwtag  DW_TAG_variable, DW_AT_name("usCriticalNesting")
     378                      .dwattr $C$DW$54, DW_AT_TI_symbol_name("_usCriticalNesting")
     379                      .dwattr $C$DW$54, DW_AT_type(*$C$DW$T$143)
     380                      .dwattr $C$DW$54, DW_AT_declaration
     381                      .dwattr $C$DW$54, DW_AT_external
     382              ;       F:\t\cc5p5\ccsv5\tools\compiler\c5500_4.4.1\bin\acp55.exe -@f:\\AppData\\Local\\Temp\\1477612 
     383 000000               .sect   ".text"
     384                      .align 4
     385                      .global _xTaskCreate
     386              
     387              $C$DW$55        .dwtag  DW_TAG_subprogram, DW_AT_name("xTaskCreate")
     388                      .dwattr $C$DW$55, DW_AT_low_pc(_xTaskCreate)
     389                      .dwattr $C$DW$55, DW_AT_high_pc(0x00)
     390                      .dwattr $C$DW$55, DW_AT_TI_symbol_name("_xTaskCreate")
     391                      .dwattr $C$DW$55, DW_AT_external
     392                      .dwattr $C$DW$55, DW_AT_type(*$C$DW$T$43)
     393                      .dwattr $C$DW$55, DW_AT_TI_begin_file("../FreeRTOS/Source/tasks_sysStk.c")
     394                      .dwattr $C$DW$55, DW_AT_TI_begin_line(0x2f3)
     395                      .dwattr $C$DW$55, DW_AT_TI_begin_column(0x0d)
     396                      .dwattr $C$DW$55, DW_AT_TI_max_frame_size(0x16)
     397                      .dwpsn  file "../FreeRTOS/Source/tasks_sysStk.c",line 761,column 2,is_stmt,address _xTaskCreate
     398              
     399                      .dwfde $C$DW$CIE, _xTaskCreate
     400              $C$DW$56        .dwtag  DW_TAG_formal_parameter, DW_AT_name("pxTaskCode")
     401                      .dwattr $C$DW$56, DW_AT_TI_symbol_name("_pxTaskCode")
     402                      .dwattr $C$DW$56, DW_AT_type(*$C$DW$T$62)
     403                      .dwattr $C$DW$56, DW_AT_location[DW_OP_reg1]
     404              $C$DW$57        .dwtag  DW_TAG_formal_parameter, DW_AT_name("pcName")
     405                      .dwattr $C$DW$57, DW_AT_TI_symbol_name("_pcName")
     406                      .dwattr $C$DW$57, DW_AT_type(*$C$DW$T$77)
     407                      .dwattr $C$DW$57, DW_AT_location[DW_OP_reg17]
     408              $C$DW$58        .dwtag  DW_TAG_formal_parameter, DW_AT_name("usStackDepth")
     409                      .dwattr $C$DW$58, DW_AT_TI_symbol_name("_usStackDepth")
     410                      .dwattr $C$DW$58, DW_AT_type(*$C$DW$T$122)
     411                      .dwattr $C$DW$58, DW_AT_location[DW_OP_reg12]
     412              $C$DW$59        .dwtag  DW_TAG_formal_parameter, DW_AT_name("pvParameters")
     413                      .dwattr $C$DW$59, DW_AT_TI_symbol_name("_pvParameters")
     414                      .dwattr $C$DW$59, DW_AT_type(*$C$DW$T$57)
     415                      .dwattr $C$DW$59, DW_AT_location[DW_OP_reg19]
     416              $C$DW$60        .dwtag  DW_TAG_formal_parameter, DW_AT_name("uxPriority")
     417                      .dwattr $C$DW$60, DW_AT_TI_symbol_name("_uxPriority")
     418                      .dwattr $C$DW$60, DW_AT_type(*$C$DW$T$25)
     419                      .dwattr $C$DW$60, DW_AT_location[DW_OP_reg13]
     420              $C$DW$61        .dwtag  DW_TAG_formal_parameter, DW_AT_name("pxCreatedTask")
TMS320C55x Assembler PC v4.4.1 Tue Oct 02 02:33:57 2018

Tools Copyright (c) 1996-2012 Texas Instruments Incorporated
tasks_sysStk.asm                                                     PAGE    9

     421                      .dwattr $C$DW$61, DW_AT_TI_symbol_name("_pxCreatedTask")
     422                      .dwattr $C$DW$61, DW_AT_type(*$C$DW$T$80)
     423                      .dwattr $C$DW$61, DW_AT_location[DW_OP_reg21]
     424              ;*******************************************************************************
     425              ;* FUNCTION NAME: xTaskCreate                                                  *
     426              ;*                                                                             *
     427              ;*   Function Uses Regs : AC0,AC0,AC1,AC1,T0,T1,AR0,XAR0,AR1,XAR1,AR2,XAR2,AR3,*
     428              ;*                        XAR3,AR4,XAR4,SP,M40,SATA,SATD,RDM,FRCT,SMUL         *
     429              ;*   Stack Frame        : Compact (No Frame Pointer, w/ debug)                 *
     430              ;*   Total Frame Size   : 22 words                                             *
     431              ;*                        (2 return address/alignment)                         *
     432              ;*                        (20 local values)                                    *
     433              ;*   Min System Stack   : 1 word                                               *
     434              ;*******************************************************************************
     435 000000       _xTaskCreate:
     436                      .dwcfi  cfa_offset, 1
     437                      .dwcfi  save_reg_to_mem, 91, -1
     438 000000 4EEB          AADD #-21, SP
     439                      .dwcfi  cfa_offset, 22
     440              $C$DW$62        .dwtag  DW_TAG_variable, DW_AT_name("pxTaskCode")
     441                      .dwattr $C$DW$62, DW_AT_TI_symbol_name("_pxTaskCode")
     442                      .dwattr $C$DW$62, DW_AT_type(*$C$DW$T$62)
     443                      .dwattr $C$DW$62, DW_AT_location[DW_OP_bregx 0x24 0]
     444              $C$DW$63        .dwtag  DW_TAG_variable, DW_AT_name("pcName")
     445                      .dwattr $C$DW$63, DW_AT_TI_symbol_name("_pcName")
     446                      .dwattr $C$DW$63, DW_AT_type(*$C$DW$T$77)
     447                      .dwattr $C$DW$63, DW_AT_location[DW_OP_bregx 0x24 2]
     448              $C$DW$64        .dwtag  DW_TAG_variable, DW_AT_name("usStackDepth")
     449                      .dwattr $C$DW$64, DW_AT_TI_symbol_name("_usStackDepth")
     450                      .dwattr $C$DW$64, DW_AT_type(*$C$DW$T$122)
     451                      .dwattr $C$DW$64, DW_AT_location[DW_OP_bregx 0x24 4]
     452              $C$DW$65        .dwtag  DW_TAG_variable, DW_AT_name("pvParameters")
     453                      .dwattr $C$DW$65, DW_AT_TI_symbol_name("_pvParameters")
     454                      .dwattr $C$DW$65, DW_AT_type(*$C$DW$T$57)
     455                      .dwattr $C$DW$65, DW_AT_location[DW_OP_bregx 0x24 6]
     456              $C$DW$66        .dwtag  DW_TAG_variable, DW_AT_name("uxPriority")
     457                      .dwattr $C$DW$66, DW_AT_TI_symbol_name("_uxPriority")
     458                      .dwattr $C$DW$66, DW_AT_type(*$C$DW$T$25)
     459                      .dwattr $C$DW$66, DW_AT_location[DW_OP_bregx 0x24 8]
     460              $C$DW$67        .dwtag  DW_TAG_variable, DW_AT_name("pxCreatedTask")
     461                      .dwattr $C$DW$67, DW_AT_TI_symbol_name("_pxCreatedTask")
     462                      .dwattr $C$DW$67, DW_AT_type(*$C$DW$T$80)
     463                      .dwattr $C$DW$67, DW_AT_location[DW_OP_bregx 0x24 10]
     464              $C$DW$68        .dwtag  DW_TAG_variable, DW_AT_name("pxNewTCB")
     465                      .dwattr $C$DW$68, DW_AT_TI_symbol_name("_pxNewTCB")
     466                      .dwattr $C$DW$68, DW_AT_type(*$C$DW$T$83)
     467                      .dwattr $C$DW$68, DW_AT_location[DW_OP_bregx 0x24 12]
     468              $C$DW$69        .dwtag  DW_TAG_variable, DW_AT_name("xReturn")
     469                      .dwattr $C$DW$69, DW_AT_TI_symbol_name("_xReturn")
     470                      .dwattr $C$DW$69, DW_AT_type(*$C$DW$T$43)
     471                      .dwattr $C$DW$69, DW_AT_location[DW_OP_bregx 0x24 14]
     472              $C$DW$70        .dwtag  DW_TAG_variable, DW_AT_name("pxStack")
     473                      .dwattr $C$DW$70, DW_AT_TI_symbol_name("_pxStack")
     474                      .dwattr $C$DW$70, DW_AT_type(*$C$DW$T$20)
     475                      .dwattr $C$DW$70, DW_AT_location[DW_OP_bregx 0x24 16]
TMS320C55x Assembler PC v4.4.1 Tue Oct 02 02:33:57 2018

Tools Copyright (c) 1996-2012 Texas Instruments Incorporated
tasks_sysStk.asm                                                     PAGE   10

     476              $C$DW$71        .dwtag  DW_TAG_variable, DW_AT_name("pxSysStack")
     477                      .dwattr $C$DW$71, DW_AT_TI_symbol_name("_pxSysStack")
     478                      .dwattr $C$DW$71, DW_AT_type(*$C$DW$T$20)
     479                      .dwattr $C$DW$71, DW_AT_location[DW_OP_bregx 0x24 18]
     480 000002 EB14          MOV XAR2, dbl(*SP(#10))
         000004 A5   
     481 000005 C510          MOV T1, *SP(#8) ; |761| 
     482 000007 EB0C          MOV XAR1, dbl(*SP(#6))
         000009 95   
     483 00000a C408          MOV T0, *SP(#4) ; |761| 
     484 00000c EB04          MOV XAR0, dbl(*SP(#2))
         00000e 85   
     485 00000f EB00          MOV AC0, dbl(*SP(#0)) ; |761| 
         000011 08   
     486                      .dwpsn  file "../FreeRTOS/Source/tasks_sysStk.c",line 799,column 4,is_stmt
     487 000012 A408          MOV *SP(#4), T0 ; |799| 
     488              $C$DW$72        .dwtag  DW_TAG_TI_branch
     489                      .dwattr $C$DW$72, DW_AT_low_pc(0x00)
     490                      .dwattr $C$DW$72, DW_AT_name("_pvPortMalloc")
     491                      .dwattr $C$DW$72, DW_AT_TI_call
     492 000014 6C00          CALL #_pvPortMalloc ; |799| 
         000016 0000!
     493                                                      ; call occurs [#_pvPortMalloc] ; |799| 
     494 000018 EB20          MOV XAR0, dbl(*SP(#16))
         00001a 85   
     495                      .dwpsn  file "../FreeRTOS/Source/tasks_sysStk.c",line 800,column 4,is_stmt
     496 00001b A408          MOV *SP(#4), T0 ; |800| 
     497              $C$DW$73        .dwtag  DW_TAG_TI_branch
     498                      .dwattr $C$DW$73, DW_AT_low_pc(0x00)
     499                      .dwattr $C$DW$73, DW_AT_name("_pvPortMalloc")
     500                      .dwattr $C$DW$73, DW_AT_TI_call
     501 00001d 6C00          CALL #_pvPortMalloc ; |800| 
         00001f 0000!
     502                                                      ; call occurs [#_pvPortMalloc] ; |800| 
     503 000021 EB24          MOV XAR0, dbl(*SP(#18))
         000023 85   
     504                      .dwpsn  file "../FreeRTOS/Source/tasks_sysStk.c",line 802,column 4,is_stmt
     505 000024 ED20          MOV dbl(*SP(#16)), XAR3
         000026 BF   
     506 000027 90B0          MOV XAR3, AC0
     507 000029 0400          BCC $C$L2,AC0 == #0 ; |802| 
         00002b 43   
     508                                                      ; branchcc occurs ; |802| 
     509 00002c ED24          MOV dbl(*SP(#18)), XAR3
         00002e BF   
     510 00002f 90B0          MOV XAR3, AC0
     511 000031 0400          BCC $C$L2,AC0 == #0 ; |802| 
         000033 3B   
     512                                                      ; branchcc occurs ; |802| 
     513                      .dwpsn  file "../FreeRTOS/Source/tasks_sysStk.c",line 805,column 5,is_stmt
     514 000034 7600          MOV #50, T0 ; |805| 
         000036 3248 
     515              $C$DW$74        .dwtag  DW_TAG_TI_branch
     516                      .dwattr $C$DW$74, DW_AT_low_pc(0x00)
     517                      .dwattr $C$DW$74, DW_AT_name("_pvPortMalloc")
TMS320C55x Assembler PC v4.4.1 Tue Oct 02 02:33:57 2018

Tools Copyright (c) 1996-2012 Texas Instruments Incorporated
tasks_sysStk.asm                                                     PAGE   11

     518                      .dwattr $C$DW$74, DW_AT_TI_call
     519 000038 6C00          CALL #_pvPortMalloc ; |805| 
         00003a 0000!
     520                                                      ; call occurs [#_pvPortMalloc] ; |805| 
     521 00003c EB18          MOV XAR0, dbl(*SP(#12))
         00003e 85   
     522                      .dwpsn  file "../FreeRTOS/Source/tasks_sysStk.c",line 807,column 5,is_stmt
     523 00003f ED18          MOV dbl(*SP(#12)), XAR3
         000041 BF   
     524 000042 90B0          MOV XAR3, AC0
     525 000044 0400          BCC $C$L1,AC0 == #0 ; |807| 
         000046 18   
     526                                                      ; branchcc occurs ; |807| 
     527                      .dwpsn  file "../FreeRTOS/Source/tasks_sysStk.c",line 810,column 6,is_stmt
     528 000047 ED18          MOV dbl(*SP(#12)), XAR2
         000049 AF   
     529 00004a ED20          MOV dbl(*SP(#16)), XAR3
         00004c BF   
     530 00004d EB4D          MOV XAR3, dbl(*AR2(#26))
         00004f B500 
         000051 1A   
     531                      .dwpsn  file "../FreeRTOS/Source/tasks_sysStk.c",line 811,column 6,is_stmt
     532 000052 ED18          MOV dbl(*SP(#12)), XAR2
         000054 AF   
     533 000055 ED24          MOV dbl(*SP(#18)), XAR3
         000057 BF   
     534 000058 EB4D          MOV XAR3, dbl(*AR2(#28))
         00005a B500 
         00005c 1C   
     535                      .dwpsn  file "../FreeRTOS/Source/tasks_sysStk.c",line 812,column 5,is_stmt
     536 00005d 4A15          B $C$L3   ; |812| 
     537                                                      ; branch occurs ; |812| 
     538 00005f       $C$L1:    
     539                      .dwpsn  file "../FreeRTOS/Source/tasks_sysStk.c",line 817,column 6,is_stmt
     540 00005f ED20          MOV dbl(*SP(#16)), XAR0
         000061 8F   
     541              $C$DW$75        .dwtag  DW_TAG_TI_branch
     542                      .dwattr $C$DW$75, DW_AT_low_pc(0x00)
     543                      .dwattr $C$DW$75, DW_AT_name("_vPortFree")
     544                      .dwattr $C$DW$75, DW_AT_TI_call
     545 000062 6C00          CALL #_vPortFree ; |817| 
         000064 0000!
     546                                                      ; call occurs [#_vPortFree] ; |817| 
     547                      .dwpsn  file "../FreeRTOS/Source/tasks_sysStk.c",line 818,column 6,is_stmt
     548 000066 ED24          MOV dbl(*SP(#18)), XAR0
         000068 8F   
     549              $C$DW$76        .dwtag  DW_TAG_TI_branch
     550                      .dwattr $C$DW$76, DW_AT_low_pc(0x00)
     551                      .dwattr $C$DW$76, DW_AT_name("_vPortFree")
     552                      .dwattr $C$DW$76, DW_AT_TI_call
     553 000069 6C00          CALL #_vPortFree ; |818| 
         00006b 0000!
     554                                                      ; call occurs [#_vPortFree] ; |818| 
     555                      .dwpsn  file "../FreeRTOS/Source/tasks_sysStk.c",line 820,column 4,is_stmt
     556 00006d 4A05          B $C$L3   ; |820| 
TMS320C55x Assembler PC v4.4.1 Tue Oct 02 02:33:57 2018

Tools Copyright (c) 1996-2012 Texas Instruments Incorporated
tasks_sysStk.asm                                                     PAGE   12

     557                                                      ; branch occurs ; |820| 
     558 00006f       $C$L2:    
     559                      .dwpsn  file "../FreeRTOS/Source/tasks_sysStk.c",line 823,column 5,is_stmt
     560 00006f 3C00          MOV #0, AC0 ; |823| 
     561 000071 EB18          MOV AC0, dbl(*SP(#12))
         000073 08   
     562 000074       $C$L3:    
     563                      .dwpsn  file "../FreeRTOS/Source/tasks_sysStk.c",line 828,column 3,is_stmt
     564 000074 ED18          MOV dbl(*SP(#12)), XAR3
         000076 BF   
     565 000077 90B0          MOV XAR3, AC0
     566 000079 0400          BCC $C$L4,AC0 == #0 ; |828| 
         00007b 25   
     567                                                      ; branchcc occurs ; |828| 
     568                      .dwpsn  file "../FreeRTOS/Source/tasks_sysStk.c",line 838,column 4,is_stmt
     569 00007c DF08          MOV uns(*SP(#4)), AC1 ; |838| 
         00007e 15   
     570 00007f ED00          MOV dbl(*SP(#0)), AC0 ; |838| 
         000081 08   
     571 000082 ED04          MOV dbl(*SP(#2)), XAR0
         000084 8F   
     572 000085 ED0C          MOV dbl(*SP(#6)), XAR1
         000087 9F   
     573 000088 A410          MOV *SP(#8), T0 ; |838| 
     574 00008a ED14          MOV dbl(*SP(#10)), XAR2
         00008c AF   
     575 00008d EC31          AMOV #0, XAR4 ; |838| 
         00008f CE00 
         000091 0000 
     576              $C$DW$77        .dwtag  DW_TAG_TI_branch
     577                      .dwattr $C$DW$77, DW_AT_low_pc(0x00)
     578                      .dwattr $C$DW$77, DW_AT_name("_prvInitialiseNewTask")
     579                      .dwattr $C$DW$77, DW_AT_TI_call
     580 000093 0800          CALL #_prvInitialiseNewTask ; |838| 
         000095 16   
     581                                                      ; call occurs [#_prvInitialiseNewTask] ; |838| 
     582                      .dwpsn  file "../FreeRTOS/Source/tasks_sysStk.c",line 839,column 4,is_stmt
     583 000096 ED18          MOV dbl(*SP(#12)), XAR0
         000098 8F   
     584              $C$DW$78        .dwtag  DW_TAG_TI_branch
     585                      .dwattr $C$DW$78, DW_AT_low_pc(0x00)
     586                      .dwattr $C$DW$78, DW_AT_name("_prvAddNewTaskToReadyList")
     587                      .dwattr $C$DW$78, DW_AT_TI_call
     588 000099 0802          CALL #_prvAddNewTaskToReadyList ; |839| 
         00009b 08   
     589                                                      ; call occurs [#_prvAddNewTaskToReadyList] ; |839| 
     590                      .dwpsn  file "../FreeRTOS/Source/tasks_sysStk.c",line 840,column 4,is_stmt
     591 00009c E61C          MOV #1, *SP(#14) ; |840| 
         00009e 01   
     592                      .dwpsn  file "../FreeRTOS/Source/tasks_sysStk.c",line 841,column 3,is_stmt
     593 00009f 4A03          B $C$L5   ; |841| 
     594                                                      ; branch occurs ; |841| 
     595 0000a1       $C$L4:    
     596                      .dwpsn  file "../FreeRTOS/Source/tasks_sysStk.c",line 844,column 4,is_stmt
     597 0000a1 E61C          MOV #-1, *SP(#14) ; |844| 
TMS320C55x Assembler PC v4.4.1 Tue Oct 02 02:33:57 2018

Tools Copyright (c) 1996-2012 Texas Instruments Incorporated
tasks_sysStk.asm                                                     PAGE   13

         0000a3 FF   
     598 0000a4       $C$L5:    
     599                      .dwpsn  file "../FreeRTOS/Source/tasks_sysStk.c",line 847,column 3,is_stmt
     600 0000a4 A41C          MOV *SP(#14), T0 ; |847| 
     601                      .dwpsn  file "../FreeRTOS/Source/tasks_sysStk.c",line 848,column 2,is_stmt
     602 0000a6 4E15          AADD #21, SP
     603                      .dwcfi  cfa_offset, 1
     604              $C$DW$79        .dwtag  DW_TAG_TI_branch
     605                      .dwattr $C$DW$79, DW_AT_low_pc(0x00)
     606                      .dwattr $C$DW$79, DW_AT_TI_return
     607 0000a8 4804          RET
     608                                                      ; return occurs
     609                      .dwattr $C$DW$55, DW_AT_TI_end_file("../FreeRTOS/Source/tasks_sysStk.c")
     610                      .dwattr $C$DW$55, DW_AT_TI_end_line(0x350)
     611                      .dwattr $C$DW$55, DW_AT_TI_end_column(0x02)
     612                      .dwendentry
     613                      .dwendtag $C$DW$55
     614              
     615 0000aa               .sect   ".text"
     616                      .align 4
     617              
     618              $C$DW$80        .dwtag  DW_TAG_subprogram, DW_AT_name("prvInitialiseNewTask")
     619                      .dwattr $C$DW$80, DW_AT_low_pc(_prvInitialiseNewTask)
     620                      .dwattr $C$DW$80, DW_AT_high_pc(0x00)
     621                      .dwattr $C$DW$80, DW_AT_TI_symbol_name("_prvInitialiseNewTask")
     622                      .dwattr $C$DW$80, DW_AT_TI_begin_file("../FreeRTOS/Source/tasks_sysStk.c")
     623                      .dwattr $C$DW$80, DW_AT_TI_begin_line(0x355)
     624                      .dwattr $C$DW$80, DW_AT_TI_begin_column(0x0d)
     625                      .dwattr $C$DW$80, DW_AT_TI_max_frame_size(0x16)
     626                      .dwpsn  file "../FreeRTOS/Source/tasks_sysStk.c",line 861,column 1,is_stmt,address _prvInitialiseNewT
     627              
     628                      .dwfde $C$DW$CIE, _prvInitialiseNewTask
     629              $C$DW$81        .dwtag  DW_TAG_formal_parameter, DW_AT_name("pxTaskCode")
     630                      .dwattr $C$DW$81, DW_AT_TI_symbol_name("_pxTaskCode")
     631                      .dwattr $C$DW$81, DW_AT_type(*$C$DW$T$62)
     632                      .dwattr $C$DW$81, DW_AT_location[DW_OP_reg1]
     633              $C$DW$82        .dwtag  DW_TAG_formal_parameter, DW_AT_name("pcName")
     634                      .dwattr $C$DW$82, DW_AT_TI_symbol_name("_pcName")
     635                      .dwattr $C$DW$82, DW_AT_type(*$C$DW$T$77)
     636                      .dwattr $C$DW$82, DW_AT_location[DW_OP_reg17]
     637              $C$DW$83        .dwtag  DW_TAG_formal_parameter, DW_AT_name("ulStackDepth")
     638                      .dwattr $C$DW$83, DW_AT_TI_symbol_name("_ulStackDepth")
     639                      .dwattr $C$DW$83, DW_AT_type(*$C$DW$T$78)
     640                      .dwattr $C$DW$83, DW_AT_location[DW_OP_reg3]
     641              $C$DW$84        .dwtag  DW_TAG_formal_parameter, DW_AT_name("pvParameters")
     642                      .dwattr $C$DW$84, DW_AT_TI_symbol_name("_pvParameters")
     643                      .dwattr $C$DW$84, DW_AT_type(*$C$DW$T$57)
     644                      .dwattr $C$DW$84, DW_AT_location[DW_OP_reg19]
     645              $C$DW$85        .dwtag  DW_TAG_formal_parameter, DW_AT_name("uxPriority")
     646                      .dwattr $C$DW$85, DW_AT_TI_symbol_name("_uxPriority")
     647                      .dwattr $C$DW$85, DW_AT_type(*$C$DW$T$25)
     648                      .dwattr $C$DW$85, DW_AT_location[DW_OP_reg12]
     649              $C$DW$86        .dwtag  DW_TAG_formal_parameter, DW_AT_name("pxCreatedTask")
     650                      .dwattr $C$DW$86, DW_AT_TI_symbol_name("_pxCreatedTask")
     651                      .dwattr $C$DW$86, DW_AT_type(*$C$DW$T$80)
TMS320C55x Assembler PC v4.4.1 Tue Oct 02 02:33:57 2018

Tools Copyright (c) 1996-2012 Texas Instruments Incorporated
tasks_sysStk.asm                                                     PAGE   14

     652                      .dwattr $C$DW$86, DW_AT_location[DW_OP_reg21]
     653              $C$DW$87        .dwtag  DW_TAG_formal_parameter, DW_AT_name("pxNewTCB")
     654                      .dwattr $C$DW$87, DW_AT_TI_symbol_name("_pxNewTCB")
     655                      .dwattr $C$DW$87, DW_AT_type(*$C$DW$T$83)
     656                      .dwattr $C$DW$87, DW_AT_location[DW_OP_reg23]
     657              $C$DW$88        .dwtag  DW_TAG_formal_parameter, DW_AT_name("xRegions")
     658                      .dwattr $C$DW$88, DW_AT_TI_symbol_name("_xRegions")
     659                      .dwattr $C$DW$88, DW_AT_type(*$C$DW$T$87)
     660                      .dwattr $C$DW$88, DW_AT_location[DW_OP_reg25]
     661              ;*******************************************************************************
     662              ;* FUNCTION NAME: prvInitialiseNewTask                                         *
     663              ;*                                                                             *
     664              ;*   Function Uses Regs : AC0,AC0,AC1,AC1,T0,T1,AR0,XAR0,AR1,XAR1,AR2,XAR2,AR3,*
     665              ;*                        XAR3,AR4,XAR4,SP,CARRY,TC1,M40,SATA,SATD,RDM,FRCT,   *
     666              ;*                        SMUL                                                 *
     667              ;*   Stack Frame        : Compact (No Frame Pointer, w/ debug)                 *
     668              ;*   Total Frame Size   : 22 words                                             *
     669              ;*                        (1 return address/alignment)                         *
     670              ;*                        (21 local values)                                    *
     671              ;*   Min System Stack   : 1 word                                               *
     672              ;*******************************************************************************
     673 0000ac       _prvInitialiseNewTask:
     674                      .dwcfi  cfa_offset, 1
     675                      .dwcfi  save_reg_to_mem, 91, -1
     676 0000ac 4EEB          AADD #-21, SP
     677                      .dwcfi  cfa_offset, 22
     678              $C$DW$89        .dwtag  DW_TAG_variable, DW_AT_name("pxTaskCode")
     679                      .dwattr $C$DW$89, DW_AT_TI_symbol_name("_pxTaskCode")
     680                      .dwattr $C$DW$89, DW_AT_type(*$C$DW$T$62)
     681                      .dwattr $C$DW$89, DW_AT_location[DW_OP_bregx 0x24 0]
     682              $C$DW$90        .dwtag  DW_TAG_variable, DW_AT_name("pcName")
     683                      .dwattr $C$DW$90, DW_AT_TI_symbol_name("_pcName")
     684                      .dwattr $C$DW$90, DW_AT_type(*$C$DW$T$77)
     685                      .dwattr $C$DW$90, DW_AT_location[DW_OP_bregx 0x24 2]
     686              $C$DW$91        .dwtag  DW_TAG_variable, DW_AT_name("ulStackDepth")
     687                      .dwattr $C$DW$91, DW_AT_TI_symbol_name("_ulStackDepth")
     688                      .dwattr $C$DW$91, DW_AT_type(*$C$DW$T$78)
     689                      .dwattr $C$DW$91, DW_AT_location[DW_OP_bregx 0x24 4]
     690              $C$DW$92        .dwtag  DW_TAG_variable, DW_AT_name("pvParameters")
     691                      .dwattr $C$DW$92, DW_AT_TI_symbol_name("_pvParameters")
     692                      .dwattr $C$DW$92, DW_AT_type(*$C$DW$T$57)
     693                      .dwattr $C$DW$92, DW_AT_location[DW_OP_bregx 0x24 6]
     694              $C$DW$93        .dwtag  DW_TAG_variable, DW_AT_name("uxPriority")
     695                      .dwattr $C$DW$93, DW_AT_TI_symbol_name("_uxPriority")
     696                      .dwattr $C$DW$93, DW_AT_type(*$C$DW$T$25)
     697                      .dwattr $C$DW$93, DW_AT_location[DW_OP_bregx 0x24 8]
     698              $C$DW$94        .dwtag  DW_TAG_variable, DW_AT_name("pxCreatedTask")
     699                      .dwattr $C$DW$94, DW_AT_TI_symbol_name("_pxCreatedTask")
     700                      .dwattr $C$DW$94, DW_AT_type(*$C$DW$T$80)
     701                      .dwattr $C$DW$94, DW_AT_location[DW_OP_bregx 0x24 10]
     702              $C$DW$95        .dwtag  DW_TAG_variable, DW_AT_name("pxNewTCB")
     703                      .dwattr $C$DW$95, DW_AT_TI_symbol_name("_pxNewTCB")
     704                      .dwattr $C$DW$95, DW_AT_type(*$C$DW$T$83)
     705                      .dwattr $C$DW$95, DW_AT_location[DW_OP_bregx 0x24 12]
     706              $C$DW$96        .dwtag  DW_TAG_variable, DW_AT_name("xRegions")
TMS320C55x Assembler PC v4.4.1 Tue Oct 02 02:33:57 2018

Tools Copyright (c) 1996-2012 Texas Instruments Incorporated
tasks_sysStk.asm                                                     PAGE   15

     707                      .dwattr $C$DW$96, DW_AT_TI_symbol_name("_xRegions")
     708                      .dwattr $C$DW$96, DW_AT_type(*$C$DW$T$87)
     709                      .dwattr $C$DW$96, DW_AT_location[DW_OP_bregx 0x24 14]
     710              $C$DW$97        .dwtag  DW_TAG_variable, DW_AT_name("pxTopOfStack")
     711                      .dwattr $C$DW$97, DW_AT_TI_symbol_name("_pxTopOfStack")
     712                      .dwattr $C$DW$97, DW_AT_type(*$C$DW$T$20)
     713                      .dwattr $C$DW$97, DW_AT_location[DW_OP_bregx 0x24 16]
     714              $C$DW$98        .dwtag  DW_TAG_variable, DW_AT_name("pxTopOfSysStack")
     715                      .dwattr $C$DW$98, DW_AT_TI_symbol_name("_pxTopOfSysStack")
     716                      .dwattr $C$DW$98, DW_AT_type(*$C$DW$T$20)
     717                      .dwattr $C$DW$98, DW_AT_location[DW_OP_bregx 0x24 18]
     718              $C$DW$99        .dwtag  DW_TAG_variable, DW_AT_name("x")
     719                      .dwattr $C$DW$99, DW_AT_TI_symbol_name("_x")
     720                      .dwattr $C$DW$99, DW_AT_type(*$C$DW$T$25)
     721                      .dwattr $C$DW$99, DW_AT_location[DW_OP_bregx 0x24 20]
     722 0000ae EB1C          MOV XAR4, dbl(*SP(#14))
         0000b0 C5   
     723 0000b1 EB18          MOV XAR3, dbl(*SP(#12))
         0000b3 B5   
     724 0000b4 EB14          MOV XAR2, dbl(*SP(#10))
         0000b6 A5   
     725 0000b7 C410          MOV T0, *SP(#8) ; |861| 
     726 0000b9 EB0C          MOV XAR1, dbl(*SP(#6))
         0000bb 95   
     727 0000bc EB08          MOV AC1, dbl(*SP(#4)) ; |861| 
         0000be 18   
     728 0000bf EB04          MOV XAR0, dbl(*SP(#2))
         0000c1 85   
     729 0000c2 EB00          MOV AC0, dbl(*SP(#0)) ; |861| 
         0000c4 08   
     730                      .dwpsn  file "../FreeRTOS/Source/tasks_sysStk.c",line 866,column 2,is_stmt
     731              $C$DW$100       .dwtag  DW_TAG_TI_branch
     732                      .dwattr $C$DW$100, DW_AT_low_pc(0x00)
     733                      .dwattr $C$DW$100, DW_AT_name("_pvPortMalloc")
     734                      .dwattr $C$DW$100, DW_AT_TI_call
     735              
     736 0000c5 6C00          CALL #_pvPortMalloc ; |866| 
         0000c7 0000!
     737 0000c9 3D44  ||      MOV #4, T0
     738              
     739                                                      ; call occurs [#_pvPortMalloc] ; |866| 
     740 0000cb EB31          MOV XAR0, dbl(*(#_stackStruct))
         0000cd 8500 
         0000cf 0002-
     741                      .dwpsn  file "../FreeRTOS/Source/tasks_sysStk.c",line 868,column 2,is_stmt
     742 0000d1 ED31          MOV dbl(*(#_stackStruct)), XAR3
         0000d3 BF00 
         0000d5 0002-
     743 0000d7 90B0          MOV XAR3, AC0
     744 0000d9 6310          BCC $C$L7,AC0 != #0 ; |868| 
     745                                                      ; branchcc occurs ; |868| 
     746                      .dwpsn  file "../FreeRTOS/Source/tasks_sysStk.c",line 870,column 2,is_stmt
     747                      .dwpsn  file "../FreeRTOS/Source/tasks_sysStk.c",line 871,column 3,is_stmt
     748              $C$DW$101       .dwtag  DW_TAG_TI_branch
     749                      .dwattr $C$DW$101, DW_AT_low_pc(0x00)
TMS320C55x Assembler PC v4.4.1 Tue Oct 02 02:33:57 2018

Tools Copyright (c) 1996-2012 Texas Instruments Incorporated
tasks_sysStk.asm                                                     PAGE   16

     750                      .dwattr $C$DW$101, DW_AT_name("_vApplicationMallocFailedHook")
     751                      .dwattr $C$DW$101, DW_AT_TI_call
     752 0000db 6C00          CALL #_vApplicationMallocFailedHook ; |871| 
         0000dd 0000!
     753                                                      ; call occurs [#_vApplicationMallocFailedHook] ; |871| 
     754                      .dwpsn  file "../FreeRTOS/Source/tasks_sysStk.c",line 872,column 9,is_stmt
     755 0000df       $C$L6:    
     756 0000df       $C$DW$L$_prvInitialiseNewTask$3$B:
     757 0000df 4A7E          B $C$L6   ; |872| 
     758                                                      ; branch occurs ; |872| 
     759 0000e1       $C$DW$L$_prvInitialiseNewTask$3$E:
     760 0000e1       $C$L7:    
     761                      .dwpsn  file "../FreeRTOS/Source/tasks_sysStk.c",line 890,column 2,is_stmt
     762 0000e1 ED04          MOV dbl(*SP(#2)), XAR3
         0000e3 BF   
     763 0000e4 90B0          MOV XAR3, AC0
     764 0000e6 6290          BCC $C$L9,AC0 != #0 ; |890| 
     765                                                      ; branchcc occurs ; |890| 
     766 0000e8 20     nop
     767 0000e9 46B3   bset INTM
     768 0000eb       $C$L8:    
     769 0000eb       $C$DW$L$_prvInitialiseNewTask$6$B:
     770 0000eb 4A7E          B $C$L8   ; |890| 
     771                                                      ; branch occurs ; |890| 
     772 0000ed       $C$DW$L$_prvInitialiseNewTask$6$E:
     773 0000ed       $C$L9:    
     774                      .dwpsn  file "../FreeRTOS/Source/tasks_sysStk.c",line 896,column 3,is_stmt
     775 0000ed ED18          MOV dbl(*SP(#12)), XAR3
         0000ef BF   
     776 0000f0 A50A          MOV *SP(#5), T1 ; |896| 
     777 0000f2 76A5          MOV #-23131, T0 ; |896| 
         0000f4 A548 
     778 0000f6 ED6D          MOV dbl(*AR3(#26)), XAR0
         0000f8 8F00 
         0000fa 1A   
     779              $C$DW$102       .dwtag  DW_TAG_TI_branch
     780                      .dwattr $C$DW$102, DW_AT_low_pc(0x00)
     781                      .dwattr $C$DW$102, DW_AT_name("_memset")
     782                      .dwattr $C$DW$102, DW_AT_TI_call
     783 0000fb 6C00          CALL #_memset ; |896| 
         0000fd 0000!
     784                                                      ; call occurs [#_memset] ; |896| 
     785                      .dwpsn  file "../FreeRTOS/Source/tasks_sysStk.c",line 897,column 3,is_stmt
     786 0000ff ED18          MOV dbl(*SP(#12)), XAR3
         000101 BF   
     787 000102 76A5          MOV #-23131, T0 ; |897| 
         000104 A548 
     788 000106 A50A          MOV *SP(#5), T1 ; |897| 
     789 000108 ED6D          MOV dbl(*AR3(#28)), XAR0
         00010a 8F00 
         00010c 1C   
     790              $C$DW$103       .dwtag  DW_TAG_TI_branch
     791                      .dwattr $C$DW$103, DW_AT_low_pc(0x00)
     792                      .dwattr $C$DW$103, DW_AT_name("_memset")
     793                      .dwattr $C$DW$103, DW_AT_TI_call
TMS320C55x Assembler PC v4.4.1 Tue Oct 02 02:33:57 2018

Tools Copyright (c) 1996-2012 Texas Instruments Incorporated
tasks_sysStk.asm                                                     PAGE   17

     794 00010d 6C00          CALL #_memset ; |897| 
         00010f 0000!
     795                                                      ; call occurs [#_memset] ; |897| 
     796                      .dwpsn  file "../FreeRTOS/Source/tasks_sysStk.c",line 907,column 3,is_stmt
     797 000111 ED18          MOV dbl(*SP(#12)), XAR3
         000113 BF   
     798 000114 ED6D          MOV dbl(*AR3(#26)), XAR3
         000116 BF00 
         000118 1A   
     799 000119 ED08          MOV dbl(*SP(#4)), AC0 ; |907| 
         00011b 08   
     800 00011c 4210          SUB #1, AC0 ; |907| 
     801 00011e 900A          MOV AC0, XAR2
     802              
     803 000120 8E20          MOV XAR3, dbl(*SP(#16))
         000122 BB10 
         000124 B5A1 
     804              ||      AADD XAR2, XAR3 ; |907| 
     805              
     806                      .dwpsn  file "../FreeRTOS/Source/tasks_sysStk.c",line 908,column 3,is_stmt
     807 000126 7AFF          MOV #-1 << #16, AC1 ; |908| 
         000128 FF1A 
     808 00012a 90B0          MOV XAR3, AC0
     809 00012c 7EFF          OR #0xfffc, AC1, AC1 ; |908| 
         00012e FC11 
     810 000130 2801          AND AC0, AC1 ; |908| 
     811 000132 EB20          MOV AC1, dbl(*SP(#16))
         000134 18   
     812                      .dwpsn  file "../FreeRTOS/Source/tasks_sysStk.c",line 909,column 3,is_stmt
     813 000135 ED18          MOV dbl(*SP(#12)), XAR3
         000137 BF   
     814 000138 ED6D          MOV dbl(*AR3(#28)), XAR3
         00013a BF00 
         00013c 1C   
     815 00013d ED08          MOV dbl(*SP(#4)), AC0 ; |909| 
         00013f 08   
     816 000140 4210          SUB #1, AC0 ; |909| 
     817 000142 900A          MOV AC0, XAR2
     818              
     819 000144 8E24          MOV XAR3, dbl(*SP(#18))
         000146 BB10 
         000148 B5A1 
     820              ||      AADD XAR2, XAR3 ; |909| 
     821              
     822                      .dwpsn  file "../FreeRTOS/Source/tasks_sysStk.c",line 910,column 3,is_stmt
     823 00014a 7AFF          MOV #-1 << #16, AC1 ; |910| 
         00014c FF1A 
     824 00014e 90B0          MOV XAR3, AC0
     825 000150 7EFF          OR #0xfffc, AC1, AC1 ; |910| 
         000152 FC11 
     826 000154 2801          AND AC0, AC1 ; |910| 
     827 000156 EB24          MOV AC1, dbl(*SP(#18))
         000158 18   
     828                      .dwpsn  file "../FreeRTOS/Source/tasks_sysStk.c",line 912,column 3,is_stmt
     829 000159 ED20          MOV dbl(*SP(#16)), XAR3
TMS320C55x Assembler PC v4.4.1 Tue Oct 02 02:33:57 2018

Tools Copyright (c) 1996-2012 Texas Instruments Incorporated
tasks_sysStk.asm                                                     PAGE   18

         00015b BF   
     830 00015c 90B0          MOV XAR3, AC0
     831 00015e 1803          AND #0x0003, AC0, AC0 ; |912| 
         000160 00   
     832 000161 3C09          MOV #0, AR1
     833 000163 6110          BCC $C$L10,AC0 != #0 ; |912| 
     834                                                      ; branchcc occurs ; |912| 
     835 000165 3C19          MOV #1, AR1
     836 000167       $C$L10:    
     837 000167 6299          BCC $C$L12,AR1 != #0 ; |912| 
     838                                                      ; branchcc occurs ; |912| 
     839 000169 20     nop
     840 00016a 46B3   bset INTM
     841 00016c       $C$L11:    
     842 00016c       $C$DW$L$_prvInitialiseNewTask$11$B:
     843 00016c 4A7E          B $C$L11  ; |912| 
     844                                                      ; branch occurs ; |912| 
     845 00016e       $C$DW$L$_prvInitialiseNewTask$11$E:
     846 00016e       $C$L12:    
     847                      .dwpsn  file "../FreeRTOS/Source/tasks_sysStk.c",line 913,column 3,is_stmt
     848 00016e ED24          MOV dbl(*SP(#18)), XAR3
         000170 BF   
     849 000171 90B0          MOV XAR3, AC0
     850 000173 1803          AND #0x0003, AC0, AC0 ; |913| 
         000175 00   
     851 000176 3C09          MOV #0, AR1
     852 000178 6110          BCC $C$L13,AC0 != #0 ; |913| 
     853                                                      ; branchcc occurs ; |913| 
     854 00017a 3C19          MOV #1, AR1
     855 00017c       $C$L13:    
     856 00017c 6299          BCC $C$L15,AR1 != #0 ; |913| 
     857                                                      ; branchcc occurs ; |913| 
     858 00017e 20     nop
     859 00017f 46B3   bset INTM
     860 000181       $C$L14:    
     861 000181       $C$DW$L$_prvInitialiseNewTask$16$B:
     862 000181 4A7E          B $C$L14  ; |913| 
     863                                                      ; branch occurs ; |913| 
     864 000183       $C$DW$L$_prvInitialiseNewTask$16$E:
     865 000183       $C$L15:    
     866                      .dwpsn  file "../FreeRTOS/Source/tasks_sysStk.c",line 919,column 4,is_stmt
     867 000183 ED18          MOV dbl(*SP(#12)), XAR2
         000185 AF   
     868 000186 ED20          MOV dbl(*SP(#16)), XAR3
         000188 BF   
     869 000189 EB4D          MOV XAR3, dbl(*AR2(#38))
         00018b B500 
         00018d 26   
     870                      .dwpsn  file "../FreeRTOS/Source/tasks_sysStk.c",line 920,column 4,is_stmt
     871 00018e ED18          MOV dbl(*SP(#12)), XAR2
         000190 AF   
     872 000191 ED24          MOV dbl(*SP(#18)), XAR3
         000193 BF   
     873 000194 EB4D          MOV XAR3, dbl(*AR2(#40))
         000196 B500 
TMS320C55x Assembler PC v4.4.1 Tue Oct 02 02:33:57 2018

Tools Copyright (c) 1996-2012 Texas Instruments Incorporated
tasks_sysStk.asm                                                     PAGE   19

         000198 28   
     874                      .dwpsn  file "../FreeRTOS/Source/tasks_sysStk.c",line 941,column 7,is_stmt
     875 000199 E628          MOV #0, *SP(#20) ; |941| 
         00019b 00   
     876                      .dwpsn  file "../FreeRTOS/Source/tasks_sysStk.c",line 941,column 30,is_stmt
     877              
     878 00019c A928          MOV *SP(#20), AR1 ; |941| 
     879 00019e 3D8A  ||      MOV #8, AR2
     880              
     881 0001a0 1298          CMPU AR1 >= AR2, TC1 ; |941| 
         0001a2 A4   
     882 0001a3 0464          BCC $C$L18,TC1 ; |941| 
         0001a5 3B   
     883                                                      ; branchcc occurs ; |941| 
     884 0001a6       $C$L16:    
     885 0001a6       $C$DW$L$_prvInitialiseNewTask$18$B:
     886                      .dwpsn  file "../FreeRTOS/Source/tasks_sysStk.c",line 943,column 3,is_stmt
     887 0001a6 ED04          MOV dbl(*SP(#2)), XAR3
         0001a8 BF   
     888 0001a9 DF28          MOV uns(*SP(#20)), AC0 ; |943| 
         0001ab 05   
     889 0001ac 900A          MOV AC0, XAR2
     890 0001ae 14A1          AADD XAR2, XAR3 ; |943| 
         0001b0 B0   
     891 0001b1 A961          MOV *AR3, AR1 ; |943| 
     892 0001b3 ED18          MOV dbl(*SP(#12)), XAR3
         0001b5 BF   
     893 0001b6 DF28          MOV uns(*SP(#20)), AC0 ; |943| 
         0001b8 05   
     894 0001b9 900A          MOV AC0, XAR2
     895 0001bb 14A1          AADD XAR2, XAR3 ; |943| 
         0001bd B0   
     896 0001be C96D          MOV AR1, *AR3(#30) ; |943| 
         0001c0 001E 
     897                      .dwpsn  file "../FreeRTOS/Source/tasks_sysStk.c",line 948,column 3,is_stmt
     898 0001c2 ED04          MOV dbl(*SP(#2)), XAR3
         0001c4 BF   
     899 0001c5 DF28          MOV uns(*SP(#20)), AC0 ; |948| 
         0001c7 05   
     900 0001c8 900A          MOV AC0, XAR2
     901 0001ca 14A1          AADD XAR2, XAR3 ; |948| 
         0001cc B0   
     902 0001cd A961          MOV *AR3, AR1 ; |948| 
     903 0001cf 6119          BCC $C$L17,AR1 != #0 ; |948| 
     904                                                      ; branchcc occurs ; |948| 
     905 0001d1       $C$DW$L$_prvInitialiseNewTask$18$E:
     906                      .dwpsn  file "../FreeRTOS/Source/tasks_sysStk.c",line 950,column 4,is_stmt
     907 0001d1 4A0E          B $C$L18  ; |950| 
     908                                                      ; branch occurs ; |950| 
     909 0001d3       $C$L17:    
     910 0001d3       $C$DW$L$_prvInitialiseNewTask$21$B:
     911                      .dwpsn  file "../FreeRTOS/Source/tasks_sysStk.c",line 941,column 75,is_stmt
     912 0001d3 F728          ADD #1, *SP(#20) ; |941| 
         0001d5 0001 
     913                      .dwpsn  file "../FreeRTOS/Source/tasks_sysStk.c",line 941,column 30,is_stmt
TMS320C55x Assembler PC v4.4.1 Tue Oct 02 02:33:57 2018

Tools Copyright (c) 1996-2012 Texas Instruments Incorporated
tasks_sysStk.asm                                                     PAGE   20

     914              
     915 0001d7 A928          MOV *SP(#20), AR1 ; |941| 
     916 0001d9 3D8A  ||      MOV #8, AR2
     917              
     918 0001db 1294          CMPU AR1 < AR2, TC1 ; |941| 
         0001dd A4   
     919 0001de 0464          BCC $C$L16,TC1 ; |941| 
         0001e0 C5   
     920                                                      ; branchcc occurs ; |941| 
     921 0001e1       $C$DW$L$_prvInitialiseNewTask$21$E:
     922 0001e1       $C$L18:    
     923                      .dwpsn  file "../FreeRTOS/Source/tasks_sysStk.c",line 960,column 2,is_stmt
     924 0001e1 ED18          MOV dbl(*SP(#12)), XAR3
         0001e3 BF   
     925 0001e4 E66D          MOV #0, *AR3(#37) ; |960| 
         0001e6 0000 
         0001e8 25   
     926                      .dwpsn  file "../FreeRTOS/Source/tasks_sysStk.c",line 964,column 2,is_stmt
     927              
     928 0001e9 A910          MOV *SP(#8), AR1 ; |964| 
     929 0001eb 3D5A  ||      MOV #5, AR2
     930              
     931 0001ed 1294          CMPU AR1 < AR2, TC1 ; |964| 
         0001ef A4   
     932 0001f0 61E4          BCC $C$L19,TC1 ; |964| 
     933                                                      ; branchcc occurs ; |964| 
     934                      .dwpsn  file "../FreeRTOS/Source/tasks_sysStk.c",line 966,column 3,is_stmt
     935 0001f2 E610          MOV #4, *SP(#8) ; |966| 
         0001f4 04   
     936                      .dwpsn  file "../FreeRTOS/Source/tasks_sysStk.c",line 967,column 2,is_stmt
     937 0001f5       $C$L19:    
     938                      .dwpsn  file "../FreeRTOS/Source/tasks_sysStk.c",line 973,column 2,is_stmt
     939 0001f5 ED18          MOV dbl(*SP(#12)), XAR3
         0001f7 BF   
     940 0001f8 A910          MOV *SP(#8), AR1 ; |973| 
     941 0001fa C96D          MOV AR1, *AR3(#24) ; |973| 
         0001fc 0018 
     942                      .dwpsn  file "../FreeRTOS/Source/tasks_sysStk.c",line 976,column 3,is_stmt
     943 0001fe ED18          MOV dbl(*SP(#12)), XAR3
         000200 BF   
     944 000201 A910          MOV *SP(#8), AR1 ; |976| 
     945 000203 C96D          MOV AR1, *AR3(#43) ; |976| 
         000205 002B 
     946                      .dwpsn  file "../FreeRTOS/Source/tasks_sysStk.c",line 977,column 3,is_stmt
     947 000207 ED18          MOV dbl(*SP(#12)), XAR3
         000209 BF   
     948 00020a E66D          MOV #0, *AR3(#44) ; |977| 
         00020c 0000 
         00020e 2C   
     949                      .dwpsn  file "../FreeRTOS/Source/tasks_sysStk.c",line 981,column 2,is_stmt
     950 00020f ED18          MOV dbl(*SP(#12)), XAR0
         000211 8F   
     951 000212 1404          AADD #4, AR0 ; |981| 
         000214 84   
     952              $C$DW$104       .dwtag  DW_TAG_TI_branch
TMS320C55x Assembler PC v4.4.1 Tue Oct 02 02:33:57 2018

Tools Copyright (c) 1996-2012 Texas Instruments Incorporated
tasks_sysStk.asm                                                     PAGE   21

     953                      .dwattr $C$DW$104, DW_AT_low_pc(0x00)
     954                      .dwattr $C$DW$104, DW_AT_name("_vListInitialiseItem")
     955                      .dwattr $C$DW$104, DW_AT_TI_call
     956 000215 6C00          CALL #_vListInitialiseItem ; |981| 
         000217 0000!
     957                                                      ; call occurs [#_vListInitialiseItem] ; |981| 
     958                      .dwpsn  file "../FreeRTOS/Source/tasks_sysStk.c",line 982,column 2,is_stmt
     959 000219 ED18          MOV dbl(*SP(#12)), XAR0
         00021b 8F   
     960 00021c 140E          AADD #14, AR0 ; |982| 
         00021e 84   
     961              $C$DW$105       .dwtag  DW_TAG_TI_branch
     962                      .dwattr $C$DW$105, DW_AT_low_pc(0x00)
     963                      .dwattr $C$DW$105, DW_AT_name("_vListInitialiseItem")
     964                      .dwattr $C$DW$105, DW_AT_TI_call
     965 00021f 6C00          CALL #_vListInitialiseItem ; |982| 
         000221 0000!
     966                                                      ; call occurs [#_vListInitialiseItem] ; |982| 
     967                      .dwpsn  file "../FreeRTOS/Source/tasks_sysStk.c",line 986,column 2,is_stmt
     968 000223 ED18          MOV dbl(*SP(#12)), XAR2
         000225 AF   
     969 000226 ED18          MOV dbl(*SP(#12)), XAR3
         000228 BF   
     970 000229 EB4D          MOV XAR3, dbl(*AR2(#10))
         00022b B500 
         00022d 0A   
     971                      .dwpsn  file "../FreeRTOS/Source/tasks_sysStk.c",line 989,column 2,is_stmt
     972 00022e ED18          MOV dbl(*SP(#12)), XAR3
         000230 BF   
     973 000231 3C50          MOV #5, AC0 ; |989| 
     974 000233 DF10          SUB uns(*SP(#8)), AC0, AC0 ; |989| 
         000235 0F   
     975 000236 EB6D          MOV AC0, dbl(*AR3(#14)) ; |989| 
         000238 0800 
         00023a 0E   
     976                      .dwpsn  file "../FreeRTOS/Source/tasks_sysStk.c",line 990,column 2,is_stmt
     977 00023b ED18          MOV dbl(*SP(#12)), XAR2
         00023d AF   
     978 00023e ED18          MOV dbl(*SP(#12)), XAR3
         000240 BF   
     979 000241 EB4D          MOV XAR3, dbl(*AR2(#20))
         000243 B500 
         000245 14   
     980                      .dwpsn  file "../FreeRTOS/Source/tasks_sysStk.c",line 994,column 3,is_stmt
     981 000246 ED18          MOV dbl(*SP(#12)), XAR3
         000248 BF   
     982 000249 E66D          MOV #0, *AR3(#42) ; |994| 
         00024b 0000 
         00024d 2A   
     983                      .dwpsn  file "../FreeRTOS/Source/tasks_sysStk.c",line 1017,column 3,is_stmt
     984                      .dwpsn  file "../FreeRTOS/Source/tasks_sysStk.c",line 1032,column 3,is_stmt
     985 00024e ED18          MOV dbl(*SP(#12)), XAR3
         000250 BF   
     986 000251 3C00          MOV #0, AC0 ; |1032| 
     987 000253 EB6D          MOV AC0, dbl(*AR3(#46)) ; |1032| 
TMS320C55x Assembler PC v4.4.1 Tue Oct 02 02:33:57 2018

Tools Copyright (c) 1996-2012 Texas Instruments Incorporated
tasks_sysStk.asm                                                     PAGE   22

         000255 0800 
         000257 2E   
     988                      .dwpsn  file "../FreeRTOS/Source/tasks_sysStk.c",line 1033,column 3,is_stmt
     989 000258 ED18          MOV dbl(*SP(#12)), XAR3
         00025a BF   
     990 00025b E66D          MOV #0, *AR3(#48) ; |1033| 
         00025d 0000 
         00025f 30   
     991                      .dwpsn  file "../FreeRTOS/Source/tasks_sysStk.c",line 1060,column 3,is_stmt
     992 000260 ED00          MOV dbl(*SP(#0)), AC0 ; |1060| 
         000262 08   
     993 000263 ED0C          MOV dbl(*SP(#6)), XAR2
         000265 AF   
     994 000266 ED20          MOV dbl(*SP(#16)), XAR0
         000268 8F   
     995 000269 ED24          MOV dbl(*SP(#18)), XAR1
         00026b 9F   
     996              $C$DW$106       .dwtag  DW_TAG_TI_branch
     997                      .dwattr $C$DW$106, DW_AT_low_pc(0x00)
     998                      .dwattr $C$DW$106, DW_AT_name("_pxPortInitialiseStack")
     999                      .dwattr $C$DW$106, DW_AT_TI_call
    1000 00026c 6C00          CALL #_pxPortInitialiseStack ; |1060| 
         00026e 0000!
    1001                                                      ; call occurs [#_pxPortInitialiseStack] ; |1060| 
    1002                      .dwpsn  file "../FreeRTOS/Source/tasks_sysStk.c",line 1061,column 3,is_stmt
    1003 000270 ED31          MOV dbl(*(#_stackStruct)), XAR3
         000272 BF00 
         000274 0002-
    1004 000276 ED18          MOV dbl(*SP(#12)), XAR2
         000278 AF   
    1005 000279 8061          MOV dbl(*AR3), dbl(*AR2)
         00027b 00   
    1006                      .dwpsn  file "../FreeRTOS/Source/tasks_sysStk.c",line 1062,column 3,is_stmt
    1007 00027c ED31          MOV dbl(*(#_stackStruct)), XAR3
         00027e BF00 
         000280 0002-
    1008 000282 ED75          MOV dbl(*AR3(short(#2))), XAR2
         000284 AF   
    1009 000285 ED18          MOV dbl(*SP(#12)), XAR3
         000287 BF   
    1010 000288 EB75          MOV XAR2, dbl(*AR3(short(#2)))
         00028a A5   
    1011                      .dwpsn  file "../FreeRTOS/Source/tasks_sysStk.c",line 1066,column 2,is_stmt
    1012 00028b ED14          MOV dbl(*SP(#10)), XAR3
         00028d BF   
    1013 00028e 90B0          MOV XAR3, AC0
    1014 000290 6580          BCC $C$L20,AC0 == #0 ; |1066| 
    1015                                                      ; branchcc occurs ; |1066| 
    1016                      .dwpsn  file "../FreeRTOS/Source/tasks_sysStk.c",line 1070,column 3,is_stmt
    1017 000292 ED14          MOV dbl(*SP(#10)), XAR2
         000294 AF   
    1018 000295 ED18          MOV dbl(*SP(#12)), XAR3
         000297 BF   
    1019 000298 EB41          MOV XAR3, dbl(*AR2)
         00029a B5   
TMS320C55x Assembler PC v4.4.1 Tue Oct 02 02:33:57 2018

Tools Copyright (c) 1996-2012 Texas Instruments Incorporated
tasks_sysStk.asm                                                     PAGE   23

    1020                      .dwpsn  file "../FreeRTOS/Source/tasks_sysStk.c",line 1071,column 2,is_stmt
    1021 00029b 4A00          B $C$L20  ; |1071| 
    1022                                                      ; branch occurs ; |1071| 
    1023 00029d       $C$L20:    
    1024 00029d 4E15          AADD #21, SP
    1025                      .dwcfi  cfa_offset, 1
    1026              $C$DW$107       .dwtag  DW_TAG_TI_branch
    1027                      .dwattr $C$DW$107, DW_AT_low_pc(0x00)
    1028                      .dwattr $C$DW$107, DW_AT_TI_return
    1029 00029f 4804          RET
    1030                                                      ; return occurs
    1031              
    1032              $C$DW$108       .dwtag  DW_TAG_TI_loop
    1033                      .dwattr $C$DW$108, DW_AT_name("F:\eZdsp-DBG-sim\tmp1\c55x-sim2\foo\Debug\tasks_sysStk.asm:$C$L16:1:15
    1034                      .dwattr $C$DW$108, DW_AT_TI_begin_file("../FreeRTOS/Source/tasks_sysStk.c")
    1035                      .dwattr $C$DW$108, DW_AT_TI_begin_line(0x3ad)
    1036                      .dwattr $C$DW$108, DW_AT_TI_end_line(0x3bc)
    1037              $C$DW$109       .dwtag  DW_TAG_TI_loop_range
    1038                      .dwattr $C$DW$109, DW_AT_low_pc($C$DW$L$_prvInitialiseNewTask$18$B)
    1039                      .dwattr $C$DW$109, DW_AT_high_pc($C$DW$L$_prvInitialiseNewTask$18$E)
    1040              $C$DW$110       .dwtag  DW_TAG_TI_loop_range
    1041                      .dwattr $C$DW$110, DW_AT_low_pc($C$DW$L$_prvInitialiseNewTask$21$B)
    1042                      .dwattr $C$DW$110, DW_AT_high_pc($C$DW$L$_prvInitialiseNewTask$21$E)
    1043                      .dwendtag $C$DW$108
    1044              
    1045              
    1046              $C$DW$111       .dwtag  DW_TAG_TI_loop
    1047                      .dwattr $C$DW$111, DW_AT_name("F:\eZdsp-DBG-sim\tmp1\c55x-sim2\foo\Debug\tasks_sysStk.asm:$C$L14:1:15
    1048                      .dwattr $C$DW$111, DW_AT_TI_begin_file("../FreeRTOS/Source/tasks_sysStk.c")
    1049                      .dwattr $C$DW$111, DW_AT_TI_begin_line(0x391)
    1050                      .dwattr $C$DW$111, DW_AT_TI_end_line(0x391)
    1051              $C$DW$112       .dwtag  DW_TAG_TI_loop_range
    1052                      .dwattr $C$DW$112, DW_AT_low_pc($C$DW$L$_prvInitialiseNewTask$16$B)
    1053                      .dwattr $C$DW$112, DW_AT_high_pc($C$DW$L$_prvInitialiseNewTask$16$E)
    1054                      .dwendtag $C$DW$111
    1055              
    1056              
    1057              $C$DW$113       .dwtag  DW_TAG_TI_loop
    1058                      .dwattr $C$DW$113, DW_AT_name("F:\eZdsp-DBG-sim\tmp1\c55x-sim2\foo\Debug\tasks_sysStk.asm:$C$L11:1:15
    1059                      .dwattr $C$DW$113, DW_AT_TI_begin_file("../FreeRTOS/Source/tasks_sysStk.c")
    1060                      .dwattr $C$DW$113, DW_AT_TI_begin_line(0x390)
    1061                      .dwattr $C$DW$113, DW_AT_TI_end_line(0x390)
    1062              $C$DW$114       .dwtag  DW_TAG_TI_loop_range
    1063                      .dwattr $C$DW$114, DW_AT_low_pc($C$DW$L$_prvInitialiseNewTask$11$B)
    1064                      .dwattr $C$DW$114, DW_AT_high_pc($C$DW$L$_prvInitialiseNewTask$11$E)
    1065                      .dwendtag $C$DW$113
    1066              
    1067              
    1068              $C$DW$115       .dwtag  DW_TAG_TI_loop
    1069                      .dwattr $C$DW$115, DW_AT_name("F:\eZdsp-DBG-sim\tmp1\c55x-sim2\foo\Debug\tasks_sysStk.asm:$C$L8:1:153
    1070                      .dwattr $C$DW$115, DW_AT_TI_begin_file("../FreeRTOS/Source/tasks_sysStk.c")
    1071                      .dwattr $C$DW$115, DW_AT_TI_begin_line(0x37a)
    1072                      .dwattr $C$DW$115, DW_AT_TI_end_line(0x37a)
    1073              $C$DW$116       .dwtag  DW_TAG_TI_loop_range
    1074                      .dwattr $C$DW$116, DW_AT_low_pc($C$DW$L$_prvInitialiseNewTask$6$B)
TMS320C55x Assembler PC v4.4.1 Tue Oct 02 02:33:57 2018

Tools Copyright (c) 1996-2012 Texas Instruments Incorporated
tasks_sysStk.asm                                                     PAGE   24

    1075                      .dwattr $C$DW$116, DW_AT_high_pc($C$DW$L$_prvInitialiseNewTask$6$E)
    1076                      .dwendtag $C$DW$115
    1077              
    1078              
    1079              $C$DW$117       .dwtag  DW_TAG_TI_loop
    1080                      .dwattr $C$DW$117, DW_AT_name("F:\eZdsp-DBG-sim\tmp1\c55x-sim2\foo\Debug\tasks_sysStk.asm:$C$L6:1:153
    1081                      .dwattr $C$DW$117, DW_AT_TI_begin_file("../FreeRTOS/Source/tasks_sysStk.c")
    1082                      .dwattr $C$DW$117, DW_AT_TI_begin_line(0x368)
    1083                      .dwattr $C$DW$117, DW_AT_TI_end_line(0x368)
    1084              $C$DW$118       .dwtag  DW_TAG_TI_loop_range
    1085                      .dwattr $C$DW$118, DW_AT_low_pc($C$DW$L$_prvInitialiseNewTask$3$B)
    1086                      .dwattr $C$DW$118, DW_AT_high_pc($C$DW$L$_prvInitialiseNewTask$3$E)
    1087                      .dwendtag $C$DW$117
    1088              
    1089                      .dwattr $C$DW$80, DW_AT_TI_end_file("../FreeRTOS/Source/tasks_sysStk.c")
    1090                      .dwattr $C$DW$80, DW_AT_TI_end_line(0x434)
    1091                      .dwattr $C$DW$80, DW_AT_TI_end_column(0x01)
    1092                      .dwendentry
    1093                      .dwendtag $C$DW$80
    1094              
    1095 0002a1               .sect   ".text"
    1096                      .align 4
    1097              
    1098              $C$DW$119       .dwtag  DW_TAG_subprogram, DW_AT_name("prvAddNewTaskToReadyList")
    1099                      .dwattr $C$DW$119, DW_AT_low_pc(_prvAddNewTaskToReadyList)
    1100                      .dwattr $C$DW$119, DW_AT_high_pc(0x00)
    1101                      .dwattr $C$DW$119, DW_AT_TI_symbol_name("_prvAddNewTaskToReadyList")
    1102                      .dwattr $C$DW$119, DW_AT_TI_begin_file("../FreeRTOS/Source/tasks_sysStk.c")
    1103                      .dwattr $C$DW$119, DW_AT_TI_begin_line(0x437)
    1104                      .dwattr $C$DW$119, DW_AT_TI_begin_column(0x0d)
    1105                      .dwattr $C$DW$119, DW_AT_TI_max_frame_size(0x04)
    1106                      .dwpsn  file "../FreeRTOS/Source/tasks_sysStk.c",line 1080,column 1,is_stmt,address _prvAddNewTaskToR
    1107              
    1108                      .dwfde $C$DW$CIE, _prvAddNewTaskToReadyList
    1109              $C$DW$120       .dwtag  DW_TAG_formal_parameter, DW_AT_name("pxNewTCB")
    1110                      .dwattr $C$DW$120, DW_AT_TI_symbol_name("_pxNewTCB")
    1111                      .dwattr $C$DW$120, DW_AT_type(*$C$DW$T$83)
    1112                      .dwattr $C$DW$120, DW_AT_location[DW_OP_reg17]
    1113              ;*******************************************************************************
    1114              ;* FUNCTION NAME: prvAddNewTaskToReadyList                                     *
    1115              ;*                                                                             *
    1116              ;*   Function Uses Regs : AC0,AC0,AC1,AC1,AR0,XAR0,AR1,XAR1,AR2,AR3,XAR3,SP,   *
    1117              ;*                        CARRY,TC1,M40,SATA,SATD,RDM,FRCT,SMUL                *
    1118              ;*   Stack Frame        : Compact (No Frame Pointer, w/ debug)                 *
    1119              ;*   Total Frame Size   : 4 words                                              *
    1120              ;*                        (2 return address/alignment)                         *
    1121              ;*                        (2 local values)                                     *
    1122              ;*   Min System Stack   : 1 word                                               *
    1123              ;*******************************************************************************
    1124 0002a4       _prvAddNewTaskToReadyList:
    1125                      .dwcfi  cfa_offset, 1
    1126                      .dwcfi  save_reg_to_mem, 91, -1
    1127 0002a4 4EFD          AADD #-3, SP
    1128                      .dwcfi  cfa_offset, 4
    1129              $C$DW$121       .dwtag  DW_TAG_variable, DW_AT_name("pxNewTCB")
TMS320C55x Assembler PC v4.4.1 Tue Oct 02 02:33:57 2018

Tools Copyright (c) 1996-2012 Texas Instruments Incorporated
tasks_sysStk.asm                                                     PAGE   25

    1130                      .dwattr $C$DW$121, DW_AT_TI_symbol_name("_pxNewTCB")
    1131                      .dwattr $C$DW$121, DW_AT_type(*$C$DW$T$83)
    1132                      .dwattr $C$DW$121, DW_AT_location[DW_OP_bregx 0x24 0]
    1133 0002a6 EB00          MOV XAR0, dbl(*SP(#0))
         0002a8 85   
    1134                      .dwpsn  file "../FreeRTOS/Source/tasks_sysStk.c",line 1083,column 2,is_stmt
    1135 0002a9 20     nop
    1136 0002aa 46B3   bset INTM
    1137 0002ac F731          ADD #1, *(#_usCriticalNesting) ; |1083| 
         0002ae 0001 
         0002b0 0000 
         0002b2 00!  
    1138                      .dwpsn  file "../FreeRTOS/Source/tasks_sysStk.c",line 1085,column 3,is_stmt
    1139 0002b3 F731          ADD #1, *(#_uxCurrentNumberOfTasks) ; |1085| 
         0002b5 0001 
         0002b7 0000 
         0002b9 65-  
    1140 0002ba 20            NOP
    1141 0002bb 20            NOP
    1142 0002bc 20            NOP
    1143                      .dwpsn  file "../FreeRTOS/Source/tasks_sysStk.c",line 1086,column 3,is_stmt
    1144 0002bd ED31          MOV dbl(*(#_pxCurrentTCB)), XAR3
         0002bf BF00 
         0002c1 0004-
    1145 0002c3 90B0          MOV XAR3, AC0
    1146 0002c5 0410          BCC $C$L21,AC0 != #0 ; |1086| 
         0002c7 1B   
    1147                                                      ; branchcc occurs ; |1086| 
    1148                      .dwpsn  file "../FreeRTOS/Source/tasks_sysStk.c",line 1090,column 4,is_stmt
    1149 0002c8 ED00          MOV dbl(*SP(#0)), XAR3
         0002ca BF   
    1150 0002cb EB31          MOV XAR3, dbl(*(#_pxCurrentTCB))
         0002cd B500 
         0002cf 0004-
    1151 0002d1 20            NOP
    1152 0002d2 20            NOP
    1153 0002d3 20            NOP
    1154                      .dwpsn  file "../FreeRTOS/Source/tasks_sysStk.c",line 1092,column 4,is_stmt
    1155 0002d4 F031          CMP *(#_uxCurrentNumberOfTasks) == #1, TC1 ; |1092| 
         0002d6 0001 
         0002d8 0000 
         0002da 65-  
    1156 0002db 0474          BCC $C$L22,!TC1 ; |1092| 
         0002dd 2E   
    1157                                                      ; branchcc occurs ; |1092| 
    1158                      .dwpsn  file "../FreeRTOS/Source/tasks_sysStk.c",line 1097,column 5,is_stmt
    1159              $C$DW$122       .dwtag  DW_TAG_TI_branch
    1160                      .dwattr $C$DW$122, DW_AT_low_pc(0x00)
    1161                      .dwattr $C$DW$122, DW_AT_name("_prvInitialiseTaskLists")
    1162                      .dwattr $C$DW$122, DW_AT_TI_call
    1163 0002de 080F          CALL #_prvInitialiseTaskLists ; |1097| 
         0002e0 CF   
    1164                                                      ; call occurs [#_prvInitialiseTaskLists] ; |1097| 
    1165                      .dwpsn  file "../FreeRTOS/Source/tasks_sysStk.c",line 1098,column 4,is_stmt
    1166 0002e1 4A29          B $C$L22  ; |1098| 
TMS320C55x Assembler PC v4.4.1 Tue Oct 02 02:33:57 2018

Tools Copyright (c) 1996-2012 Texas Instruments Incorporated
tasks_sysStk.asm                                                     PAGE   26

    1167                                                      ; branch occurs ; |1098| 
    1168 0002e3       $C$L21:    
    1169                      .dwpsn  file "../FreeRTOS/Source/tasks_sysStk.c",line 1109,column 4,is_stmt
    1170 0002e3 A931          MOV *(#_xSchedulerRunning), AR1 ; |1109| 
         0002e5 0000 
         0002e7 73-  
    1171 0002e8 0419          BCC $C$L22,AR1 != #0 ; |1109| 
         0002ea 21   
    1172                                                      ; branchcc occurs ; |1109| 
    1173                      .dwpsn  file "../FreeRTOS/Source/tasks_sysStk.c",line 1111,column 5,is_stmt
    1174 0002eb ED00          MOV dbl(*SP(#0)), XAR3
         0002ed BF   
    1175 0002ee A96D          MOV *AR3(#24), AR1 ; |1111| 
         0002f0 0018 
    1176 0002f2 ED31          MOV dbl(*(#_pxCurrentTCB)), XAR3
         0002f4 BF00 
         0002f6 0004-
    1177 0002f8 AA6D          MOV *AR3(#24), AR2 ; |1111| 
         0002fa 0018 
    1178 0002fc 1294          CMPU AR2 > AR1, TC1 ; |1111| 
         0002fe A4   
    1179 0002ff 65E4          BCC $C$L22,TC1 ; |1111| 
    1180                                                      ; branchcc occurs ; |1111| 
    1181                      .dwpsn  file "../FreeRTOS/Source/tasks_sysStk.c",line 1113,column 6,is_stmt
    1182 000301 ED00          MOV dbl(*SP(#0)), XAR3
         000303 BF   
    1183 000304 EB31          MOV XAR3, dbl(*(#_pxCurrentTCB))
         000306 B500 
         000308 0004-
    1184                      .dwpsn  file "../FreeRTOS/Source/tasks_sysStk.c",line 1114,column 5,is_stmt
    1185 00030a 4A00          B $C$L22  ; |1114| 
    1186                                                      ; branch occurs ; |1114| 
    1187 00030c       $C$L22:    
    1188                      .dwpsn  file "../FreeRTOS/Source/tasks_sysStk.c",line 1126,column 3,is_stmt
    1189 00030c F731          ADD #1, *(#_uxTaskNumber) ; |1126| 
         00030e 0001 
         000310 0000 
         000312 77-  
    1190                      .dwpsn  file "../FreeRTOS/Source/tasks_sysStk.c",line 1136,column 3,is_stmt
    1191 000313 ED00          MOV dbl(*SP(#0)), XAR3
         000315 BF   
    1192 000316 A931          MOV *(#_uxTopReadyPriority), AR1 ; |1136| 
         000318 0000 
         00031a 72-  
    1193 00031b AA6D          MOV *AR3(#24), AR2 ; |1136| 
         00031d 0018 
    1194 00031f 1298          CMPU AR2 <= AR1, TC1 ; |1136| 
         000321 A4   
    1195 000322 64E4          BCC $C$L23,TC1 ; |1136| 
    1196                                                      ; branchcc occurs ; |1136| 
    1197 000324 A96D          MOV *AR3(#24), AR1 ; |1136| 
         000326 0018 
    1198 000328 C931          MOV AR1, *(#_uxTopReadyPriority) ; |1136| 
         00032a 0000 
         00032c 72-  
TMS320C55x Assembler PC v4.4.1 Tue Oct 02 02:33:57 2018

Tools Copyright (c) 1996-2012 Texas Instruments Incorporated
tasks_sysStk.asm                                                     PAGE   27

    1199 00032d       $C$L23:    
    1200 00032d DF6D          MOV uns(*AR3(#24)), AC1 ; |1136| 
         00032f 1500 
         000331 18   
    1201 000332 ED00          MOV dbl(*SP(#0)), XAR1
         000334 9F   
    1202 000335 1015          SFTS AC1, #1, AC0 ; |1136| 
         000337 01   
    1203 000338 1013          ADD AC1 << #3, AC0 ; |1136| 
         00033a 03   
    1204 00033b 900B          MOV AC0, XAR3
    1205 00033d EC31          AMOV #_pxReadyTasksLists, XAR0 ; |1136| 
         00033f 8E00 
         000341 0006-
    1206              
    1207 000343 14B1          AADD XAR3, XAR0 ; |1136| 
         000345 80   
    1208 000346 1504  ||      AADD #4, AR1 ; |1136| 
         000348 9C   
    1209              
    1210              $C$DW$123       .dwtag  DW_TAG_TI_branch
    1211                      .dwattr $C$DW$123, DW_AT_low_pc(0x00)
    1212                      .dwattr $C$DW$123, DW_AT_name("_vListInsertEnd")
    1213                      .dwattr $C$DW$123, DW_AT_TI_call
    1214 000349 6C00          CALL #_vListInsertEnd ; |1136| 
         00034b 0000!
    1215                                                      ; call occurs [#_vListInsertEnd] ; |1136| 
    1216                      .dwpsn  file "../FreeRTOS/Source/tasks_sysStk.c",line 1138,column 3,is_stmt
    1217                      .dwpsn  file "../FreeRTOS/Source/tasks_sysStk.c",line 1140,column 2,is_stmt
    1218 00034d A931          MOV *(#_usCriticalNesting), AR1 ; |1140| 
         00034f 0000 
         000351 00!  
    1219 000352 0409          BCC $C$L24,AR1 == #0 ; |1140| 
         000354 14   
    1220                                                      ; branchcc occurs ; |1140| 
    1221 000355 F731          SUB #1, *(#_usCriticalNesting) ; |1140| 
         000357 FFFF 
         000359 0000 
         00035b 00!  
    1222 00035c 20            NOP
    1223 00035d 20            NOP
    1224 00035e 20            NOP
    1225 00035f A931          MOV *(#_usCriticalNesting), AR1 ; |1140| 
         000361 0000 
         000363 00!  
    1226 000364 6199          BCC $C$L24,AR1 != #0 ; |1140| 
    1227                                                      ; branchcc occurs ; |1140| 
    1228 000366 20     nop
    1229 000367 46B2   bclr INTM
    1230 000369       $C$L24:    
    1231                      .dwpsn  file "../FreeRTOS/Source/tasks_sysStk.c",line 1142,column 2,is_stmt
    1232 000369 A931          MOV *(#_xSchedulerRunning), AR1 ; |1142| 
         00036b 0000 
         00036d 73-  
    1233 00036e 0409          BCC $C$L25,AR1 == #0 ; |1142| 
TMS320C55x Assembler PC v4.4.1 Tue Oct 02 02:33:57 2018

Tools Copyright (c) 1996-2012 Texas Instruments Incorporated
tasks_sysStk.asm                                                     PAGE   28

         000370 1C   
    1234                                                      ; branchcc occurs ; |1142| 
    1235                      .dwpsn  file "../FreeRTOS/Source/tasks_sysStk.c",line 1146,column 3,is_stmt
    1236 000371 ED00          MOV dbl(*SP(#0)), XAR3
         000373 BF   
    1237 000374 A96D          MOV *AR3(#24), AR1 ; |1146| 
         000376 0018 
    1238 000378 ED31          MOV dbl(*(#_pxCurrentTCB)), XAR3
         00037a BF00 
         00037c 0004-
    1239 00037e AA6D          MOV *AR3(#24), AR2 ; |1146| 
         000380 0018 
    1240 000382 12A8          CMPU AR2 >= AR1, TC1 ; |1146| 
         000384 94   
    1241 000385 6364          BCC $C$L25,TC1 ; |1146| 
    1242                                                      ; branchcc occurs ; |1146| 
    1243                      .dwpsn  file "../FreeRTOS/Source/tasks_sysStk.c",line 1148,column 4,is_stmt
    1244              $C$DW$124       .dwtag  DW_TAG_TI_branch
    1245                      .dwattr $C$DW$124, DW_AT_low_pc(0x00)
    1246                      .dwattr $C$DW$124, DW_AT_name("_vPortYield")
    1247                      .dwattr $C$DW$124, DW_AT_TI_call
    1248 000387 6C00          CALL #_vPortYield ; |1148| 
         000389 0000!
    1249                                                      ; call occurs [#_vPortYield] ; |1148| 
    1250                      .dwpsn  file "../FreeRTOS/Source/tasks_sysStk.c",line 1149,column 3,is_stmt
    1251 00038b 4A00          B $C$L25  ; |1149| 
    1252                                                      ; branch occurs ; |1149| 
    1253 00038d       $C$L25:    
    1254 00038d 4E03          AADD #3, SP
    1255                      .dwcfi  cfa_offset, 1
    1256              $C$DW$125       .dwtag  DW_TAG_TI_branch
    1257                      .dwattr $C$DW$125, DW_AT_low_pc(0x00)
    1258                      .dwattr $C$DW$125, DW_AT_TI_return
    1259 00038f 4804          RET
    1260                                                      ; return occurs
    1261                      .dwattr $C$DW$119, DW_AT_TI_end_file("../FreeRTOS/Source/tasks_sysStk.c")
    1262                      .dwattr $C$DW$119, DW_AT_TI_end_line(0x487)
    1263                      .dwattr $C$DW$119, DW_AT_TI_end_column(0x01)
    1264                      .dwendentry
    1265                      .dwendtag $C$DW$119
    1266              
    1267 000391               .sect   ".text"
    1268                      .align 4
    1269                      .global _vTaskDelete
    1270              
    1271              $C$DW$126       .dwtag  DW_TAG_subprogram, DW_AT_name("vTaskDelete")
    1272                      .dwattr $C$DW$126, DW_AT_low_pc(_vTaskDelete)
    1273                      .dwattr $C$DW$126, DW_AT_high_pc(0x00)
    1274                      .dwattr $C$DW$126, DW_AT_TI_symbol_name("_vTaskDelete")
    1275                      .dwattr $C$DW$126, DW_AT_external
    1276                      .dwattr $C$DW$126, DW_AT_TI_begin_file("../FreeRTOS/Source/tasks_sysStk.c")
    1277                      .dwattr $C$DW$126, DW_AT_TI_begin_line(0x48c)
    1278                      .dwattr $C$DW$126, DW_AT_TI_begin_column(0x07)
    1279                      .dwattr $C$DW$126, DW_AT_TI_max_frame_size(0x06)
    1280                      .dwpsn  file "../FreeRTOS/Source/tasks_sysStk.c",line 1165,column 2,is_stmt,address _vTaskDelete
TMS320C55x Assembler PC v4.4.1 Tue Oct 02 02:33:57 2018

Tools Copyright (c) 1996-2012 Texas Instruments Incorporated
tasks_sysStk.asm                                                     PAGE   29

    1281              
    1282                      .dwfde $C$DW$CIE, _vTaskDelete
    1283              $C$DW$127       .dwtag  DW_TAG_formal_parameter, DW_AT_name("xTaskToDelete")
    1284                      .dwattr $C$DW$127, DW_AT_TI_symbol_name("_xTaskToDelete")
    1285                      .dwattr $C$DW$127, DW_AT_type(*$C$DW$T$48)
    1286                      .dwattr $C$DW$127, DW_AT_location[DW_OP_reg17]
    1287              ;*******************************************************************************
    1288              ;* FUNCTION NAME: vTaskDelete                                                  *
    1289              ;*                                                                             *
    1290              ;*   Function Uses Regs : AC0,AC0,AC1,AC1,T0,AR0,XAR0,AR1,XAR1,AR2,AR3,XAR3,SP,*
    1291              ;*                        CARRY,TC1,M40,SATA,SATD,RDM,FRCT,SMUL                *
    1292              ;*   Stack Frame        : Compact (No Frame Pointer, w/ debug)                 *
    1293              ;*   Total Frame Size   : 6 words                                              *
    1294              ;*                        (2 return address/alignment)                         *
    1295              ;*                        (4 local values)                                     *
    1296              ;*   Min System Stack   : 1 word                                               *
    1297              ;*******************************************************************************
    1298 000394       _vTaskDelete:
    1299                      .dwcfi  cfa_offset, 1
    1300                      .dwcfi  save_reg_to_mem, 91, -1
    1301 000394 4EFB          AADD #-5, SP
    1302                      .dwcfi  cfa_offset, 6
    1303              $C$DW$128       .dwtag  DW_TAG_variable, DW_AT_name("xTaskToDelete")
    1304                      .dwattr $C$DW$128, DW_AT_TI_symbol_name("_xTaskToDelete")
    1305                      .dwattr $C$DW$128, DW_AT_type(*$C$DW$T$48)
    1306                      .dwattr $C$DW$128, DW_AT_location[DW_OP_bregx 0x24 0]
    1307              $C$DW$129       .dwtag  DW_TAG_variable, DW_AT_name("pxTCB")
    1308                      .dwattr $C$DW$129, DW_AT_TI_symbol_name("_pxTCB")
    1309                      .dwattr $C$DW$129, DW_AT_type(*$C$DW$T$83)
    1310                      .dwattr $C$DW$129, DW_AT_location[DW_OP_bregx 0x24 2]
    1311 000396 EB00          MOV XAR0, dbl(*SP(#0))
         000398 85   
    1312                      .dwpsn  file "../FreeRTOS/Source/tasks_sysStk.c",line 1168,column 3,is_stmt
    1313 000399 20     nop
    1314 00039a 46B3   bset INTM
    1315 00039c F731          ADD #1, *(#_usCriticalNesting) ; |1168| 
         00039e 0001 
         0003a0 0000 
         0003a2 00!  
    1316                      .dwpsn  file "../FreeRTOS/Source/tasks_sysStk.c",line 1172,column 4,is_stmt
    1317 0003a3 ED00          MOV dbl(*SP(#0)), XAR3
         0003a5 BF   
    1318 0003a6 90B0          MOV XAR3, AC0
    1319 0003a8 6310          BCC $C$L26,AC0 != #0 ; |1172| 
    1320                                                      ; branchcc occurs ; |1172| 
    1321 0003aa ED31          MOV dbl(*(#_pxCurrentTCB)), XAR3
         0003ac BF00 
         0003ae 0004-
    1322 0003b0       $C$L26:    
    1323 0003b0 EB04          MOV XAR3, dbl(*SP(#2))
         0003b2 B5   
    1324                      .dwpsn  file "../FreeRTOS/Source/tasks_sysStk.c",line 1175,column 4,is_stmt
    1325 0003b3 ED04          MOV dbl(*SP(#2)), XAR0
         0003b5 8F   
    1326 0003b6 1404          AADD #4, AR0 ; |1175| 
TMS320C55x Assembler PC v4.4.1 Tue Oct 02 02:33:57 2018

Tools Copyright (c) 1996-2012 Texas Instruments Incorporated
tasks_sysStk.asm                                                     PAGE   30

         0003b8 84   
    1327              $C$DW$130       .dwtag  DW_TAG_TI_branch
    1328                      .dwattr $C$DW$130, DW_AT_low_pc(0x00)
    1329                      .dwattr $C$DW$130, DW_AT_name("_uxListRemove")
    1330                      .dwattr $C$DW$130, DW_AT_TI_call
    1331 0003b9 6C00          CALL #_uxListRemove ; |1175| 
         0003bb 0000!
    1332                                                      ; call occurs [#_uxListRemove] ; |1175| 
    1333 0003bd 6004          BCC $C$L27,T0 == #0 ; |1175| 
    1334                                                      ; branchcc occurs ; |1175| 
    1335                      .dwpsn  file "../FreeRTOS/Source/tasks_sysStk.c",line 1178,column 4,is_stmt
    1336 0003bf       $C$L27:    
    1337                      .dwpsn  file "../FreeRTOS/Source/tasks_sysStk.c",line 1185,column 4,is_stmt
    1338 0003bf ED04          MOV dbl(*SP(#2)), XAR3
         0003c1 BF   
    1339 0003c2 ED6D          MOV dbl(*AR3(#22)), XAR3
         0003c4 BF00 
         0003c6 16   
    1340 0003c7 90B0          MOV XAR3, AC0
    1341 0003c9 6500          BCC $C$L28,AC0 == #0 ; |1185| 
    1342                                                      ; branchcc occurs ; |1185| 
    1343                      .dwpsn  file "../FreeRTOS/Source/tasks_sysStk.c",line 1187,column 5,is_stmt
    1344 0003cb ED04          MOV dbl(*SP(#2)), XAR0
         0003cd 8F   
    1345 0003ce 140E          AADD #14, AR0 ; |1187| 
         0003d0 84   
    1346              $C$DW$131       .dwtag  DW_TAG_TI_branch
    1347                      .dwattr $C$DW$131, DW_AT_low_pc(0x00)
    1348                      .dwattr $C$DW$131, DW_AT_name("_uxListRemove")
    1349                      .dwattr $C$DW$131, DW_AT_TI_call
    1350 0003d1 6C00          CALL #_uxListRemove ; |1187| 
         0003d3 0000!
    1351                                                      ; call occurs [#_uxListRemove] ; |1187| 
    1352                      .dwpsn  file "../FreeRTOS/Source/tasks_sysStk.c",line 1188,column 4,is_stmt
    1353 0003d5       $C$L28:    
    1354                      .dwpsn  file "../FreeRTOS/Source/tasks_sysStk.c",line 1198,column 4,is_stmt
    1355 0003d5 F731          ADD #1, *(#_uxTaskNumber) ; |1198| 
         0003d7 0001 
         0003d9 0000 
         0003db 77-  
    1356                      .dwpsn  file "../FreeRTOS/Source/tasks_sysStk.c",line 1200,column 4,is_stmt
    1357 0003dc ED31          MOV dbl(*(#_pxCurrentTCB)), XAR3
         0003de BF00 
         0003e0 0004-
    1358 0003e2 90B0          MOV XAR3, AC0
    1359 0003e4 ED04          MOV dbl(*SP(#2)), XAR3
         0003e6 BF   
    1360 0003e7 90B1          MOV XAR3, AC1
    1361 0003e9 121C          CMPU AC1 != AC0, TC1 ; |1200| 
         0003eb 04   
    1362 0003ec 0464          BCC $C$L29,TC1 ; |1200| 
         0003ee 19   
    1363                                                      ; branchcc occurs ; |1200| 
    1364                      .dwpsn  file "../FreeRTOS/Source/tasks_sysStk.c",line 1207,column 5,is_stmt
    1365 0003ef ED04          MOV dbl(*SP(#2)), XAR1
TMS320C55x Assembler PC v4.4.1 Tue Oct 02 02:33:57 2018

Tools Copyright (c) 1996-2012 Texas Instruments Incorporated
tasks_sysStk.asm                                                     PAGE   31

         0003f1 9F   
    1366 0003f2 EC31          AMOV #_xTasksWaitingTermination, XAR0 ; |1207| 
         0003f4 8E00 
         0003f6 005A-
    1367 0003f8 1404          AADD #4, AR1 ; |1207| 
         0003fa 94   
    1368              $C$DW$132       .dwtag  DW_TAG_TI_branch
    1369                      .dwattr $C$DW$132, DW_AT_low_pc(0x00)
    1370                      .dwattr $C$DW$132, DW_AT_name("_vListInsertEnd")
    1371                      .dwattr $C$DW$132, DW_AT_TI_call
    1372 0003fb 6C00          CALL #_vListInsertEnd ; |1207| 
         0003fd 0000!
    1373                                                      ; call occurs [#_vListInsertEnd] ; |1207| 
    1374                      .dwpsn  file "../FreeRTOS/Source/tasks_sysStk.c",line 1212,column 5,is_stmt
    1375 0003ff F731          ADD #1, *(#_uxDeletedTasksWaitingCleanUp) ; |1212| 
         000401 0001 
         000403 0000 
         000405 64-  
    1376                      .dwpsn  file "../FreeRTOS/Source/tasks_sysStk.c",line 1220,column 4,is_stmt
    1377 000406 4A10          B $C$L30  ; |1220| 
    1378                                                      ; branch occurs ; |1220| 
    1379 000408       $C$L29:    
    1380                      .dwpsn  file "../FreeRTOS/Source/tasks_sysStk.c",line 1223,column 5,is_stmt
    1381 000408 F731          SUB #1, *(#_uxCurrentNumberOfTasks) ; |1223| 
         00040a FFFF 
         00040c 0000 
         00040e 65-  
    1382                      .dwpsn  file "../FreeRTOS/Source/tasks_sysStk.c",line 1224,column 5,is_stmt
    1383 00040f ED04          MOV dbl(*SP(#2)), XAR0
         000411 8F   
    1384              $C$DW$133       .dwtag  DW_TAG_TI_branch
    1385                      .dwattr $C$DW$133, DW_AT_low_pc(0x00)
    1386                      .dwattr $C$DW$133, DW_AT_name("_prvDeleteTCB")
    1387                      .dwattr $C$DW$133, DW_AT_TI_call
    1388 000412 080F          CALL #_prvDeleteTCB ; |1224| 
         000414 F7   
    1389                                                      ; call occurs [#_prvDeleteTCB] ; |1224| 
    1390                      .dwpsn  file "../FreeRTOS/Source/tasks_sysStk.c",line 1228,column 5,is_stmt
    1391              $C$DW$134       .dwtag  DW_TAG_TI_branch
    1392                      .dwattr $C$DW$134, DW_AT_low_pc(0x00)
    1393                      .dwattr $C$DW$134, DW_AT_name("_prvResetNextTaskUnblockTime")
    1394                      .dwattr $C$DW$134, DW_AT_TI_call
    1395 000415 0810          CALL #_prvResetNextTaskUnblockTime ; |1228| 
         000417 1C   
    1396                                                      ; call occurs [#_prvResetNextTaskUnblockTime] ; |1228| 
    1397 000418       $C$L30:    
    1398                      .dwpsn  file "../FreeRTOS/Source/tasks_sysStk.c",line 1233,column 3,is_stmt
    1399 000418 A931          MOV *(#_usCriticalNesting), AR1 ; |1233| 
         00041a 0000 
         00041c 00!  
    1400 00041d 0409          BCC $C$L31,AR1 == #0 ; |1233| 
         00041f 14   
    1401                                                      ; branchcc occurs ; |1233| 
    1402 000420 F731          SUB #1, *(#_usCriticalNesting) ; |1233| 
         000422 FFFF 
TMS320C55x Assembler PC v4.4.1 Tue Oct 02 02:33:57 2018

Tools Copyright (c) 1996-2012 Texas Instruments Incorporated
tasks_sysStk.asm                                                     PAGE   32

         000424 0000 
         000426 00!  
    1403 000427 20            NOP
    1404 000428 20            NOP
    1405 000429 20            NOP
    1406 00042a A931          MOV *(#_usCriticalNesting), AR1 ; |1233| 
         00042c 0000 
         00042e 00!  
    1407 00042f 6199          BCC $C$L31,AR1 != #0 ; |1233| 
    1408                                                      ; branchcc occurs ; |1233| 
    1409 000431 20     nop
    1410 000432 46B2   bclr INTM
    1411 000434       $C$L31:    
    1412                      .dwpsn  file "../FreeRTOS/Source/tasks_sysStk.c",line 1237,column 3,is_stmt
    1413 000434 A931          MOV *(#_xSchedulerRunning), AR1 ; |1237| 
         000436 0000 
         000438 73-  
    1414 000439 0409          BCC $C$L35,AR1 == #0 ; |1237| 
         00043b 2B   
    1415                                                      ; branchcc occurs ; |1237| 
    1416                      .dwpsn  file "../FreeRTOS/Source/tasks_sysStk.c",line 1239,column 4,is_stmt
    1417 00043c ED31          MOV dbl(*(#_pxCurrentTCB)), XAR3
         00043e BF00 
         000440 0004-
    1418 000442 90B0          MOV XAR3, AC0
    1419 000444 ED04          MOV dbl(*SP(#2)), XAR3
         000446 BF   
    1420 000447 90B1          MOV XAR3, AC1
    1421 000449 121C          CMPU AC1 != AC0, TC1 ; |1239| 
         00044b 04   
    1422 00044c 0464          BCC $C$L35,TC1 ; |1239| 
         00044e 18   
    1423                                                      ; branchcc occurs ; |1239| 
    1424                      .dwpsn  file "../FreeRTOS/Source/tasks_sysStk.c",line 1241,column 5,is_stmt
    1425 00044f AA31          MOV *(#_uxSchedulerSuspended), AR2 ; |1241| 
         000451 0000 
         000453 7C-  
    1426 000454 3C09          MOV #0, AR1
    1427 000456 611A          BCC $C$L32,AR2 != #0 ; |1241| 
    1428                                                      ; branchcc occurs ; |1241| 
    1429 000458 3C19          MOV #1, AR1
    1430 00045a       $C$L32:    
    1431 00045a 6299          BCC $C$L34,AR1 != #0 ; |1241| 
    1432                                                      ; branchcc occurs ; |1241| 
    1433 00045c 20     nop
    1434 00045d 46B3   bset INTM
    1435 00045f       $C$L33:    
    1436 00045f       $C$DW$L$_vTaskDelete$19$B:
    1437 00045f 4A7E          B $C$L33  ; |1241| 
    1438                                                      ; branch occurs ; |1241| 
    1439 000461       $C$DW$L$_vTaskDelete$19$E:
    1440 000461       $C$L34:    
    1441                      .dwpsn  file "../FreeRTOS/Source/tasks_sysStk.c",line 1242,column 5,is_stmt
    1442              $C$DW$135       .dwtag  DW_TAG_TI_branch
    1443                      .dwattr $C$DW$135, DW_AT_low_pc(0x00)
TMS320C55x Assembler PC v4.4.1 Tue Oct 02 02:33:57 2018

Tools Copyright (c) 1996-2012 Texas Instruments Incorporated
tasks_sysStk.asm                                                     PAGE   33

    1444                      .dwattr $C$DW$135, DW_AT_name("_vPortYield")
    1445                      .dwattr $C$DW$135, DW_AT_TI_call
    1446 000461 6C00          CALL #_vPortYield ; |1242| 
         000463 0000!
    1447                                                      ; call occurs [#_vPortYield] ; |1242| 
    1448                      .dwpsn  file "../FreeRTOS/Source/tasks_sysStk.c",line 1243,column 4,is_stmt
    1449 000465 4A00          B $C$L35  ; |1243| 
    1450                                                      ; branch occurs ; |1243| 
    1451 000467       $C$L35:    
    1452 000467 4E05          AADD #5, SP
    1453                      .dwcfi  cfa_offset, 1
    1454              $C$DW$136       .dwtag  DW_TAG_TI_branch
    1455                      .dwattr $C$DW$136, DW_AT_low_pc(0x00)
    1456                      .dwattr $C$DW$136, DW_AT_TI_return
    1457 000469 4804          RET
    1458                                                      ; return occurs
    1459              
    1460              $C$DW$137       .dwtag  DW_TAG_TI_loop
    1461                      .dwattr $C$DW$137, DW_AT_name("F:\eZdsp-DBG-sim\tmp1\c55x-sim2\foo\Debug\tasks_sysStk.asm:$C$L33:1:15
    1462                      .dwattr $C$DW$137, DW_AT_TI_begin_file("../FreeRTOS/Source/tasks_sysStk.c")
    1463                      .dwattr $C$DW$137, DW_AT_TI_begin_line(0x4d9)
    1464                      .dwattr $C$DW$137, DW_AT_TI_end_line(0x4d9)
    1465              $C$DW$138       .dwtag  DW_TAG_TI_loop_range
    1466                      .dwattr $C$DW$138, DW_AT_low_pc($C$DW$L$_vTaskDelete$19$B)
    1467                      .dwattr $C$DW$138, DW_AT_high_pc($C$DW$L$_vTaskDelete$19$E)
    1468                      .dwendtag $C$DW$137
    1469              
    1470                      .dwattr $C$DW$126, DW_AT_TI_end_file("../FreeRTOS/Source/tasks_sysStk.c")
    1471                      .dwattr $C$DW$126, DW_AT_TI_end_line(0x4e1)
    1472                      .dwattr $C$DW$126, DW_AT_TI_end_column(0x02)
    1473                      .dwendentry
    1474                      .dwendtag $C$DW$126
    1475              
    1476 00046b               .sect   ".text"
    1477                      .align 4
    1478                      .global _vTaskDelayUntil
    1479              
    1480              $C$DW$139       .dwtag  DW_TAG_subprogram, DW_AT_name("vTaskDelayUntil")
    1481                      .dwattr $C$DW$139, DW_AT_low_pc(_vTaskDelayUntil)
    1482                      .dwattr $C$DW$139, DW_AT_high_pc(0x00)
    1483                      .dwattr $C$DW$139, DW_AT_TI_symbol_name("_vTaskDelayUntil")
    1484                      .dwattr $C$DW$139, DW_AT_external
    1485                      .dwattr $C$DW$139, DW_AT_TI_begin_file("../FreeRTOS/Source/tasks_sysStk.c")
    1486                      .dwattr $C$DW$139, DW_AT_TI_begin_line(0x4e8)
    1487                      .dwattr $C$DW$139, DW_AT_TI_begin_column(0x07)
    1488                      .dwattr $C$DW$139, DW_AT_TI_max_frame_size(0x0c)
    1489                      .dwpsn  file "../FreeRTOS/Source/tasks_sysStk.c",line 1257,column 2,is_stmt,address _vTaskDelayUntil
    1490              
    1491                      .dwfde $C$DW$CIE, _vTaskDelayUntil
    1492              $C$DW$140       .dwtag  DW_TAG_formal_parameter, DW_AT_name("pxPreviousWakeTime")
    1493                      .dwattr $C$DW$140, DW_AT_TI_symbol_name("_pxPreviousWakeTime")
    1494                      .dwattr $C$DW$140, DW_AT_type(*$C$DW$T$94)
    1495                      .dwattr $C$DW$140, DW_AT_location[DW_OP_reg17]
    1496              $C$DW$141       .dwtag  DW_TAG_formal_parameter, DW_AT_name("xTimeIncrement")
    1497                      .dwattr $C$DW$141, DW_AT_TI_symbol_name("_xTimeIncrement")
TMS320C55x Assembler PC v4.4.1 Tue Oct 02 02:33:57 2018

Tools Copyright (c) 1996-2012 Texas Instruments Incorporated
tasks_sysStk.asm                                                     PAGE   34

    1498                      .dwattr $C$DW$141, DW_AT_type(*$C$DW$T$95)
    1499                      .dwattr $C$DW$141, DW_AT_location[DW_OP_reg0]
    1500              ;*******************************************************************************
    1501              ;* FUNCTION NAME: vTaskDelayUntil                                              *
    1502              ;*                                                                             *
    1503              ;*   Function Uses Regs : AC0,AC0,AC1,AC1,T0,AR0,XAR0,AR1,AR2,AR3,XAR3,SP,     *
    1504              ;*                        CARRY,TC1,M40,SATA,SATD,RDM,FRCT,SMUL                *
    1505              ;*   Stack Frame        : Compact (No Frame Pointer, w/ debug)                 *
    1506              ;*   Total Frame Size   : 12 words                                             *
    1507              ;*                        (2 return address/alignment)                         *
    1508              ;*                        (10 local values)                                    *
    1509              ;*   Min System Stack   : 1 word                                               *
    1510              ;*******************************************************************************
    1511 00046c       _vTaskDelayUntil:
    1512                      .dwcfi  cfa_offset, 1
    1513                      .dwcfi  save_reg_to_mem, 91, -1
    1514 00046c 4EF5          AADD #-11, SP
    1515                      .dwcfi  cfa_offset, 12
    1516              $C$DW$142       .dwtag  DW_TAG_variable, DW_AT_name("pxPreviousWakeTime")
    1517                      .dwattr $C$DW$142, DW_AT_TI_symbol_name("_pxPreviousWakeTime")
    1518                      .dwattr $C$DW$142, DW_AT_type(*$C$DW$T$94)
    1519                      .dwattr $C$DW$142, DW_AT_location[DW_OP_bregx 0x24 0]
    1520              $C$DW$143       .dwtag  DW_TAG_variable, DW_AT_name("xTimeIncrement")
    1521                      .dwattr $C$DW$143, DW_AT_TI_symbol_name("_xTimeIncrement")
    1522                      .dwattr $C$DW$143, DW_AT_type(*$C$DW$T$95)
    1523                      .dwattr $C$DW$143, DW_AT_location[DW_OP_bregx 0x24 2]
    1524              $C$DW$144       .dwtag  DW_TAG_variable, DW_AT_name("xTimeToWake")
    1525                      .dwattr $C$DW$144, DW_AT_TI_symbol_name("_xTimeToWake")
    1526                      .dwattr $C$DW$144, DW_AT_type(*$C$DW$T$37)
    1527                      .dwattr $C$DW$144, DW_AT_location[DW_OP_bregx 0x24 4]
    1528              $C$DW$145       .dwtag  DW_TAG_variable, DW_AT_name("xAlreadyYielded")
    1529                      .dwattr $C$DW$145, DW_AT_TI_symbol_name("_xAlreadyYielded")
    1530                      .dwattr $C$DW$145, DW_AT_type(*$C$DW$T$43)
    1531                      .dwattr $C$DW$145, DW_AT_location[DW_OP_bregx 0x24 6]
    1532              $C$DW$146       .dwtag  DW_TAG_variable, DW_AT_name("xShouldDelay")
    1533                      .dwattr $C$DW$146, DW_AT_TI_symbol_name("_xShouldDelay")
    1534                      .dwattr $C$DW$146, DW_AT_type(*$C$DW$T$43)
    1535                      .dwattr $C$DW$146, DW_AT_location[DW_OP_bregx 0x24 7]
    1536 00046e EB04          MOV AC0, dbl(*SP(#2)) ; |1257| 
         000470 08   
    1537 000471 EB00          MOV XAR0, dbl(*SP(#0))
         000473 85   
    1538                      .dwpsn  file "../FreeRTOS/Source/tasks_sysStk.c",line 1259,column 30,is_stmt
    1539 000474 E60E          MOV #0, *SP(#7) ; |1259| 
         000476 00   
    1540                      .dwpsn  file "../FreeRTOS/Source/tasks_sysStk.c",line 1261,column 3,is_stmt
    1541 000477 ED00          MOV dbl(*SP(#0)), XAR3
         000479 BF   
    1542 00047a 90B0          MOV XAR3, AC0
    1543 00047c 6290          BCC $C$L37,AC0 != #0 ; |1261| 
    1544                                                      ; branchcc occurs ; |1261| 
    1545 00047e 20     nop
    1546 00047f 46B3   bset INTM
    1547 000481       $C$L36:    
    1548 000481       $C$DW$L$_vTaskDelayUntil$3$B:
TMS320C55x Assembler PC v4.4.1 Tue Oct 02 02:33:57 2018

Tools Copyright (c) 1996-2012 Texas Instruments Incorporated
tasks_sysStk.asm                                                     PAGE   35

    1549 000481 4A7E          B $C$L36  ; |1261| 
    1550                                                      ; branch occurs ; |1261| 
    1551 000483       $C$DW$L$_vTaskDelayUntil$3$E:
    1552 000483       $C$L37:    
    1553                      .dwpsn  file "../FreeRTOS/Source/tasks_sysStk.c",line 1262,column 3,is_stmt
    1554 000483 ED04          MOV dbl(*SP(#2)), AC0 ; |1262| 
         000485 08   
    1555 000486 3C09          MOV #0, AR1
    1556 000488 6100          BCC $C$L38,AC0 == #0 ; |1262| 
    1557                                                      ; branchcc occurs ; |1262| 
    1558 00048a 3C19          MOV #1, AR1
    1559 00048c       $C$L38:    
    1560 00048c 6299          BCC $C$L40,AR1 != #0 ; |1262| 
    1561                                                      ; branchcc occurs ; |1262| 
    1562 00048e 20     nop
    1563 00048f 46B3   bset INTM
    1564 000491       $C$L39:    
    1565 000491       $C$DW$L$_vTaskDelayUntil$8$B:
    1566 000491 4A7E          B $C$L39  ; |1262| 
    1567                                                      ; branch occurs ; |1262| 
    1568 000493       $C$DW$L$_vTaskDelayUntil$8$E:
    1569 000493       $C$L40:    
    1570                      .dwpsn  file "../FreeRTOS/Source/tasks_sysStk.c",line 1263,column 3,is_stmt
    1571 000493 AA31          MOV *(#_uxSchedulerSuspended), AR2 ; |1263| 
         000495 0000 
         000497 7C-  
    1572 000498 3C09          MOV #0, AR1
    1573 00049a 611A          BCC $C$L41,AR2 != #0 ; |1263| 
    1574                                                      ; branchcc occurs ; |1263| 
    1575 00049c 3C19          MOV #1, AR1
    1576 00049e       $C$L41:    
    1577 00049e 6299          BCC $C$L43,AR1 != #0 ; |1263| 
    1578                                                      ; branchcc occurs ; |1263| 
    1579 0004a0 20     nop
    1580 0004a1 46B3   bset INTM
    1581 0004a3       $C$L42:    
    1582 0004a3       $C$DW$L$_vTaskDelayUntil$13$B:
    1583 0004a3 4A7E          B $C$L42  ; |1263| 
    1584                                                      ; branch occurs ; |1263| 
    1585 0004a5       $C$DW$L$_vTaskDelayUntil$13$E:
    1586 0004a5       $C$L43:    
    1587                      .dwpsn  file "../FreeRTOS/Source/tasks_sysStk.c",line 1265,column 3,is_stmt
    1588              $C$DW$147       .dwtag  DW_TAG_TI_branch
    1589                      .dwattr $C$DW$147, DW_AT_low_pc(0x00)
    1590                      .dwattr $C$DW$147, DW_AT_name("_vTaskSuspendAll")
    1591                      .dwattr $C$DW$147, DW_AT_TI_call
    1592 0004a5 0806          CALL #_vTaskSuspendAll ; |1265| 
         0004a7 FC   
    1593                                                      ; call occurs [#_vTaskSuspendAll] ; |1265| 
    1594              
    1595              $C$DW$148       .dwtag  DW_TAG_lexical_block, DW_AT_low_pc(0x00), DW_AT_high_pc(0x00)
    1596              $C$DW$149       .dwtag  DW_TAG_variable, DW_AT_name("xConstTickCount")
    1597                      .dwattr $C$DW$149, DW_AT_TI_symbol_name("_xConstTickCount")
    1598                      .dwattr $C$DW$149, DW_AT_type(*$C$DW$T$95)
    1599                      .dwattr $C$DW$149, DW_AT_location[DW_OP_bregx 0x24 8]
TMS320C55x Assembler PC v4.4.1 Tue Oct 02 02:33:57 2018

Tools Copyright (c) 1996-2012 Texas Instruments Incorporated
tasks_sysStk.asm                                                     PAGE   36

    1600                      .dwpsn  file "../FreeRTOS/Source/tasks_sysStk.c",line 1269,column 21,is_stmt
    1601 0004a8 ED31          MOV dbl(*(#_xTickCount)), AC0 ; |1269| 
         0004aa 0800 
         0004ac 0070-
    1602 0004ae EB10          MOV AC0, dbl(*SP(#8)) ; |1269| 
         0004b0 08   
    1603                      .dwpsn  file "../FreeRTOS/Source/tasks_sysStk.c",line 1272,column 4,is_stmt
    1604 0004b1 ED00          MOV dbl(*SP(#0)), XAR3
         0004b3 BF   
    1605 0004b4 ED04          MOV dbl(*SP(#2)), AC0 ; |1272| 
         0004b6 08   
    1606 0004b7 ED61          ADD dbl(*AR3), AC0, AC0 ; |1272| 
         0004b9 00   
    1607 0004ba EB08          MOV AC0, dbl(*SP(#4)) ; |1272| 
         0004bc 08   
    1608                      .dwpsn  file "../FreeRTOS/Source/tasks_sysStk.c",line 1274,column 4,is_stmt
    1609 0004bd ED00          MOV dbl(*SP(#0)), XAR3
         0004bf BF   
    1610 0004c0 ED10          MOV dbl(*SP(#8)), AC1 ; |1274| 
         0004c2 18   
    1611 0004c3 ED61          MOV dbl(*AR3), AC0 ; |1274| 
         0004c5 08   
    1612 0004c6 1218          CMPU AC1 >= AC0, TC1 ; |1274| 
         0004c8 04   
    1613 0004c9 0464          BCC $C$L44,TC1 ; |1274| 
         0004cb 1D   
    1614                                                      ; branchcc occurs ; |1274| 
    1615                      .dwpsn  file "../FreeRTOS/Source/tasks_sysStk.c",line 1281,column 5,is_stmt
    1616 0004cc ED61          MOV dbl(*AR3), AC0 ; |1281| 
         0004ce 08   
    1617 0004cf ED08          MOV dbl(*SP(#4)), AC1 ; |1281| 
         0004d1 18   
    1618 0004d2 1218          CMPU AC1 >= AC0, TC1 ; |1281| 
         0004d4 04   
    1619 0004d5 0464          BCC $C$L46,TC1 ; |1281| 
         0004d7 2A   
    1620                                                      ; branchcc occurs ; |1281| 
    1621 0004d8 ED10          MOV dbl(*SP(#8)), AC0 ; |1281| 
         0004da 08   
    1622 0004db ED08          MOV dbl(*SP(#4)), AC1 ; |1281| 
         0004dd 18   
    1623 0004de 1208          CMPU AC1 <= AC0, TC1 ; |1281| 
         0004e0 14   
    1624 0004e1 0464          BCC $C$L46,TC1 ; |1281| 
         0004e3 1E   
    1625                                                      ; branchcc occurs ; |1281| 
    1626                      .dwpsn  file "../FreeRTOS/Source/tasks_sysStk.c",line 1283,column 6,is_stmt
    1627 0004e4 E60E          MOV #1, *SP(#7) ; |1283| 
         0004e6 01   
    1628                      .dwpsn  file "../FreeRTOS/Source/tasks_sysStk.c",line 1284,column 5,is_stmt
    1629 0004e7 4A19          B $C$L46  ; |1284| 
    1630                                                      ; branch occurs ; |1284| 
    1631 0004e9       $C$L44:    
    1632                      .dwpsn  file "../FreeRTOS/Source/tasks_sysStk.c",line 1295,column 5,is_stmt
    1633 0004e9 ED61          MOV dbl(*AR3), AC0 ; |1295| 
TMS320C55x Assembler PC v4.4.1 Tue Oct 02 02:33:57 2018

Tools Copyright (c) 1996-2012 Texas Instruments Incorporated
tasks_sysStk.asm                                                     PAGE   37

         0004eb 08   
    1634 0004ec ED08          MOV dbl(*SP(#4)), AC1 ; |1295| 
         0004ee 18   
    1635 0004ef 1214          CMPU AC1 < AC0, TC1 ; |1295| 
         0004f1 04   
    1636 0004f2 65E4          BCC $C$L45,TC1 ; |1295| 
    1637                                                      ; branchcc occurs ; |1295| 
    1638 0004f4 ED10          MOV dbl(*SP(#8)), AC0 ; |1295| 
         0004f6 08   
    1639 0004f7 ED08          MOV dbl(*SP(#4)), AC1 ; |1295| 
         0004f9 18   
    1640 0004fa 1208          CMPU AC1 <= AC0, TC1 ; |1295| 
         0004fc 14   
    1641 0004fd 61E4          BCC $C$L46,TC1 ; |1295| 
    1642                                                      ; branchcc occurs ; |1295| 
    1643 0004ff       $C$L45:    
    1644                      .dwpsn  file "../FreeRTOS/Source/tasks_sysStk.c",line 1297,column 6,is_stmt
    1645 0004ff E60E          MOV #1, *SP(#7) ; |1297| 
         000501 01   
    1646                      .dwpsn  file "../FreeRTOS/Source/tasks_sysStk.c",line 1298,column 5,is_stmt
    1647 000502       $C$L46:    
    1648                      .dwpsn  file "../FreeRTOS/Source/tasks_sysStk.c",line 1306,column 4,is_stmt
    1649 000502 ED00          MOV dbl(*SP(#0)), XAR3
         000504 BF   
    1650 000505 ED08          MOV dbl(*SP(#4)), AC0 ; |1306| 
         000507 08   
    1651 000508 EB61          MOV AC0, dbl(*AR3) ; |1306| 
         00050a 08   
    1652                      .dwpsn  file "../FreeRTOS/Source/tasks_sysStk.c",line 1308,column 4,is_stmt
    1653 00050b A90E          MOV *SP(#7), AR1 ; |1308| 
    1654 00050d 6589          BCC $C$L47,AR1 == #0 ; |1308| 
    1655                                                      ; branchcc occurs ; |1308| 
    1656                      .dwpsn  file "../FreeRTOS/Source/tasks_sysStk.c",line 1314,column 5,is_stmt
    1657 00050f ED10          MOV dbl(*SP(#8)), AC0 ; |1314| 
         000511 08   
    1658 000512 ED08          SUB AC0, dbl(*SP(#4)), AC0 ; |1314| 
         000514 04   
    1659              $C$DW$150       .dwtag  DW_TAG_TI_branch
    1660                      .dwattr $C$DW$150, DW_AT_low_pc(0x00)
    1661                      .dwattr $C$DW$150, DW_AT_name("_prvAddCurrentTaskToDelayedList")
    1662                      .dwattr $C$DW$150, DW_AT_TI_call
    1663              
    1664 000515 0819          CALL #_prvAddCurrentTaskToDelayedList ; |1314| 
         000517 5A   
    1665 000518 3D04  ||      MOV #0, T0
    1666              
    1667                                                      ; call occurs [#_prvAddCurrentTaskToDelayedList] ; |1314| 
    1668                      .dwpsn  file "../FreeRTOS/Source/tasks_sysStk.c",line 1315,column 4,is_stmt
    1669              $C$L47:    
    1670                      .dwendtag $C$DW$148
    1671              
    1672                      .dwpsn  file "../FreeRTOS/Source/tasks_sysStk.c",line 1321,column 3,is_stmt
    1673              $C$DW$151       .dwtag  DW_TAG_TI_branch
    1674                      .dwattr $C$DW$151, DW_AT_low_pc(0x00)
    1675                      .dwattr $C$DW$151, DW_AT_name("_xTaskResumeAll")
TMS320C55x Assembler PC v4.4.1 Tue Oct 02 02:33:57 2018

Tools Copyright (c) 1996-2012 Texas Instruments Incorporated
tasks_sysStk.asm                                                     PAGE   38

    1676                      .dwattr $C$DW$151, DW_AT_TI_call
    1677 00051a 0806          CALL #_xTaskResumeAll ; |1321| 
         00051c 93   
    1678                                                      ; call occurs [#_xTaskResumeAll] ; |1321| 
    1679 00051d C40C          MOV T0, *SP(#6) ; |1321| 
    1680                      .dwpsn  file "../FreeRTOS/Source/tasks_sysStk.c",line 1325,column 3,is_stmt
    1681 00051f 2249          MOV T0, AR1
    1682 000521 6319          BCC $C$L48,AR1 != #0 ; |1325| 
    1683                                                      ; branchcc occurs ; |1325| 
    1684                      .dwpsn  file "../FreeRTOS/Source/tasks_sysStk.c",line 1327,column 4,is_stmt
    1685              $C$DW$152       .dwtag  DW_TAG_TI_branch
    1686                      .dwattr $C$DW$152, DW_AT_low_pc(0x00)
    1687                      .dwattr $C$DW$152, DW_AT_name("_vPortYield")
    1688                      .dwattr $C$DW$152, DW_AT_TI_call
    1689 000523 6C00          CALL #_vPortYield ; |1327| 
         000525 0000!
    1690                                                      ; call occurs [#_vPortYield] ; |1327| 
    1691                      .dwpsn  file "../FreeRTOS/Source/tasks_sysStk.c",line 1328,column 3,is_stmt
    1692 000527 4A00          B $C$L48  ; |1328| 
    1693                                                      ; branch occurs ; |1328| 
    1694 000529       $C$L48:    
    1695 000529 4E0B          AADD #11, SP
    1696                      .dwcfi  cfa_offset, 1
    1697              $C$DW$153       .dwtag  DW_TAG_TI_branch
    1698                      .dwattr $C$DW$153, DW_AT_low_pc(0x00)
    1699                      .dwattr $C$DW$153, DW_AT_TI_return
    1700 00052b 4804          RET
    1701                                                      ; return occurs
    1702              
    1703              $C$DW$154       .dwtag  DW_TAG_TI_loop
    1704                      .dwattr $C$DW$154, DW_AT_name("F:\eZdsp-DBG-sim\tmp1\c55x-sim2\foo\Debug\tasks_sysStk.asm:$C$L42:1:15
    1705                      .dwattr $C$DW$154, DW_AT_TI_begin_file("../FreeRTOS/Source/tasks_sysStk.c")
    1706                      .dwattr $C$DW$154, DW_AT_TI_begin_line(0x4ef)
    1707                      .dwattr $C$DW$154, DW_AT_TI_end_line(0x4ef)
    1708              $C$DW$155       .dwtag  DW_TAG_TI_loop_range
    1709                      .dwattr $C$DW$155, DW_AT_low_pc($C$DW$L$_vTaskDelayUntil$13$B)
    1710                      .dwattr $C$DW$155, DW_AT_high_pc($C$DW$L$_vTaskDelayUntil$13$E)
    1711                      .dwendtag $C$DW$154
    1712              
    1713              
    1714              $C$DW$156       .dwtag  DW_TAG_TI_loop
    1715                      .dwattr $C$DW$156, DW_AT_name("F:\eZdsp-DBG-sim\tmp1\c55x-sim2\foo\Debug\tasks_sysStk.asm:$C$L39:1:15
    1716                      .dwattr $C$DW$156, DW_AT_TI_begin_file("../FreeRTOS/Source/tasks_sysStk.c")
    1717                      .dwattr $C$DW$156, DW_AT_TI_begin_line(0x4ee)
    1718                      .dwattr $C$DW$156, DW_AT_TI_end_line(0x4ee)
    1719              $C$DW$157       .dwtag  DW_TAG_TI_loop_range
    1720                      .dwattr $C$DW$157, DW_AT_low_pc($C$DW$L$_vTaskDelayUntil$8$B)
    1721                      .dwattr $C$DW$157, DW_AT_high_pc($C$DW$L$_vTaskDelayUntil$8$E)
    1722                      .dwendtag $C$DW$156
    1723              
    1724              
    1725              $C$DW$158       .dwtag  DW_TAG_TI_loop
    1726                      .dwattr $C$DW$158, DW_AT_name("F:\eZdsp-DBG-sim\tmp1\c55x-sim2\foo\Debug\tasks_sysStk.asm:$C$L36:1:15
    1727                      .dwattr $C$DW$158, DW_AT_TI_begin_file("../FreeRTOS/Source/tasks_sysStk.c")
    1728                      .dwattr $C$DW$158, DW_AT_TI_begin_line(0x4ed)
TMS320C55x Assembler PC v4.4.1 Tue Oct 02 02:33:57 2018

Tools Copyright (c) 1996-2012 Texas Instruments Incorporated
tasks_sysStk.asm                                                     PAGE   39

    1729                      .dwattr $C$DW$158, DW_AT_TI_end_line(0x4ed)
    1730              $C$DW$159       .dwtag  DW_TAG_TI_loop_range
    1731                      .dwattr $C$DW$159, DW_AT_low_pc($C$DW$L$_vTaskDelayUntil$3$B)
    1732                      .dwattr $C$DW$159, DW_AT_high_pc($C$DW$L$_vTaskDelayUntil$3$E)
    1733                      .dwendtag $C$DW$158
    1734              
    1735                      .dwattr $C$DW$139, DW_AT_TI_end_file("../FreeRTOS/Source/tasks_sysStk.c")
    1736                      .dwattr $C$DW$139, DW_AT_TI_end_line(0x535)
    1737                      .dwattr $C$DW$139, DW_AT_TI_end_column(0x02)
    1738                      .dwendentry
    1739                      .dwendtag $C$DW$139
    1740              
    1741 00052d               .sect   ".text"
    1742                      .align 4
    1743                      .global _vTaskDelay
    1744              
    1745              $C$DW$160       .dwtag  DW_TAG_subprogram, DW_AT_name("vTaskDelay")
    1746                      .dwattr $C$DW$160, DW_AT_low_pc(_vTaskDelay)
    1747                      .dwattr $C$DW$160, DW_AT_high_pc(0x00)
    1748                      .dwattr $C$DW$160, DW_AT_TI_symbol_name("_vTaskDelay")
    1749                      .dwattr $C$DW$160, DW_AT_external
    1750                      .dwattr $C$DW$160, DW_AT_TI_begin_file("../FreeRTOS/Source/tasks_sysStk.c")
    1751                      .dwattr $C$DW$160, DW_AT_TI_begin_line(0x53c)
    1752                      .dwattr $C$DW$160, DW_AT_TI_begin_column(0x07)
    1753                      .dwattr $C$DW$160, DW_AT_TI_max_frame_size(0x04)
    1754                      .dwpsn  file "../FreeRTOS/Source/tasks_sysStk.c",line 1341,column 2,is_stmt,address _vTaskDelay
    1755              
    1756                      .dwfde $C$DW$CIE, _vTaskDelay
    1757              $C$DW$161       .dwtag  DW_TAG_formal_parameter, DW_AT_name("xTicksToDelay")
    1758                      .dwattr $C$DW$161, DW_AT_TI_symbol_name("_xTicksToDelay")
    1759                      .dwattr $C$DW$161, DW_AT_type(*$C$DW$T$95)
    1760                      .dwattr $C$DW$161, DW_AT_location[DW_OP_reg0]
    1761              ;*******************************************************************************
    1762              ;* FUNCTION NAME: vTaskDelay                                                   *
    1763              ;*                                                                             *
    1764              ;*   Function Uses Regs : AC0,AC0,T0,AR1,AR2,SP,M40,SATA,SATD,RDM,FRCT,SMUL    *
    1765              ;*   Stack Frame        : Compact (No Frame Pointer, w/ debug)                 *
    1766              ;*   Total Frame Size   : 4 words                                              *
    1767              ;*                        (1 return address/alignment)                         *
    1768              ;*                        (3 local values)                                     *
    1769              ;*   Min System Stack   : 1 word                                               *
    1770              ;*******************************************************************************
    1771 000530       _vTaskDelay:
    1772                      .dwcfi  cfa_offset, 1
    1773                      .dwcfi  save_reg_to_mem, 91, -1
    1774 000530 4EFD          AADD #-3, SP
    1775                      .dwcfi  cfa_offset, 4
    1776              $C$DW$162       .dwtag  DW_TAG_variable, DW_AT_name("xTicksToDelay")
    1777                      .dwattr $C$DW$162, DW_AT_TI_symbol_name("_xTicksToDelay")
    1778                      .dwattr $C$DW$162, DW_AT_type(*$C$DW$T$95)
    1779                      .dwattr $C$DW$162, DW_AT_location[DW_OP_bregx 0x24 0]
    1780              $C$DW$163       .dwtag  DW_TAG_variable, DW_AT_name("xAlreadyYielded")
    1781                      .dwattr $C$DW$163, DW_AT_TI_symbol_name("_xAlreadyYielded")
    1782                      .dwattr $C$DW$163, DW_AT_type(*$C$DW$T$43)
    1783                      .dwattr $C$DW$163, DW_AT_location[DW_OP_bregx 0x24 2]
TMS320C55x Assembler PC v4.4.1 Tue Oct 02 02:33:57 2018

Tools Copyright (c) 1996-2012 Texas Instruments Incorporated
tasks_sysStk.asm                                                     PAGE   40

    1784 000532 EB00          MOV AC0, dbl(*SP(#0)) ; |1341| 
         000534 08   
    1785                      .dwpsn  file "../FreeRTOS/Source/tasks_sysStk.c",line 1342,column 13,is_stmt
    1786 000535 E604          MOV #0, *SP(#2) ; |1342| 
         000537 00   
    1787                      .dwpsn  file "../FreeRTOS/Source/tasks_sysStk.c",line 1345,column 3,is_stmt
    1788 000538 ED00          MOV dbl(*SP(#0)), AC0 ; |1345| 
         00053a 08   
    1789 00053b 0400          BCC $C$L52,AC0 == #0 ; |1345| 
         00053d 22   
    1790                                                      ; branchcc occurs ; |1345| 
    1791                      .dwpsn  file "../FreeRTOS/Source/tasks_sysStk.c",line 1347,column 4,is_stmt
    1792 00053e AA31          MOV *(#_uxSchedulerSuspended), AR2 ; |1347| 
         000540 0000 
         000542 7C-  
    1793 000543 3C09          MOV #0, AR1
    1794 000545 611A          BCC $C$L49,AR2 != #0 ; |1347| 
    1795                                                      ; branchcc occurs ; |1347| 
    1796 000547 3C19          MOV #1, AR1
    1797 000549       $C$L49:    
    1798 000549 6299          BCC $C$L51,AR1 != #0 ; |1347| 
    1799                                                      ; branchcc occurs ; |1347| 
    1800 00054b 20     nop
    1801 00054c 46B3   bset INTM
    1802 00054e       $C$L50:    
    1803 00054e       $C$DW$L$_vTaskDelay$6$B:
    1804 00054e 4A7E          B $C$L50  ; |1347| 
    1805                                                      ; branch occurs ; |1347| 
    1806 000550       $C$DW$L$_vTaskDelay$6$E:
    1807 000550       $C$L51:    
    1808                      .dwpsn  file "../FreeRTOS/Source/tasks_sysStk.c",line 1348,column 4,is_stmt
    1809              $C$DW$164       .dwtag  DW_TAG_TI_branch
    1810                      .dwattr $C$DW$164, DW_AT_low_pc(0x00)
    1811                      .dwattr $C$DW$164, DW_AT_name("_vTaskSuspendAll")
    1812                      .dwattr $C$DW$164, DW_AT_TI_call
    1813 000550 0806          CALL #_vTaskSuspendAll ; |1348| 
         000552 51   
    1814                                                      ; call occurs [#_vTaskSuspendAll] ; |1348| 
    1815                      .dwpsn  file "../FreeRTOS/Source/tasks_sysStk.c",line 1359,column 5,is_stmt
    1816 000553 ED00          MOV dbl(*SP(#0)), AC0 ; |1359| 
         000555 08   
    1817              $C$DW$165       .dwtag  DW_TAG_TI_branch
    1818                      .dwattr $C$DW$165, DW_AT_low_pc(0x00)
    1819                      .dwattr $C$DW$165, DW_AT_name("_prvAddCurrentTaskToDelayedList")
    1820                      .dwattr $C$DW$165, DW_AT_TI_call
    1821              
    1822 000556 0819          CALL #_prvAddCurrentTaskToDelayedList ; |1359| 
         000558 19   
    1823 000559 3D04  ||      MOV #0, T0
    1824              
    1825                                                      ; call occurs [#_prvAddCurrentTaskToDelayedList] ; |1359| 
    1826                      .dwpsn  file "../FreeRTOS/Source/tasks_sysStk.c",line 1361,column 4,is_stmt
    1827              $C$DW$166       .dwtag  DW_TAG_TI_branch
    1828                      .dwattr $C$DW$166, DW_AT_low_pc(0x00)
    1829                      .dwattr $C$DW$166, DW_AT_name("_xTaskResumeAll")
TMS320C55x Assembler PC v4.4.1 Tue Oct 02 02:33:57 2018

Tools Copyright (c) 1996-2012 Texas Instruments Incorporated
tasks_sysStk.asm                                                     PAGE   41

    1830                      .dwattr $C$DW$166, DW_AT_TI_call
    1831 00055b 0806          CALL #_xTaskResumeAll ; |1361| 
         00055d 52   
    1832                                                      ; call occurs [#_xTaskResumeAll] ; |1361| 
    1833 00055e C404          MOV T0, *SP(#2) ; |1361| 
    1834                      .dwpsn  file "../FreeRTOS/Source/tasks_sysStk.c",line 1362,column 3,is_stmt
    1835 000560       $C$L52:    
    1836                      .dwpsn  file "../FreeRTOS/Source/tasks_sysStk.c",line 1370,column 3,is_stmt
    1837 000560 A904          MOV *SP(#2), AR1 ; |1370| 
    1838 000562 6319          BCC $C$L53,AR1 != #0 ; |1370| 
    1839                                                      ; branchcc occurs ; |1370| 
    1840                      .dwpsn  file "../FreeRTOS/Source/tasks_sysStk.c",line 1372,column 4,is_stmt
    1841              $C$DW$167       .dwtag  DW_TAG_TI_branch
    1842                      .dwattr $C$DW$167, DW_AT_low_pc(0x00)
    1843                      .dwattr $C$DW$167, DW_AT_name("_vPortYield")
    1844                      .dwattr $C$DW$167, DW_AT_TI_call
    1845 000564 6C00          CALL #_vPortYield ; |1372| 
         000566 0000!
    1846                                                      ; call occurs [#_vPortYield] ; |1372| 
    1847                      .dwpsn  file "../FreeRTOS/Source/tasks_sysStk.c",line 1373,column 3,is_stmt
    1848 000568 4A00          B $C$L53  ; |1373| 
    1849                                                      ; branch occurs ; |1373| 
    1850 00056a       $C$L53:    
    1851 00056a 4E03          AADD #3, SP
    1852                      .dwcfi  cfa_offset, 1
    1853              $C$DW$168       .dwtag  DW_TAG_TI_branch
    1854                      .dwattr $C$DW$168, DW_AT_low_pc(0x00)
    1855                      .dwattr $C$DW$168, DW_AT_TI_return
    1856 00056c 4804          RET
    1857                                                      ; return occurs
    1858              
    1859              $C$DW$169       .dwtag  DW_TAG_TI_loop
    1860                      .dwattr $C$DW$169, DW_AT_name("F:\eZdsp-DBG-sim\tmp1\c55x-sim2\foo\Debug\tasks_sysStk.asm:$C$L50:1:15
    1861                      .dwattr $C$DW$169, DW_AT_TI_begin_file("../FreeRTOS/Source/tasks_sysStk.c")
    1862                      .dwattr $C$DW$169, DW_AT_TI_begin_line(0x543)
    1863                      .dwattr $C$DW$169, DW_AT_TI_end_line(0x543)
    1864              $C$DW$170       .dwtag  DW_TAG_TI_loop_range
    1865                      .dwattr $C$DW$170, DW_AT_low_pc($C$DW$L$_vTaskDelay$6$B)
    1866                      .dwattr $C$DW$170, DW_AT_high_pc($C$DW$L$_vTaskDelay$6$E)
    1867                      .dwendtag $C$DW$169
    1868              
    1869                      .dwattr $C$DW$160, DW_AT_TI_end_file("../FreeRTOS/Source/tasks_sysStk.c")
    1870                      .dwattr $C$DW$160, DW_AT_TI_end_line(0x562)
    1871                      .dwattr $C$DW$160, DW_AT_TI_end_column(0x02)
    1872                      .dwendentry
    1873                      .dwendtag $C$DW$160
    1874              
    1875 00056e               .sect   ".text"
    1876                      .align 4
    1877                      .global _eTaskGetState
    1878              
    1879              $C$DW$171       .dwtag  DW_TAG_subprogram, DW_AT_name("eTaskGetState")
    1880                      .dwattr $C$DW$171, DW_AT_low_pc(_eTaskGetState)
    1881                      .dwattr $C$DW$171, DW_AT_high_pc(0x00)
    1882                      .dwattr $C$DW$171, DW_AT_TI_symbol_name("_eTaskGetState")
TMS320C55x Assembler PC v4.4.1 Tue Oct 02 02:33:57 2018

Tools Copyright (c) 1996-2012 Texas Instruments Incorporated
tasks_sysStk.asm                                                     PAGE   42

    1883                      .dwattr $C$DW$171, DW_AT_external
    1884                      .dwattr $C$DW$171, DW_AT_type(*$C$DW$T$46)
    1885                      .dwattr $C$DW$171, DW_AT_TI_begin_file("../FreeRTOS/Source/tasks_sysStk.c")
    1886                      .dwattr $C$DW$171, DW_AT_TI_begin_line(0x569)
    1887                      .dwattr $C$DW$171, DW_AT_TI_begin_column(0x0d)
    1888                      .dwattr $C$DW$171, DW_AT_TI_max_frame_size(0x0e)
    1889                      .dwpsn  file "../FreeRTOS/Source/tasks_sysStk.c",line 1386,column 2,is_stmt,address _eTaskGetState
    1890              
    1891                      .dwfde $C$DW$CIE, _eTaskGetState
    1892              $C$DW$172       .dwtag  DW_TAG_formal_parameter, DW_AT_name("xTask")
    1893                      .dwattr $C$DW$172, DW_AT_TI_symbol_name("_xTask")
    1894                      .dwattr $C$DW$172, DW_AT_type(*$C$DW$T$48)
    1895                      .dwattr $C$DW$172, DW_AT_location[DW_OP_reg17]
    1896              ;*******************************************************************************
    1897              ;* FUNCTION NAME: eTaskGetState                                                *
    1898              ;*                                                                             *
    1899              ;*   Function Uses Regs : AC0,AC0,AC1,AC1,T0,AR0,XAR0,AR1,AR3,XAR3,SP,CARRY,   *
    1900              ;*                        TC1,M40,SATA,SATD,RDM,FRCT,SMUL                      *
    1901              ;*   Stack Frame        : Compact (No Frame Pointer, w/ debug)                 *
    1902              ;*   Total Frame Size   : 14 words                                             *
    1903              ;*                        (2 return address/alignment)                         *
    1904              ;*                        (12 local values)                                    *
    1905              ;*   Min System Stack   : 1 word                                               *
    1906              ;*******************************************************************************
    1907 000570       _eTaskGetState:
    1908                      .dwcfi  cfa_offset, 1
    1909                      .dwcfi  save_reg_to_mem, 91, -1
    1910 000570 4EF3          AADD #-13, SP
    1911                      .dwcfi  cfa_offset, 14
    1912              $C$DW$173       .dwtag  DW_TAG_variable, DW_AT_name("xTask")
    1913                      .dwattr $C$DW$173, DW_AT_TI_symbol_name("_xTask")
    1914                      .dwattr $C$DW$173, DW_AT_type(*$C$DW$T$48)
    1915                      .dwattr $C$DW$173, DW_AT_location[DW_OP_bregx 0x24 0]
    1916              $C$DW$174       .dwtag  DW_TAG_variable, DW_AT_name("eReturn")
    1917                      .dwattr $C$DW$174, DW_AT_TI_symbol_name("_eReturn")
    1918                      .dwattr $C$DW$174, DW_AT_type(*$C$DW$T$46)
    1919                      .dwattr $C$DW$174, DW_AT_location[DW_OP_bregx 0x24 2]
    1920              $C$DW$175       .dwtag  DW_TAG_variable, DW_AT_name("pxStateList")
    1921                      .dwattr $C$DW$175, DW_AT_TI_symbol_name("_pxStateList")
    1922                      .dwattr $C$DW$175, DW_AT_type(*$C$DW$T$129)
    1923                      .dwattr $C$DW$175, DW_AT_location[DW_OP_bregx 0x24 4]
    1924              $C$DW$176       .dwtag  DW_TAG_variable, DW_AT_name("pxDelayedList")
    1925                      .dwattr $C$DW$176, DW_AT_TI_symbol_name("_pxDelayedList")
    1926                      .dwattr $C$DW$176, DW_AT_type(*$C$DW$T$129)
    1927                      .dwattr $C$DW$176, DW_AT_location[DW_OP_bregx 0x24 6]
    1928              $C$DW$177       .dwtag  DW_TAG_variable, DW_AT_name("pxOverflowedDelayedList")
    1929                      .dwattr $C$DW$177, DW_AT_TI_symbol_name("_pxOverflowedDelayedList")
    1930                      .dwattr $C$DW$177, DW_AT_type(*$C$DW$T$129)
    1931                      .dwattr $C$DW$177, DW_AT_location[DW_OP_bregx 0x24 8]
    1932              $C$DW$178       .dwtag  DW_TAG_variable, DW_AT_name("pxTCB")
    1933                      .dwattr $C$DW$178, DW_AT_TI_symbol_name("_pxTCB")
    1934                      .dwattr $C$DW$178, DW_AT_type(*$C$DW$T$158)
    1935                      .dwattr $C$DW$178, DW_AT_location[DW_OP_bregx 0x24 10]
    1936 000572 EB00          MOV XAR0, dbl(*SP(#0))
         000574 85   
TMS320C55x Assembler PC v4.4.1 Tue Oct 02 02:33:57 2018

Tools Copyright (c) 1996-2012 Texas Instruments Incorporated
tasks_sysStk.asm                                                     PAGE   43

    1937                      .dwpsn  file "../FreeRTOS/Source/tasks_sysStk.c",line 1389,column 22,is_stmt
    1938 000575 ED00          MOV dbl(*SP(#0)), XAR3
         000577 BF   
    1939 000578 EB14          MOV XAR3, dbl(*SP(#10))
         00057a B5   
    1940                      .dwpsn  file "../FreeRTOS/Source/tasks_sysStk.c",line 1391,column 3,is_stmt
    1941 00057b 90B0          MOV XAR3, AC0
    1942 00057d 6290          BCC $C$L55,AC0 != #0 ; |1391| 
    1943                                                      ; branchcc occurs ; |1391| 
    1944 00057f 20     nop
    1945 000580 46B3   bset INTM
    1946 000582       $C$L54:    
    1947 000582       $C$DW$L$_eTaskGetState$3$B:
    1948 000582 4A7E          B $C$L54  ; |1391| 
    1949                                                      ; branch occurs ; |1391| 
    1950 000584       $C$DW$L$_eTaskGetState$3$E:
    1951 000584       $C$L55:    
    1952                      .dwpsn  file "../FreeRTOS/Source/tasks_sysStk.c",line 1393,column 3,is_stmt
    1953 000584 ED31          MOV dbl(*(#_pxCurrentTCB)), XAR3
         000586 BF00 
         000588 0004-
    1954 00058a 90B0          MOV XAR3, AC0
    1955 00058c ED14          MOV dbl(*SP(#10)), XAR3
         00058e BF   
    1956 00058f 90B1          MOV XAR3, AC1
    1957 000591 121C          CMPU AC1 != AC0, TC1 ; |1393| 
         000593 04   
    1958 000594 6364          BCC $C$L56,TC1 ; |1393| 
    1959                                                      ; branchcc occurs ; |1393| 
    1960                      .dwpsn  file "../FreeRTOS/Source/tasks_sysStk.c",line 1396,column 4,is_stmt
    1961 000596 E604          MOV #0, *SP(#2) ; |1396| 
         000598 00   
    1962                      .dwpsn  file "../FreeRTOS/Source/tasks_sysStk.c",line 1397,column 3,is_stmt
    1963 000599 0600          B $C$L65  ; |1397| 
         00059b B1   
    1964                                                      ; branch occurs ; |1397| 
    1965 00059c       $C$L56:    
    1966                      .dwpsn  file "../FreeRTOS/Source/tasks_sysStk.c",line 1400,column 4,is_stmt
    1967 00059c 20     nop
    1968 00059d 46B3   bset INTM
    1969 00059f F731          ADD #1, *(#_usCriticalNesting) ; |1400| 
         0005a1 0001 
         0005a3 0000 
         0005a5 00!  
    1970 0005a6 20            NOP
    1971                      .dwpsn  file "../FreeRTOS/Source/tasks_sysStk.c",line 1402,column 5,is_stmt
    1972 0005a7 ED6D          MOV dbl(*AR3(#12)), XAR3
         0005a9 BF00 
         0005ab 0C   
    1973 0005ac EB08          MOV XAR3, dbl(*SP(#4))
         0005ae B5   
    1974                      .dwpsn  file "../FreeRTOS/Source/tasks_sysStk.c",line 1403,column 5,is_stmt
    1975 0005af ED31          MOV dbl(*(#_pxDelayedTaskList)), XAR3
         0005b1 BF00 
         0005b3 004C-
TMS320C55x Assembler PC v4.4.1 Tue Oct 02 02:33:57 2018

Tools Copyright (c) 1996-2012 Texas Instruments Incorporated
tasks_sysStk.asm                                                     PAGE   44

    1976 0005b5 EB0C          MOV XAR3, dbl(*SP(#6))
         0005b7 B5   
    1977                      .dwpsn  file "../FreeRTOS/Source/tasks_sysStk.c",line 1404,column 5,is_stmt
    1978 0005b8 ED31          MOV dbl(*(#_pxOverflowDelayedTaskList)), XAR3
         0005ba BF00 
         0005bc 004E-
    1979 0005be EB10          MOV XAR3, dbl(*SP(#8))
         0005c0 B5   
    1980                      .dwpsn  file "../FreeRTOS/Source/tasks_sysStk.c",line 1406,column 4,is_stmt
    1981 0005c1 A931          MOV *(#_usCriticalNesting), AR1 ; |1406| 
         0005c3 0000 
         0005c5 00!  
    1982 0005c6 0409          BCC $C$L57,AR1 == #0 ; |1406| 
         0005c8 14   
    1983                                                      ; branchcc occurs ; |1406| 
    1984 0005c9 F731          SUB #1, *(#_usCriticalNesting) ; |1406| 
         0005cb FFFF 
         0005cd 0000 
         0005cf 00!  
    1985 0005d0 20            NOP
    1986 0005d1 20            NOP
    1987 0005d2 20            NOP
    1988 0005d3 A931          MOV *(#_usCriticalNesting), AR1 ; |1406| 
         0005d5 0000 
         0005d7 00!  
    1989 0005d8 6199          BCC $C$L57,AR1 != #0 ; |1406| 
    1990                                                      ; branchcc occurs ; |1406| 
    1991 0005da 20     nop
    1992 0005db 46B2   bclr INTM
    1993 0005dd       $C$L57:    
    1994                      .dwpsn  file "../FreeRTOS/Source/tasks_sysStk.c",line 1408,column 4,is_stmt
    1995 0005dd ED0C          MOV dbl(*SP(#6)), XAR3
         0005df BF   
    1996 0005e0 90B0          MOV XAR3, AC0
    1997 0005e2 ED08          MOV dbl(*SP(#4)), XAR3
         0005e4 BF   
    1998 0005e5 90B1          MOV XAR3, AC1
    1999 0005e7 1210          CMPU AC1 == AC0, TC1 ; |1408| 
         0005e9 04   
    2000 0005ea 6564          BCC $C$L58,TC1 ; |1408| 
    2001                                                      ; branchcc occurs ; |1408| 
    2002 0005ec ED10          MOV dbl(*SP(#8)), XAR3
         0005ee BF   
    2003 0005ef 90B0          MOV XAR3, AC0
    2004 0005f1 121C          CMPU AC1 != AC0, TC1 ; |1408| 
         0005f3 04   
    2005 0005f4 6364          BCC $C$L59,TC1 ; |1408| 
    2006                                                      ; branchcc occurs ; |1408| 
    2007 0005f6       $C$L58:    
    2008                      .dwpsn  file "../FreeRTOS/Source/tasks_sysStk.c",line 1412,column 5,is_stmt
    2009 0005f6 E604          MOV #2, *SP(#2) ; |1412| 
         0005f8 02   
    2010                      .dwpsn  file "../FreeRTOS/Source/tasks_sysStk.c",line 1413,column 4,is_stmt
    2011 0005f9 0600          B $C$L65  ; |1413| 
         0005fb 51   
TMS320C55x Assembler PC v4.4.1 Tue Oct 02 02:33:57 2018

Tools Copyright (c) 1996-2012 Texas Instruments Incorporated
tasks_sysStk.asm                                                     PAGE   45

    2012                                                      ; branch occurs ; |1413| 
    2013 0005fc       $C$L59:    
    2014                      .dwpsn  file "../FreeRTOS/Source/tasks_sysStk.c",line 1416,column 10,is_stmt
    2015 0005fc EC31          AMOV #_xSuspendedTaskList, XAR3 ; |1416| 
         0005fe BE00 
         000600 0066-
    2016 000602 90B0          MOV XAR3, AC0
    2017 000604 121C          CMPU AC1 != AC0, TC1 ; |1416| 
         000606 04   
    2018 000607 0464          BCC $C$L62,TC1 ; |1416| 
         000609 27   
    2019                                                      ; branchcc occurs ; |1416| 
    2020                      .dwpsn  file "../FreeRTOS/Source/tasks_sysStk.c",line 1421,column 6,is_stmt
    2021 00060a ED14          MOV dbl(*SP(#10)), XAR3
         00060c BF   
    2022 00060d ED6D          MOV dbl(*AR3(#22)), XAR3
         00060f BF00 
         000611 16   
    2023 000612 90B0          MOV XAR3, AC0
    2024 000614 0410          BCC $C$L61,AC0 != #0 ; |1421| 
         000616 15   
    2025                                                      ; branchcc occurs ; |1421| 
    2026                      .dwpsn  file "../FreeRTOS/Source/tasks_sysStk.c",line 1429,column 8,is_stmt
    2027 000617 ED14          MOV dbl(*SP(#10)), XAR3
         000619 BF   
    2028 00061a F06D          CMP *AR3(#48) == #1, TC1 ; |1429| 
         00061c 0001 
         00061e 0030 
    2029 000620 62F4          BCC $C$L60,!TC1 ; |1429| 
    2030                                                      ; branchcc occurs ; |1429| 
    2031                      .dwpsn  file "../FreeRTOS/Source/tasks_sysStk.c",line 1431,column 9,is_stmt
    2032 000622 E604          MOV #2, *SP(#2) ; |1431| 
         000624 02   
    2033                      .dwpsn  file "../FreeRTOS/Source/tasks_sysStk.c",line 1432,column 8,is_stmt
    2034 000625 4A26          B $C$L65  ; |1432| 
    2035                                                      ; branch occurs ; |1432| 
    2036 000627       $C$L60:    
    2037                      .dwpsn  file "../FreeRTOS/Source/tasks_sysStk.c",line 1435,column 9,is_stmt
    2038 000627 E604          MOV #3, *SP(#2) ; |1435| 
         000629 03   
    2039                      .dwpsn  file "../FreeRTOS/Source/tasks_sysStk.c",line 1443,column 6,is_stmt
    2040 00062a 4A21          B $C$L65  ; |1443| 
    2041                                                      ; branch occurs ; |1443| 
    2042 00062c       $C$L61:    
    2043                      .dwpsn  file "../FreeRTOS/Source/tasks_sysStk.c",line 1446,column 7,is_stmt
    2044 00062c E604          MOV #2, *SP(#2) ; |1446| 
         00062e 02   
    2045                      .dwpsn  file "../FreeRTOS/Source/tasks_sysStk.c",line 1448,column 5,is_stmt
    2046 00062f 4A1C          B $C$L65  ; |1448| 
    2047                                                      ; branch occurs ; |1448| 
    2048 000631       $C$L62:    
    2049                      .dwpsn  file "../FreeRTOS/Source/tasks_sysStk.c",line 1452,column 10,is_stmt
    2050 000631 EC31          AMOV #_xTasksWaitingTermination, XAR3 ; |1452| 
         000633 BE00 
         000635 005A-
TMS320C55x Assembler PC v4.4.1 Tue Oct 02 02:33:57 2018

Tools Copyright (c) 1996-2012 Texas Instruments Incorporated
tasks_sysStk.asm                                                     PAGE   46

    2051 000637 90B0          MOV XAR3, AC0
    2052 000639 1210          CMPU AC1 == AC0, TC1 ; |1452| 
         00063b 04   
    2053 00063c ED08          MOV dbl(*SP(#4)), XAR3
         00063e BF   
    2054 00063f 6264          BCC $C$L63,TC1 ; |1452| 
    2055                                                      ; branchcc occurs ; |1452| 
    2056 000641 90B0          MOV XAR3, AC0
    2057 000643 6290          BCC $C$L64,AC0 != #0 ; |1452| 
    2058                                                      ; branchcc occurs ; |1452| 
    2059 000645       $C$L63:    
    2060                      .dwpsn  file "../FreeRTOS/Source/tasks_sysStk.c",line 1457,column 6,is_stmt
    2061 000645 E604          MOV #4, *SP(#2) ; |1457| 
         000647 04   
    2062                      .dwpsn  file "../FreeRTOS/Source/tasks_sysStk.c",line 1458,column 5,is_stmt
    2063 000648 4A03          B $C$L65  ; |1458| 
    2064                                                      ; branch occurs ; |1458| 
    2065 00064a       $C$L64:    
    2066                      .dwpsn  file "../FreeRTOS/Source/tasks_sysStk.c",line 1465,column 5,is_stmt
    2067 00064a E604          MOV #1, *SP(#2) ; |1465| 
         00064c 01   
    2068 00064d       $C$L65:    
    2069                      .dwpsn  file "../FreeRTOS/Source/tasks_sysStk.c",line 1469,column 3,is_stmt
    2070 00064d A404          MOV *SP(#2), T0 ; |1469| 
    2071                      .dwpsn  file "../FreeRTOS/Source/tasks_sysStk.c",line 1470,column 2,is_stmt
    2072 00064f 4E0D          AADD #13, SP
    2073                      .dwcfi  cfa_offset, 1
    2074              $C$DW$179       .dwtag  DW_TAG_TI_branch
    2075                      .dwattr $C$DW$179, DW_AT_low_pc(0x00)
    2076                      .dwattr $C$DW$179, DW_AT_TI_return
    2077 000651 4804          RET
    2078                                                      ; return occurs
    2079              
    2080              $C$DW$180       .dwtag  DW_TAG_TI_loop
    2081                      .dwattr $C$DW$180, DW_AT_name("F:\eZdsp-DBG-sim\tmp1\c55x-sim2\foo\Debug\tasks_sysStk.asm:$C$L54:1:15
    2082                      .dwattr $C$DW$180, DW_AT_TI_begin_file("../FreeRTOS/Source/tasks_sysStk.c")
    2083                      .dwattr $C$DW$180, DW_AT_TI_begin_line(0x56f)
    2084                      .dwattr $C$DW$180, DW_AT_TI_end_line(0x56f)
    2085              $C$DW$181       .dwtag  DW_TAG_TI_loop_range
    2086                      .dwattr $C$DW$181, DW_AT_low_pc($C$DW$L$_eTaskGetState$3$B)
    2087                      .dwattr $C$DW$181, DW_AT_high_pc($C$DW$L$_eTaskGetState$3$E)
    2088                      .dwendtag $C$DW$180
    2089              
    2090                      .dwattr $C$DW$171, DW_AT_TI_end_file("../FreeRTOS/Source/tasks_sysStk.c")
    2091                      .dwattr $C$DW$171, DW_AT_TI_end_line(0x5be)
    2092                      .dwattr $C$DW$171, DW_AT_TI_end_column(0x02)
    2093                      .dwendentry
    2094                      .dwendtag $C$DW$171
    2095              
    2096 000653               .sect   ".text"
    2097                      .align 4
    2098                      .global _uxTaskPriorityGet
    2099              
    2100              $C$DW$182       .dwtag  DW_TAG_subprogram, DW_AT_name("uxTaskPriorityGet")
    2101                      .dwattr $C$DW$182, DW_AT_low_pc(_uxTaskPriorityGet)
TMS320C55x Assembler PC v4.4.1 Tue Oct 02 02:33:57 2018

Tools Copyright (c) 1996-2012 Texas Instruments Incorporated
tasks_sysStk.asm                                                     PAGE   47

    2102                      .dwattr $C$DW$182, DW_AT_high_pc(0x00)
    2103                      .dwattr $C$DW$182, DW_AT_TI_symbol_name("_uxTaskPriorityGet")
    2104                      .dwattr $C$DW$182, DW_AT_external
    2105                      .dwattr $C$DW$182, DW_AT_type(*$C$DW$T$25)
    2106                      .dwattr $C$DW$182, DW_AT_TI_begin_file("../FreeRTOS/Source/tasks_sysStk.c")
    2107                      .dwattr $C$DW$182, DW_AT_TI_begin_line(0x5c5)
    2108                      .dwattr $C$DW$182, DW_AT_TI_begin_column(0x0e)
    2109                      .dwattr $C$DW$182, DW_AT_TI_max_frame_size(0x06)
    2110                      .dwpsn  file "../FreeRTOS/Source/tasks_sysStk.c",line 1478,column 2,is_stmt,address _uxTaskPriorityGe
    2111              
    2112                      .dwfde $C$DW$CIE, _uxTaskPriorityGet
    2113              $C$DW$183       .dwtag  DW_TAG_formal_parameter, DW_AT_name("xTask")
    2114                      .dwattr $C$DW$183, DW_AT_TI_symbol_name("_xTask")
    2115                      .dwattr $C$DW$183, DW_AT_type(*$C$DW$T$107)
    2116                      .dwattr $C$DW$183, DW_AT_location[DW_OP_reg17]
    2117              ;*******************************************************************************
    2118              ;* FUNCTION NAME: uxTaskPriorityGet                                            *
    2119              ;*                                                                             *
    2120              ;*   Function Uses Regs : AC0,AC0,T0,AR0,XAR0,AR1,AR3,XAR3,SP,CARRY,M40,SATA,  *
    2121              ;*                        SATD,RDM,FRCT,SMUL                                   *
    2122              ;*   Stack Frame        : Compact (No Frame Pointer, w/ debug)                 *
    2123              ;*   Total Frame Size   : 6 words                                              *
    2124              ;*                        (1 return address/alignment)                         *
    2125              ;*                        (5 local values)                                     *
    2126              ;*   Min System Stack   : 1 word                                               *
    2127              ;*******************************************************************************
    2128 000654       _uxTaskPriorityGet:
    2129                      .dwcfi  cfa_offset, 1
    2130                      .dwcfi  save_reg_to_mem, 91, -1
    2131 000654 4EFB          AADD #-5, SP
    2132                      .dwcfi  cfa_offset, 6
    2133              $C$DW$184       .dwtag  DW_TAG_variable, DW_AT_name("xTask")
    2134                      .dwattr $C$DW$184, DW_AT_TI_symbol_name("_xTask")
    2135                      .dwattr $C$DW$184, DW_AT_type(*$C$DW$T$107)
    2136                      .dwattr $C$DW$184, DW_AT_location[DW_OP_bregx 0x24 0]
    2137              $C$DW$185       .dwtag  DW_TAG_variable, DW_AT_name("pxTCB")
    2138                      .dwattr $C$DW$185, DW_AT_TI_symbol_name("_pxTCB")
    2139                      .dwattr $C$DW$185, DW_AT_type(*$C$DW$T$157)
    2140                      .dwattr $C$DW$185, DW_AT_location[DW_OP_bregx 0x24 2]
    2141              $C$DW$186       .dwtag  DW_TAG_variable, DW_AT_name("uxReturn")
    2142                      .dwattr $C$DW$186, DW_AT_TI_symbol_name("_uxReturn")
    2143                      .dwattr $C$DW$186, DW_AT_type(*$C$DW$T$25)
    2144                      .dwattr $C$DW$186, DW_AT_location[DW_OP_bregx 0x24 4]
    2145 000656 EB00          MOV XAR0, dbl(*SP(#0))
         000658 85   
    2146                      .dwpsn  file "../FreeRTOS/Source/tasks_sysStk.c",line 1482,column 3,is_stmt
    2147 000659 20     nop
    2148 00065a 46B3   bset INTM
    2149 00065c F731          ADD #1, *(#_usCriticalNesting) ; |1482| 
         00065e 0001 
         000660 0000 
         000662 00!  
    2150                      .dwpsn  file "../FreeRTOS/Source/tasks_sysStk.c",line 1486,column 4,is_stmt
    2151 000663 ED00          MOV dbl(*SP(#0)), XAR3
         000665 BF   
TMS320C55x Assembler PC v4.4.1 Tue Oct 02 02:33:57 2018

Tools Copyright (c) 1996-2012 Texas Instruments Incorporated
tasks_sysStk.asm                                                     PAGE   48

    2152 000666 90B0          MOV XAR3, AC0
    2153 000668 6310          BCC $C$L66,AC0 != #0 ; |1486| 
    2154                                                      ; branchcc occurs ; |1486| 
    2155 00066a ED31          MOV dbl(*(#_pxCurrentTCB)), XAR3
         00066c BF00 
         00066e 0004-
    2156 000670       $C$L66:    
    2157 000670 EB04          MOV XAR3, dbl(*SP(#2))
         000672 B5   
    2158                      .dwpsn  file "../FreeRTOS/Source/tasks_sysStk.c",line 1487,column 4,is_stmt
    2159 000673 A96D          MOV *AR3(#24), AR1 ; |1487| 
         000675 0018 
    2160 000677 C908          MOV AR1, *SP(#4) ; |1487| 
    2161                      .dwpsn  file "../FreeRTOS/Source/tasks_sysStk.c",line 1489,column 3,is_stmt
    2162 000679 A931          MOV *(#_usCriticalNesting), AR1 ; |1489| 
         00067b 0000 
         00067d 00!  
    2163 00067e 0409          BCC $C$L67,AR1 == #0 ; |1489| 
         000680 14   
    2164                                                      ; branchcc occurs ; |1489| 
    2165 000681 F731          SUB #1, *(#_usCriticalNesting) ; |1489| 
         000683 FFFF 
         000685 0000 
         000687 00!  
    2166 000688 20            NOP
    2167 000689 20            NOP
    2168 00068a 20            NOP
    2169 00068b A931          MOV *(#_usCriticalNesting), AR1 ; |1489| 
         00068d 0000 
         00068f 00!  
    2170 000690 6199          BCC $C$L67,AR1 != #0 ; |1489| 
    2171                                                      ; branchcc occurs ; |1489| 
    2172 000692 20     nop
    2173 000693 46B2   bclr INTM
    2174 000695       $C$L67:    
    2175                      .dwpsn  file "../FreeRTOS/Source/tasks_sysStk.c",line 1491,column 3,is_stmt
    2176 000695 A408          MOV *SP(#4), T0 ; |1491| 
    2177                      .dwpsn  file "../FreeRTOS/Source/tasks_sysStk.c",line 1492,column 2,is_stmt
    2178 000697 4E05          AADD #5, SP
    2179                      .dwcfi  cfa_offset, 1
    2180              $C$DW$187       .dwtag  DW_TAG_TI_branch
    2181                      .dwattr $C$DW$187, DW_AT_low_pc(0x00)
    2182                      .dwattr $C$DW$187, DW_AT_TI_return
    2183 000699 4804          RET
    2184                                                      ; return occurs
    2185                      .dwattr $C$DW$182, DW_AT_TI_end_file("../FreeRTOS/Source/tasks_sysStk.c")
    2186                      .dwattr $C$DW$182, DW_AT_TI_end_line(0x5d4)
    2187                      .dwattr $C$DW$182, DW_AT_TI_end_column(0x02)
    2188                      .dwendentry
    2189                      .dwendtag $C$DW$182
    2190              
    2191 00069b               .sect   ".text"
    2192                      .align 4
    2193                      .global _uxTaskPriorityGetFromISR
    2194              
TMS320C55x Assembler PC v4.4.1 Tue Oct 02 02:33:57 2018

Tools Copyright (c) 1996-2012 Texas Instruments Incorporated
tasks_sysStk.asm                                                     PAGE   49

    2195              $C$DW$188       .dwtag  DW_TAG_subprogram, DW_AT_name("uxTaskPriorityGetFromISR")
    2196                      .dwattr $C$DW$188, DW_AT_low_pc(_uxTaskPriorityGetFromISR)
    2197                      .dwattr $C$DW$188, DW_AT_high_pc(0x00)
    2198                      .dwattr $C$DW$188, DW_AT_TI_symbol_name("_uxTaskPriorityGetFromISR")
    2199                      .dwattr $C$DW$188, DW_AT_external
    2200                      .dwattr $C$DW$188, DW_AT_type(*$C$DW$T$25)
    2201                      .dwattr $C$DW$188, DW_AT_TI_begin_file("../FreeRTOS/Source/tasks_sysStk.c")
    2202                      .dwattr $C$DW$188, DW_AT_TI_begin_line(0x5db)
    2203                      .dwattr $C$DW$188, DW_AT_TI_begin_column(0x0e)
    2204                      .dwattr $C$DW$188, DW_AT_TI_max_frame_size(0x08)
    2205                      .dwpsn  file "../FreeRTOS/Source/tasks_sysStk.c",line 1500,column 2,is_stmt,address _uxTaskPriorityGe
    2206              
    2207                      .dwfde $C$DW$CIE, _uxTaskPriorityGetFromISR
    2208              $C$DW$189       .dwtag  DW_TAG_formal_parameter, DW_AT_name("xTask")
    2209                      .dwattr $C$DW$189, DW_AT_TI_symbol_name("_xTask")
    2210                      .dwattr $C$DW$189, DW_AT_type(*$C$DW$T$107)
    2211                      .dwattr $C$DW$189, DW_AT_location[DW_OP_reg17]
    2212              ;*******************************************************************************
    2213              ;* FUNCTION NAME: uxTaskPriorityGetFromISR                                     *
    2214              ;*                                                                             *
    2215              ;*   Function Uses Regs : AC0,AC0,T0,AR0,XAR0,AR1,AR3,XAR3,SP,M40,SATA,SATD,   *
    2216              ;*                        RDM,FRCT,SMUL                                        *
    2217              ;*   Stack Frame        : Compact (No Frame Pointer, w/ debug)                 *
    2218              ;*   Total Frame Size   : 8 words                                              *
    2219              ;*                        (2 return address/alignment)                         *
    2220              ;*                        (6 local values)                                     *
    2221              ;*   Min System Stack   : 1 word                                               *
    2222              ;*******************************************************************************
    2223 00069c       _uxTaskPriorityGetFromISR:
    2224                      .dwcfi  cfa_offset, 1
    2225                      .dwcfi  save_reg_to_mem, 91, -1
    2226 00069c 4EF9          AADD #-7, SP
    2227                      .dwcfi  cfa_offset, 8
    2228              $C$DW$190       .dwtag  DW_TAG_variable, DW_AT_name("xTask")
    2229                      .dwattr $C$DW$190, DW_AT_TI_symbol_name("_xTask")
    2230                      .dwattr $C$DW$190, DW_AT_type(*$C$DW$T$107)
    2231                      .dwattr $C$DW$190, DW_AT_location[DW_OP_bregx 0x24 0]
    2232              $C$DW$191       .dwtag  DW_TAG_variable, DW_AT_name("pxTCB")
    2233                      .dwattr $C$DW$191, DW_AT_TI_symbol_name("_pxTCB")
    2234                      .dwattr $C$DW$191, DW_AT_type(*$C$DW$T$157)
    2235                      .dwattr $C$DW$191, DW_AT_location[DW_OP_bregx 0x24 2]
    2236              $C$DW$192       .dwtag  DW_TAG_variable, DW_AT_name("uxReturn")
    2237                      .dwattr $C$DW$192, DW_AT_TI_symbol_name("_uxReturn")
    2238                      .dwattr $C$DW$192, DW_AT_type(*$C$DW$T$25)
    2239                      .dwattr $C$DW$192, DW_AT_location[DW_OP_bregx 0x24 4]
    2240              $C$DW$193       .dwtag  DW_TAG_variable, DW_AT_name("uxSavedInterruptState")
    2241                      .dwattr $C$DW$193, DW_AT_TI_symbol_name("_uxSavedInterruptState")
    2242                      .dwattr $C$DW$193, DW_AT_type(*$C$DW$T$25)
    2243                      .dwattr $C$DW$193, DW_AT_location[DW_OP_bregx 0x24 5]
    2244 00069e EB00          MOV XAR0, dbl(*SP(#0))
         0006a0 85   
    2245                      .dwpsn  file "../FreeRTOS/Source/tasks_sysStk.c",line 1522,column 3,is_stmt
    2246 0006a1 E60A          MOV #0, *SP(#5) ; |1522| 
         0006a3 00   
    2247                      .dwpsn  file "../FreeRTOS/Source/tasks_sysStk.c",line 1526,column 4,is_stmt
TMS320C55x Assembler PC v4.4.1 Tue Oct 02 02:33:57 2018

Tools Copyright (c) 1996-2012 Texas Instruments Incorporated
tasks_sysStk.asm                                                     PAGE   50

    2248 0006a4 ED00          MOV dbl(*SP(#0)), XAR3
         0006a6 BF   
    2249 0006a7 90B0          MOV XAR3, AC0
    2250 0006a9 6310          BCC $C$L68,AC0 != #0 ; |1526| 
    2251                                                      ; branchcc occurs ; |1526| 
    2252 0006ab ED31          MOV dbl(*(#_pxCurrentTCB)), XAR3
         0006ad BF00 
         0006af 0004-
    2253 0006b1       $C$L68:    
    2254 0006b1 EB04          MOV XAR3, dbl(*SP(#2))
         0006b3 B5   
    2255                      .dwpsn  file "../FreeRTOS/Source/tasks_sysStk.c",line 1527,column 4,is_stmt
    2256 0006b4 A96D          MOV *AR3(#24), AR1 ; |1527| 
         0006b6 0018 
    2257 0006b8 C908          MOV AR1, *SP(#4) ; |1527| 
    2258                      .dwpsn  file "../FreeRTOS/Source/tasks_sysStk.c",line 1529,column 3,is_stmt
    2259                      .dwpsn  file "../FreeRTOS/Source/tasks_sysStk.c",line 1531,column 3,is_stmt
    2260 0006ba 2294          MOV AR1, T0
    2261                      .dwpsn  file "../FreeRTOS/Source/tasks_sysStk.c",line 1532,column 2,is_stmt
    2262 0006bc 4E07          AADD #7, SP
    2263                      .dwcfi  cfa_offset, 1
    2264              $C$DW$194       .dwtag  DW_TAG_TI_branch
    2265                      .dwattr $C$DW$194, DW_AT_low_pc(0x00)
    2266                      .dwattr $C$DW$194, DW_AT_TI_return
    2267 0006be 4804          RET
    2268                                                      ; return occurs
    2269                      .dwattr $C$DW$188, DW_AT_TI_end_file("../FreeRTOS/Source/tasks_sysStk.c")
    2270                      .dwattr $C$DW$188, DW_AT_TI_end_line(0x5fc)
    2271                      .dwattr $C$DW$188, DW_AT_TI_end_column(0x02)
    2272                      .dwendentry
    2273                      .dwendtag $C$DW$188
    2274              
    2275 0006c0               .sect   ".text"
    2276                      .align 4
    2277                      .global _vTaskPrioritySet
    2278              
    2279              $C$DW$195       .dwtag  DW_TAG_subprogram, DW_AT_name("vTaskPrioritySet")
    2280                      .dwattr $C$DW$195, DW_AT_low_pc(_vTaskPrioritySet)
    2281                      .dwattr $C$DW$195, DW_AT_high_pc(0x00)
    2282                      .dwattr $C$DW$195, DW_AT_TI_symbol_name("_vTaskPrioritySet")
    2283                      .dwattr $C$DW$195, DW_AT_external
    2284                      .dwattr $C$DW$195, DW_AT_TI_begin_file("../FreeRTOS/Source/tasks_sysStk.c")
    2285                      .dwattr $C$DW$195, DW_AT_TI_begin_line(0x603)
    2286                      .dwattr $C$DW$195, DW_AT_TI_begin_column(0x07)
    2287                      .dwattr $C$DW$195, DW_AT_TI_max_frame_size(0x0a)
    2288                      .dwpsn  file "../FreeRTOS/Source/tasks_sysStk.c",line 1540,column 2,is_stmt,address _vTaskPrioritySet
    2289              
    2290                      .dwfde $C$DW$CIE, _vTaskPrioritySet
    2291              $C$DW$196       .dwtag  DW_TAG_formal_parameter, DW_AT_name("xTask")
    2292                      .dwattr $C$DW$196, DW_AT_TI_symbol_name("_xTask")
    2293                      .dwattr $C$DW$196, DW_AT_type(*$C$DW$T$48)
    2294                      .dwattr $C$DW$196, DW_AT_location[DW_OP_reg17]
    2295              $C$DW$197       .dwtag  DW_TAG_formal_parameter, DW_AT_name("uxNewPriority")
    2296                      .dwattr $C$DW$197, DW_AT_TI_symbol_name("_uxNewPriority")
    2297                      .dwattr $C$DW$197, DW_AT_type(*$C$DW$T$25)
TMS320C55x Assembler PC v4.4.1 Tue Oct 02 02:33:57 2018

Tools Copyright (c) 1996-2012 Texas Instruments Incorporated
tasks_sysStk.asm                                                     PAGE   51

    2298                      .dwattr $C$DW$197, DW_AT_location[DW_OP_reg12]
    2299              ;*******************************************************************************
    2300              ;* FUNCTION NAME: vTaskPrioritySet                                             *
    2301              ;*                                                                             *
    2302              ;*   Function Uses Regs : AC0,AC0,AC1,AC1,T0,AR0,XAR0,AR1,XAR1,AR2,XAR2,AR3,   *
    2303              ;*                        XAR3,SP,CARRY,TC1,M40,SATA,SATD,RDM,FRCT,SMUL        *
    2304              ;*   Stack Frame        : Compact (No Frame Pointer, w/ debug)                 *
    2305              ;*   Total Frame Size   : 10 words                                             *
    2306              ;*                        (1 return address/alignment)                         *
    2307              ;*                        (9 local values)                                     *
    2308              ;*   Min System Stack   : 1 word                                               *
    2309              ;*******************************************************************************
    2310 0006c0       _vTaskPrioritySet:
    2311                      .dwcfi  cfa_offset, 1
    2312                      .dwcfi  save_reg_to_mem, 91, -1
    2313 0006c0 4EF7          AADD #-9, SP
    2314                      .dwcfi  cfa_offset, 10
    2315              $C$DW$198       .dwtag  DW_TAG_variable, DW_AT_name("xTask")
    2316                      .dwattr $C$DW$198, DW_AT_TI_symbol_name("_xTask")
    2317                      .dwattr $C$DW$198, DW_AT_type(*$C$DW$T$48)
    2318                      .dwattr $C$DW$198, DW_AT_location[DW_OP_bregx 0x24 0]
    2319              $C$DW$199       .dwtag  DW_TAG_variable, DW_AT_name("uxNewPriority")
    2320                      .dwattr $C$DW$199, DW_AT_TI_symbol_name("_uxNewPriority")
    2321                      .dwattr $C$DW$199, DW_AT_type(*$C$DW$T$25)
    2322                      .dwattr $C$DW$199, DW_AT_location[DW_OP_bregx 0x24 2]
    2323              $C$DW$200       .dwtag  DW_TAG_variable, DW_AT_name("pxTCB")
    2324                      .dwattr $C$DW$200, DW_AT_TI_symbol_name("_pxTCB")
    2325                      .dwattr $C$DW$200, DW_AT_type(*$C$DW$T$83)
    2326                      .dwattr $C$DW$200, DW_AT_location[DW_OP_bregx 0x24 4]
    2327              $C$DW$201       .dwtag  DW_TAG_variable, DW_AT_name("uxCurrentBasePriority")
    2328                      .dwattr $C$DW$201, DW_AT_TI_symbol_name("_uxCurrentBasePriority")
    2329                      .dwattr $C$DW$201, DW_AT_type(*$C$DW$T$25)
    2330                      .dwattr $C$DW$201, DW_AT_location[DW_OP_bregx 0x24 6]
    2331              $C$DW$202       .dwtag  DW_TAG_variable, DW_AT_name("uxPriorityUsedOnEntry")
    2332                      .dwattr $C$DW$202, DW_AT_TI_symbol_name("_uxPriorityUsedOnEntry")
    2333                      .dwattr $C$DW$202, DW_AT_type(*$C$DW$T$25)
    2334                      .dwattr $C$DW$202, DW_AT_location[DW_OP_bregx 0x24 7]
    2335              $C$DW$203       .dwtag  DW_TAG_variable, DW_AT_name("xYieldRequired")
    2336                      .dwattr $C$DW$203, DW_AT_TI_symbol_name("_xYieldRequired")
    2337                      .dwattr $C$DW$203, DW_AT_type(*$C$DW$T$43)
    2338                      .dwattr $C$DW$203, DW_AT_location[DW_OP_bregx 0x24 8]
    2339 0006c2 C404          MOV T0, *SP(#2) ; |1540| 
    2340 0006c4 EB00          MOV XAR0, dbl(*SP(#0))
         0006c6 85   
    2341                      .dwpsn  file "../FreeRTOS/Source/tasks_sysStk.c",line 1543,column 13,is_stmt
    2342 0006c7 E610          MOV #0, *SP(#8) ; |1543| 
         0006c9 00   
    2343                      .dwpsn  file "../FreeRTOS/Source/tasks_sysStk.c",line 1545,column 3,is_stmt
    2344              
    2345 0006ca AA04          MOV *SP(#2), AR2 ; |1545| 
    2346 0006cc 3D5B  ||      MOV #5, AR3
    2347              
    2348 0006ce 12A8          CMPU AR2 >= AR3, TC1 ; |1545| 
         0006d0 B4   
    2349              
TMS320C55x Assembler PC v4.4.1 Tue Oct 02 02:33:57 2018

Tools Copyright (c) 1996-2012 Texas Instruments Incorporated
tasks_sysStk.asm                                                     PAGE   52

    2350 0006d1 6164          BCC $C$L69,TC1 ; |1545| 
    2351 0006d3 3D09  ||      MOV #0, AR1
    2352              
    2353                                                      ; branchcc occurs ; |1545| 
    2354 0006d5 3C19          MOV #1, AR1
    2355 0006d7       $C$L69:    
    2356 0006d7 6299          BCC $C$L71,AR1 != #0 ; |1545| 
    2357                                                      ; branchcc occurs ; |1545| 
    2358 0006d9 20     nop
    2359 0006da 46B3   bset INTM
    2360 0006dc       $C$L70:    
    2361 0006dc       $C$DW$L$_vTaskPrioritySet$5$B:
    2362 0006dc 4A7E          B $C$L70  ; |1545| 
    2363                                                      ; branch occurs ; |1545| 
    2364 0006de       $C$DW$L$_vTaskPrioritySet$5$E:
    2365 0006de       $C$L71:    
    2366                      .dwpsn  file "../FreeRTOS/Source/tasks_sysStk.c",line 1548,column 3,is_stmt
    2367              
    2368 0006de A904          MOV *SP(#2), AR1 ; |1548| 
    2369 0006e0 3D5A  ||      MOV #5, AR2
    2370              
    2371 0006e2 1294          CMPU AR1 < AR2, TC1 ; |1548| 
         0006e4 A4   
    2372 0006e5 61E4          BCC $C$L72,TC1 ; |1548| 
    2373                                                      ; branchcc occurs ; |1548| 
    2374                      .dwpsn  file "../FreeRTOS/Source/tasks_sysStk.c",line 1550,column 4,is_stmt
    2375 0006e7 E604          MOV #4, *SP(#2) ; |1550| 
         0006e9 04   
    2376                      .dwpsn  file "../FreeRTOS/Source/tasks_sysStk.c",line 1551,column 3,is_stmt
    2377 0006ea       $C$L72:    
    2378                      .dwpsn  file "../FreeRTOS/Source/tasks_sysStk.c",line 1557,column 3,is_stmt
    2379 0006ea 20     nop
    2380 0006eb 46B3   bset INTM
    2381 0006ed F731          ADD #1, *(#_usCriticalNesting) ; |1557| 
         0006ef 0001 
         0006f1 0000 
         0006f3 00!  
    2382                      .dwpsn  file "../FreeRTOS/Source/tasks_sysStk.c",line 1561,column 4,is_stmt
    2383 0006f4 ED00          MOV dbl(*SP(#0)), XAR3
         0006f6 BF   
    2384 0006f7 90B0          MOV XAR3, AC0
    2385 0006f9 6310          BCC $C$L73,AC0 != #0 ; |1561| 
    2386                                                      ; branchcc occurs ; |1561| 
    2387 0006fb ED31          MOV dbl(*(#_pxCurrentTCB)), XAR3
         0006fd BF00 
         0006ff 0004-
    2388 000701       $C$L73:    
    2389 000701 EB08          MOV XAR3, dbl(*SP(#4))
         000703 B5   
    2390                      .dwpsn  file "../FreeRTOS/Source/tasks_sysStk.c",line 1567,column 5,is_stmt
    2391 000704 A96D          MOV *AR3(#43), AR1 ; |1567| 
         000706 002B 
    2392 000708 C90C          MOV AR1, *SP(#6) ; |1567| 
    2393                      .dwpsn  file "../FreeRTOS/Source/tasks_sysStk.c",line 1575,column 4,is_stmt
    2394 00070a AA0C          MOV *SP(#6), AR2 ; |1575| 
TMS320C55x Assembler PC v4.4.1 Tue Oct 02 02:33:57 2018

Tools Copyright (c) 1996-2012 Texas Instruments Incorporated
tasks_sysStk.asm                                                     PAGE   53

    2395 00070c A904          MOV *SP(#2), AR1 ; |1575| 
    2396 00070e 12A0          CMPU AR2 == AR1, TC1 ; |1575| 
         000710 94   
    2397 000711 6D64          BCC $C$L84,TC1 ; |1575| 
         000713 0105 
    2398                                                      ; branchcc occurs ; |1575| 
    2399                      .dwpsn  file "../FreeRTOS/Source/tasks_sysStk.c",line 1579,column 5,is_stmt
    2400              
    2401 000715 AA04          MOV *SP(#2), AR2 ; |1579| 
    2402 000717 23A9  ||      MOV AR2, AR1
    2403              
    2404 000719 1298          CMPU AR2 <= AR1, TC1 ; |1579| 
         00071b A4   
    2405 00071c 0464          BCC $C$L74,TC1 ; |1579| 
         00071e 28   
    2406                                                      ; branchcc occurs ; |1579| 
    2407                      .dwpsn  file "../FreeRTOS/Source/tasks_sysStk.c",line 1581,column 6,is_stmt
    2408 00071f ED31          MOV dbl(*(#_pxCurrentTCB)), XAR3
         000721 BF00 
         000723 0004-
    2409 000725 90B0          MOV XAR3, AC0
    2410 000727 ED08          MOV dbl(*SP(#4)), XAR3
         000729 BF   
    2411 00072a 90B1          MOV XAR3, AC1
    2412 00072c 1210          CMPU AC1 == AC0, TC1 ; |1581| 
         00072e 04   
    2413 00072f 0464          BCC $C$L75,TC1 ; |1581| 
         000731 2A   
    2414                                                      ; branchcc occurs ; |1581| 
    2415                      .dwpsn  file "../FreeRTOS/Source/tasks_sysStk.c",line 1586,column 7,is_stmt
    2416 000732 ED31          MOV dbl(*(#_pxCurrentTCB)), XAR3
         000734 BF00 
         000736 0004-
    2417 000738 A96D          MOV *AR3(#24), AR1 ; |1586| 
         00073a 0018 
    2418 00073c 12A4          CMPU AR2 < AR1, TC1 ; |1586| 
         00073e 94   
    2419 00073f 0464          BCC $C$L75,TC1 ; |1586| 
         000741 1A   
    2420                                                      ; branchcc occurs ; |1586| 
    2421                      .dwpsn  file "../FreeRTOS/Source/tasks_sysStk.c",line 1588,column 8,is_stmt
    2422 000742 E610          MOV #1, *SP(#8) ; |1588| 
         000744 01   
    2423                      .dwpsn  file "../FreeRTOS/Source/tasks_sysStk.c",line 1589,column 7,is_stmt
    2424 000745 4A15          B $C$L75  ; |1589| 
    2425                                                      ; branch occurs ; |1589| 
    2426 000747       $C$L74:    
    2427                      .dwpsn  file "../FreeRTOS/Source/tasks_sysStk.c",line 1602,column 10,is_stmt
    2428 000747 ED31          MOV dbl(*(#_pxCurrentTCB)), XAR3
         000749 BF00 
         00074b 0004-
    2429 00074d 90B0          MOV XAR3, AC0
    2430 00074f ED08          MOV dbl(*SP(#4)), XAR3
         000751 BF   
    2431 000752 90B1          MOV XAR3, AC1
TMS320C55x Assembler PC v4.4.1 Tue Oct 02 02:33:57 2018

Tools Copyright (c) 1996-2012 Texas Instruments Incorporated
tasks_sysStk.asm                                                     PAGE   54

    2432 000754 121C          CMPU AC1 != AC0, TC1 ; |1602| 
         000756 04   
    2433 000757 61E4          BCC $C$L75,TC1 ; |1602| 
    2434                                                      ; branchcc occurs ; |1602| 
    2435                      .dwpsn  file "../FreeRTOS/Source/tasks_sysStk.c",line 1607,column 6,is_stmt
    2436 000759 E610          MOV #1, *SP(#8) ; |1607| 
         00075b 01   
    2437                      .dwpsn  file "../FreeRTOS/Source/tasks_sysStk.c",line 1608,column 5,is_stmt
    2438 00075c       $C$L75:    
    2439                      .dwpsn  file "../FreeRTOS/Source/tasks_sysStk.c",line 1619,column 5,is_stmt
    2440 00075c ED08          MOV dbl(*SP(#4)), XAR3
         00075e BF   
    2441 00075f A96D          MOV *AR3(#24), AR1 ; |1619| 
         000761 0018 
    2442 000763 C90E          MOV AR1, *SP(#7) ; |1619| 
    2443                      .dwpsn  file "../FreeRTOS/Source/tasks_sysStk.c",line 1625,column 6,is_stmt
    2444 000765 ED08          MOV dbl(*SP(#4)), XAR3
         000767 BF   
    2445 000768 AA6D          MOV *AR3(#43), AR2 ; |1625| 
         00076a 002B 
    2446 00076c A96D          MOV *AR3(#24), AR1 ; |1625| 
         00076e 0018 
    2447 000770 12AC          CMPU AR2 != AR1, TC1 ; |1625| 
         000772 94   
    2448 000773 6364          BCC $C$L76,TC1 ; |1625| 
    2449                                                      ; branchcc occurs ; |1625| 
    2450                      .dwpsn  file "../FreeRTOS/Source/tasks_sysStk.c",line 1627,column 7,is_stmt
    2451 000775 A904          MOV *SP(#2), AR1 ; |1627| 
    2452 000777 C96D          MOV AR1, *AR3(#24) ; |1627| 
         000779 0018 
    2453                      .dwpsn  file "../FreeRTOS/Source/tasks_sysStk.c",line 1628,column 6,is_stmt
    2454 00077b       $C$L76:    
    2455                      .dwpsn  file "../FreeRTOS/Source/tasks_sysStk.c",line 1635,column 6,is_stmt
    2456 00077b ED08          MOV dbl(*SP(#4)), XAR3
         00077d BF   
    2457 00077e A904          MOV *SP(#2), AR1 ; |1635| 
    2458 000780 C96D          MOV AR1, *AR3(#43) ; |1635| 
         000782 002B 
    2459                      .dwpsn  file "../FreeRTOS/Source/tasks_sysStk.c",line 1645,column 5,is_stmt
    2460 000784 ED08          MOV dbl(*SP(#4)), XAR3
         000786 BF   
    2461 000787 7A80          MOV #-32768 << #16, AC0 ; |1645| 
         000789 000A 
    2462 00078b ED6D          MOV dbl(*AR3(#14)), AC1 ; |1645| 
         00078d 1800 
         00078f 0E   
    2463 000790 2810          AND AC1, AC0 ; |1645| 
    2464 000792 6510          BCC $C$L77,AC0 != #0 ; |1645| 
    2465                                                      ; branchcc occurs ; |1645| 
    2466                      .dwpsn  file "../FreeRTOS/Source/tasks_sysStk.c",line 1647,column 6,is_stmt
    2467 000794 3C50          MOV #5, AC0 ; |1647| 
    2468 000796 DF04          SUB uns(*SP(#2)), AC0, AC0 ; |1647| 
         000798 0F   
    2469 000799 EB6D          MOV AC0, dbl(*AR3(#14)) ; |1647| 
         00079b 0800 
TMS320C55x Assembler PC v4.4.1 Tue Oct 02 02:33:57 2018

Tools Copyright (c) 1996-2012 Texas Instruments Incorporated
tasks_sysStk.asm                                                     PAGE   55

         00079d 0E   
    2470                      .dwpsn  file "../FreeRTOS/Source/tasks_sysStk.c",line 1648,column 5,is_stmt
    2471 00079e       $C$L77:    
    2472                      .dwpsn  file "../FreeRTOS/Source/tasks_sysStk.c",line 1658,column 5,is_stmt
    2473 00079e DF0E          MOV uns(*SP(#7)), AC1 ; |1658| 
         0007a0 15   
    2474 0007a1 1015          SFTS AC1, #1, AC0 ; |1658| 
         0007a3 01   
    2475 0007a4 1013          ADD AC1 << #3, AC0 ; |1658| 
         0007a6 03   
    2476 0007a7 900A          MOV AC0, XAR2
    2477 0007a9 EC31          AMOV #_pxReadyTasksLists, XAR3 ; |1658| 
         0007ab BE00 
         0007ad 0006-
    2478 0007af 14A1          AADD XAR2, XAR3 ; |1658| 
         0007b1 B0   
    2479 0007b2 90B1          MOV XAR3, AC1
    2480 0007b4 ED08          MOV dbl(*SP(#4)), XAR3
         0007b6 BF   
    2481 0007b7 ED6D          MOV dbl(*AR3(#12)), XAR3
         0007b9 BF00 
         0007bb 0C   
    2482 0007bc 90B0          MOV XAR3, AC0
    2483 0007be 120C          CMPU AC0 != AC1, TC1 ; |1658| 
         0007c0 14   
    2484 0007c1 6264          BCC $C$L78,TC1 ; |1658| 
    2485                                                      ; branchcc occurs ; |1658| 
    2486 0007c3 3C19          MOV #1, AR1
    2487 0007c5 4A02          B $C$L79  ; |1658| 
    2488                                                      ; branch occurs ; |1658| 
    2489 0007c7       $C$L78:    
    2490 0007c7 3C09          MOV #0, AR1
    2491 0007c9       $C$L79:    
    2492 0007c9 0409          BCC $C$L82,AR1 == #0 ; |1658| 
         0007cb 46   
    2493                                                      ; branchcc occurs ; |1658| 
    2494                      .dwpsn  file "../FreeRTOS/Source/tasks_sysStk.c",line 1663,column 6,is_stmt
    2495 0007cc ED08          MOV dbl(*SP(#4)), XAR0
         0007ce 8F   
    2496 0007cf 1404          AADD #4, AR0 ; |1663| 
         0007d1 84   
    2497              $C$DW$204       .dwtag  DW_TAG_TI_branch
    2498                      .dwattr $C$DW$204, DW_AT_low_pc(0x00)
    2499                      .dwattr $C$DW$204, DW_AT_name("_uxListRemove")
    2500                      .dwattr $C$DW$204, DW_AT_TI_call
    2501 0007d2 6C00          CALL #_uxListRemove ; |1663| 
         0007d4 0000!
    2502                                                      ; call occurs [#_uxListRemove] ; |1663| 
    2503 0007d6 6004          BCC $C$L80,T0 == #0 ; |1663| 
    2504                                                      ; branchcc occurs ; |1663| 
    2505                      .dwpsn  file "../FreeRTOS/Source/tasks_sysStk.c",line 1669,column 6,is_stmt
    2506 0007d8       $C$L80:    
    2507                      .dwpsn  file "../FreeRTOS/Source/tasks_sysStk.c",line 1674,column 6,is_stmt
    2508 0007d8 ED08          MOV dbl(*SP(#4)), XAR3
         0007da BF   
TMS320C55x Assembler PC v4.4.1 Tue Oct 02 02:33:57 2018

Tools Copyright (c) 1996-2012 Texas Instruments Incorporated
tasks_sysStk.asm                                                     PAGE   56

    2509 0007db A931          MOV *(#_uxTopReadyPriority), AR1 ; |1674| 
         0007dd 0000 
         0007df 72-  
    2510 0007e0 AA6D          MOV *AR3(#24), AR2 ; |1674| 
         0007e2 0018 
    2511 0007e4 1298          CMPU AR2 <= AR1, TC1 ; |1674| 
         0007e6 A4   
    2512 0007e7 64E4          BCC $C$L81,TC1 ; |1674| 
    2513                                                      ; branchcc occurs ; |1674| 
    2514 0007e9 A96D          MOV *AR3(#24), AR1 ; |1674| 
         0007eb 0018 
    2515 0007ed C931          MOV AR1, *(#_uxTopReadyPriority) ; |1674| 
         0007ef 0000 
         0007f1 72-  
    2516 0007f2       $C$L81:    
    2517 0007f2 DF6D          MOV uns(*AR3(#24)), AC1 ; |1674| 
         0007f4 1500 
         0007f6 18   
    2518 0007f7 ED08          MOV dbl(*SP(#4)), XAR1
         0007f9 9F   
    2519 0007fa 1015          SFTS AC1, #1, AC0 ; |1674| 
         0007fc 01   
    2520 0007fd 1013          ADD AC1 << #3, AC0 ; |1674| 
         0007ff 03   
    2521 000800 900B          MOV AC0, XAR3
    2522 000802 EC31          AMOV #_pxReadyTasksLists, XAR0 ; |1674| 
         000804 8E00 
         000806 0006-
    2523              
    2524 000808 14B1          AADD XAR3, XAR0 ; |1674| 
         00080a 80   
    2525 00080b 1504  ||      AADD #4, AR1 ; |1674| 
         00080d 9C   
    2526              
    2527              $C$DW$205       .dwtag  DW_TAG_TI_branch
    2528                      .dwattr $C$DW$205, DW_AT_low_pc(0x00)
    2529                      .dwattr $C$DW$205, DW_AT_name("_vListInsertEnd")
    2530                      .dwattr $C$DW$205, DW_AT_TI_call
    2531 00080e 6C00          CALL #_vListInsertEnd ; |1674| 
         000810 0000!
    2532                                                      ; call occurs [#_vListInsertEnd] ; |1674| 
    2533                      .dwpsn  file "../FreeRTOS/Source/tasks_sysStk.c",line 1675,column 5,is_stmt
    2534 000812       $C$L82:    
    2535                      .dwpsn  file "../FreeRTOS/Source/tasks_sysStk.c",line 1681,column 5,is_stmt
    2536 000812 A910          MOV *SP(#8), AR1 ; |1681| 
    2537 000814 6209          BCC $C$L83,AR1 == #0 ; |1681| 
    2538                                                      ; branchcc occurs ; |1681| 
    2539                      .dwpsn  file "../FreeRTOS/Source/tasks_sysStk.c",line 1683,column 6,is_stmt
    2540              $C$DW$206       .dwtag  DW_TAG_TI_branch
    2541                      .dwattr $C$DW$206, DW_AT_low_pc(0x00)
    2542                      .dwattr $C$DW$206, DW_AT_name("_vPortYield")
    2543                      .dwattr $C$DW$206, DW_AT_TI_call
    2544 000816 6C00          CALL #_vPortYield ; |1683| 
         000818 0000!
    2545                                                      ; call occurs [#_vPortYield] ; |1683| 
TMS320C55x Assembler PC v4.4.1 Tue Oct 02 02:33:57 2018

Tools Copyright (c) 1996-2012 Texas Instruments Incorporated
tasks_sysStk.asm                                                     PAGE   57

    2546                      .dwpsn  file "../FreeRTOS/Source/tasks_sysStk.c",line 1684,column 5,is_stmt
    2547 00081a       $C$L83:    
    2548                      .dwpsn  file "../FreeRTOS/Source/tasks_sysStk.c",line 1692,column 5,is_stmt
    2549 00081a       $C$L84:    
    2550                      .dwpsn  file "../FreeRTOS/Source/tasks_sysStk.c",line 1695,column 3,is_stmt
    2551 00081a A931          MOV *(#_usCriticalNesting), AR1 ; |1695| 
         00081c 0000 
         00081e 00!  
    2552 00081f 0409          BCC $C$L85,AR1 == #0 ; |1695| 
         000821 14   
    2553                                                      ; branchcc occurs ; |1695| 
    2554 000822 F731          SUB #1, *(#_usCriticalNesting) ; |1695| 
         000824 FFFF 
         000826 0000 
         000828 00!  
    2555 000829 20            NOP
    2556 00082a 20            NOP
    2557 00082b 20            NOP
    2558 00082c A931          MOV *(#_usCriticalNesting), AR1 ; |1695| 
         00082e 0000 
         000830 00!  
    2559 000831 6199          BCC $C$L85,AR1 != #0 ; |1695| 
    2560                                                      ; branchcc occurs ; |1695| 
    2561 000833 20     nop
    2562 000834 46B2   bclr INTM
    2563                      .dwpsn  file "../FreeRTOS/Source/tasks_sysStk.c",line 1696,column 2,is_stmt
    2564 000836       $C$L85:    
    2565 000836 4E09          AADD #9, SP
    2566                      .dwcfi  cfa_offset, 1
    2567              $C$DW$207       .dwtag  DW_TAG_TI_branch
    2568                      .dwattr $C$DW$207, DW_AT_low_pc(0x00)
    2569                      .dwattr $C$DW$207, DW_AT_TI_return
    2570 000838 4804          RET
    2571                                                      ; return occurs
    2572              
    2573              $C$DW$208       .dwtag  DW_TAG_TI_loop
    2574                      .dwattr $C$DW$208, DW_AT_name("F:\eZdsp-DBG-sim\tmp1\c55x-sim2\foo\Debug\tasks_sysStk.asm:$C$L70:1:15
    2575                      .dwattr $C$DW$208, DW_AT_TI_begin_file("../FreeRTOS/Source/tasks_sysStk.c")
    2576                      .dwattr $C$DW$208, DW_AT_TI_begin_line(0x609)
    2577                      .dwattr $C$DW$208, DW_AT_TI_end_line(0x609)
    2578              $C$DW$209       .dwtag  DW_TAG_TI_loop_range
    2579                      .dwattr $C$DW$209, DW_AT_low_pc($C$DW$L$_vTaskPrioritySet$5$B)
    2580                      .dwattr $C$DW$209, DW_AT_high_pc($C$DW$L$_vTaskPrioritySet$5$E)
    2581                      .dwendtag $C$DW$208
    2582              
    2583                      .dwattr $C$DW$195, DW_AT_TI_end_file("../FreeRTOS/Source/tasks_sysStk.c")
    2584                      .dwattr $C$DW$195, DW_AT_TI_end_line(0x6a0)
    2585                      .dwattr $C$DW$195, DW_AT_TI_end_column(0x02)
    2586                      .dwendentry
    2587                      .dwendtag $C$DW$195
    2588              
    2589 00083a               .sect   ".text"
    2590                      .align 4
    2591                      .global _vTaskSuspend
    2592              
TMS320C55x Assembler PC v4.4.1 Tue Oct 02 02:33:57 2018

Tools Copyright (c) 1996-2012 Texas Instruments Incorporated
tasks_sysStk.asm                                                     PAGE   58

    2593              $C$DW$210       .dwtag  DW_TAG_subprogram, DW_AT_name("vTaskSuspend")
    2594                      .dwattr $C$DW$210, DW_AT_low_pc(_vTaskSuspend)
    2595                      .dwattr $C$DW$210, DW_AT_high_pc(0x00)
    2596                      .dwattr $C$DW$210, DW_AT_TI_symbol_name("_vTaskSuspend")
    2597                      .dwattr $C$DW$210, DW_AT_external
    2598                      .dwattr $C$DW$210, DW_AT_TI_begin_file("../FreeRTOS/Source/tasks_sysStk.c")
    2599                      .dwattr $C$DW$210, DW_AT_TI_begin_line(0x6a7)
    2600                      .dwattr $C$DW$210, DW_AT_TI_begin_column(0x07)
    2601                      .dwattr $C$DW$210, DW_AT_TI_max_frame_size(0x06)
    2602                      .dwpsn  file "../FreeRTOS/Source/tasks_sysStk.c",line 1704,column 2,is_stmt,address _vTaskSuspend
    2603              
    2604                      .dwfde $C$DW$CIE, _vTaskSuspend
    2605              $C$DW$211       .dwtag  DW_TAG_formal_parameter, DW_AT_name("xTaskToSuspend")
    2606                      .dwattr $C$DW$211, DW_AT_TI_symbol_name("_xTaskToSuspend")
    2607                      .dwattr $C$DW$211, DW_AT_type(*$C$DW$T$48)
    2608                      .dwattr $C$DW$211, DW_AT_location[DW_OP_reg17]
    2609              ;*******************************************************************************
    2610              ;* FUNCTION NAME: vTaskSuspend                                                 *
    2611              ;*                                                                             *
    2612              ;*   Function Uses Regs : AC0,AC0,AC1,AC1,T0,AR0,XAR0,AR1,XAR1,AR2,AR3,XAR3,SP,*
    2613              ;*                        CARRY,TC1,M40,SATA,SATD,RDM,FRCT,SMUL                *
    2614              ;*   Stack Frame        : Compact (No Frame Pointer, w/ debug)                 *
    2615              ;*   Total Frame Size   : 6 words                                              *
    2616              ;*                        (2 return address/alignment)                         *
    2617              ;*                        (4 local values)                                     *
    2618              ;*   Min System Stack   : 1 word                                               *
    2619              ;*******************************************************************************
    2620 00083c       _vTaskSuspend:
    2621                      .dwcfi  cfa_offset, 1
    2622                      .dwcfi  save_reg_to_mem, 91, -1
    2623 00083c 4EFB          AADD #-5, SP
    2624                      .dwcfi  cfa_offset, 6
    2625              $C$DW$212       .dwtag  DW_TAG_variable, DW_AT_name("xTaskToSuspend")
    2626                      .dwattr $C$DW$212, DW_AT_TI_symbol_name("_xTaskToSuspend")
    2627                      .dwattr $C$DW$212, DW_AT_type(*$C$DW$T$48)
    2628                      .dwattr $C$DW$212, DW_AT_location[DW_OP_bregx 0x24 0]
    2629              $C$DW$213       .dwtag  DW_TAG_variable, DW_AT_name("pxTCB")
    2630                      .dwattr $C$DW$213, DW_AT_TI_symbol_name("_pxTCB")
    2631                      .dwattr $C$DW$213, DW_AT_type(*$C$DW$T$83)
    2632                      .dwattr $C$DW$213, DW_AT_location[DW_OP_bregx 0x24 2]
    2633 00083e EB00          MOV XAR0, dbl(*SP(#0))
         000840 85   
    2634                      .dwpsn  file "../FreeRTOS/Source/tasks_sysStk.c",line 1707,column 3,is_stmt
    2635 000841 20     nop
    2636 000842 46B3   bset INTM
    2637 000844 F731          ADD #1, *(#_usCriticalNesting) ; |1707| 
         000846 0001 
         000848 0000 
         00084a 00!  
    2638                      .dwpsn  file "../FreeRTOS/Source/tasks_sysStk.c",line 1711,column 4,is_stmt
    2639 00084b ED00          MOV dbl(*SP(#0)), XAR3
         00084d BF   
    2640 00084e 90B0          MOV XAR3, AC0
    2641 000850 6310          BCC $C$L86,AC0 != #0 ; |1711| 
    2642                                                      ; branchcc occurs ; |1711| 
TMS320C55x Assembler PC v4.4.1 Tue Oct 02 02:33:57 2018

Tools Copyright (c) 1996-2012 Texas Instruments Incorporated
tasks_sysStk.asm                                                     PAGE   59

    2643 000852 ED31          MOV dbl(*(#_pxCurrentTCB)), XAR3
         000854 BF00 
         000856 0004-
    2644 000858       $C$L86:    
    2645 000858 EB04          MOV XAR3, dbl(*SP(#2))
         00085a B5   
    2646                      .dwpsn  file "../FreeRTOS/Source/tasks_sysStk.c",line 1717,column 4,is_stmt
    2647 00085b ED04          MOV dbl(*SP(#2)), XAR0
         00085d 8F   
    2648 00085e 1404          AADD #4, AR0 ; |1717| 
         000860 84   
    2649              $C$DW$214       .dwtag  DW_TAG_TI_branch
    2650                      .dwattr $C$DW$214, DW_AT_low_pc(0x00)
    2651                      .dwattr $C$DW$214, DW_AT_name("_uxListRemove")
    2652                      .dwattr $C$DW$214, DW_AT_TI_call
    2653 000861 6C00          CALL #_uxListRemove ; |1717| 
         000863 0000!
    2654                                                      ; call occurs [#_uxListRemove] ; |1717| 
    2655 000865 6004          BCC $C$L87,T0 == #0 ; |1717| 
    2656                                                      ; branchcc occurs ; |1717| 
    2657                      .dwpsn  file "../FreeRTOS/Source/tasks_sysStk.c",line 1720,column 4,is_stmt
    2658 000867       $C$L87:    
    2659                      .dwpsn  file "../FreeRTOS/Source/tasks_sysStk.c",line 1727,column 4,is_stmt
    2660 000867 ED04          MOV dbl(*SP(#2)), XAR3
         000869 BF   
    2661 00086a ED6D          MOV dbl(*AR3(#22)), XAR3
         00086c BF00 
         00086e 16   
    2662 00086f 90B0          MOV XAR3, AC0
    2663 000871 6500          BCC $C$L88,AC0 == #0 ; |1727| 
    2664                                                      ; branchcc occurs ; |1727| 
    2665                      .dwpsn  file "../FreeRTOS/Source/tasks_sysStk.c",line 1729,column 5,is_stmt
    2666 000873 ED04          MOV dbl(*SP(#2)), XAR0
         000875 8F   
    2667 000876 140E          AADD #14, AR0 ; |1729| 
         000878 84   
    2668              $C$DW$215       .dwtag  DW_TAG_TI_branch
    2669                      .dwattr $C$DW$215, DW_AT_low_pc(0x00)
    2670                      .dwattr $C$DW$215, DW_AT_name("_uxListRemove")
    2671                      .dwattr $C$DW$215, DW_AT_TI_call
    2672 000879 6C00          CALL #_uxListRemove ; |1729| 
         00087b 0000!
    2673                                                      ; call occurs [#_uxListRemove] ; |1729| 
    2674                      .dwpsn  file "../FreeRTOS/Source/tasks_sysStk.c",line 1730,column 4,is_stmt
    2675 00087d       $C$L88:    
    2676                      .dwpsn  file "../FreeRTOS/Source/tasks_sysStk.c",line 1736,column 4,is_stmt
    2677 00087d ED04          MOV dbl(*SP(#2)), XAR1
         00087f 9F   
    2678 000880 EC31          AMOV #_xSuspendedTaskList, XAR0 ; |1736| 
         000882 8E00 
         000884 0066-
    2679 000886 1404          AADD #4, AR1 ; |1736| 
         000888 94   
    2680              $C$DW$216       .dwtag  DW_TAG_TI_branch
    2681                      .dwattr $C$DW$216, DW_AT_low_pc(0x00)
TMS320C55x Assembler PC v4.4.1 Tue Oct 02 02:33:57 2018

Tools Copyright (c) 1996-2012 Texas Instruments Incorporated
tasks_sysStk.asm                                                     PAGE   60

    2682                      .dwattr $C$DW$216, DW_AT_name("_vListInsertEnd")
    2683                      .dwattr $C$DW$216, DW_AT_TI_call
    2684 000889 6C00          CALL #_vListInsertEnd ; |1736| 
         00088b 0000!
    2685                                                      ; call occurs [#_vListInsertEnd] ; |1736| 
    2686                      .dwpsn  file "../FreeRTOS/Source/tasks_sysStk.c",line 1740,column 5,is_stmt
    2687 00088d ED04          MOV dbl(*SP(#2)), XAR3
         00088f BF   
    2688 000890 F06D          CMP *AR3(#48) == #1, TC1 ; |1740| 
         000892 0001 
         000894 0030 
    2689 000896 62F4          BCC $C$L89,!TC1 ; |1740| 
    2690                                                      ; branchcc occurs ; |1740| 
    2691                      .dwpsn  file "../FreeRTOS/Source/tasks_sysStk.c",line 1744,column 6,is_stmt
    2692 000898 E66D          MOV #0, *AR3(#48) ; |1744| 
         00089a 0000 
         00089c 30   
    2693 00089d       $C$L89:    
    2694                      .dwpsn  file "../FreeRTOS/Source/tasks_sysStk.c",line 1749,column 3,is_stmt
    2695 00089d A931          MOV *(#_usCriticalNesting), AR1 ; |1749| 
         00089f 0000 
         0008a1 00!  
    2696 0008a2 0409          BCC $C$L90,AR1 == #0 ; |1749| 
         0008a4 14   
    2697                                                      ; branchcc occurs ; |1749| 
    2698 0008a5 F731          SUB #1, *(#_usCriticalNesting) ; |1749| 
         0008a7 FFFF 
         0008a9 0000 
         0008ab 00!  
    2699 0008ac 20            NOP
    2700 0008ad 20            NOP
    2701 0008ae 20            NOP
    2702 0008af A931          MOV *(#_usCriticalNesting), AR1 ; |1749| 
         0008b1 0000 
         0008b3 00!  
    2703 0008b4 6199          BCC $C$L90,AR1 != #0 ; |1749| 
    2704                                                      ; branchcc occurs ; |1749| 
    2705 0008b6 20     nop
    2706 0008b7 46B2   bclr INTM
    2707 0008b9       $C$L90:    
    2708                      .dwpsn  file "../FreeRTOS/Source/tasks_sysStk.c",line 1751,column 3,is_stmt
    2709 0008b9 A931          MOV *(#_xSchedulerRunning), AR1 ; |1751| 
         0008bb 0000 
         0008bd 73-  
    2710 0008be 0409          BCC $C$L91,AR1 == #0 ; |1751| 
         0008c0 29   
    2711                                                      ; branchcc occurs ; |1751| 
    2712                      .dwpsn  file "../FreeRTOS/Source/tasks_sysStk.c",line 1755,column 4,is_stmt
    2713 0008c1 20     nop
    2714 0008c2 46B3   bset INTM
    2715 0008c4 F731          ADD #1, *(#_usCriticalNesting) ; |1755| 
         0008c6 0001 
         0008c8 0000 
         0008ca 00!  
    2716                      .dwpsn  file "../FreeRTOS/Source/tasks_sysStk.c",line 1757,column 5,is_stmt
TMS320C55x Assembler PC v4.4.1 Tue Oct 02 02:33:57 2018

Tools Copyright (c) 1996-2012 Texas Instruments Incorporated
tasks_sysStk.asm                                                     PAGE   61

    2717              $C$DW$217       .dwtag  DW_TAG_TI_branch
    2718                      .dwattr $C$DW$217, DW_AT_low_pc(0x00)
    2719                      .dwattr $C$DW$217, DW_AT_name("_prvResetNextTaskUnblockTime")
    2720                      .dwattr $C$DW$217, DW_AT_TI_call
    2721 0008cb 080B          CALL #_prvResetNextTaskUnblockTime ; |1757| 
         0008cd 66   
    2722                                                      ; call occurs [#_prvResetNextTaskUnblockTime] ; |1757| 
    2723                      .dwpsn  file "../FreeRTOS/Source/tasks_sysStk.c",line 1759,column 4,is_stmt
    2724 0008ce A931          MOV *(#_usCriticalNesting), AR1 ; |1759| 
         0008d0 0000 
         0008d2 00!  
    2725 0008d3 0409          BCC $C$L91,AR1 == #0 ; |1759| 
         0008d5 14   
    2726                                                      ; branchcc occurs ; |1759| 
    2727 0008d6 F731          SUB #1, *(#_usCriticalNesting) ; |1759| 
         0008d8 FFFF 
         0008da 0000 
         0008dc 00!  
    2728 0008dd 20            NOP
    2729 0008de 20            NOP
    2730 0008df 20            NOP
    2731 0008e0 A931          MOV *(#_usCriticalNesting), AR1 ; |1759| 
         0008e2 0000 
         0008e4 00!  
    2732 0008e5 6199          BCC $C$L91,AR1 != #0 ; |1759| 
    2733                                                      ; branchcc occurs ; |1759| 
    2734 0008e7 20     nop
    2735 0008e8 46B2   bclr INTM
    2736                      .dwpsn  file "../FreeRTOS/Source/tasks_sysStk.c",line 1760,column 3,is_stmt
    2737 0008ea       $C$L91:    
    2738                      .dwpsn  file "../FreeRTOS/Source/tasks_sysStk.c",line 1766,column 3,is_stmt
    2739 0008ea ED31          MOV dbl(*(#_pxCurrentTCB)), XAR3
         0008ec BF00 
         0008ee 0004-
    2740 0008f0 90B0          MOV XAR3, AC0
    2741 0008f2 ED04          MOV dbl(*SP(#2)), XAR3
         0008f4 BF   
    2742 0008f5 90B1          MOV XAR3, AC1
    2743 0008f7 121C          CMPU AC1 != AC0, TC1 ; |1766| 
         0008f9 04   
    2744 0008fa 0464          BCC $C$L97,TC1 ; |1766| 
         0008fc 3E   
    2745                                                      ; branchcc occurs ; |1766| 
    2746                      .dwpsn  file "../FreeRTOS/Source/tasks_sysStk.c",line 1768,column 4,is_stmt
    2747 0008fd A931          MOV *(#_xSchedulerRunning), AR1 ; |1768| 
         0008ff 0000 
         000901 73-  
    2748 000902 0409          BCC $C$L95,AR1 == #0 ; |1768| 
         000904 18   
    2749                                                      ; branchcc occurs ; |1768| 
    2750                      .dwpsn  file "../FreeRTOS/Source/tasks_sysStk.c",line 1771,column 5,is_stmt
    2751 000905 AA31          MOV *(#_uxSchedulerSuspended), AR2 ; |1771| 
         000907 0000 
         000909 7C-  
    2752 00090a 3C09          MOV #0, AR1
TMS320C55x Assembler PC v4.4.1 Tue Oct 02 02:33:57 2018

Tools Copyright (c) 1996-2012 Texas Instruments Incorporated
tasks_sysStk.asm                                                     PAGE   62

    2753 00090c 611A          BCC $C$L92,AR2 != #0 ; |1771| 
    2754                                                      ; branchcc occurs ; |1771| 
    2755 00090e 3C19          MOV #1, AR1
    2756 000910       $C$L92:    
    2757 000910 6299          BCC $C$L94,AR1 != #0 ; |1771| 
    2758                                                      ; branchcc occurs ; |1771| 
    2759 000912 20     nop
    2760 000913 46B3   bset INTM
    2761 000915       $C$L93:    
    2762 000915       $C$DW$L$_vTaskSuspend$22$B:
    2763 000915 4A7E          B $C$L93  ; |1771| 
    2764                                                      ; branch occurs ; |1771| 
    2765 000917       $C$DW$L$_vTaskSuspend$22$E:
    2766 000917       $C$L94:    
    2767                      .dwpsn  file "../FreeRTOS/Source/tasks_sysStk.c",line 1772,column 5,is_stmt
    2768              $C$DW$218       .dwtag  DW_TAG_TI_branch
    2769                      .dwattr $C$DW$218, DW_AT_low_pc(0x00)
    2770                      .dwattr $C$DW$218, DW_AT_name("_vPortYield")
    2771                      .dwattr $C$DW$218, DW_AT_TI_call
    2772 000917 6C00          CALL #_vPortYield ; |1772| 
         000919 0000!
    2773                                                      ; call occurs [#_vPortYield] ; |1772| 
    2774                      .dwpsn  file "../FreeRTOS/Source/tasks_sysStk.c",line 1773,column 4,is_stmt
    2775 00091b 4A1E          B $C$L97  ; |1773| 
    2776                                                      ; branch occurs ; |1773| 
    2777 00091d       $C$L95:    
    2778                      .dwpsn  file "../FreeRTOS/Source/tasks_sysStk.c",line 1779,column 5,is_stmt
    2779 00091d A931          MOV *(#_uxCurrentNumberOfTasks), AR1 ; |1779| 
         00091f 0000 
         000921 65-  
    2780 000922 AA31          MOV *(#_xSuspendedTaskList), AR2 ; |1779| 
         000924 0000 
         000926 66-  
    2781 000927 12AC          CMPU AR2 != AR1, TC1 ; |1779| 
         000929 94   
    2782 00092a 6564          BCC $C$L96,TC1 ; |1779| 
    2783                                                      ; branchcc occurs ; |1779| 
    2784                      .dwpsn  file "../FreeRTOS/Source/tasks_sysStk.c",line 1785,column 6,is_stmt
    2785 00092c 3C00          MOV #0, AC0 ; |1785| 
    2786 00092e EB31          MOV AC0, dbl(*(#_pxCurrentTCB))
         000930 0800 
         000932 0004-
    2787                      .dwpsn  file "../FreeRTOS/Source/tasks_sysStk.c",line 1786,column 5,is_stmt
    2788 000934 4A05          B $C$L97  ; |1786| 
    2789                                                      ; branch occurs ; |1786| 
    2790 000936       $C$L96:    
    2791                      .dwpsn  file "../FreeRTOS/Source/tasks_sysStk.c",line 1789,column 6,is_stmt
    2792              $C$DW$219       .dwtag  DW_TAG_TI_branch
    2793                      .dwattr $C$DW$219, DW_AT_low_pc(0x00)
    2794                      .dwattr $C$DW$219, DW_AT_name("_vTaskSwitchContext")
    2795                      .dwattr $C$DW$219, DW_AT_TI_call
    2796 000936 0805          CALL #_vTaskSwitchContext ; |1789| 
         000938 87   
    2797                                                      ; call occurs [#_vTaskSwitchContext] ; |1789| 
    2798                      .dwpsn  file "../FreeRTOS/Source/tasks_sysStk.c",line 1792,column 3,is_stmt
TMS320C55x Assembler PC v4.4.1 Tue Oct 02 02:33:57 2018

Tools Copyright (c) 1996-2012 Texas Instruments Incorporated
tasks_sysStk.asm                                                     PAGE   63

    2799 000939 4A00          B $C$L97  ; |1792| 
    2800                                                      ; branch occurs ; |1792| 
    2801 00093b       $C$L97:    
    2802 00093b 4E05          AADD #5, SP
    2803                      .dwcfi  cfa_offset, 1
    2804              $C$DW$220       .dwtag  DW_TAG_TI_branch
    2805                      .dwattr $C$DW$220, DW_AT_low_pc(0x00)
    2806                      .dwattr $C$DW$220, DW_AT_TI_return
    2807 00093d 4804          RET
    2808                                                      ; return occurs
    2809              
    2810              $C$DW$221       .dwtag  DW_TAG_TI_loop
    2811                      .dwattr $C$DW$221, DW_AT_name("F:\eZdsp-DBG-sim\tmp1\c55x-sim2\foo\Debug\tasks_sysStk.asm:$C$L93:1:15
    2812                      .dwattr $C$DW$221, DW_AT_TI_begin_file("../FreeRTOS/Source/tasks_sysStk.c")
    2813                      .dwattr $C$DW$221, DW_AT_TI_begin_line(0x6eb)
    2814                      .dwattr $C$DW$221, DW_AT_TI_end_line(0x6eb)
    2815              $C$DW$222       .dwtag  DW_TAG_TI_loop_range
    2816                      .dwattr $C$DW$222, DW_AT_low_pc($C$DW$L$_vTaskSuspend$22$B)
    2817                      .dwattr $C$DW$222, DW_AT_high_pc($C$DW$L$_vTaskSuspend$22$E)
    2818                      .dwendtag $C$DW$221
    2819              
    2820                      .dwattr $C$DW$210, DW_AT_TI_end_file("../FreeRTOS/Source/tasks_sysStk.c")
    2821                      .dwattr $C$DW$210, DW_AT_TI_end_line(0x705)
    2822                      .dwattr $C$DW$210, DW_AT_TI_end_column(0x02)
    2823                      .dwendentry
    2824                      .dwendtag $C$DW$210
    2825              
    2826 00093f               .sect   ".text"
    2827                      .align 4
    2828              
    2829              $C$DW$223       .dwtag  DW_TAG_subprogram, DW_AT_name("prvTaskIsTaskSuspended")
    2830                      .dwattr $C$DW$223, DW_AT_low_pc(_prvTaskIsTaskSuspended)
    2831                      .dwattr $C$DW$223, DW_AT_high_pc(0x00)
    2832                      .dwattr $C$DW$223, DW_AT_TI_symbol_name("_prvTaskIsTaskSuspended")
    2833                      .dwattr $C$DW$223, DW_AT_type(*$C$DW$T$43)
    2834                      .dwattr $C$DW$223, DW_AT_TI_begin_file("../FreeRTOS/Source/tasks_sysStk.c")
    2835                      .dwattr $C$DW$223, DW_AT_TI_begin_line(0x70c)
    2836                      .dwattr $C$DW$223, DW_AT_TI_begin_column(0x14)
    2837                      .dwattr $C$DW$223, DW_AT_TI_max_frame_size(0x08)
    2838                      .dwpsn  file "../FreeRTOS/Source/tasks_sysStk.c",line 1805,column 2,is_stmt,address _prvTaskIsTaskSus
    2839              
    2840                      .dwfde $C$DW$CIE, _prvTaskIsTaskSuspended
    2841              $C$DW$224       .dwtag  DW_TAG_formal_parameter, DW_AT_name("xTask")
    2842                      .dwattr $C$DW$224, DW_AT_TI_symbol_name("_xTask")
    2843                      .dwattr $C$DW$224, DW_AT_type(*$C$DW$T$107)
    2844                      .dwattr $C$DW$224, DW_AT_location[DW_OP_reg17]
    2845              ;*******************************************************************************
    2846              ;* FUNCTION NAME: prvTaskIsTaskSuspended                                       *
    2847              ;*                                                                             *
    2848              ;*   Function Uses Regs : AC0,AC0,AC1,AC1,T0,AR0,XAR0,AR1,AR3,XAR3,SP,TC1,M40, *
    2849              ;*                        SATA,SATD,RDM,FRCT,SMUL                              *
    2850              ;*   Stack Frame        : Compact (No Frame Pointer, w/ debug)                 *
    2851              ;*   Total Frame Size   : 8 words                                              *
    2852              ;*                        (2 return address/alignment)                         *
    2853              ;*                        (6 local values)                                     *
TMS320C55x Assembler PC v4.4.1 Tue Oct 02 02:33:57 2018

Tools Copyright (c) 1996-2012 Texas Instruments Incorporated
tasks_sysStk.asm                                                     PAGE   64

    2854              ;*   Min System Stack   : 1 word                                               *
    2855              ;*******************************************************************************
    2856 000940       _prvTaskIsTaskSuspended:
    2857                      .dwcfi  cfa_offset, 1
    2858                      .dwcfi  save_reg_to_mem, 91, -1
    2859 000940 4EF9          AADD #-7, SP
    2860                      .dwcfi  cfa_offset, 8
    2861              $C$DW$225       .dwtag  DW_TAG_variable, DW_AT_name("xTask")
    2862                      .dwattr $C$DW$225, DW_AT_TI_symbol_name("_xTask")
    2863                      .dwattr $C$DW$225, DW_AT_type(*$C$DW$T$107)
    2864                      .dwattr $C$DW$225, DW_AT_location[DW_OP_bregx 0x24 0]
    2865              $C$DW$226       .dwtag  DW_TAG_variable, DW_AT_name("xReturn")
    2866                      .dwattr $C$DW$226, DW_AT_TI_symbol_name("_xReturn")
    2867                      .dwattr $C$DW$226, DW_AT_type(*$C$DW$T$43)
    2868                      .dwattr $C$DW$226, DW_AT_location[DW_OP_bregx 0x24 2]
    2869              $C$DW$227       .dwtag  DW_TAG_variable, DW_AT_name("pxTCB")
    2870                      .dwattr $C$DW$227, DW_AT_TI_symbol_name("_pxTCB")
    2871                      .dwattr $C$DW$227, DW_AT_type(*$C$DW$T$158)
    2872                      .dwattr $C$DW$227, DW_AT_location[DW_OP_bregx 0x24 4]
    2873 000942 EB00          MOV XAR0, dbl(*SP(#0))
         000944 85   
    2874                      .dwpsn  file "../FreeRTOS/Source/tasks_sysStk.c",line 1806,column 13,is_stmt
    2875 000945 E604          MOV #0, *SP(#2) ; |1806| 
         000947 00   
    2876                      .dwpsn  file "../FreeRTOS/Source/tasks_sysStk.c",line 1807,column 22,is_stmt
    2877 000948 ED00          MOV dbl(*SP(#0)), XAR3
         00094a BF   
    2878 00094b EB08          MOV XAR3, dbl(*SP(#4))
         00094d B5   
    2879                      .dwpsn  file "../FreeRTOS/Source/tasks_sysStk.c",line 1813,column 3,is_stmt
    2880 00094e ED00          MOV dbl(*SP(#0)), XAR3
         000950 BF   
    2881 000951 90B0          MOV XAR3, AC0
    2882 000953 6290          BCC $C$L99,AC0 != #0 ; |1813| 
    2883                                                      ; branchcc occurs ; |1813| 
    2884 000955 20     nop
    2885 000956 46B3   bset INTM
    2886 000958       $C$L98:    
    2887 000958       $C$DW$L$_prvTaskIsTaskSuspended$3$B:
    2888 000958 4A7E          B $C$L98  ; |1813| 
    2889                                                      ; branch occurs ; |1813| 
    2890 00095a       $C$DW$L$_prvTaskIsTaskSuspended$3$E:
    2891 00095a       $C$L99:    
    2892                      .dwpsn  file "../FreeRTOS/Source/tasks_sysStk.c",line 1816,column 3,is_stmt
    2893 00095a EC31          AMOV #_xSuspendedTaskList, XAR3 ; |1816| 
         00095c BE00 
         00095e 0066-
    2894 000960 90B0          MOV XAR3, AC0
    2895 000962 ED08          MOV dbl(*SP(#4)), XAR3
         000964 BF   
    2896 000965 ED6D          MOV dbl(*AR3(#12)), XAR3
         000967 BF00 
         000969 0C   
    2897 00096a 90B1          MOV XAR3, AC1
    2898 00096c 121C          CMPU AC1 != AC0, TC1 ; |1816| 
TMS320C55x Assembler PC v4.4.1 Tue Oct 02 02:33:57 2018

Tools Copyright (c) 1996-2012 Texas Instruments Incorporated
tasks_sysStk.asm                                                     PAGE   65

         00096e 04   
    2899 00096f 6264          BCC $C$L100,TC1 ; |1816| 
    2900                                                      ; branchcc occurs ; |1816| 
    2901 000971 3C19          MOV #1, AR1
    2902 000973 4A02          B $C$L101 ; |1816| 
    2903                                                      ; branch occurs ; |1816| 
    2904 000975       $C$L100:    
    2905 000975 3C09          MOV #0, AR1
    2906 000977       $C$L101:    
    2907 000977 0409          BCC $C$L106,AR1 == #0 ; |1816| 
         000979 39   
    2908                                                      ; branchcc occurs ; |1816| 
    2909                      .dwpsn  file "../FreeRTOS/Source/tasks_sysStk.c",line 1819,column 4,is_stmt
    2910 00097a EC31          AMOV #_xPendingReadyList, XAR3 ; |1819| 
         00097c BE00 
         00097e 0050-
    2911 000980 90B0          MOV XAR3, AC0
    2912 000982 ED08          MOV dbl(*SP(#4)), XAR3
         000984 BF   
    2913 000985 ED6D          MOV dbl(*AR3(#22)), XAR3
         000987 BF00 
         000989 16   
    2914 00098a 90B1          MOV XAR3, AC1
    2915 00098c 121C          CMPU AC1 != AC0, TC1 ; |1819| 
         00098e 04   
    2916 00098f 6264          BCC $C$L102,TC1 ; |1819| 
    2917                                                      ; branchcc occurs ; |1819| 
    2918 000991 3C19          MOV #1, AR1
    2919 000993 4A02          B $C$L103 ; |1819| 
    2920                                                      ; branch occurs ; |1819| 
    2921 000995       $C$L102:    
    2922 000995 3C09          MOV #0, AR1
    2923 000997       $C$L103:    
    2924 000997 0419          BCC $C$L106,AR1 != #0 ; |1819| 
         000999 19   
    2925                                                      ; branchcc occurs ; |1819| 
    2926                      .dwpsn  file "../FreeRTOS/Source/tasks_sysStk.c",line 1823,column 5,is_stmt
    2927 00099a ED08          MOV dbl(*SP(#4)), XAR3
         00099c BF   
    2928 00099d ED6D          MOV dbl(*AR3(#22)), XAR3
         00099f BF00 
         0009a1 16   
    2929 0009a2 90B0          MOV XAR3, AC0
    2930 0009a4 6210          BCC $C$L104,AC0 != #0 ; |1823| 
    2931                                                      ; branchcc occurs ; |1823| 
    2932 0009a6 3C19          MOV #1, AR1
    2933 0009a8 4A02          B $C$L105 ; |1823| 
    2934                                                      ; branch occurs ; |1823| 
    2935 0009aa       $C$L104:    
    2936 0009aa 3C09          MOV #0, AR1
    2937 0009ac       $C$L105:    
    2938 0009ac 6289          BCC $C$L106,AR1 == #0 ; |1823| 
    2939                                                      ; branchcc occurs ; |1823| 
    2940                      .dwpsn  file "../FreeRTOS/Source/tasks_sysStk.c",line 1825,column 6,is_stmt
    2941 0009ae E604          MOV #1, *SP(#2) ; |1825| 
TMS320C55x Assembler PC v4.4.1 Tue Oct 02 02:33:57 2018

Tools Copyright (c) 1996-2012 Texas Instruments Incorporated
tasks_sysStk.asm                                                     PAGE   66

         0009b0 01   
    2942                      .dwpsn  file "../FreeRTOS/Source/tasks_sysStk.c",line 1826,column 5,is_stmt
    2943 0009b1 4A00          B $C$L106 ; |1826| 
    2944                                                      ; branch occurs ; |1826| 
    2945 0009b3       $C$L106:    
    2946                      .dwpsn  file "../FreeRTOS/Source/tasks_sysStk.c",line 1842,column 3,is_stmt
    2947 0009b3 A404          MOV *SP(#2), T0 ; |1842| 
    2948                      .dwpsn  file "../FreeRTOS/Source/tasks_sysStk.c",line 1843,column 2,is_stmt
    2949 0009b5 4E07          AADD #7, SP
    2950                      .dwcfi  cfa_offset, 1
    2951              $C$DW$228       .dwtag  DW_TAG_TI_branch
    2952                      .dwattr $C$DW$228, DW_AT_low_pc(0x00)
    2953                      .dwattr $C$DW$228, DW_AT_TI_return
    2954 0009b7 4804          RET
    2955                                                      ; return occurs
    2956              
    2957              $C$DW$229       .dwtag  DW_TAG_TI_loop
    2958                      .dwattr $C$DW$229, DW_AT_name("F:\eZdsp-DBG-sim\tmp1\c55x-sim2\foo\Debug\tasks_sysStk.asm:$C$L98:1:15
    2959                      .dwattr $C$DW$229, DW_AT_TI_begin_file("../FreeRTOS/Source/tasks_sysStk.c")
    2960                      .dwattr $C$DW$229, DW_AT_TI_begin_line(0x715)
    2961                      .dwattr $C$DW$229, DW_AT_TI_end_line(0x715)
    2962              $C$DW$230       .dwtag  DW_TAG_TI_loop_range
    2963                      .dwattr $C$DW$230, DW_AT_low_pc($C$DW$L$_prvTaskIsTaskSuspended$3$B)
    2964                      .dwattr $C$DW$230, DW_AT_high_pc($C$DW$L$_prvTaskIsTaskSuspended$3$E)
    2965                      .dwendtag $C$DW$229
    2966              
    2967                      .dwattr $C$DW$223, DW_AT_TI_end_file("../FreeRTOS/Source/tasks_sysStk.c")
    2968                      .dwattr $C$DW$223, DW_AT_TI_end_line(0x733)
    2969                      .dwattr $C$DW$223, DW_AT_TI_end_column(0x02)
    2970                      .dwendentry
    2971                      .dwendtag $C$DW$223
    2972              
    2973 0009b9               .sect   ".text"
    2974                      .align 4
    2975                      .global _vTaskResume
    2976              
    2977              $C$DW$231       .dwtag  DW_TAG_subprogram, DW_AT_name("vTaskResume")
    2978                      .dwattr $C$DW$231, DW_AT_low_pc(_vTaskResume)
    2979                      .dwattr $C$DW$231, DW_AT_high_pc(0x00)
    2980                      .dwattr $C$DW$231, DW_AT_TI_symbol_name("_vTaskResume")
    2981                      .dwattr $C$DW$231, DW_AT_external
    2982                      .dwattr $C$DW$231, DW_AT_TI_begin_file("../FreeRTOS/Source/tasks_sysStk.c")
    2983                      .dwattr $C$DW$231, DW_AT_TI_begin_line(0x73a)
    2984                      .dwattr $C$DW$231, DW_AT_TI_begin_column(0x07)
    2985                      .dwattr $C$DW$231, DW_AT_TI_max_frame_size(0x06)
    2986                      .dwpsn  file "../FreeRTOS/Source/tasks_sysStk.c",line 1851,column 2,is_stmt,address _vTaskResume
    2987              
    2988                      .dwfde $C$DW$CIE, _vTaskResume
    2989              $C$DW$232       .dwtag  DW_TAG_formal_parameter, DW_AT_name("xTaskToResume")
    2990                      .dwattr $C$DW$232, DW_AT_TI_symbol_name("_xTaskToResume")
    2991                      .dwattr $C$DW$232, DW_AT_type(*$C$DW$T$48)
    2992                      .dwattr $C$DW$232, DW_AT_location[DW_OP_reg17]
    2993              ;*******************************************************************************
    2994              ;* FUNCTION NAME: vTaskResume                                                  *
    2995              ;*                                                                             *
TMS320C55x Assembler PC v4.4.1 Tue Oct 02 02:33:57 2018

Tools Copyright (c) 1996-2012 Texas Instruments Incorporated
tasks_sysStk.asm                                                     PAGE   67

    2996              ;*   Function Uses Regs : AC0,AC0,AC1,AC1,T0,AR0,XAR0,AR1,XAR1,AR2,AR3,XAR3,SP,*
    2997              ;*                        CARRY,TC1,M40,SATA,SATD,RDM,FRCT,SMUL                *
    2998              ;*   Stack Frame        : Compact (No Frame Pointer, w/ debug)                 *
    2999              ;*   Total Frame Size   : 6 words                                              *
    3000              ;*                        (2 return address/alignment)                         *
    3001              ;*                        (4 local values)                                     *
    3002              ;*   Min System Stack   : 1 word                                               *
    3003              ;*******************************************************************************
    3004 0009bc       _vTaskResume:
    3005                      .dwcfi  cfa_offset, 1
    3006                      .dwcfi  save_reg_to_mem, 91, -1
    3007 0009bc 4EFB          AADD #-5, SP
    3008                      .dwcfi  cfa_offset, 6
    3009              $C$DW$233       .dwtag  DW_TAG_variable, DW_AT_name("xTaskToResume")
    3010                      .dwattr $C$DW$233, DW_AT_TI_symbol_name("_xTaskToResume")
    3011                      .dwattr $C$DW$233, DW_AT_type(*$C$DW$T$48)
    3012                      .dwattr $C$DW$233, DW_AT_location[DW_OP_bregx 0x24 0]
    3013              $C$DW$234       .dwtag  DW_TAG_variable, DW_AT_name("pxTCB")
    3014                      .dwattr $C$DW$234, DW_AT_TI_symbol_name("_pxTCB")
    3015                      .dwattr $C$DW$234, DW_AT_type(*$C$DW$T$160)
    3016                      .dwattr $C$DW$234, DW_AT_location[DW_OP_bregx 0x24 2]
    3017 0009be EB00          MOV XAR0, dbl(*SP(#0))
         0009c0 85   
    3018                      .dwpsn  file "../FreeRTOS/Source/tasks_sysStk.c",line 1852,column 16,is_stmt
    3019 0009c1 ED00          MOV dbl(*SP(#0)), XAR3
         0009c3 BF   
    3020 0009c4 EB04          MOV XAR3, dbl(*SP(#2))
         0009c6 B5   
    3021                      .dwpsn  file "../FreeRTOS/Source/tasks_sysStk.c",line 1855,column 3,is_stmt
    3022 0009c7 ED00          MOV dbl(*SP(#0)), XAR3
         0009c9 BF   
    3023 0009ca 90B0          MOV XAR3, AC0
    3024 0009cc 6290          BCC $C$L108,AC0 != #0 ; |1855| 
    3025                                                      ; branchcc occurs ; |1855| 
    3026 0009ce 20     nop
    3027 0009cf 46B3   bset INTM
    3028 0009d1       $C$L107:    
    3029 0009d1       $C$DW$L$_vTaskResume$3$B:
    3030 0009d1 4A7E          B $C$L107 ; |1855| 
    3031                                                      ; branch occurs ; |1855| 
    3032 0009d3       $C$DW$L$_vTaskResume$3$E:
    3033 0009d3       $C$L108:    
    3034                      .dwpsn  file "../FreeRTOS/Source/tasks_sysStk.c",line 1859,column 3,is_stmt
    3035 0009d3 ED31          MOV dbl(*(#_pxCurrentTCB)), XAR3
         0009d5 BF00 
         0009d7 0004-
    3036 0009d9 90B0          MOV XAR3, AC0
    3037 0009db ED04          MOV dbl(*SP(#2)), XAR3
         0009dd BF   
    3038 0009de 90B1          MOV XAR3, AC1
    3039 0009e0 1210          CMPU AC1 == AC0, TC1 ; |1859| 
         0009e2 04   
    3040 0009e3 6D64          BCC $C$L111,TC1 ; |1859| 
         0009e5 0094 
    3041                                                      ; branchcc occurs ; |1859| 
TMS320C55x Assembler PC v4.4.1 Tue Oct 02 02:33:57 2018

Tools Copyright (c) 1996-2012 Texas Instruments Incorporated
tasks_sysStk.asm                                                     PAGE   68

    3042 0009e7 90B0          MOV XAR3, AC0
    3043 0009e9 6D00          BCC $C$L111,AC0 == #0 ; |1859| 
         0009eb 008E 
    3044                                                      ; branchcc occurs ; |1859| 
    3045                      .dwpsn  file "../FreeRTOS/Source/tasks_sysStk.c",line 1861,column 4,is_stmt
    3046 0009ed 20     nop
    3047 0009ee 46B3   bset INTM
    3048 0009f0 F731          ADD #1, *(#_usCriticalNesting) ; |1861| 
         0009f2 0001 
         0009f4 0000 
         0009f6 00!  
    3049                      .dwpsn  file "../FreeRTOS/Source/tasks_sysStk.c",line 1863,column 5,is_stmt
    3050              $C$DW$235       .dwtag  DW_TAG_TI_branch
    3051                      .dwattr $C$DW$235, DW_AT_low_pc(0x00)
    3052                      .dwattr $C$DW$235, DW_AT_name("_prvTaskIsTaskSuspended")
    3053                      .dwattr $C$DW$235, DW_AT_TI_call
    3054 0009f7 08FF          CALL #_prvTaskIsTaskSuspended ; |1863| 
         0009f9 46   
    3055                                                      ; call occurs [#_prvTaskIsTaskSuspended] ; |1863| 
    3056 0009fa 0404          BCC $C$L110,T0 == #0 ; |1863| 
         0009fc 60   
    3057                                                      ; branchcc occurs ; |1863| 
    3058                      .dwpsn  file "../FreeRTOS/Source/tasks_sysStk.c",line 1869,column 6,is_stmt
    3059 0009fd ED04          MOV dbl(*SP(#2)), XAR0
         0009ff 8F   
    3060 000a00 1404          AADD #4, AR0 ; |1869| 
         000a02 84   
    3061              $C$DW$236       .dwtag  DW_TAG_TI_branch
    3062                      .dwattr $C$DW$236, DW_AT_low_pc(0x00)
    3063                      .dwattr $C$DW$236, DW_AT_name("_uxListRemove")
    3064                      .dwattr $C$DW$236, DW_AT_TI_call
    3065 000a03 6C00          CALL #_uxListRemove ; |1869| 
         000a05 0000!
    3066                                                      ; call occurs [#_uxListRemove] ; |1869| 
    3067                      .dwpsn  file "../FreeRTOS/Source/tasks_sysStk.c",line 1870,column 6,is_stmt
    3068 000a07 ED04          MOV dbl(*SP(#2)), XAR3
         000a09 BF   
    3069 000a0a A931          MOV *(#_uxTopReadyPriority), AR1 ; |1870| 
         000a0c 0000 
         000a0e 72-  
    3070 000a0f AA6D          MOV *AR3(#24), AR2 ; |1870| 
         000a11 0018 
    3071 000a13 1298          CMPU AR2 <= AR1, TC1 ; |1870| 
         000a15 A4   
    3072 000a16 64E4          BCC $C$L109,TC1 ; |1870| 
    3073                                                      ; branchcc occurs ; |1870| 
    3074 000a18 A96D          MOV *AR3(#24), AR1 ; |1870| 
         000a1a 0018 
    3075 000a1c C931          MOV AR1, *(#_uxTopReadyPriority) ; |1870| 
         000a1e 0000 
         000a20 72-  
    3076 000a21       $C$L109:    
    3077 000a21 DF6D          MOV uns(*AR3(#24)), AC1 ; |1870| 
         000a23 1500 
         000a25 18   
TMS320C55x Assembler PC v4.4.1 Tue Oct 02 02:33:57 2018

Tools Copyright (c) 1996-2012 Texas Instruments Incorporated
tasks_sysStk.asm                                                     PAGE   69

    3078 000a26 ED04          MOV dbl(*SP(#2)), XAR1
         000a28 9F   
    3079 000a29 1015          SFTS AC1, #1, AC0 ; |1870| 
         000a2b 01   
    3080 000a2c 1013          ADD AC1 << #3, AC0 ; |1870| 
         000a2e 03   
    3081 000a2f 900B          MOV AC0, XAR3
    3082 000a31 EC31          AMOV #_pxReadyTasksLists, XAR0 ; |1870| 
         000a33 8E00 
         000a35 0006-
    3083              
    3084 000a37 14B1          AADD XAR3, XAR0 ; |1870| 
         000a39 80   
    3085 000a3a 1504  ||      AADD #4, AR1 ; |1870| 
         000a3c 9C   
    3086              
    3087              $C$DW$237       .dwtag  DW_TAG_TI_branch
    3088                      .dwattr $C$DW$237, DW_AT_low_pc(0x00)
    3089                      .dwattr $C$DW$237, DW_AT_name("_vListInsertEnd")
    3090                      .dwattr $C$DW$237, DW_AT_TI_call
    3091 000a3d 6C00          CALL #_vListInsertEnd ; |1870| 
         000a3f 0000!
    3092                                                      ; call occurs [#_vListInsertEnd] ; |1870| 
    3093                      .dwpsn  file "../FreeRTOS/Source/tasks_sysStk.c",line 1873,column 6,is_stmt
    3094 000a41 ED31          MOV dbl(*(#_pxCurrentTCB)), XAR3
         000a43 BF00 
         000a45 0004-
    3095 000a47 A96D          MOV *AR3(#24), AR1 ; |1873| 
         000a49 0018 
    3096 000a4b ED04          MOV dbl(*SP(#2)), XAR3
         000a4d BF   
    3097 000a4e AA6D          MOV *AR3(#24), AR2 ; |1873| 
         000a50 0018 
    3098 000a52 12A4          CMPU AR2 < AR1, TC1 ; |1873| 
         000a54 94   
    3099 000a55 6364          BCC $C$L110,TC1 ; |1873| 
    3100                                                      ; branchcc occurs ; |1873| 
    3101                      .dwpsn  file "../FreeRTOS/Source/tasks_sysStk.c",line 1878,column 7,is_stmt
    3102              $C$DW$238       .dwtag  DW_TAG_TI_branch
    3103                      .dwattr $C$DW$238, DW_AT_low_pc(0x00)
    3104                      .dwattr $C$DW$238, DW_AT_name("_vPortYield")
    3105                      .dwattr $C$DW$238, DW_AT_TI_call
    3106 000a57 6C00          CALL #_vPortYield ; |1878| 
         000a59 0000!
    3107                                                      ; call occurs [#_vPortYield] ; |1878| 
    3108                      .dwpsn  file "../FreeRTOS/Source/tasks_sysStk.c",line 1879,column 6,is_stmt
    3109 000a5b 4A00          B $C$L110 ; |1879| 
    3110                                                      ; branch occurs ; |1879| 
    3111 000a5d       $C$L110:    
    3112                      .dwpsn  file "../FreeRTOS/Source/tasks_sysStk.c",line 1890,column 4,is_stmt
    3113 000a5d A931          MOV *(#_usCriticalNesting), AR1 ; |1890| 
         000a5f 0000 
         000a61 00!  
    3114 000a62 0409          BCC $C$L111,AR1 == #0 ; |1890| 
         000a64 16   
TMS320C55x Assembler PC v4.4.1 Tue Oct 02 02:33:57 2018

Tools Copyright (c) 1996-2012 Texas Instruments Incorporated
tasks_sysStk.asm                                                     PAGE   70

    3115                                                      ; branchcc occurs ; |1890| 
    3116 000a65 F731          SUB #1, *(#_usCriticalNesting) ; |1890| 
         000a67 FFFF 
         000a69 0000 
         000a6b 00!  
    3117 000a6c 20            NOP
    3118 000a6d 20            NOP
    3119 000a6e 20            NOP
    3120 000a6f A931          MOV *(#_usCriticalNesting), AR1 ; |1890| 
         000a71 0000 
         000a73 00!  
    3121 000a74 6299          BCC $C$L111,AR1 != #0 ; |1890| 
    3122                                                      ; branchcc occurs ; |1890| 
    3123 000a76 20     nop
    3124 000a77 46B2   bclr INTM
    3125                      .dwpsn  file "../FreeRTOS/Source/tasks_sysStk.c",line 1891,column 3,is_stmt
    3126 000a79 4A00          B $C$L111 ; |1891| 
    3127                                                      ; branch occurs ; |1891| 
    3128 000a7b       $C$L111:    
    3129 000a7b 4E05          AADD #5, SP
    3130                      .dwcfi  cfa_offset, 1
    3131              $C$DW$239       .dwtag  DW_TAG_TI_branch
    3132                      .dwattr $C$DW$239, DW_AT_low_pc(0x00)
    3133                      .dwattr $C$DW$239, DW_AT_TI_return
    3134 000a7d 4804          RET
    3135                                                      ; return occurs
    3136              
    3137              $C$DW$240       .dwtag  DW_TAG_TI_loop
    3138                      .dwattr $C$DW$240, DW_AT_name("F:\eZdsp-DBG-sim\tmp1\c55x-sim2\foo\Debug\tasks_sysStk.asm:$C$L107:1:1
    3139                      .dwattr $C$DW$240, DW_AT_TI_begin_file("../FreeRTOS/Source/tasks_sysStk.c")
    3140                      .dwattr $C$DW$240, DW_AT_TI_begin_line(0x73f)
    3141                      .dwattr $C$DW$240, DW_AT_TI_end_line(0x73f)
    3142              $C$DW$241       .dwtag  DW_TAG_TI_loop_range
    3143                      .dwattr $C$DW$241, DW_AT_low_pc($C$DW$L$_vTaskResume$3$B)
    3144                      .dwattr $C$DW$241, DW_AT_high_pc($C$DW$L$_vTaskResume$3$E)
    3145                      .dwendtag $C$DW$240
    3146              
    3147                      .dwattr $C$DW$231, DW_AT_TI_end_file("../FreeRTOS/Source/tasks_sysStk.c")
    3148                      .dwattr $C$DW$231, DW_AT_TI_end_line(0x768)
    3149                      .dwattr $C$DW$231, DW_AT_TI_end_column(0x02)
    3150                      .dwendentry
    3151                      .dwendtag $C$DW$231
    3152              
    3153 000a7f               .sect   ".text"
    3154                      .align 4
    3155                      .global _xTaskResumeFromISR
    3156              
    3157              $C$DW$242       .dwtag  DW_TAG_subprogram, DW_AT_name("xTaskResumeFromISR")
    3158                      .dwattr $C$DW$242, DW_AT_low_pc(_xTaskResumeFromISR)
    3159                      .dwattr $C$DW$242, DW_AT_high_pc(0x00)
    3160                      .dwattr $C$DW$242, DW_AT_TI_symbol_name("_xTaskResumeFromISR")
    3161                      .dwattr $C$DW$242, DW_AT_external
    3162                      .dwattr $C$DW$242, DW_AT_type(*$C$DW$T$43)
    3163                      .dwattr $C$DW$242, DW_AT_TI_begin_file("../FreeRTOS/Source/tasks_sysStk.c")
    3164                      .dwattr $C$DW$242, DW_AT_TI_begin_line(0x770)
TMS320C55x Assembler PC v4.4.1 Tue Oct 02 02:33:57 2018

Tools Copyright (c) 1996-2012 Texas Instruments Incorporated
tasks_sysStk.asm                                                     PAGE   71

    3165                      .dwattr $C$DW$242, DW_AT_TI_begin_column(0x0d)
    3166                      .dwattr $C$DW$242, DW_AT_TI_max_frame_size(0x08)
    3167                      .dwpsn  file "../FreeRTOS/Source/tasks_sysStk.c",line 1905,column 2,is_stmt,address _xTaskResumeFromI
    3168              
    3169                      .dwfde $C$DW$CIE, _xTaskResumeFromISR
    3170              $C$DW$243       .dwtag  DW_TAG_formal_parameter, DW_AT_name("xTaskToResume")
    3171                      .dwattr $C$DW$243, DW_AT_TI_symbol_name("_xTaskToResume")
    3172                      .dwattr $C$DW$243, DW_AT_type(*$C$DW$T$48)
    3173                      .dwattr $C$DW$243, DW_AT_location[DW_OP_reg17]
    3174              ;*******************************************************************************
    3175              ;* FUNCTION NAME: xTaskResumeFromISR                                           *
    3176              ;*                                                                             *
    3177              ;*   Function Uses Regs : AC0,AC0,AC1,AC1,T0,AR0,XAR0,AR1,XAR1,AR2,AR3,XAR3,SP,*
    3178              ;*                        CARRY,TC1,M40,SATA,SATD,RDM,FRCT,SMUL                *
    3179              ;*   Stack Frame        : Compact (No Frame Pointer, w/ debug)                 *
    3180              ;*   Total Frame Size   : 8 words                                              *
    3181              ;*                        (1 return address/alignment)                         *
    3182              ;*                        (7 local values)                                     *
    3183              ;*   Min System Stack   : 1 word                                               *
    3184              ;*******************************************************************************
    3185 000a80       _xTaskResumeFromISR:
    3186                      .dwcfi  cfa_offset, 1
    3187                      .dwcfi  save_reg_to_mem, 91, -1
    3188 000a80 4EF9          AADD #-7, SP
    3189                      .dwcfi  cfa_offset, 8
    3190              $C$DW$244       .dwtag  DW_TAG_variable, DW_AT_name("xTaskToResume")
    3191                      .dwattr $C$DW$244, DW_AT_TI_symbol_name("_xTaskToResume")
    3192                      .dwattr $C$DW$244, DW_AT_type(*$C$DW$T$48)
    3193                      .dwattr $C$DW$244, DW_AT_location[DW_OP_bregx 0x24 0]
    3194              $C$DW$245       .dwtag  DW_TAG_variable, DW_AT_name("xYieldRequired")
    3195                      .dwattr $C$DW$245, DW_AT_TI_symbol_name("_xYieldRequired")
    3196                      .dwattr $C$DW$245, DW_AT_type(*$C$DW$T$43)
    3197                      .dwattr $C$DW$245, DW_AT_location[DW_OP_bregx 0x24 2]
    3198              $C$DW$246       .dwtag  DW_TAG_variable, DW_AT_name("pxTCB")
    3199                      .dwattr $C$DW$246, DW_AT_TI_symbol_name("_pxTCB")
    3200                      .dwattr $C$DW$246, DW_AT_type(*$C$DW$T$160)
    3201                      .dwattr $C$DW$246, DW_AT_location[DW_OP_bregx 0x24 4]
    3202              $C$DW$247       .dwtag  DW_TAG_variable, DW_AT_name("uxSavedInterruptStatus")
    3203                      .dwattr $C$DW$247, DW_AT_TI_symbol_name("_uxSavedInterruptStatus")
    3204                      .dwattr $C$DW$247, DW_AT_type(*$C$DW$T$25)
    3205                      .dwattr $C$DW$247, DW_AT_location[DW_OP_bregx 0x24 6]
    3206 000a82 EB00          MOV XAR0, dbl(*SP(#0))
         000a84 85   
    3207                      .dwpsn  file "../FreeRTOS/Source/tasks_sysStk.c",line 1906,column 13,is_stmt
    3208 000a85 E604          MOV #0, *SP(#2) ; |1906| 
         000a87 00   
    3209                      .dwpsn  file "../FreeRTOS/Source/tasks_sysStk.c",line 1907,column 16,is_stmt
    3210 000a88 ED00          MOV dbl(*SP(#0)), XAR3
         000a8a BF   
    3211 000a8b EB08          MOV XAR3, dbl(*SP(#4))
         000a8d B5   
    3212                      .dwpsn  file "../FreeRTOS/Source/tasks_sysStk.c",line 1910,column 3,is_stmt
    3213 000a8e ED00          MOV dbl(*SP(#0)), XAR3
         000a90 BF   
    3214 000a91 90B0          MOV XAR3, AC0
TMS320C55x Assembler PC v4.4.1 Tue Oct 02 02:33:57 2018

Tools Copyright (c) 1996-2012 Texas Instruments Incorporated
tasks_sysStk.asm                                                     PAGE   72

    3215 000a93 6290          BCC $C$L113,AC0 != #0 ; |1910| 
    3216                                                      ; branchcc occurs ; |1910| 
    3217 000a95 20     nop
    3218 000a96 46B3   bset INTM
    3219 000a98       $C$L112:    
    3220 000a98       $C$DW$L$_xTaskResumeFromISR$3$B:
    3221 000a98 4A7E          B $C$L112 ; |1910| 
    3222                                                      ; branch occurs ; |1910| 
    3223 000a9a       $C$DW$L$_xTaskResumeFromISR$3$E:
    3224 000a9a       $C$L113:    
    3225                      .dwpsn  file "../FreeRTOS/Source/tasks_sysStk.c",line 1930,column 3,is_stmt
    3226 000a9a E60C          MOV #0, *SP(#6) ; |1930| 
         000a9c 00   
    3227                      .dwpsn  file "../FreeRTOS/Source/tasks_sysStk.c",line 1932,column 4,is_stmt
    3228 000a9d ED08          MOV dbl(*SP(#4)), XAR0
         000a9f 8F   
    3229              $C$DW$248       .dwtag  DW_TAG_TI_branch
    3230                      .dwattr $C$DW$248, DW_AT_low_pc(0x00)
    3231                      .dwattr $C$DW$248, DW_AT_name("_prvTaskIsTaskSuspended")
    3232                      .dwattr $C$DW$248, DW_AT_TI_call
    3233 000aa0 08FE          CALL #_prvTaskIsTaskSuspended ; |1932| 
         000aa2 9D   
    3234                                                      ; call occurs [#_prvTaskIsTaskSuspended] ; |1932| 
    3235 000aa3 0404          BCC $C$L117,T0 == #0 ; |1932| 
         000aa5 77   
    3236                                                      ; branchcc occurs ; |1932| 
    3237                      .dwpsn  file "../FreeRTOS/Source/tasks_sysStk.c",line 1937,column 5,is_stmt
    3238 000aa6 A931          MOV *(#_uxSchedulerSuspended), AR1 ; |1937| 
         000aa8 0000 
         000aaa 7C-  
    3239 000aab 0419          BCC $C$L116,AR1 != #0 ; |1937| 
         000aad 5F   
    3240                                                      ; branchcc occurs ; |1937| 
    3241                      .dwpsn  file "../FreeRTOS/Source/tasks_sysStk.c",line 1941,column 6,is_stmt
    3242 000aae ED31          MOV dbl(*(#_pxCurrentTCB)), XAR3
         000ab0 BF00 
         000ab2 0004-
    3243 000ab4 A96D          MOV *AR3(#24), AR1 ; |1941| 
         000ab6 0018 
    3244 000ab8 ED08          MOV dbl(*SP(#4)), XAR3
         000aba BF   
    3245 000abb AA6D          MOV *AR3(#24), AR2 ; |1941| 
         000abd 0018 
    3246 000abf 12A4          CMPU AR2 < AR1, TC1 ; |1941| 
         000ac1 94   
    3247 000ac2 61E4          BCC $C$L114,TC1 ; |1941| 
    3248                                                      ; branchcc occurs ; |1941| 
    3249                      .dwpsn  file "../FreeRTOS/Source/tasks_sysStk.c",line 1943,column 7,is_stmt
    3250 000ac4 E604          MOV #1, *SP(#2) ; |1943| 
         000ac6 01   
    3251                      .dwpsn  file "../FreeRTOS/Source/tasks_sysStk.c",line 1944,column 6,is_stmt
    3252 000ac7       $C$L114:    
    3253                      .dwpsn  file "../FreeRTOS/Source/tasks_sysStk.c",line 1950,column 6,is_stmt
    3254 000ac7 ED08          MOV dbl(*SP(#4)), XAR0
         000ac9 8F   
TMS320C55x Assembler PC v4.4.1 Tue Oct 02 02:33:57 2018

Tools Copyright (c) 1996-2012 Texas Instruments Incorporated
tasks_sysStk.asm                                                     PAGE   73

    3255 000aca 1404          AADD #4, AR0 ; |1950| 
         000acc 84   
    3256              $C$DW$249       .dwtag  DW_TAG_TI_branch
    3257                      .dwattr $C$DW$249, DW_AT_low_pc(0x00)
    3258                      .dwattr $C$DW$249, DW_AT_name("_uxListRemove")
    3259                      .dwattr $C$DW$249, DW_AT_TI_call
    3260 000acd 6C00          CALL #_uxListRemove ; |1950| 
         000acf 0000!
    3261                                                      ; call occurs [#_uxListRemove] ; |1950| 
    3262                      .dwpsn  file "../FreeRTOS/Source/tasks_sysStk.c",line 1951,column 6,is_stmt
    3263 000ad1 ED08          MOV dbl(*SP(#4)), XAR3
         000ad3 BF   
    3264 000ad4 A931          MOV *(#_uxTopReadyPriority), AR1 ; |1951| 
         000ad6 0000 
         000ad8 72-  
    3265 000ad9 AA6D          MOV *AR3(#24), AR2 ; |1951| 
         000adb 0018 
    3266 000add 1298          CMPU AR2 <= AR1, TC1 ; |1951| 
         000adf A4   
    3267 000ae0 64E4          BCC $C$L115,TC1 ; |1951| 
    3268                                                      ; branchcc occurs ; |1951| 
    3269 000ae2 A96D          MOV *AR3(#24), AR1 ; |1951| 
         000ae4 0018 
    3270 000ae6 C931          MOV AR1, *(#_uxTopReadyPriority) ; |1951| 
         000ae8 0000 
         000aea 72-  
    3271 000aeb       $C$L115:    
    3272 000aeb DF6D          MOV uns(*AR3(#24)), AC1 ; |1951| 
         000aed 1500 
         000aef 18   
    3273 000af0 ED08          MOV dbl(*SP(#4)), XAR1
         000af2 9F   
    3274 000af3 1015          SFTS AC1, #1, AC0 ; |1951| 
         000af5 01   
    3275 000af6 1013          ADD AC1 << #3, AC0 ; |1951| 
         000af8 03   
    3276 000af9 900B          MOV AC0, XAR3
    3277 000afb EC31          AMOV #_pxReadyTasksLists, XAR0 ; |1951| 
         000afd 8E00 
         000aff 0006-
    3278              
    3279 000b01 14B1          AADD XAR3, XAR0 ; |1951| 
         000b03 80   
    3280 000b04 1504  ||      AADD #4, AR1 ; |1951| 
         000b06 9C   
    3281              
    3282              $C$DW$250       .dwtag  DW_TAG_TI_branch
    3283                      .dwattr $C$DW$250, DW_AT_low_pc(0x00)
    3284                      .dwattr $C$DW$250, DW_AT_name("_vListInsertEnd")
    3285                      .dwattr $C$DW$250, DW_AT_TI_call
    3286 000b07 6C00          CALL #_vListInsertEnd ; |1951| 
         000b09 0000!
    3287                                                      ; call occurs [#_vListInsertEnd] ; |1951| 
    3288                      .dwpsn  file "../FreeRTOS/Source/tasks_sysStk.c",line 1952,column 5,is_stmt
    3289 000b0b 4A10          B $C$L117 ; |1952| 
TMS320C55x Assembler PC v4.4.1 Tue Oct 02 02:33:57 2018

Tools Copyright (c) 1996-2012 Texas Instruments Incorporated
tasks_sysStk.asm                                                     PAGE   74

    3290                                                      ; branch occurs ; |1952| 
    3291 000b0d       $C$L116:    
    3292                      .dwpsn  file "../FreeRTOS/Source/tasks_sysStk.c",line 1958,column 6,is_stmt
    3293 000b0d ED08          MOV dbl(*SP(#4)), XAR1
         000b0f 9F   
    3294 000b10 EC31          AMOV #_xPendingReadyList, XAR0 ; |1958| 
         000b12 8E00 
         000b14 0050-
    3295 000b16 140E          AADD #14, AR1 ; |1958| 
         000b18 94   
    3296              $C$DW$251       .dwtag  DW_TAG_TI_branch
    3297                      .dwattr $C$DW$251, DW_AT_low_pc(0x00)
    3298                      .dwattr $C$DW$251, DW_AT_name("_vListInsertEnd")
    3299                      .dwattr $C$DW$251, DW_AT_TI_call
    3300 000b19 6C00          CALL #_vListInsertEnd ; |1958| 
         000b1b 0000!
    3301                                                      ; call occurs [#_vListInsertEnd] ; |1958| 
    3302                      .dwpsn  file "../FreeRTOS/Source/tasks_sysStk.c",line 1960,column 4,is_stmt
    3303 000b1d       $C$L117:    
    3304                      .dwpsn  file "../FreeRTOS/Source/tasks_sysStk.c",line 1966,column 3,is_stmt
    3305                      .dwpsn  file "../FreeRTOS/Source/tasks_sysStk.c",line 1968,column 3,is_stmt
    3306 000b1d A404          MOV *SP(#2), T0 ; |1968| 
    3307                      .dwpsn  file "../FreeRTOS/Source/tasks_sysStk.c",line 1969,column 2,is_stmt
    3308 000b1f 4E07          AADD #7, SP
    3309                      .dwcfi  cfa_offset, 1
    3310              $C$DW$252       .dwtag  DW_TAG_TI_branch
    3311                      .dwattr $C$DW$252, DW_AT_low_pc(0x00)
    3312                      .dwattr $C$DW$252, DW_AT_TI_return
    3313 000b21 4804          RET
    3314                                                      ; return occurs
    3315              
    3316              $C$DW$253       .dwtag  DW_TAG_TI_loop
    3317                      .dwattr $C$DW$253, DW_AT_name("F:\eZdsp-DBG-sim\tmp1\c55x-sim2\foo\Debug\tasks_sysStk.asm:$C$L112:1:1
    3318                      .dwattr $C$DW$253, DW_AT_TI_begin_file("../FreeRTOS/Source/tasks_sysStk.c")
    3319                      .dwattr $C$DW$253, DW_AT_TI_begin_line(0x776)
    3320                      .dwattr $C$DW$253, DW_AT_TI_end_line(0x776)
    3321              $C$DW$254       .dwtag  DW_TAG_TI_loop_range
    3322                      .dwattr $C$DW$254, DW_AT_low_pc($C$DW$L$_xTaskResumeFromISR$3$B)
    3323                      .dwattr $C$DW$254, DW_AT_high_pc($C$DW$L$_xTaskResumeFromISR$3$E)
    3324                      .dwendtag $C$DW$253
    3325              
    3326                      .dwattr $C$DW$242, DW_AT_TI_end_file("../FreeRTOS/Source/tasks_sysStk.c")
    3327                      .dwattr $C$DW$242, DW_AT_TI_end_line(0x7b1)
    3328                      .dwattr $C$DW$242, DW_AT_TI_end_column(0x02)
    3329                      .dwendentry
    3330                      .dwendtag $C$DW$242
    3331              
    3332 000b23               .sect   ".text"
    3333                      .align 4
    3334                      .global _vTaskStartScheduler
    3335              
    3336              $C$DW$255       .dwtag  DW_TAG_subprogram, DW_AT_name("vTaskStartScheduler")
    3337                      .dwattr $C$DW$255, DW_AT_low_pc(_vTaskStartScheduler)
    3338                      .dwattr $C$DW$255, DW_AT_high_pc(0x00)
    3339                      .dwattr $C$DW$255, DW_AT_TI_symbol_name("_vTaskStartScheduler")
TMS320C55x Assembler PC v4.4.1 Tue Oct 02 02:33:57 2018

Tools Copyright (c) 1996-2012 Texas Instruments Incorporated
tasks_sysStk.asm                                                     PAGE   75

    3340                      .dwattr $C$DW$255, DW_AT_external
    3341                      .dwattr $C$DW$255, DW_AT_TI_begin_file("../FreeRTOS/Source/tasks_sysStk.c")
    3342                      .dwattr $C$DW$255, DW_AT_TI_begin_line(0x7b6)
    3343                      .dwattr $C$DW$255, DW_AT_TI_begin_column(0x06)
    3344                      .dwattr $C$DW$255, DW_AT_TI_max_frame_size(0x02)
    3345                      .dwpsn  file "../FreeRTOS/Source/tasks_sysStk.c",line 1975,column 1,is_stmt,address _vTaskStartSchedu
    3346              
    3347                      .dwfde $C$DW$CIE, _vTaskStartScheduler
    3348              ;*******************************************************************************
    3349              ;* FUNCTION NAME: vTaskStartScheduler                                          *
    3350              ;*                                                                             *
    3351              ;*   Function Uses Regs : AC0,AC0,T0,T1,AR0,XAR0,AR1,XAR1,AR2,XAR2,SP,TC1,M40, *
    3352              ;*                        SATA,SATD,RDM,FRCT,SMUL                              *
    3353              ;*   Stack Frame        : Compact (No Frame Pointer, w/ debug)                 *
    3354              ;*   Total Frame Size   : 2 words                                              *
    3355              ;*                        (1 return address/alignment)                         *
    3356              ;*                        (1 local values)                                     *
    3357              ;*   Min System Stack   : 1 word                                               *
    3358              ;*******************************************************************************
    3359 000b24       _vTaskStartScheduler:
    3360                      .dwcfi  cfa_offset, 1
    3361                      .dwcfi  save_reg_to_mem, 91, -1
    3362 000b24 4EFF          AADD #-1, SP
    3363                      .dwcfi  cfa_offset, 2
    3364              $C$DW$256       .dwtag  DW_TAG_variable, DW_AT_name("xReturn")
    3365                      .dwattr $C$DW$256, DW_AT_TI_symbol_name("_xReturn")
    3366                      .dwattr $C$DW$256, DW_AT_type(*$C$DW$T$43)
    3367                      .dwattr $C$DW$256, DW_AT_location[DW_OP_bregx 0x24 0]
    3368                      .dwpsn  file "../FreeRTOS/Source/tasks_sysStk.c",line 2008,column 3,is_stmt
    3369 000b26 7A00          MOV #(_prvIdleTask >> 16) << #16, AC0 ; |2008| 
         000b28 000A%
    3370 000b2a EC31          AMOV #_xIdleTaskHandle, XAR2 ; |2008| 
         000b2c AE00 
         000b2e 007A-
    3371 000b30 EC31          AMOV #0, XAR1 ; |2008| 
         000b32 9E00 
         000b34 0000 
    3372 000b36 EC31          AMOV #$C$FSL1, XAR0 ; |2008| 
         000b38 8E00 
         000b3a 0000+
    3373 000b3c 7601          MOV #256, T0 ; |2008| 
         000b3e 0048 
    3374 000b40 7E00          OR #(_prvIdleTask & 0xffff), AC0, AC0 ; |2008| 
         000b42 0000%
    3375              $C$DW$257       .dwtag  DW_TAG_TI_branch
    3376                      .dwattr $C$DW$257, DW_AT_low_pc(0x00)
    3377                      .dwattr $C$DW$257, DW_AT_name("_xTaskCreate")
    3378                      .dwattr $C$DW$257, DW_AT_TI_call
    3379              
    3380 000b44 08F4          CALL #_xTaskCreate ; |2008| 
         000b46 B7   
    3381 000b47 3D05  ||      MOV #0, T1
    3382              
    3383                                                      ; call occurs [#_xTaskCreate] ; |2008| 
    3384 000b49 C400          MOV T0, *SP(#0) ; |2008| 
TMS320C55x Assembler PC v4.4.1 Tue Oct 02 02:33:57 2018

Tools Copyright (c) 1996-2012 Texas Instruments Incorporated
tasks_sysStk.asm                                                     PAGE   76

    3385                      .dwpsn  file "../FreeRTOS/Source/tasks_sysStk.c",line 2030,column 2,is_stmt
    3386 000b4b F000          CMP *SP(#0) == #1, TC1 ; |2030| 
         000b4d 0001 
    3387 000b4f 0474          BCC $C$L118,!TC1 ; |2030| 
         000b51 28   
    3388                                                      ; branchcc occurs ; |2030| 
    3389                      .dwpsn  file "../FreeRTOS/Source/tasks_sysStk.c",line 2046,column 3,is_stmt
    3390 000b52 20     nop
    3391 000b53 46B3   bset INTM
    3392                      .dwpsn  file "../FreeRTOS/Source/tasks_sysStk.c",line 2056,column 3,is_stmt
    3393 000b55 7AFF          MOV #-1 << #16, AC0 ; |2056| 
         000b57 FF0A 
    3394 000b59 7EFF          OR #0xffff, AC0, AC0 ; |2056| 
         000b5b FF00 
    3395 000b5d EB31          MOV AC0, dbl(*(#_xNextTaskUnblockTime)) ; |2056| 
         000b5f 0800 
         000b61 0078-
    3396                      .dwpsn  file "../FreeRTOS/Source/tasks_sysStk.c",line 2057,column 3,is_stmt
    3397 000b63 E631          MOV #1, *(#_xSchedulerRunning) ; |2057| 
         000b65 0100 
         000b67 0073-
    3398                      .dwpsn  file "../FreeRTOS/Source/tasks_sysStk.c",line 2058,column 3,is_stmt
    3399 000b69 3C00          MOV #0, AC0 ; |2058| 
    3400 000b6b EB31          MOV AC0, dbl(*(#_xTickCount)) ; |2058| 
         000b6d 0800 
         000b6f 0070-
    3401                      .dwpsn  file "../FreeRTOS/Source/tasks_sysStk.c",line 2072,column 3,is_stmt
    3402              $C$DW$258       .dwtag  DW_TAG_TI_branch
    3403                      .dwattr $C$DW$258, DW_AT_low_pc(0x00)
    3404                      .dwattr $C$DW$258, DW_AT_name("_xPortStartScheduler")
    3405                      .dwattr $C$DW$258, DW_AT_TI_call
    3406 000b71 6C00          CALL #_xPortStartScheduler ; |2072| 
         000b73 0000!
    3407                                                      ; call occurs [#_xPortStartScheduler] ; |2072| 
    3408 000b75 0414          BCC $C$L121,T0 != #0 ; |2072| 
         000b77 13   
    3409                                                      ; branchcc occurs ; |2072| 
    3410                      .dwpsn  file "../FreeRTOS/Source/tasks_sysStk.c",line 2076,column 3,is_stmt
    3411                      .dwpsn  file "../FreeRTOS/Source/tasks_sysStk.c",line 2081,column 2,is_stmt
    3412 000b78 4A11          B $C$L121 ; |2081| 
    3413                                                      ; branch occurs ; |2081| 
    3414 000b7a       $C$L118:    
    3415                      .dwpsn  file "../FreeRTOS/Source/tasks_sysStk.c",line 2087,column 3,is_stmt
    3416 000b7a F000          CMP *SP(#0) == #-1, TC1 ; |2087| 
         000b7c FFFF 
    3417 000b7e 3C09          MOV #0, AR1
    3418 000b80 6164          BCC $C$L119,TC1 ; |2087| 
    3419                                                      ; branchcc occurs ; |2087| 
    3420 000b82 3C19          MOV #1, AR1
    3421 000b84       $C$L119:    
    3422 000b84 6299          BCC $C$L121,AR1 != #0 ; |2087| 
    3423                                                      ; branchcc occurs ; |2087| 
    3424 000b86 20     nop
    3425 000b87 46B3   bset INTM
    3426 000b89       $C$L120:    
TMS320C55x Assembler PC v4.4.1 Tue Oct 02 02:33:57 2018

Tools Copyright (c) 1996-2012 Texas Instruments Incorporated
tasks_sysStk.asm                                                     PAGE   77

    3427 000b89       $C$DW$L$_vTaskStartScheduler$8$B:
    3428 000b89 4A7E          B $C$L120 ; |2087| 
    3429                                                      ; branch occurs ; |2087| 
    3430 000b8b       $C$DW$L$_vTaskStartScheduler$8$E:
    3431 000b8b       $C$L121:    
    3432 000b8b 4E01          AADD #1, SP
    3433                      .dwcfi  cfa_offset, 1
    3434              $C$DW$259       .dwtag  DW_TAG_TI_branch
    3435                      .dwattr $C$DW$259, DW_AT_low_pc(0x00)
    3436                      .dwattr $C$DW$259, DW_AT_TI_return
    3437 000b8d 4804          RET
    3438                                                      ; return occurs
    3439              
    3440              $C$DW$260       .dwtag  DW_TAG_TI_loop
    3441                      .dwattr $C$DW$260, DW_AT_name("F:\eZdsp-DBG-sim\tmp1\c55x-sim2\foo\Debug\tasks_sysStk.asm:$C$L120:1:1
    3442                      .dwattr $C$DW$260, DW_AT_TI_begin_file("../FreeRTOS/Source/tasks_sysStk.c")
    3443                      .dwattr $C$DW$260, DW_AT_TI_begin_line(0x827)
    3444                      .dwattr $C$DW$260, DW_AT_TI_end_line(0x827)
    3445              $C$DW$261       .dwtag  DW_TAG_TI_loop_range
    3446                      .dwattr $C$DW$261, DW_AT_low_pc($C$DW$L$_vTaskStartScheduler$8$B)
    3447                      .dwattr $C$DW$261, DW_AT_high_pc($C$DW$L$_vTaskStartScheduler$8$E)
    3448                      .dwendtag $C$DW$260
    3449              
    3450                      .dwattr $C$DW$255, DW_AT_TI_end_file("../FreeRTOS/Source/tasks_sysStk.c")
    3451                      .dwattr $C$DW$255, DW_AT_TI_end_line(0x82d)
    3452                      .dwattr $C$DW$255, DW_AT_TI_end_column(0x01)
    3453                      .dwendentry
    3454                      .dwendtag $C$DW$255
    3455              
    3456 000b8f               .sect   ".text"
    3457                      .align 4
    3458                      .global _vTaskEndScheduler
    3459              
    3460              $C$DW$262       .dwtag  DW_TAG_subprogram, DW_AT_name("vTaskEndScheduler")
    3461                      .dwattr $C$DW$262, DW_AT_low_pc(_vTaskEndScheduler)
    3462                      .dwattr $C$DW$262, DW_AT_high_pc(0x00)
    3463                      .dwattr $C$DW$262, DW_AT_TI_symbol_name("_vTaskEndScheduler")
    3464                      .dwattr $C$DW$262, DW_AT_external
    3465                      .dwattr $C$DW$262, DW_AT_TI_begin_file("../FreeRTOS/Source/tasks_sysStk.c")
    3466                      .dwattr $C$DW$262, DW_AT_TI_begin_line(0x830)
    3467                      .dwattr $C$DW$262, DW_AT_TI_begin_column(0x06)
    3468                      .dwattr $C$DW$262, DW_AT_TI_max_frame_size(0x02)
    3469                      .dwpsn  file "../FreeRTOS/Source/tasks_sysStk.c",line 2097,column 1,is_stmt,address _vTaskEndSchedule
    3470              
    3471                      .dwfde $C$DW$CIE, _vTaskEndScheduler
    3472              ;*******************************************************************************
    3473              ;* FUNCTION NAME: vTaskEndScheduler                                            *
    3474              ;*                                                                             *
    3475              ;*   Function Uses Regs : SP,M40,SATA,SATD,RDM,FRCT,SMUL                       *
    3476              ;*   Stack Frame        : Compact (No Frame Pointer, w/ debug)                 *
    3477              ;*   Total Frame Size   : 2 words                                              *
    3478              ;*                        (2 return address/alignment)                         *
    3479              ;*   Min System Stack   : 1 word                                               *
    3480              ;*******************************************************************************
    3481 000b90       _vTaskEndScheduler:
TMS320C55x Assembler PC v4.4.1 Tue Oct 02 02:33:57 2018

Tools Copyright (c) 1996-2012 Texas Instruments Incorporated
tasks_sysStk.asm                                                     PAGE   78

    3482                      .dwcfi  cfa_offset, 1
    3483                      .dwcfi  save_reg_to_mem, 91, -1
    3484 000b90 4EFF          AADD #-1, SP
    3485                      .dwcfi  cfa_offset, 2
    3486                      .dwpsn  file "../FreeRTOS/Source/tasks_sysStk.c",line 2101,column 2,is_stmt
    3487 000b92 20     nop
    3488 000b93 46B3   bset INTM
    3489                      .dwpsn  file "../FreeRTOS/Source/tasks_sysStk.c",line 2102,column 2,is_stmt
    3490 000b95 E631          MOV #0, *(#_xSchedulerRunning) ; |2102| 
         000b97 0000 
         000b99 0073-
    3491                      .dwpsn  file "../FreeRTOS/Source/tasks_sysStk.c",line 2103,column 2,is_stmt
    3492              $C$DW$263       .dwtag  DW_TAG_TI_branch
    3493                      .dwattr $C$DW$263, DW_AT_low_pc(0x00)
    3494                      .dwattr $C$DW$263, DW_AT_name("_vPortEndScheduler")
    3495                      .dwattr $C$DW$263, DW_AT_TI_call
    3496 000b9b 6C00          CALL #_vPortEndScheduler ; |2103| 
         000b9d 0000!
    3497                                                      ; call occurs [#_vPortEndScheduler] ; |2103| 
    3498                      .dwpsn  file "../FreeRTOS/Source/tasks_sysStk.c",line 2104,column 1,is_stmt
    3499 000b9f 4E01          AADD #1, SP
    3500                      .dwcfi  cfa_offset, 1
    3501              $C$DW$264       .dwtag  DW_TAG_TI_branch
    3502                      .dwattr $C$DW$264, DW_AT_low_pc(0x00)
    3503                      .dwattr $C$DW$264, DW_AT_TI_return
    3504 000ba1 4804          RET
    3505                                                      ; return occurs
    3506                      .dwattr $C$DW$262, DW_AT_TI_end_file("../FreeRTOS/Source/tasks_sysStk.c")
    3507                      .dwattr $C$DW$262, DW_AT_TI_end_line(0x838)
    3508                      .dwattr $C$DW$262, DW_AT_TI_end_column(0x01)
    3509                      .dwendentry
    3510                      .dwendtag $C$DW$262
    3511              
    3512 000ba3               .sect   ".text"
    3513                      .align 4
    3514                      .global _vTaskSuspendAll
    3515              
    3516              $C$DW$265       .dwtag  DW_TAG_subprogram, DW_AT_name("vTaskSuspendAll")
    3517                      .dwattr $C$DW$265, DW_AT_low_pc(_vTaskSuspendAll)
    3518                      .dwattr $C$DW$265, DW_AT_high_pc(0x00)
    3519                      .dwattr $C$DW$265, DW_AT_TI_symbol_name("_vTaskSuspendAll")
    3520                      .dwattr $C$DW$265, DW_AT_external
    3521                      .dwattr $C$DW$265, DW_AT_TI_begin_file("../FreeRTOS/Source/tasks_sysStk.c")
    3522                      .dwattr $C$DW$265, DW_AT_TI_begin_line(0x83b)
    3523                      .dwattr $C$DW$265, DW_AT_TI_begin_column(0x06)
    3524                      .dwattr $C$DW$265, DW_AT_TI_max_frame_size(0x01)
    3525                      .dwpsn  file "../FreeRTOS/Source/tasks_sysStk.c",line 2108,column 1,is_stmt,address _vTaskSuspendAll
    3526              
    3527                      .dwfde $C$DW$CIE, _vTaskSuspendAll
    3528              ;*******************************************************************************
    3529              ;* FUNCTION NAME: vTaskSuspendAll                                              *
    3530              ;*                                                                             *
    3531              ;*   Function Uses Regs : SP,CARRY,M40,SATA,SATD,RDM,FRCT,SMUL                 *
    3532              ;*   Stack Frame        : Compact (No Frame Pointer, w/ debug)                 *
    3533              ;*   Total Frame Size   : 1 word                                               *
TMS320C55x Assembler PC v4.4.1 Tue Oct 02 02:33:57 2018

Tools Copyright (c) 1996-2012 Texas Instruments Incorporated
tasks_sysStk.asm                                                     PAGE   79

    3534              ;*                        (1 return address/alignment)                         *
    3535              ;*   Min System Stack   : 1 word                                               *
    3536              ;*******************************************************************************
    3537 000ba4       _vTaskSuspendAll:
    3538                      .dwcfi  cfa_offset, 1
    3539                      .dwcfi  save_reg_to_mem, 91, -1
    3540                      .dwpsn  file "../FreeRTOS/Source/tasks_sysStk.c",line 2113,column 2,is_stmt
    3541 000ba4 F731          ADD #1, *(#_uxSchedulerSuspended) ; |2113| 
         000ba6 0001 
         000ba8 0000 
         000baa 7C-  
    3542                      .dwpsn  file "../FreeRTOS/Source/tasks_sysStk.c",line 2114,column 1,is_stmt
    3543              $C$DW$266       .dwtag  DW_TAG_TI_branch
    3544                      .dwattr $C$DW$266, DW_AT_low_pc(0x00)
    3545                      .dwattr $C$DW$266, DW_AT_TI_return
    3546 000bab 4804          RET
    3547                                                      ; return occurs
    3548                      .dwattr $C$DW$265, DW_AT_TI_end_file("../FreeRTOS/Source/tasks_sysStk.c")
    3549                      .dwattr $C$DW$265, DW_AT_TI_end_line(0x842)
    3550                      .dwattr $C$DW$265, DW_AT_TI_end_column(0x01)
    3551                      .dwendentry
    3552                      .dwendtag $C$DW$265
    3553              
    3554 000bad               .sect   ".text"
    3555                      .align 4
    3556                      .global _xTaskResumeAll
    3557              
    3558              $C$DW$267       .dwtag  DW_TAG_subprogram, DW_AT_name("xTaskResumeAll")
    3559                      .dwattr $C$DW$267, DW_AT_low_pc(_xTaskResumeAll)
    3560                      .dwattr $C$DW$267, DW_AT_high_pc(0x00)
    3561                      .dwattr $C$DW$267, DW_AT_TI_symbol_name("_xTaskResumeAll")
    3562                      .dwattr $C$DW$267, DW_AT_external
    3563                      .dwattr $C$DW$267, DW_AT_type(*$C$DW$T$43)
    3564                      .dwattr $C$DW$267, DW_AT_TI_begin_file("../FreeRTOS/Source/tasks_sysStk.c")
    3565                      .dwattr $C$DW$267, DW_AT_TI_begin_line(0x884)
    3566                      .dwattr $C$DW$267, DW_AT_TI_begin_column(0x0c)
    3567                      .dwattr $C$DW$267, DW_AT_TI_max_frame_size(0x06)
    3568                      .dwpsn  file "../FreeRTOS/Source/tasks_sysStk.c",line 2181,column 1,is_stmt,address _xTaskResumeAll
    3569              
    3570                      .dwfde $C$DW$CIE, _xTaskResumeAll
    3571              ;*******************************************************************************
    3572              ;* FUNCTION NAME: xTaskResumeAll                                               *
    3573              ;*                                                                             *
    3574              ;*   Function Uses Regs : AC0,AC0,AC1,AC1,T0,AR0,XAR0,AR1,XAR1,AR2,AR3,XAR3,SP,*
    3575              ;*                        CARRY,TC1,M40,SATA,SATD,RDM,FRCT,SMUL                *
    3576              ;*   Stack Frame        : Compact (No Frame Pointer, w/ debug)                 *
    3577              ;*   Total Frame Size   : 6 words                                              *
    3578              ;*                        (2 return address/alignment)                         *
    3579              ;*                        (4 local values)                                     *
    3580              ;*   Min System Stack   : 1 word                                               *
    3581              ;*******************************************************************************
    3582 000bb0       _xTaskResumeAll:
    3583                      .dwcfi  cfa_offset, 1
    3584                      .dwcfi  save_reg_to_mem, 91, -1
    3585 000bb0 4EFB          AADD #-5, SP
TMS320C55x Assembler PC v4.4.1 Tue Oct 02 02:33:57 2018

Tools Copyright (c) 1996-2012 Texas Instruments Incorporated
tasks_sysStk.asm                                                     PAGE   80

    3586                      .dwcfi  cfa_offset, 6
    3587              $C$DW$268       .dwtag  DW_TAG_variable, DW_AT_name("pxTCB")
    3588                      .dwattr $C$DW$268, DW_AT_TI_symbol_name("_pxTCB")
    3589                      .dwattr $C$DW$268, DW_AT_type(*$C$DW$T$83)
    3590                      .dwattr $C$DW$268, DW_AT_location[DW_OP_bregx 0x24 0]
    3591              $C$DW$269       .dwtag  DW_TAG_variable, DW_AT_name("xAlreadyYielded")
    3592                      .dwattr $C$DW$269, DW_AT_TI_symbol_name("_xAlreadyYielded")
    3593                      .dwattr $C$DW$269, DW_AT_type(*$C$DW$T$43)
    3594                      .dwattr $C$DW$269, DW_AT_location[DW_OP_bregx 0x24 2]
    3595                      .dwpsn  file "../FreeRTOS/Source/tasks_sysStk.c",line 2182,column 8,is_stmt
    3596 000bb2 3C00          MOV #0, AC0 ; |2182| 
    3597 000bb4 EB00          MOV AC0, dbl(*SP(#0))
         000bb6 08   
    3598                      .dwpsn  file "../FreeRTOS/Source/tasks_sysStk.c",line 2183,column 12,is_stmt
    3599 000bb7 E604          MOV #0, *SP(#2) ; |2183| 
         000bb9 00   
    3600                      .dwpsn  file "../FreeRTOS/Source/tasks_sysStk.c",line 2187,column 2,is_stmt
    3601 000bba A931          MOV *(#_uxSchedulerSuspended), AR1 ; |2187| 
         000bbc 0000 
         000bbe 7C-  
    3602 000bbf 6299          BCC $C$L123,AR1 != #0 ; |2187| 
    3603                                                      ; branchcc occurs ; |2187| 
    3604 000bc1 20     nop
    3605 000bc2 46B3   bset INTM
    3606 000bc4       $C$L122:    
    3607 000bc4       $C$DW$L$_xTaskResumeAll$3$B:
    3608 000bc4 4A7E          B $C$L122 ; |2187| 
    3609                                                      ; branch occurs ; |2187| 
    3610 000bc6       $C$DW$L$_xTaskResumeAll$3$E:
    3611 000bc6       $C$L123:    
    3612                      .dwpsn  file "../FreeRTOS/Source/tasks_sysStk.c",line 2194,column 2,is_stmt
    3613 000bc6 20     nop
    3614 000bc7 46B3   bset INTM
    3615 000bc9 F731          ADD #1, *(#_usCriticalNesting) ; |2194| 
         000bcb 0001 
         000bcd 0000 
         000bcf 00!  
    3616                      .dwpsn  file "../FreeRTOS/Source/tasks_sysStk.c",line 2196,column 3,is_stmt
    3617 000bd0 F731          SUB #1, *(#_uxSchedulerSuspended) ; |2196| 
         000bd2 FFFF 
         000bd4 0000 
         000bd6 7C-  
    3618 000bd7 20            NOP
    3619 000bd8 20            NOP
    3620 000bd9 20            NOP
    3621                      .dwpsn  file "../FreeRTOS/Source/tasks_sysStk.c",line 2198,column 3,is_stmt
    3622 000bda A931          MOV *(#_uxSchedulerSuspended), AR1 ; |2198| 
         000bdc 0000 
         000bde 7C-  
    3623 000bdf 6D19          BCC $C$L133,AR1 != #0 ; |2198| 
         000be1 00D1 
    3624                                                      ; branchcc occurs ; |2198| 
    3625                      .dwpsn  file "../FreeRTOS/Source/tasks_sysStk.c",line 2200,column 4,is_stmt
    3626 000be3 A931          MOV *(#_uxCurrentNumberOfTasks), AR1 ; |2200| 
         000be5 0000 
TMS320C55x Assembler PC v4.4.1 Tue Oct 02 02:33:57 2018

Tools Copyright (c) 1996-2012 Texas Instruments Incorporated
tasks_sysStk.asm                                                     PAGE   81

         000be7 65-  
    3627 000be8 6D09          BCC $C$L133,AR1 == #0 ; |2200| 
         000bea 00C8 
    3628                                                      ; branchcc occurs ; |2200| 
    3629                      .dwpsn  file "../FreeRTOS/Source/tasks_sysStk.c",line 2204,column 5,is_stmt
    3630 000bec 0600          B $C$L126 ; |2204| 
         000bee 76   
    3631                                                      ; branch occurs ; |2204| 
    3632 000bef       $C$L124:    
    3633 000bef       $C$DW$L$_xTaskResumeAll$7$B:
    3634                      .dwpsn  file "../FreeRTOS/Source/tasks_sysStk.c",line 2206,column 6,is_stmt
    3635 000bef ED31          MOV dbl(*(#(_xPendingReadyList+6))), XAR3
         000bf1 BF00 
         000bf3 0056-
    3636 000bf5 ED7D          MOV dbl(*AR3(short(#6))), XAR3
         000bf7 BF   
    3637 000bf8 EB00          MOV XAR3, dbl(*SP(#0))
         000bfa B5   
    3638                      .dwpsn  file "../FreeRTOS/Source/tasks_sysStk.c",line 2207,column 6,is_stmt
    3639 000bfb ED00          MOV dbl(*SP(#0)), XAR0
         000bfd 8F   
    3640 000bfe 140E          AADD #14, AR0 ; |2207| 
         000c00 84   
    3641              $C$DW$270       .dwtag  DW_TAG_TI_branch
    3642                      .dwattr $C$DW$270, DW_AT_low_pc(0x00)
    3643                      .dwattr $C$DW$270, DW_AT_name("_uxListRemove")
    3644                      .dwattr $C$DW$270, DW_AT_TI_call
    3645 000c01 6C00          CALL #_uxListRemove ; |2207| 
         000c03 0000!
    3646                                                      ; call occurs [#_uxListRemove] ; |2207| 
    3647                      .dwpsn  file "../FreeRTOS/Source/tasks_sysStk.c",line 2208,column 6,is_stmt
    3648 000c05 ED00          MOV dbl(*SP(#0)), XAR0
         000c07 8F   
    3649 000c08 1404          AADD #4, AR0 ; |2208| 
         000c0a 84   
    3650              $C$DW$271       .dwtag  DW_TAG_TI_branch
    3651                      .dwattr $C$DW$271, DW_AT_low_pc(0x00)
    3652                      .dwattr $C$DW$271, DW_AT_name("_uxListRemove")
    3653                      .dwattr $C$DW$271, DW_AT_TI_call
    3654 000c0b 6C00          CALL #_uxListRemove ; |2208| 
         000c0d 0000!
    3655                                                      ; call occurs [#_uxListRemove] ; |2208| 
    3656                      .dwpsn  file "../FreeRTOS/Source/tasks_sysStk.c",line 2209,column 6,is_stmt
    3657 000c0f ED00          MOV dbl(*SP(#0)), XAR3
         000c11 BF   
    3658 000c12 A931          MOV *(#_uxTopReadyPriority), AR1 ; |2209| 
         000c14 0000 
         000c16 72-  
    3659 000c17 AA6D          MOV *AR3(#24), AR2 ; |2209| 
         000c19 0018 
    3660 000c1b 1298          CMPU AR2 <= AR1, TC1 ; |2209| 
         000c1d A4   
    3661 000c1e 64E4          BCC $C$L125,TC1 ; |2209| 
    3662                                                      ; branchcc occurs ; |2209| 
    3663 000c20       $C$DW$L$_xTaskResumeAll$7$E:
TMS320C55x Assembler PC v4.4.1 Tue Oct 02 02:33:57 2018

Tools Copyright (c) 1996-2012 Texas Instruments Incorporated
tasks_sysStk.asm                                                     PAGE   82

    3664 000c20       $C$DW$L$_xTaskResumeAll$8$B:
    3665 000c20 A96D          MOV *AR3(#24), AR1 ; |2209| 
         000c22 0018 
    3666 000c24 C931          MOV AR1, *(#_uxTopReadyPriority) ; |2209| 
         000c26 0000 
         000c28 72-  
    3667 000c29       $C$DW$L$_xTaskResumeAll$8$E:
    3668 000c29       $C$L125:    
    3669 000c29       $C$DW$L$_xTaskResumeAll$9$B:
    3670 000c29 DF6D          MOV uns(*AR3(#24)), AC1 ; |2209| 
         000c2b 1500 
         000c2d 18   
    3671 000c2e ED00          MOV dbl(*SP(#0)), XAR1
         000c30 9F   
    3672 000c31 1015          SFTS AC1, #1, AC0 ; |2209| 
         000c33 01   
    3673 000c34 1013          ADD AC1 << #3, AC0 ; |2209| 
         000c36 03   
    3674 000c37 900B          MOV AC0, XAR3
    3675 000c39 EC31          AMOV #_pxReadyTasksLists, XAR0 ; |2209| 
         000c3b 8E00 
         000c3d 0006-
    3676              
    3677 000c3f 14B1          AADD XAR3, XAR0 ; |2209| 
         000c41 80   
    3678 000c42 1504  ||      AADD #4, AR1 ; |2209| 
         000c44 9C   
    3679              
    3680              $C$DW$272       .dwtag  DW_TAG_TI_branch
    3681                      .dwattr $C$DW$272, DW_AT_low_pc(0x00)
    3682                      .dwattr $C$DW$272, DW_AT_name("_vListInsertEnd")
    3683                      .dwattr $C$DW$272, DW_AT_TI_call
    3684 000c45 6C00          CALL #_vListInsertEnd ; |2209| 
         000c47 0000!
    3685                                                      ; call occurs [#_vListInsertEnd] ; |2209| 
    3686                      .dwpsn  file "../FreeRTOS/Source/tasks_sysStk.c",line 2213,column 6,is_stmt
    3687 000c49 ED31          MOV dbl(*(#_pxCurrentTCB)), XAR3
         000c4b BF00 
         000c4d 0004-
    3688 000c4f A96D          MOV *AR3(#24), AR1 ; |2213| 
         000c51 0018 
    3689 000c53 ED00          MOV dbl(*SP(#0)), XAR3
         000c55 BF   
    3690 000c56 AA6D          MOV *AR3(#24), AR2 ; |2213| 
         000c58 0018 
    3691 000c5a 12A4          CMPU AR2 < AR1, TC1 ; |2213| 
         000c5c 94   
    3692 000c5d 6364          BCC $C$L126,TC1 ; |2213| 
    3693                                                      ; branchcc occurs ; |2213| 
    3694 000c5f       $C$DW$L$_xTaskResumeAll$9$E:
    3695 000c5f       $C$DW$L$_xTaskResumeAll$10$B:
    3696                      .dwpsn  file "../FreeRTOS/Source/tasks_sysStk.c",line 2215,column 7,is_stmt
    3697 000c5f E631          MOV #1, *(#_xYieldPending) ; |2215| 
         000c61 0100 
         000c63 0075-
TMS320C55x Assembler PC v4.4.1 Tue Oct 02 02:33:57 2018

Tools Copyright (c) 1996-2012 Texas Instruments Incorporated
tasks_sysStk.asm                                                     PAGE   83

    3698                      .dwpsn  file "../FreeRTOS/Source/tasks_sysStk.c",line 2216,column 6,is_stmt
    3699 000c65       $C$DW$L$_xTaskResumeAll$10$E:
    3700 000c65       $C$L126:    
    3701 000c65       $C$DW$L$_xTaskResumeAll$11$B:
    3702                      .dwpsn  file "../FreeRTOS/Source/tasks_sysStk.c",line 2204,column 12,is_stmt
    3703 000c65 A931          MOV *(#_xPendingReadyList), AR1 ; |2204| 
         000c67 0000 
         000c69 50-  
    3704 000c6a 6219          BCC $C$L127,AR1 != #0 ; |2204| 
    3705                                                      ; branchcc occurs ; |2204| 
    3706 000c6c       $C$DW$L$_xTaskResumeAll$11$E:
    3707 000c6c       $C$DW$L$_xTaskResumeAll$12$B:
    3708 000c6c 3C19          MOV #1, AR1
    3709 000c6e 4A02          B $C$L128 ; |2204| 
    3710                                                      ; branch occurs ; |2204| 
    3711 000c70       $C$DW$L$_xTaskResumeAll$12$E:
    3712 000c70       $C$L127:    
    3713 000c70       $C$DW$L$_xTaskResumeAll$13$B:
    3714 000c70 3C09          MOV #0, AR1
    3715 000c72       $C$DW$L$_xTaskResumeAll$13$E:
    3716 000c72       $C$L128:    
    3717 000c72       $C$DW$L$_xTaskResumeAll$14$B:
    3718 000c72 6D09          BCC $C$L124,AR1 == #0 ; |2204| 
         000c74 FF79 
    3719                                                      ; branchcc occurs ; |2204| 
    3720 000c76       $C$DW$L$_xTaskResumeAll$14$E:
    3721                      .dwpsn  file "../FreeRTOS/Source/tasks_sysStk.c",line 2223,column 5,is_stmt
    3722 000c76 ED00          MOV dbl(*SP(#0)), XAR3
         000c78 BF   
    3723 000c79 90B0          MOV XAR3, AC0
    3724 000c7b 6180          BCC $C$L129,AC0 == #0 ; |2223| 
    3725                                                      ; branchcc occurs ; |2223| 
    3726                      .dwpsn  file "../FreeRTOS/Source/tasks_sysStk.c",line 2231,column 6,is_stmt
    3727              $C$DW$273       .dwtag  DW_TAG_TI_branch
    3728                      .dwattr $C$DW$273, DW_AT_low_pc(0x00)
    3729                      .dwattr $C$DW$273, DW_AT_name("_prvResetNextTaskUnblockTime")
    3730                      .dwattr $C$DW$273, DW_AT_TI_call
    3731 000c7d 0807          CALL #_prvResetNextTaskUnblockTime ; |2231| 
         000c7f B4   
    3732                                                      ; call occurs [#_prvResetNextTaskUnblockTime] ; |2231| 
    3733 000c80       $C$L129:    
    3734              
    3735              $C$DW$274       .dwtag  DW_TAG_lexical_block, DW_AT_low_pc(0x00), DW_AT_high_pc(0x00)
    3736              $C$DW$275       .dwtag  DW_TAG_variable, DW_AT_name("uxPendedCounts")
    3737                      .dwattr $C$DW$275, DW_AT_TI_symbol_name("_uxPendedCounts")
    3738                      .dwattr $C$DW$275, DW_AT_type(*$C$DW$T$25)
    3739                      .dwattr $C$DW$275, DW_AT_location[DW_OP_bregx 0x24 3]
    3740                      .dwpsn  file "../FreeRTOS/Source/tasks_sysStk.c",line 2239,column 18,is_stmt
    3741 000c80 A931          MOV *(#_uxPendedTicks), AR1 ; |2239| 
         000c82 0000 
         000c84 74-  
    3742 000c85 C906          MOV AR1, *SP(#3) ; |2239| 
    3743                      .dwpsn  file "../FreeRTOS/Source/tasks_sysStk.c",line 2241,column 6,is_stmt
    3744 000c87 0409          BCC $C$L132,AR1 == #0 ; |2241| 
         000c89 1A   
TMS320C55x Assembler PC v4.4.1 Tue Oct 02 02:33:57 2018

Tools Copyright (c) 1996-2012 Texas Instruments Incorporated
tasks_sysStk.asm                                                     PAGE   84

    3745                                                      ; branchcc occurs ; |2241| 
    3746 000c8a       $C$L130:    
    3747 000c8a       $C$DW$L$_xTaskResumeAll$18$B:
    3748                      .dwpsn  file "../FreeRTOS/Source/tasks_sysStk.c",line 2245,column 8,is_stmt
    3749              $C$DW$276       .dwtag  DW_TAG_TI_branch
    3750                      .dwattr $C$DW$276, DW_AT_low_pc(0x00)
    3751                      .dwattr $C$DW$276, DW_AT_name("_xTaskIncrementTick")
    3752                      .dwattr $C$DW$276, DW_AT_TI_call
    3753 000c8a 0800          CALL #_xTaskIncrementTick ; |2245| 
         000c8c CF   
    3754                                                      ; call occurs [#_xTaskIncrementTick] ; |2245| 
    3755 000c8d 6304          BCC $C$L131,T0 == #0 ; |2245| 
    3756                                                      ; branchcc occurs ; |2245| 
    3757 000c8f       $C$DW$L$_xTaskResumeAll$18$E:
    3758 000c8f       $C$DW$L$_xTaskResumeAll$19$B:
    3759                      .dwpsn  file "../FreeRTOS/Source/tasks_sysStk.c",line 2247,column 9,is_stmt
    3760 000c8f E631          MOV #1, *(#_xYieldPending) ; |2247| 
         000c91 0100 
         000c93 0075-
    3761                      .dwpsn  file "../FreeRTOS/Source/tasks_sysStk.c",line 2248,column 8,is_stmt
    3762 000c95       $C$DW$L$_xTaskResumeAll$19$E:
    3763 000c95       $C$L131:    
    3764 000c95       $C$DW$L$_xTaskResumeAll$20$B:
    3765                      .dwpsn  file "../FreeRTOS/Source/tasks_sysStk.c",line 2253,column 8,is_stmt
    3766 000c95 F706          SUB #1, *SP(#3) ; |2253| 
         000c97 FFFF 
    3767                      .dwpsn  file "../FreeRTOS/Source/tasks_sysStk.c",line 2254,column 16,is_stmt
    3768 000c99 A906          MOV *SP(#3), AR1 ; |2254| 
    3769 000c9b 0419          BCC $C$L130,AR1 != #0 ; |2254| 
         000c9d EC   
    3770                                                      ; branchcc occurs ; |2254| 
    3771 000c9e       $C$DW$L$_xTaskResumeAll$20$E:
    3772                      .dwpsn  file "../FreeRTOS/Source/tasks_sysStk.c",line 2256,column 7,is_stmt
    3773 000c9e E631          MOV #0, *(#_uxPendedTicks) ; |2256| 
         000ca0 0000 
         000ca2 0074-
    3774                      .dwpsn  file "../FreeRTOS/Source/tasks_sysStk.c",line 2257,column 6,is_stmt
    3775              $C$L132:    
    3776                      .dwendtag $C$DW$274
    3777              
    3778                      .dwpsn  file "../FreeRTOS/Source/tasks_sysStk.c",line 2264,column 5,is_stmt
    3779 000ca4 A931          MOV *(#_xYieldPending), AR1 ; |2264| 
         000ca6 0000 
         000ca8 75-  
    3780 000ca9 6489          BCC $C$L133,AR1 == #0 ; |2264| 
    3781                                                      ; branchcc occurs ; |2264| 
    3782                      .dwpsn  file "../FreeRTOS/Source/tasks_sysStk.c",line 2268,column 7,is_stmt
    3783 000cab E604          MOV #1, *SP(#2) ; |2268| 
         000cad 01   
    3784                      .dwpsn  file "../FreeRTOS/Source/tasks_sysStk.c",line 2271,column 6,is_stmt
    3785              $C$DW$277       .dwtag  DW_TAG_TI_branch
    3786                      .dwattr $C$DW$277, DW_AT_low_pc(0x00)
    3787                      .dwattr $C$DW$277, DW_AT_name("_vPortYield")
    3788                      .dwattr $C$DW$277, DW_AT_TI_call
    3789 000cae 6C00          CALL #_vPortYield ; |2271| 
TMS320C55x Assembler PC v4.4.1 Tue Oct 02 02:33:57 2018

Tools Copyright (c) 1996-2012 Texas Instruments Incorporated
tasks_sysStk.asm                                                     PAGE   85

         000cb0 0000!
    3790                                                      ; call occurs [#_vPortYield] ; |2271| 
    3791                      .dwpsn  file "../FreeRTOS/Source/tasks_sysStk.c",line 2272,column 5,is_stmt
    3792 000cb2 4A00          B $C$L133 ; |2272| 
    3793                                                      ; branch occurs ; |2272| 
    3794 000cb4       $C$L133:    
    3795                      .dwpsn  file "../FreeRTOS/Source/tasks_sysStk.c",line 2284,column 2,is_stmt
    3796 000cb4 A931          MOV *(#_usCriticalNesting), AR1 ; |2284| 
         000cb6 0000 
         000cb8 00!  
    3797 000cb9 0409          BCC $C$L134,AR1 == #0 ; |2284| 
         000cbb 14   
    3798                                                      ; branchcc occurs ; |2284| 
    3799 000cbc F731          SUB #1, *(#_usCriticalNesting) ; |2284| 
         000cbe FFFF 
         000cc0 0000 
         000cc2 00!  
    3800 000cc3 20            NOP
    3801 000cc4 20            NOP
    3802 000cc5 20            NOP
    3803 000cc6 A931          MOV *(#_usCriticalNesting), AR1 ; |2284| 
         000cc8 0000 
         000cca 00!  
    3804 000ccb 6199          BCC $C$L134,AR1 != #0 ; |2284| 
    3805                                                      ; branchcc occurs ; |2284| 
    3806 000ccd 20     nop
    3807 000cce 46B2   bclr INTM
    3808 000cd0       $C$L134:    
    3809                      .dwpsn  file "../FreeRTOS/Source/tasks_sysStk.c",line 2286,column 2,is_stmt
    3810 000cd0 A404          MOV *SP(#2), T0 ; |2286| 
    3811                      .dwpsn  file "../FreeRTOS/Source/tasks_sysStk.c",line 2287,column 1,is_stmt
    3812 000cd2 4E05          AADD #5, SP
    3813                      .dwcfi  cfa_offset, 1
    3814              $C$DW$278       .dwtag  DW_TAG_TI_branch
    3815                      .dwattr $C$DW$278, DW_AT_low_pc(0x00)
    3816                      .dwattr $C$DW$278, DW_AT_TI_return
    3817 000cd4 4804          RET
    3818                                                      ; return occurs
    3819              
    3820              $C$DW$279       .dwtag  DW_TAG_TI_loop
    3821                      .dwattr $C$DW$279, DW_AT_name("F:\eZdsp-DBG-sim\tmp1\c55x-sim2\foo\Debug\tasks_sysStk.asm:$C$L130:1:1
    3822                      .dwattr $C$DW$279, DW_AT_TI_begin_file("../FreeRTOS/Source/tasks_sysStk.c")
    3823                      .dwattr $C$DW$279, DW_AT_TI_begin_line(0x8c3)
    3824                      .dwattr $C$DW$279, DW_AT_TI_end_line(0x8ce)
    3825              $C$DW$280       .dwtag  DW_TAG_TI_loop_range
    3826                      .dwattr $C$DW$280, DW_AT_low_pc($C$DW$L$_xTaskResumeAll$18$B)
    3827                      .dwattr $C$DW$280, DW_AT_high_pc($C$DW$L$_xTaskResumeAll$18$E)
    3828              $C$DW$281       .dwtag  DW_TAG_TI_loop_range
    3829                      .dwattr $C$DW$281, DW_AT_low_pc($C$DW$L$_xTaskResumeAll$19$B)
    3830                      .dwattr $C$DW$281, DW_AT_high_pc($C$DW$L$_xTaskResumeAll$19$E)
    3831              $C$DW$282       .dwtag  DW_TAG_TI_loop_range
    3832                      .dwattr $C$DW$282, DW_AT_low_pc($C$DW$L$_xTaskResumeAll$20$B)
    3833                      .dwattr $C$DW$282, DW_AT_high_pc($C$DW$L$_xTaskResumeAll$20$E)
    3834                      .dwendtag $C$DW$279
    3835              
TMS320C55x Assembler PC v4.4.1 Tue Oct 02 02:33:57 2018

Tools Copyright (c) 1996-2012 Texas Instruments Incorporated
tasks_sysStk.asm                                                     PAGE   86

    3836              
    3837              $C$DW$283       .dwtag  DW_TAG_TI_loop
    3838                      .dwattr $C$DW$283, DW_AT_name("F:\eZdsp-DBG-sim\tmp1\c55x-sim2\foo\Debug\tasks_sysStk.asm:$C$L126:1:1
    3839                      .dwattr $C$DW$283, DW_AT_TI_begin_file("../FreeRTOS/Source/tasks_sysStk.c")
    3840                      .dwattr $C$DW$283, DW_AT_TI_begin_line(0x89c)
    3841                      .dwattr $C$DW$283, DW_AT_TI_end_line(0x8a8)
    3842              $C$DW$284       .dwtag  DW_TAG_TI_loop_range
    3843                      .dwattr $C$DW$284, DW_AT_low_pc($C$DW$L$_xTaskResumeAll$11$B)
    3844                      .dwattr $C$DW$284, DW_AT_high_pc($C$DW$L$_xTaskResumeAll$11$E)
    3845              $C$DW$285       .dwtag  DW_TAG_TI_loop_range
    3846                      .dwattr $C$DW$285, DW_AT_low_pc($C$DW$L$_xTaskResumeAll$12$B)
    3847                      .dwattr $C$DW$285, DW_AT_high_pc($C$DW$L$_xTaskResumeAll$12$E)
    3848              $C$DW$286       .dwtag  DW_TAG_TI_loop_range
    3849                      .dwattr $C$DW$286, DW_AT_low_pc($C$DW$L$_xTaskResumeAll$13$B)
    3850                      .dwattr $C$DW$286, DW_AT_high_pc($C$DW$L$_xTaskResumeAll$13$E)
    3851              $C$DW$287       .dwtag  DW_TAG_TI_loop_range
    3852                      .dwattr $C$DW$287, DW_AT_low_pc($C$DW$L$_xTaskResumeAll$14$B)
    3853                      .dwattr $C$DW$287, DW_AT_high_pc($C$DW$L$_xTaskResumeAll$14$E)
    3854              $C$DW$288       .dwtag  DW_TAG_TI_loop_range
    3855                      .dwattr $C$DW$288, DW_AT_low_pc($C$DW$L$_xTaskResumeAll$7$B)
    3856                      .dwattr $C$DW$288, DW_AT_high_pc($C$DW$L$_xTaskResumeAll$7$E)
    3857              $C$DW$289       .dwtag  DW_TAG_TI_loop_range
    3858                      .dwattr $C$DW$289, DW_AT_low_pc($C$DW$L$_xTaskResumeAll$8$B)
    3859                      .dwattr $C$DW$289, DW_AT_high_pc($C$DW$L$_xTaskResumeAll$8$E)
    3860              $C$DW$290       .dwtag  DW_TAG_TI_loop_range
    3861                      .dwattr $C$DW$290, DW_AT_low_pc($C$DW$L$_xTaskResumeAll$10$B)
    3862                      .dwattr $C$DW$290, DW_AT_high_pc($C$DW$L$_xTaskResumeAll$10$E)
    3863              $C$DW$291       .dwtag  DW_TAG_TI_loop_range
    3864                      .dwattr $C$DW$291, DW_AT_low_pc($C$DW$L$_xTaskResumeAll$9$B)
    3865                      .dwattr $C$DW$291, DW_AT_high_pc($C$DW$L$_xTaskResumeAll$9$E)
    3866                      .dwendtag $C$DW$283
    3867              
    3868              
    3869              $C$DW$292       .dwtag  DW_TAG_TI_loop
    3870                      .dwattr $C$DW$292, DW_AT_name("F:\eZdsp-DBG-sim\tmp1\c55x-sim2\foo\Debug\tasks_sysStk.asm:$C$L122:1:1
    3871                      .dwattr $C$DW$292, DW_AT_TI_begin_file("../FreeRTOS/Source/tasks_sysStk.c")
    3872                      .dwattr $C$DW$292, DW_AT_TI_begin_line(0x88b)
    3873                      .dwattr $C$DW$292, DW_AT_TI_end_line(0x88b)
    3874              $C$DW$293       .dwtag  DW_TAG_TI_loop_range
    3875                      .dwattr $C$DW$293, DW_AT_low_pc($C$DW$L$_xTaskResumeAll$3$B)
    3876                      .dwattr $C$DW$293, DW_AT_high_pc($C$DW$L$_xTaskResumeAll$3$E)
    3877                      .dwendtag $C$DW$292
    3878              
    3879                      .dwattr $C$DW$267, DW_AT_TI_end_file("../FreeRTOS/Source/tasks_sysStk.c")
    3880                      .dwattr $C$DW$267, DW_AT_TI_end_line(0x8ef)
    3881                      .dwattr $C$DW$267, DW_AT_TI_end_column(0x01)
    3882                      .dwendentry
    3883                      .dwendtag $C$DW$267
    3884              
    3885 000cd6               .sect   ".text"
    3886                      .align 4
    3887                      .global _xTaskGetTickCount
    3888              
    3889              $C$DW$294       .dwtag  DW_TAG_subprogram, DW_AT_name("xTaskGetTickCount")
    3890                      .dwattr $C$DW$294, DW_AT_low_pc(_xTaskGetTickCount)
TMS320C55x Assembler PC v4.4.1 Tue Oct 02 02:33:57 2018

Tools Copyright (c) 1996-2012 Texas Instruments Incorporated
tasks_sysStk.asm                                                     PAGE   87

    3891                      .dwattr $C$DW$294, DW_AT_high_pc(0x00)
    3892                      .dwattr $C$DW$294, DW_AT_TI_symbol_name("_xTaskGetTickCount")
    3893                      .dwattr $C$DW$294, DW_AT_external
    3894                      .dwattr $C$DW$294, DW_AT_type(*$C$DW$T$37)
    3895                      .dwattr $C$DW$294, DW_AT_TI_begin_file("../FreeRTOS/Source/tasks_sysStk.c")
    3896                      .dwattr $C$DW$294, DW_AT_TI_begin_line(0x8f2)
    3897                      .dwattr $C$DW$294, DW_AT_TI_begin_column(0x0c)
    3898                      .dwattr $C$DW$294, DW_AT_TI_max_frame_size(0x04)
    3899                      .dwpsn  file "../FreeRTOS/Source/tasks_sysStk.c",line 2291,column 1,is_stmt,address _xTaskGetTickCoun
    3900              
    3901                      .dwfde $C$DW$CIE, _xTaskGetTickCount
    3902              ;*******************************************************************************
    3903              ;* FUNCTION NAME: xTaskGetTickCount                                            *
    3904              ;*                                                                             *
    3905              ;*   Function Uses Regs : AC0,AC0,AR1,SP,CARRY,M40,SATA,SATD,RDM,FRCT,SMUL     *
    3906              ;*   Stack Frame        : Compact (No Frame Pointer, w/ debug)                 *
    3907              ;*   Total Frame Size   : 4 words                                              *
    3908              ;*                        (2 return address/alignment)                         *
    3909              ;*                        (2 local values)                                     *
    3910              ;*   Min System Stack   : 1 word                                               *
    3911              ;*******************************************************************************
    3912 000cd8       _xTaskGetTickCount:
    3913                      .dwcfi  cfa_offset, 1
    3914                      .dwcfi  save_reg_to_mem, 91, -1
    3915 000cd8 4EFD          AADD #-3, SP
    3916                      .dwcfi  cfa_offset, 4
    3917              $C$DW$295       .dwtag  DW_TAG_variable, DW_AT_name("xTicks")
    3918                      .dwattr $C$DW$295, DW_AT_TI_symbol_name("_xTicks")
    3919                      .dwattr $C$DW$295, DW_AT_type(*$C$DW$T$37)
    3920                      .dwattr $C$DW$295, DW_AT_location[DW_OP_bregx 0x24 0]
    3921                      .dwpsn  file "../FreeRTOS/Source/tasks_sysStk.c",line 2295,column 2,is_stmt
    3922 000cda 20     nop
    3923 000cdb 46B3   bset INTM
    3924 000cdd F731          ADD #1, *(#_usCriticalNesting) ; |2295| 
         000cdf 0001 
         000ce1 0000 
         000ce3 00!  
    3925 000ce4 20            NOP
    3926 000ce5 20            NOP
    3927 000ce6 20            NOP
    3928                      .dwpsn  file "../FreeRTOS/Source/tasks_sysStk.c",line 2297,column 3,is_stmt
    3929 000ce7 ED31          MOV dbl(*(#_xTickCount)), AC0 ; |2297| 
         000ce9 0800 
         000ceb 0070-
    3930 000ced EB00          MOV AC0, dbl(*SP(#0)) ; |2297| 
         000cef 08   
    3931                      .dwpsn  file "../FreeRTOS/Source/tasks_sysStk.c",line 2299,column 2,is_stmt
    3932 000cf0 A931          MOV *(#_usCriticalNesting), AR1 ; |2299| 
         000cf2 0000 
         000cf4 00!  
    3933 000cf5 0409          BCC $C$L135,AR1 == #0 ; |2299| 
         000cf7 14   
    3934                                                      ; branchcc occurs ; |2299| 
    3935 000cf8 F731          SUB #1, *(#_usCriticalNesting) ; |2299| 
         000cfa FFFF 
TMS320C55x Assembler PC v4.4.1 Tue Oct 02 02:33:57 2018

Tools Copyright (c) 1996-2012 Texas Instruments Incorporated
tasks_sysStk.asm                                                     PAGE   88

         000cfc 0000 
         000cfe 00!  
    3936 000cff 20            NOP
    3937 000d00 20            NOP
    3938 000d01 20            NOP
    3939 000d02 A931          MOV *(#_usCriticalNesting), AR1 ; |2299| 
         000d04 0000 
         000d06 00!  
    3940 000d07 6199          BCC $C$L135,AR1 != #0 ; |2299| 
    3941                                                      ; branchcc occurs ; |2299| 
    3942 000d09 20     nop
    3943 000d0a 46B2   bclr INTM
    3944 000d0c       $C$L135:    
    3945                      .dwpsn  file "../FreeRTOS/Source/tasks_sysStk.c",line 2301,column 2,is_stmt
    3946 000d0c ED00          MOV dbl(*SP(#0)), AC0 ; |2301| 
         000d0e 08   
    3947                      .dwpsn  file "../FreeRTOS/Source/tasks_sysStk.c",line 2302,column 1,is_stmt
    3948 000d0f 4E03          AADD #3, SP
    3949                      .dwcfi  cfa_offset, 1
    3950              $C$DW$296       .dwtag  DW_TAG_TI_branch
    3951                      .dwattr $C$DW$296, DW_AT_low_pc(0x00)
    3952                      .dwattr $C$DW$296, DW_AT_TI_return
    3953 000d11 4804          RET
    3954                                                      ; return occurs
    3955                      .dwattr $C$DW$294, DW_AT_TI_end_file("../FreeRTOS/Source/tasks_sysStk.c")
    3956                      .dwattr $C$DW$294, DW_AT_TI_end_line(0x8fe)
    3957                      .dwattr $C$DW$294, DW_AT_TI_end_column(0x01)
    3958                      .dwendentry
    3959                      .dwendtag $C$DW$294
    3960              
    3961 000d13               .sect   ".text"
    3962                      .align 4
    3963                      .global _xTaskGetTickCountFromISR
    3964              
    3965              $C$DW$297       .dwtag  DW_TAG_subprogram, DW_AT_name("xTaskGetTickCountFromISR")
    3966                      .dwattr $C$DW$297, DW_AT_low_pc(_xTaskGetTickCountFromISR)
    3967                      .dwattr $C$DW$297, DW_AT_high_pc(0x00)
    3968                      .dwattr $C$DW$297, DW_AT_TI_symbol_name("_xTaskGetTickCountFromISR")
    3969                      .dwattr $C$DW$297, DW_AT_external
    3970                      .dwattr $C$DW$297, DW_AT_type(*$C$DW$T$37)
    3971                      .dwattr $C$DW$297, DW_AT_TI_begin_file("../FreeRTOS/Source/tasks_sysStk.c")
    3972                      .dwattr $C$DW$297, DW_AT_TI_begin_line(0x901)
    3973                      .dwattr $C$DW$297, DW_AT_TI_begin_column(0x0c)
    3974                      .dwattr $C$DW$297, DW_AT_TI_max_frame_size(0x04)
    3975                      .dwpsn  file "../FreeRTOS/Source/tasks_sysStk.c",line 2306,column 1,is_stmt,address _xTaskGetTickCoun
    3976              
    3977                      .dwfde $C$DW$CIE, _xTaskGetTickCountFromISR
    3978              ;*******************************************************************************
    3979              ;* FUNCTION NAME: xTaskGetTickCountFromISR                                     *
    3980              ;*                                                                             *
    3981              ;*   Function Uses Regs : AC0,AC0,SP,M40,SATA,SATD,RDM,FRCT,SMUL               *
    3982              ;*   Stack Frame        : Compact (No Frame Pointer, w/ debug)                 *
    3983              ;*   Total Frame Size   : 4 words                                              *
    3984              ;*                        (1 return address/alignment)                         *
    3985              ;*                        (3 local values)                                     *
TMS320C55x Assembler PC v4.4.1 Tue Oct 02 02:33:57 2018

Tools Copyright (c) 1996-2012 Texas Instruments Incorporated
tasks_sysStk.asm                                                     PAGE   89

    3986              ;*   Min System Stack   : 1 word                                               *
    3987              ;*******************************************************************************
    3988 000d14       _xTaskGetTickCountFromISR:
    3989                      .dwcfi  cfa_offset, 1
    3990                      .dwcfi  save_reg_to_mem, 91, -1
    3991 000d14 4EFD          AADD #-3, SP
    3992                      .dwcfi  cfa_offset, 4
    3993              $C$DW$298       .dwtag  DW_TAG_variable, DW_AT_name("xReturn")
    3994                      .dwattr $C$DW$298, DW_AT_TI_symbol_name("_xReturn")
    3995                      .dwattr $C$DW$298, DW_AT_type(*$C$DW$T$37)
    3996                      .dwattr $C$DW$298, DW_AT_location[DW_OP_bregx 0x24 0]
    3997              $C$DW$299       .dwtag  DW_TAG_variable, DW_AT_name("uxSavedInterruptStatus")
    3998                      .dwattr $C$DW$299, DW_AT_TI_symbol_name("_uxSavedInterruptStatus")
    3999                      .dwattr $C$DW$299, DW_AT_type(*$C$DW$T$25)
    4000                      .dwattr $C$DW$299, DW_AT_location[DW_OP_bregx 0x24 2]
    4001                      .dwpsn  file "../FreeRTOS/Source/tasks_sysStk.c",line 2326,column 2,is_stmt
    4002 000d16 E604          MOV #0, *SP(#2) ; |2326| 
         000d18 00   
    4003                      .dwpsn  file "../FreeRTOS/Source/tasks_sysStk.c",line 2328,column 3,is_stmt
    4004 000d19 ED31          MOV dbl(*(#_xTickCount)), AC0 ; |2328| 
         000d1b 0800 
         000d1d 0070-
    4005 000d1f EB00          MOV AC0, dbl(*SP(#0)) ; |2328| 
         000d21 08   
    4006                      .dwpsn  file "../FreeRTOS/Source/tasks_sysStk.c",line 2330,column 2,is_stmt
    4007                      .dwpsn  file "../FreeRTOS/Source/tasks_sysStk.c",line 2332,column 2,is_stmt
    4008 000d22 ED00          MOV dbl(*SP(#0)), AC0 ; |2332| 
         000d24 08   
    4009                      .dwpsn  file "../FreeRTOS/Source/tasks_sysStk.c",line 2333,column 1,is_stmt
    4010 000d25 4E03          AADD #3, SP
    4011                      .dwcfi  cfa_offset, 1
    4012              $C$DW$300       .dwtag  DW_TAG_TI_branch
    4013                      .dwattr $C$DW$300, DW_AT_low_pc(0x00)
    4014                      .dwattr $C$DW$300, DW_AT_TI_return
    4015 000d27 4804          RET
    4016                                                      ; return occurs
    4017                      .dwattr $C$DW$297, DW_AT_TI_end_file("../FreeRTOS/Source/tasks_sysStk.c")
    4018                      .dwattr $C$DW$297, DW_AT_TI_end_line(0x91d)
    4019                      .dwattr $C$DW$297, DW_AT_TI_end_column(0x01)
    4020                      .dwendentry
    4021                      .dwendtag $C$DW$297
    4022              
    4023 000d29               .sect   ".text"
    4024                      .align 4
    4025                      .global _uxTaskGetNumberOfTasks
    4026              
    4027              $C$DW$301       .dwtag  DW_TAG_subprogram, DW_AT_name("uxTaskGetNumberOfTasks")
    4028                      .dwattr $C$DW$301, DW_AT_low_pc(_uxTaskGetNumberOfTasks)
    4029                      .dwattr $C$DW$301, DW_AT_high_pc(0x00)
    4030                      .dwattr $C$DW$301, DW_AT_TI_symbol_name("_uxTaskGetNumberOfTasks")
    4031                      .dwattr $C$DW$301, DW_AT_external
    4032                      .dwattr $C$DW$301, DW_AT_type(*$C$DW$T$25)
    4033                      .dwattr $C$DW$301, DW_AT_TI_begin_file("../FreeRTOS/Source/tasks_sysStk.c")
    4034                      .dwattr $C$DW$301, DW_AT_TI_begin_line(0x920)
    4035                      .dwattr $C$DW$301, DW_AT_TI_begin_column(0x0d)
TMS320C55x Assembler PC v4.4.1 Tue Oct 02 02:33:57 2018

Tools Copyright (c) 1996-2012 Texas Instruments Incorporated
tasks_sysStk.asm                                                     PAGE   90

    4036                      .dwattr $C$DW$301, DW_AT_TI_max_frame_size(0x01)
    4037                      .dwpsn  file "../FreeRTOS/Source/tasks_sysStk.c",line 2337,column 1,is_stmt,address _uxTaskGetNumberO
    4038              
    4039                      .dwfde $C$DW$CIE, _uxTaskGetNumberOfTasks
    4040              ;*******************************************************************************
    4041              ;* FUNCTION NAME: uxTaskGetNumberOfTasks                                       *
    4042              ;*                                                                             *
    4043              ;*   Function Uses Regs : T0,SP,M40,SATA,SATD,RDM,FRCT,SMUL                    *
    4044              ;*   Stack Frame        : Compact (No Frame Pointer, w/ debug)                 *
    4045              ;*   Total Frame Size   : 1 word                                               *
    4046              ;*                        (1 return address/alignment)                         *
    4047              ;*   Min System Stack   : 1 word                                               *
    4048              ;*******************************************************************************
    4049 000d2c       _uxTaskGetNumberOfTasks:
    4050                      .dwcfi  cfa_offset, 1
    4051                      .dwcfi  save_reg_to_mem, 91, -1
    4052                      .dwpsn  file "../FreeRTOS/Source/tasks_sysStk.c",line 2340,column 2,is_stmt
    4053 000d2c A431          MOV *(#_uxCurrentNumberOfTasks), T0 ; |2340| 
         000d2e 0000 
         000d30 65-  
    4054                      .dwpsn  file "../FreeRTOS/Source/tasks_sysStk.c",line 2341,column 1,is_stmt
    4055              $C$DW$302       .dwtag  DW_TAG_TI_branch
    4056                      .dwattr $C$DW$302, DW_AT_low_pc(0x00)
    4057                      .dwattr $C$DW$302, DW_AT_TI_return
    4058 000d31 4804          RET
    4059                                                      ; return occurs
    4060                      .dwattr $C$DW$301, DW_AT_TI_end_file("../FreeRTOS/Source/tasks_sysStk.c")
    4061                      .dwattr $C$DW$301, DW_AT_TI_end_line(0x925)
    4062                      .dwattr $C$DW$301, DW_AT_TI_end_column(0x01)
    4063                      .dwendentry
    4064                      .dwendtag $C$DW$301
    4065              
    4066 000d33               .sect   ".text"
    4067                      .align 4
    4068                      .global _pcTaskGetName
    4069              
    4070              $C$DW$303       .dwtag  DW_TAG_subprogram, DW_AT_name("pcTaskGetName")
    4071                      .dwattr $C$DW$303, DW_AT_low_pc(_pcTaskGetName)
    4072                      .dwattr $C$DW$303, DW_AT_high_pc(0x00)
    4073                      .dwattr $C$DW$303, DW_AT_TI_symbol_name("_pcTaskGetName")
    4074                      .dwattr $C$DW$303, DW_AT_external
    4075                      .dwattr $C$DW$303, DW_AT_type(*$C$DW$T$150)
    4076                      .dwattr $C$DW$303, DW_AT_TI_begin_file("../FreeRTOS/Source/tasks_sysStk.c")
    4077                      .dwattr $C$DW$303, DW_AT_TI_begin_line(0x928)
    4078                      .dwattr $C$DW$303, DW_AT_TI_begin_column(0x07)
    4079                      .dwattr $C$DW$303, DW_AT_TI_max_frame_size(0x06)
    4080                      .dwpsn  file "../FreeRTOS/Source/tasks_sysStk.c",line 2345,column 1,is_stmt,address _pcTaskGetName
    4081              
    4082                      .dwfde $C$DW$CIE, _pcTaskGetName
    4083              $C$DW$304       .dwtag  DW_TAG_formal_parameter, DW_AT_name("xTaskToQuery")
    4084                      .dwattr $C$DW$304, DW_AT_TI_symbol_name("_xTaskToQuery")
    4085                      .dwattr $C$DW$304, DW_AT_type(*$C$DW$T$48)
    4086                      .dwattr $C$DW$304, DW_AT_location[DW_OP_reg17]
    4087              ;*******************************************************************************
    4088              ;* FUNCTION NAME: pcTaskGetName                                                *
TMS320C55x Assembler PC v4.4.1 Tue Oct 02 02:33:57 2018

Tools Copyright (c) 1996-2012 Texas Instruments Incorporated
tasks_sysStk.asm                                                     PAGE   91

    4089              ;*                                                                             *
    4090              ;*   Function Uses Regs : AC0,AC0,AR0,XAR0,AR3,XAR3,SP,M40,SATA,SATD,RDM,FRCT, *
    4091              ;*                        SMUL                                                 *
    4092              ;*   Stack Frame        : Compact (No Frame Pointer, w/ debug)                 *
    4093              ;*   Total Frame Size   : 6 words                                              *
    4094              ;*                        (2 return address/alignment)                         *
    4095              ;*                        (4 local values)                                     *
    4096              ;*   Min System Stack   : 1 word                                               *
    4097              ;*******************************************************************************
    4098 000d34       _pcTaskGetName:
    4099                      .dwcfi  cfa_offset, 1
    4100                      .dwcfi  save_reg_to_mem, 91, -1
    4101 000d34 4EFB          AADD #-5, SP
    4102                      .dwcfi  cfa_offset, 6
    4103              $C$DW$305       .dwtag  DW_TAG_variable, DW_AT_name("xTaskToQuery")
    4104                      .dwattr $C$DW$305, DW_AT_TI_symbol_name("_xTaskToQuery")
    4105                      .dwattr $C$DW$305, DW_AT_type(*$C$DW$T$48)
    4106                      .dwattr $C$DW$305, DW_AT_location[DW_OP_bregx 0x24 0]
    4107              $C$DW$306       .dwtag  DW_TAG_variable, DW_AT_name("pxTCB")
    4108                      .dwattr $C$DW$306, DW_AT_TI_symbol_name("_pxTCB")
    4109                      .dwattr $C$DW$306, DW_AT_type(*$C$DW$T$83)
    4110                      .dwattr $C$DW$306, DW_AT_location[DW_OP_bregx 0x24 2]
    4111 000d36 EB00          MOV XAR0, dbl(*SP(#0))
         000d38 85   
    4112                      .dwpsn  file "../FreeRTOS/Source/tasks_sysStk.c",line 2350,column 2,is_stmt
    4113 000d39 ED00          MOV dbl(*SP(#0)), XAR3
         000d3b BF   
    4114 000d3c 90B0          MOV XAR3, AC0
    4115 000d3e 6310          BCC $C$L136,AC0 != #0 ; |2350| 
    4116                                                      ; branchcc occurs ; |2350| 
    4117 000d40 ED31          MOV dbl(*(#_pxCurrentTCB)), XAR3
         000d42 BF00 
         000d44 0004-
    4118 000d46       $C$L136:    
    4119 000d46 EB04          MOV XAR3, dbl(*SP(#2))
         000d48 B5   
    4120                      .dwpsn  file "../FreeRTOS/Source/tasks_sysStk.c",line 2351,column 2,is_stmt
    4121 000d49 90B0          MOV XAR3, AC0
    4122 000d4b 6290          BCC $C$L138,AC0 != #0 ; |2351| 
    4123                                                      ; branchcc occurs ; |2351| 
    4124 000d4d 20     nop
    4125 000d4e 46B3   bset INTM
    4126 000d50       $C$L137:    
    4127 000d50       $C$DW$L$_pcTaskGetName$5$B:
    4128 000d50 4A7E          B $C$L137 ; |2351| 
    4129                                                      ; branch occurs ; |2351| 
    4130 000d52       $C$DW$L$_pcTaskGetName$5$E:
    4131 000d52       $C$L138:    
    4132                      .dwpsn  file "../FreeRTOS/Source/tasks_sysStk.c",line 2352,column 2,is_stmt
    4133 000d52 ED04          MOV dbl(*SP(#2)), XAR0
         000d54 8F   
    4134 000d55 141E          AADD #30, AR0 ; |2352| 
         000d57 84   
    4135                      .dwpsn  file "../FreeRTOS/Source/tasks_sysStk.c",line 2353,column 1,is_stmt
    4136 000d58 4E05          AADD #5, SP
TMS320C55x Assembler PC v4.4.1 Tue Oct 02 02:33:57 2018

Tools Copyright (c) 1996-2012 Texas Instruments Incorporated
tasks_sysStk.asm                                                     PAGE   92

    4137                      .dwcfi  cfa_offset, 1
    4138              $C$DW$307       .dwtag  DW_TAG_TI_branch
    4139                      .dwattr $C$DW$307, DW_AT_low_pc(0x00)
    4140                      .dwattr $C$DW$307, DW_AT_TI_return
    4141 000d5a 4804          RET
    4142                                                      ; return occurs
    4143              
    4144              $C$DW$308       .dwtag  DW_TAG_TI_loop
    4145                      .dwattr $C$DW$308, DW_AT_name("F:\eZdsp-DBG-sim\tmp1\c55x-sim2\foo\Debug\tasks_sysStk.asm:$C$L137:1:1
    4146                      .dwattr $C$DW$308, DW_AT_TI_begin_file("../FreeRTOS/Source/tasks_sysStk.c")
    4147                      .dwattr $C$DW$308, DW_AT_TI_begin_line(0x92f)
    4148                      .dwattr $C$DW$308, DW_AT_TI_end_line(0x92f)
    4149              $C$DW$309       .dwtag  DW_TAG_TI_loop_range
    4150                      .dwattr $C$DW$309, DW_AT_low_pc($C$DW$L$_pcTaskGetName$5$B)
    4151                      .dwattr $C$DW$309, DW_AT_high_pc($C$DW$L$_pcTaskGetName$5$E)
    4152                      .dwendtag $C$DW$308
    4153              
    4154                      .dwattr $C$DW$303, DW_AT_TI_end_file("../FreeRTOS/Source/tasks_sysStk.c")
    4155                      .dwattr $C$DW$303, DW_AT_TI_end_line(0x931)
    4156                      .dwattr $C$DW$303, DW_AT_TI_end_column(0x01)
    4157                      .dwendentry
    4158                      .dwendtag $C$DW$303
    4159              
    4160 000d5c               .sect   ".text"
    4161                      .align 4
    4162                      .global _xTaskIncrementTick
    4163              
    4164              $C$DW$310       .dwtag  DW_TAG_subprogram, DW_AT_name("xTaskIncrementTick")
    4165                      .dwattr $C$DW$310, DW_AT_low_pc(_xTaskIncrementTick)
    4166                      .dwattr $C$DW$310, DW_AT_high_pc(0x00)
    4167                      .dwattr $C$DW$310, DW_AT_TI_symbol_name("_xTaskIncrementTick")
    4168                      .dwattr $C$DW$310, DW_AT_external
    4169                      .dwattr $C$DW$310, DW_AT_type(*$C$DW$T$43)
    4170                      .dwattr $C$DW$310, DW_AT_TI_begin_file("../FreeRTOS/Source/tasks_sysStk.c")
    4171                      .dwattr $C$DW$310, DW_AT_TI_begin_line(0xa6f)
    4172                      .dwattr $C$DW$310, DW_AT_TI_begin_column(0x0c)
    4173                      .dwattr $C$DW$310, DW_AT_TI_max_frame_size(0x0c)
    4174                      .dwpsn  file "../FreeRTOS/Source/tasks_sysStk.c",line 2672,column 1,is_stmt,address _xTaskIncrementTi
    4175              
    4176                      .dwfde $C$DW$CIE, _xTaskIncrementTick
    4177              ;*******************************************************************************
    4178              ;* FUNCTION NAME: xTaskIncrementTick                                           *
    4179              ;*                                                                             *
    4180              ;*   Function Uses Regs : AC0,AC0,AC1,AC1,T0,AR0,XAR0,AR1,XAR1,AR2,AR3,XAR3,SP,*
    4181              ;*                        CARRY,TC1,M40,SATA,SATD,RDM,FRCT,SMUL                *
    4182              ;*   Stack Frame        : Compact (No Frame Pointer, w/ debug)                 *
    4183              ;*   Total Frame Size   : 12 words                                             *
    4184              ;*                        (2 return address/alignment)                         *
    4185              ;*                        (10 local values)                                    *
    4186              ;*   Min System Stack   : 1 word                                               *
    4187              ;*******************************************************************************
    4188 000d5c       _xTaskIncrementTick:
    4189                      .dwcfi  cfa_offset, 1
    4190                      .dwcfi  save_reg_to_mem, 91, -1
    4191 000d5c 4EF5          AADD #-11, SP
TMS320C55x Assembler PC v4.4.1 Tue Oct 02 02:33:57 2018

Tools Copyright (c) 1996-2012 Texas Instruments Incorporated
tasks_sysStk.asm                                                     PAGE   93

    4192                      .dwcfi  cfa_offset, 12
    4193              $C$DW$311       .dwtag  DW_TAG_variable, DW_AT_name("pxTCB")
    4194                      .dwattr $C$DW$311, DW_AT_TI_symbol_name("_pxTCB")
    4195                      .dwattr $C$DW$311, DW_AT_type(*$C$DW$T$83)
    4196                      .dwattr $C$DW$311, DW_AT_location[DW_OP_bregx 0x24 0]
    4197              $C$DW$312       .dwtag  DW_TAG_variable, DW_AT_name("xItemValue")
    4198                      .dwattr $C$DW$312, DW_AT_TI_symbol_name("_xItemValue")
    4199                      .dwattr $C$DW$312, DW_AT_type(*$C$DW$T$37)
    4200                      .dwattr $C$DW$312, DW_AT_location[DW_OP_bregx 0x24 2]
    4201              $C$DW$313       .dwtag  DW_TAG_variable, DW_AT_name("xSwitchRequired")
    4202                      .dwattr $C$DW$313, DW_AT_TI_symbol_name("_xSwitchRequired")
    4203                      .dwattr $C$DW$313, DW_AT_type(*$C$DW$T$43)
    4204                      .dwattr $C$DW$313, DW_AT_location[DW_OP_bregx 0x24 4]
    4205                      .dwpsn  file "../FreeRTOS/Source/tasks_sysStk.c",line 2675,column 12,is_stmt
    4206 000d5e E608          MOV #0, *SP(#4) ; |2675| 
         000d60 00   
    4207                      .dwpsn  file "../FreeRTOS/Source/tasks_sysStk.c",line 2677,column 6,is_stmt
    4208 000d61 ED31          MOV dbl(*(#_wall_clk_ctr)), AC0 ; |2677| 
         000d63 0800 
         000d65 0000-
    4209 000d67 4010          ADD #1, AC0 ; |2677| 
    4210 000d69 EB31          MOV AC0, dbl(*(#_wall_clk_ctr)) ; |2677| 
         000d6b 0800 
         000d6d 0000-
    4211                      .dwpsn  file "../FreeRTOS/Source/tasks_sysStk.c",line 2683,column 2,is_stmt
    4212 000d6f A931          MOV *(#_uxSchedulerSuspended), AR1 ; |2683| 
         000d71 0000 
         000d73 7C-  
    4213 000d74 6D19          BCC $C$L151,AR1 != #0 ; |2683| 
         000d76 0131 
    4214                                                      ; branchcc occurs ; |2683| 
    4215              
    4216              $C$DW$314       .dwtag  DW_TAG_lexical_block, DW_AT_low_pc(0x00), DW_AT_high_pc(0x00)
    4217              $C$DW$315       .dwtag  DW_TAG_variable, DW_AT_name("xConstTickCount")
    4218                      .dwattr $C$DW$315, DW_AT_TI_symbol_name("_xConstTickCount")
    4219                      .dwattr $C$DW$315, DW_AT_type(*$C$DW$T$95)
    4220                      .dwattr $C$DW$315, DW_AT_location[DW_OP_bregx 0x24 6]
    4221                      .dwpsn  file "../FreeRTOS/Source/tasks_sysStk.c",line 2687,column 20,is_stmt
    4222 000d78 ED31          MOV dbl(*(#_xTickCount)), AC0 ; |2687| 
         000d7a 0800 
         000d7c 0070-
    4223 000d7e 4010          ADD #1, AC0 ; |2687| 
    4224 000d80 EB0C          MOV AC0, dbl(*SP(#6)) ; |2687| 
         000d82 08   
    4225                      .dwpsn  file "../FreeRTOS/Source/tasks_sysStk.c",line 2691,column 3,is_stmt
    4226 000d83 ED0C          MOV dbl(*SP(#6)), AC0 ; |2691| 
         000d85 08   
    4227 000d86 EB31          MOV AC0, dbl(*(#_xTickCount)) ; |2691| 
         000d88 0800 
         000d8a 0070-
    4228                      .dwpsn  file "../FreeRTOS/Source/tasks_sysStk.c",line 2693,column 3,is_stmt
    4229 000d8c ED0C          MOV dbl(*SP(#6)), AC0 ; |2693| 
         000d8e 08   
    4230 000d8f 0410          BCC $C$L143,AC0 != #0 ; |2693| 
         000d91 3F   
TMS320C55x Assembler PC v4.4.1 Tue Oct 02 02:33:57 2018

Tools Copyright (c) 1996-2012 Texas Instruments Incorporated
tasks_sysStk.asm                                                     PAGE   94

    4231                                                      ; branchcc occurs ; |2693| 
    4232              
    4233              $C$DW$316       .dwtag  DW_TAG_lexical_block, DW_AT_low_pc(0x00), DW_AT_high_pc(0x00)
    4234              $C$DW$317       .dwtag  DW_TAG_variable, DW_AT_name("pxTemp")
    4235                      .dwattr $C$DW$317, DW_AT_TI_symbol_name("_pxTemp")
    4236                      .dwattr $C$DW$317, DW_AT_type(*$C$DW$T$66)
    4237                      .dwattr $C$DW$317, DW_AT_location[DW_OP_bregx 0x24 8]
    4238                      .dwpsn  file "../FreeRTOS/Source/tasks_sysStk.c",line 2695,column 4,is_stmt
    4239 000d92 ED31          MOV dbl(*(#_pxDelayedTaskList)), XAR3
         000d94 BF00 
         000d96 004C-
    4240 000d98 A961          MOV *AR3, AR1 ; |2695| 
    4241 000d9a 6219          BCC $C$L139,AR1 != #0 ; |2695| 
    4242                                                      ; branchcc occurs ; |2695| 
    4243 000d9c 3C19          MOV #1, AR1
    4244 000d9e 4A02          B $C$L140 ; |2695| 
    4245                                                      ; branch occurs ; |2695| 
    4246 000da0       $C$L139:    
    4247 000da0 3C09          MOV #0, AR1
    4248 000da2       $C$L140:    
    4249 000da2 6299          BCC $C$L142,AR1 != #0 ; |2695| 
    4250                                                      ; branchcc occurs ; |2695| 
    4251 000da4 20     nop
    4252 000da5 46B3   bset INTM
    4253 000da7       $C$L141:    
    4254 000da7       $C$DW$L$_xTaskIncrementTick$8$B:
    4255 000da7 4A7E          B $C$L141 ; |2695| 
    4256                                                      ; branch occurs ; |2695| 
    4257 000da9       $C$DW$L$_xTaskIncrementTick$8$E:
    4258 000da9       $C$L142:    
    4259 000da9 ED31          MOV dbl(*(#_pxDelayedTaskList)), XAR3
         000dab BF00 
         000dad 004C-
    4260 000daf EB10          MOV XAR3, dbl(*SP(#8))
         000db1 B5   
    4261 000db2 ED31          MOV dbl(*(#_pxOverflowDelayedTaskList)), XAR3
         000db4 BF00 
         000db6 004E-
    4262 000db8 EB31          MOV XAR3, dbl(*(#_pxDelayedTaskList))
         000dba B500 
         000dbc 004C-
    4263 000dbe ED10          MOV dbl(*SP(#8)), XAR3
         000dc0 BF   
    4264 000dc1 EB31          MOV XAR3, dbl(*(#_pxOverflowDelayedTaskList))
         000dc3 B500 
         000dc5 004E-
    4265 000dc7 F731          ADD #1, *(#_xNumOfOverflows) ; |2695| 
         000dc9 0001 
         000dcb 0000 
         000dcd 76-  
    4266              $C$DW$318       .dwtag  DW_TAG_TI_branch
    4267                      .dwattr $C$DW$318, DW_AT_low_pc(0x00)
    4268                      .dwattr $C$DW$318, DW_AT_name("_prvResetNextTaskUnblockTime")
    4269                      .dwattr $C$DW$318, DW_AT_TI_call
    4270 000dce 0806          CALL #_prvResetNextTaskUnblockTime ; |2695| 
TMS320C55x Assembler PC v4.4.1 Tue Oct 02 02:33:57 2018

Tools Copyright (c) 1996-2012 Texas Instruments Incorporated
tasks_sysStk.asm                                                     PAGE   95

         000dd0 63   
    4271                                                      ; call occurs [#_prvResetNextTaskUnblockTime] ; |2695| 
    4272                      .dwendtag $C$DW$316
    4273              
    4274                      .dwpsn  file "../FreeRTOS/Source/tasks_sysStk.c",line 2696,column 3,is_stmt
    4275 000dd1       $C$L143:    
    4276                      .dwpsn  file "../FreeRTOS/Source/tasks_sysStk.c",line 2706,column 3,is_stmt
    4277 000dd1 ED31          MOV dbl(*(#_xNextTaskUnblockTime)), AC0 ; |2706| 
         000dd3 0800 
         000dd5 0078-
    4278 000dd7 ED0C          MOV dbl(*SP(#6)), AC1 ; |2706| 
         000dd9 18   
    4279 000dda 1214          CMPU AC1 < AC0, TC1 ; |2706| 
         000ddc 04   
    4280 000ddd 6D64          BCC $C$L152,TC1 ; |2706| 
         000ddf 00CF 
    4281                                                      ; branchcc occurs ; |2706| 
    4282 000de1       $C$L144:    
    4283 000de1       $C$DW$L$_xTaskIncrementTick$11$B:
    4284                      .dwpsn  file "../FreeRTOS/Source/tasks_sysStk.c",line 2710,column 5,is_stmt
    4285 000de1 ED31          MOV dbl(*(#_pxDelayedTaskList)), XAR3
         000de3 BF00 
         000de5 004C-
    4286 000de7 A961          MOV *AR3, AR1 ; |2710| 
    4287 000de9 6219          BCC $C$L145,AR1 != #0 ; |2710| 
    4288                                                      ; branchcc occurs ; |2710| 
    4289 000deb       $C$DW$L$_xTaskIncrementTick$11$E:
    4290 000deb       $C$DW$L$_xTaskIncrementTick$12$B:
    4291 000deb 3C19          MOV #1, AR1
    4292 000ded 4A02          B $C$L146 ; |2710| 
    4293                                                      ; branch occurs ; |2710| 
    4294 000def       $C$DW$L$_xTaskIncrementTick$12$E:
    4295 000def       $C$L145:    
    4296 000def       $C$DW$L$_xTaskIncrementTick$13$B:
    4297 000def 3C09          MOV #0, AR1
    4298 000df1       $C$DW$L$_xTaskIncrementTick$13$E:
    4299 000df1       $C$L146:    
    4300 000df1       $C$DW$L$_xTaskIncrementTick$14$B:
    4301 000df1 0409          BCC $C$L147,AR1 == #0 ; |2710| 
         000df3 11   
    4302                                                      ; branchcc occurs ; |2710| 
    4303 000df4       $C$DW$L$_xTaskIncrementTick$14$E:
    4304                      .dwpsn  file "../FreeRTOS/Source/tasks_sysStk.c",line 2717,column 6,is_stmt
    4305 000df4 7AFF          MOV #-1 << #16, AC0 ; |2717| 
         000df6 FF0A 
    4306 000df8 7EFF          OR #0xffff, AC0, AC0 ; |2717| 
         000dfa FF00 
    4307 000dfc EB31          MOV AC0, dbl(*(#_xNextTaskUnblockTime)) ; |2717| 
         000dfe 0800 
         000e00 0078-
    4308                      .dwpsn  file "../FreeRTOS/Source/tasks_sysStk.c",line 2718,column 6,is_stmt
    4309 000e02 0600          B $C$L152 ; |2718| 
         000e04 AB   
    4310                                                      ; branch occurs ; |2718| 
    4311 000e05       $C$L147:    
TMS320C55x Assembler PC v4.4.1 Tue Oct 02 02:33:57 2018

Tools Copyright (c) 1996-2012 Texas Instruments Incorporated
tasks_sysStk.asm                                                     PAGE   96

    4312 000e05       $C$DW$L$_xTaskIncrementTick$17$B:
    4313                      .dwpsn  file "../FreeRTOS/Source/tasks_sysStk.c",line 2726,column 6,is_stmt
    4314 000e05 ED31          MOV dbl(*(#_pxDelayedTaskList)), XAR3
         000e07 BF00 
         000e09 004C-
    4315 000e0b ED7D          MOV dbl(*AR3(short(#6))), XAR3
         000e0d BF   
    4316 000e0e ED7D          MOV dbl(*AR3(short(#6))), XAR3
         000e10 BF   
    4317 000e11 EB00          MOV XAR3, dbl(*SP(#0))
         000e13 B5   
    4318                      .dwpsn  file "../FreeRTOS/Source/tasks_sysStk.c",line 2727,column 6,is_stmt
    4319 000e14 ED79          MOV dbl(*AR3(short(#4))), AC0 ; |2727| 
         000e16 08   
    4320 000e17 EB04          MOV AC0, dbl(*SP(#2)) ; |2727| 
         000e19 08   
    4321                      .dwpsn  file "../FreeRTOS/Source/tasks_sysStk.c",line 2729,column 6,is_stmt
    4322 000e1a ED0C          MOV dbl(*SP(#6)), AC1 ; |2729| 
         000e1c 18   
    4323 000e1d ED04          MOV dbl(*SP(#2)), AC0 ; |2729| 
         000e1f 08   
    4324 000e20 1218          CMPU AC1 >= AC0, TC1 ; |2729| 
         000e22 04   
    4325 000e23 6664          BCC $C$L148,TC1 ; |2729| 
    4326                                                      ; branchcc occurs ; |2729| 
    4327 000e25       $C$DW$L$_xTaskIncrementTick$17$E:
    4328                      .dwpsn  file "../FreeRTOS/Source/tasks_sysStk.c",line 2736,column 7,is_stmt
    4329 000e25 ED04          MOV dbl(*SP(#2)), AC0 ; |2736| 
         000e27 08   
    4330 000e28 EB31          MOV AC0, dbl(*(#_xNextTaskUnblockTime)) ; |2736| 
         000e2a 0800 
         000e2c 0078-
    4331                      .dwpsn  file "../FreeRTOS/Source/tasks_sysStk.c",line 2737,column 7,is_stmt
    4332 000e2e 0600          B $C$L152 ; |2737| 
         000e30 7F   
    4333                                                      ; branch occurs ; |2737| 
    4334 000e31       $C$L148:    
    4335 000e31       $C$DW$L$_xTaskIncrementTick$20$B:
    4336                      .dwpsn  file "../FreeRTOS/Source/tasks_sysStk.c",line 2745,column 6,is_stmt
    4337 000e31 ED00          MOV dbl(*SP(#0)), XAR0
         000e33 8F   
    4338 000e34 1404          AADD #4, AR0 ; |2745| 
         000e36 84   
    4339              $C$DW$319       .dwtag  DW_TAG_TI_branch
    4340                      .dwattr $C$DW$319, DW_AT_low_pc(0x00)
    4341                      .dwattr $C$DW$319, DW_AT_name("_uxListRemove")
    4342                      .dwattr $C$DW$319, DW_AT_TI_call
    4343 000e37 6C00          CALL #_uxListRemove ; |2745| 
         000e39 0000!
    4344                                                      ; call occurs [#_uxListRemove] ; |2745| 
    4345                      .dwpsn  file "../FreeRTOS/Source/tasks_sysStk.c",line 2749,column 6,is_stmt
    4346 000e3b ED00          MOV dbl(*SP(#0)), XAR3
         000e3d BF   
    4347 000e3e ED6D          MOV dbl(*AR3(#22)), XAR3
         000e40 BF00 
TMS320C55x Assembler PC v4.4.1 Tue Oct 02 02:33:57 2018

Tools Copyright (c) 1996-2012 Texas Instruments Incorporated
tasks_sysStk.asm                                                     PAGE   97

         000e42 16   
    4348 000e43 90B0          MOV XAR3, AC0
    4349 000e45 6500          BCC $C$L149,AC0 == #0 ; |2749| 
    4350                                                      ; branchcc occurs ; |2749| 
    4351 000e47       $C$DW$L$_xTaskIncrementTick$20$E:
    4352 000e47       $C$DW$L$_xTaskIncrementTick$21$B:
    4353                      .dwpsn  file "../FreeRTOS/Source/tasks_sysStk.c",line 2751,column 7,is_stmt
    4354 000e47 ED00          MOV dbl(*SP(#0)), XAR0
         000e49 8F   
    4355 000e4a 140E          AADD #14, AR0 ; |2751| 
         000e4c 84   
    4356              $C$DW$320       .dwtag  DW_TAG_TI_branch
    4357                      .dwattr $C$DW$320, DW_AT_low_pc(0x00)
    4358                      .dwattr $C$DW$320, DW_AT_name("_uxListRemove")
    4359                      .dwattr $C$DW$320, DW_AT_TI_call
    4360 000e4d 6C00          CALL #_uxListRemove ; |2751| 
         000e4f 0000!
    4361                                                      ; call occurs [#_uxListRemove] ; |2751| 
    4362                      .dwpsn  file "../FreeRTOS/Source/tasks_sysStk.c",line 2752,column 6,is_stmt
    4363 000e51       $C$DW$L$_xTaskIncrementTick$21$E:
    4364 000e51       $C$L149:    
    4365 000e51       $C$DW$L$_xTaskIncrementTick$22$B:
    4366                      .dwpsn  file "../FreeRTOS/Source/tasks_sysStk.c",line 2760,column 6,is_stmt
    4367 000e51 ED00          MOV dbl(*SP(#0)), XAR3
         000e53 BF   
    4368 000e54 A931          MOV *(#_uxTopReadyPriority), AR1 ; |2760| 
         000e56 0000 
         000e58 72-  
    4369 000e59 AA6D          MOV *AR3(#24), AR2 ; |2760| 
         000e5b 0018 
    4370 000e5d 1298          CMPU AR2 <= AR1, TC1 ; |2760| 
         000e5f A4   
    4371 000e60 64E4          BCC $C$L150,TC1 ; |2760| 
    4372                                                      ; branchcc occurs ; |2760| 
    4373 000e62       $C$DW$L$_xTaskIncrementTick$22$E:
    4374 000e62       $C$DW$L$_xTaskIncrementTick$23$B:
    4375 000e62 A96D          MOV *AR3(#24), AR1 ; |2760| 
         000e64 0018 
    4376 000e66 C931          MOV AR1, *(#_uxTopReadyPriority) ; |2760| 
         000e68 0000 
         000e6a 72-  
    4377 000e6b       $C$DW$L$_xTaskIncrementTick$23$E:
    4378 000e6b       $C$L150:    
    4379 000e6b       $C$DW$L$_xTaskIncrementTick$24$B:
    4380 000e6b DF6D          MOV uns(*AR3(#24)), AC1 ; |2760| 
         000e6d 1500 
         000e6f 18   
    4381 000e70 ED00          MOV dbl(*SP(#0)), XAR1
         000e72 9F   
    4382 000e73 1015          SFTS AC1, #1, AC0 ; |2760| 
         000e75 01   
    4383 000e76 1013          ADD AC1 << #3, AC0 ; |2760| 
         000e78 03   
    4384 000e79 900B          MOV AC0, XAR3
    4385 000e7b EC31          AMOV #_pxReadyTasksLists, XAR0 ; |2760| 
TMS320C55x Assembler PC v4.4.1 Tue Oct 02 02:33:57 2018

Tools Copyright (c) 1996-2012 Texas Instruments Incorporated
tasks_sysStk.asm                                                     PAGE   98

         000e7d 8E00 
         000e7f 0006-
    4386              
    4387 000e81 14B1          AADD XAR3, XAR0 ; |2760| 
         000e83 80   
    4388 000e84 1504  ||      AADD #4, AR1 ; |2760| 
         000e86 9C   
    4389              
    4390              $C$DW$321       .dwtag  DW_TAG_TI_branch
    4391                      .dwattr $C$DW$321, DW_AT_low_pc(0x00)
    4392                      .dwattr $C$DW$321, DW_AT_name("_vListInsertEnd")
    4393                      .dwattr $C$DW$321, DW_AT_TI_call
    4394 000e87 6C00          CALL #_vListInsertEnd ; |2760| 
         000e89 0000!
    4395                                                      ; call occurs [#_vListInsertEnd] ; |2760| 
    4396                      .dwpsn  file "../FreeRTOS/Source/tasks_sysStk.c",line 2770,column 7,is_stmt
    4397 000e8b ED31          MOV dbl(*(#_pxCurrentTCB)), XAR3
         000e8d BF00 
         000e8f 0004-
    4398 000e91 A96D          MOV *AR3(#24), AR1 ; |2770| 
         000e93 0018 
    4399 000e95 ED00          MOV dbl(*SP(#0)), XAR3
         000e97 BF   
    4400 000e98 AA6D          MOV *AR3(#24), AR2 ; |2770| 
         000e9a 0018 
    4401 000e9c 12A4          CMPU AR2 < AR1, TC1 ; |2770| 
         000e9e 94   
    4402 000e9f 6D64          BCC $C$L144,TC1 ; |2770| 
         000ea1 FF3E 
    4403                                                      ; branchcc occurs ; |2770| 
    4404 000ea3       $C$DW$L$_xTaskIncrementTick$24$E:
    4405 000ea3       $C$DW$L$_xTaskIncrementTick$25$B:
    4406                      .dwpsn  file "../FreeRTOS/Source/tasks_sysStk.c",line 2772,column 8,is_stmt
    4407 000ea3 E608          MOV #1, *SP(#4) ; |2772| 
         000ea5 01   
    4408                      .dwpsn  file "../FreeRTOS/Source/tasks_sysStk.c",line 2773,column 7,is_stmt
    4409 000ea6 06FF          B $C$L144 ; |2773| 
         000ea8 38   
    4410                                                      ; branch occurs ; |2773| 
    4411              $C$DW$L$_xTaskIncrementTick$25$E:
    4412                      .dwendtag $C$DW$314
    4413              
    4414 000ea9       $C$L151:    
    4415                      .dwpsn  file "../FreeRTOS/Source/tasks_sysStk.c",line 2817,column 3,is_stmt
    4416 000ea9 F731          ADD #1, *(#_uxPendedTicks) ; |2817| 
         000eab 0001 
         000ead 0000 
         000eaf 74-  
    4417 000eb0       $C$L152:    
    4418                      .dwpsn  file "../FreeRTOS/Source/tasks_sysStk.c",line 2830,column 3,is_stmt
    4419 000eb0 A931          MOV *(#_xYieldPending), AR1 ; |2830| 
         000eb2 0000 
         000eb4 75-  
    4420 000eb5 6189          BCC $C$L153,AR1 == #0 ; |2830| 
    4421                                                      ; branchcc occurs ; |2830| 
TMS320C55x Assembler PC v4.4.1 Tue Oct 02 02:33:57 2018

Tools Copyright (c) 1996-2012 Texas Instruments Incorporated
tasks_sysStk.asm                                                     PAGE   99

    4422                      .dwpsn  file "../FreeRTOS/Source/tasks_sysStk.c",line 2832,column 4,is_stmt
    4423 000eb7 E608          MOV #1, *SP(#4) ; |2832| 
         000eb9 01   
    4424                      .dwpsn  file "../FreeRTOS/Source/tasks_sysStk.c",line 2833,column 3,is_stmt
    4425 000eba       $C$L153:    
    4426                      .dwpsn  file "../FreeRTOS/Source/tasks_sysStk.c",line 2841,column 2,is_stmt
    4427 000eba A408          MOV *SP(#4), T0 ; |2841| 
    4428                      .dwpsn  file "../FreeRTOS/Source/tasks_sysStk.c",line 2842,column 1,is_stmt
    4429 000ebc 4E0B          AADD #11, SP
    4430                      .dwcfi  cfa_offset, 1
    4431              $C$DW$322       .dwtag  DW_TAG_TI_branch
    4432                      .dwattr $C$DW$322, DW_AT_low_pc(0x00)
    4433                      .dwattr $C$DW$322, DW_AT_TI_return
    4434 000ebe 4804          RET
    4435                                                      ; return occurs
    4436              
    4437              $C$DW$323       .dwtag  DW_TAG_TI_loop
    4438                      .dwattr $C$DW$323, DW_AT_name("F:\eZdsp-DBG-sim\tmp1\c55x-sim2\foo\Debug\tasks_sysStk.asm:$C$L144:1:1
    4439                      .dwattr $C$DW$323, DW_AT_TI_begin_file("../FreeRTOS/Source/tasks_sysStk.c")
    4440                      .dwattr $C$DW$323, DW_AT_TI_begin_line(0xa94)
    4441                      .dwattr $C$DW$323, DW_AT_TI_end_line(0xadd)
    4442              $C$DW$324       .dwtag  DW_TAG_TI_loop_range
    4443                      .dwattr $C$DW$324, DW_AT_low_pc($C$DW$L$_xTaskIncrementTick$11$B)
    4444                      .dwattr $C$DW$324, DW_AT_high_pc($C$DW$L$_xTaskIncrementTick$11$E)
    4445              $C$DW$325       .dwtag  DW_TAG_TI_loop_range
    4446                      .dwattr $C$DW$325, DW_AT_low_pc($C$DW$L$_xTaskIncrementTick$12$B)
    4447                      .dwattr $C$DW$325, DW_AT_high_pc($C$DW$L$_xTaskIncrementTick$12$E)
    4448              $C$DW$326       .dwtag  DW_TAG_TI_loop_range
    4449                      .dwattr $C$DW$326, DW_AT_low_pc($C$DW$L$_xTaskIncrementTick$13$B)
    4450                      .dwattr $C$DW$326, DW_AT_high_pc($C$DW$L$_xTaskIncrementTick$13$E)
    4451              $C$DW$327       .dwtag  DW_TAG_TI_loop_range
    4452                      .dwattr $C$DW$327, DW_AT_low_pc($C$DW$L$_xTaskIncrementTick$14$B)
    4453                      .dwattr $C$DW$327, DW_AT_high_pc($C$DW$L$_xTaskIncrementTick$14$E)
    4454              $C$DW$328       .dwtag  DW_TAG_TI_loop_range
    4455                      .dwattr $C$DW$328, DW_AT_low_pc($C$DW$L$_xTaskIncrementTick$17$B)
    4456                      .dwattr $C$DW$328, DW_AT_high_pc($C$DW$L$_xTaskIncrementTick$17$E)
    4457              $C$DW$329       .dwtag  DW_TAG_TI_loop_range
    4458                      .dwattr $C$DW$329, DW_AT_low_pc($C$DW$L$_xTaskIncrementTick$20$B)
    4459                      .dwattr $C$DW$329, DW_AT_high_pc($C$DW$L$_xTaskIncrementTick$20$E)
    4460              $C$DW$330       .dwtag  DW_TAG_TI_loop_range
    4461                      .dwattr $C$DW$330, DW_AT_low_pc($C$DW$L$_xTaskIncrementTick$21$B)
    4462                      .dwattr $C$DW$330, DW_AT_high_pc($C$DW$L$_xTaskIncrementTick$21$E)
    4463              $C$DW$331       .dwtag  DW_TAG_TI_loop_range
    4464                      .dwattr $C$DW$331, DW_AT_low_pc($C$DW$L$_xTaskIncrementTick$22$B)
    4465                      .dwattr $C$DW$331, DW_AT_high_pc($C$DW$L$_xTaskIncrementTick$22$E)
    4466              $C$DW$332       .dwtag  DW_TAG_TI_loop_range
    4467                      .dwattr $C$DW$332, DW_AT_low_pc($C$DW$L$_xTaskIncrementTick$23$B)
    4468                      .dwattr $C$DW$332, DW_AT_high_pc($C$DW$L$_xTaskIncrementTick$23$E)
    4469              $C$DW$333       .dwtag  DW_TAG_TI_loop_range
    4470                      .dwattr $C$DW$333, DW_AT_low_pc($C$DW$L$_xTaskIncrementTick$25$B)
    4471                      .dwattr $C$DW$333, DW_AT_high_pc($C$DW$L$_xTaskIncrementTick$25$E)
    4472              $C$DW$334       .dwtag  DW_TAG_TI_loop_range
    4473                      .dwattr $C$DW$334, DW_AT_low_pc($C$DW$L$_xTaskIncrementTick$24$B)
    4474                      .dwattr $C$DW$334, DW_AT_high_pc($C$DW$L$_xTaskIncrementTick$24$E)
    4475                      .dwendtag $C$DW$323
TMS320C55x Assembler PC v4.4.1 Tue Oct 02 02:33:57 2018

Tools Copyright (c) 1996-2012 Texas Instruments Incorporated
tasks_sysStk.asm                                                     PAGE  100

    4476              
    4477              
    4478              $C$DW$335       .dwtag  DW_TAG_TI_loop
    4479                      .dwattr $C$DW$335, DW_AT_name("F:\eZdsp-DBG-sim\tmp1\c55x-sim2\foo\Debug\tasks_sysStk.asm:$C$L141:1:1
    4480                      .dwattr $C$DW$335, DW_AT_TI_begin_file("../FreeRTOS/Source/tasks_sysStk.c")
    4481                      .dwattr $C$DW$335, DW_AT_TI_begin_line(0xa87)
    4482                      .dwattr $C$DW$335, DW_AT_TI_end_line(0xa87)
    4483              $C$DW$336       .dwtag  DW_TAG_TI_loop_range
    4484                      .dwattr $C$DW$336, DW_AT_low_pc($C$DW$L$_xTaskIncrementTick$8$B)
    4485                      .dwattr $C$DW$336, DW_AT_high_pc($C$DW$L$_xTaskIncrementTick$8$E)
    4486                      .dwendtag $C$DW$335
    4487              
    4488                      .dwattr $C$DW$310, DW_AT_TI_end_file("../FreeRTOS/Source/tasks_sysStk.c")
    4489                      .dwattr $C$DW$310, DW_AT_TI_end_line(0xb1a)
    4490                      .dwattr $C$DW$310, DW_AT_TI_end_column(0x01)
    4491                      .dwendentry
    4492                      .dwendtag $C$DW$310
    4493              
    4494 000ec0               .sect   ".text"
    4495                      .align 4
    4496                      .global _vTaskSwitchContext
    4497              
    4498              $C$DW$337       .dwtag  DW_TAG_subprogram, DW_AT_name("vTaskSwitchContext")
    4499                      .dwattr $C$DW$337, DW_AT_low_pc(_vTaskSwitchContext)
    4500                      .dwattr $C$DW$337, DW_AT_high_pc(0x00)
    4501                      .dwattr $C$DW$337, DW_AT_TI_symbol_name("_vTaskSwitchContext")
    4502                      .dwattr $C$DW$337, DW_AT_external
    4503                      .dwattr $C$DW$337, DW_AT_TI_begin_file("../FreeRTOS/Source/tasks_sysStk.c")
    4504                      .dwattr $C$DW$337, DW_AT_TI_begin_line(0xb79)
    4505                      .dwattr $C$DW$337, DW_AT_TI_begin_column(0x06)
    4506                      .dwattr $C$DW$337, DW_AT_TI_max_frame_size(0x06)
    4507                      .dwpsn  file "../FreeRTOS/Source/tasks_sysStk.c",line 2938,column 1,is_stmt,address _vTaskSwitchConte
    4508              
    4509                      .dwfde $C$DW$CIE, _vTaskSwitchContext
    4510              ;*******************************************************************************
    4511              ;* FUNCTION NAME: vTaskSwitchContext                                           *
    4512              ;*                                                                             *
    4513              ;*   Function Uses Regs : AC0,AC0,AC1,AC1,AR1,AR2,XAR2,AR3,XAR3,SP,CARRY,TC1,  *
    4514              ;*                        M40,SATA,SATD,RDM,FRCT,SMUL                          *
    4515              ;*   Stack Frame        : Compact (No Frame Pointer, w/ debug)                 *
    4516              ;*   Total Frame Size   : 6 words                                              *
    4517              ;*                        (2 return address/alignment)                         *
    4518              ;*                        (4 local values)                                     *
    4519              ;*   Min System Stack   : 1 word                                               *
    4520              ;*******************************************************************************
    4521 000ec0       _vTaskSwitchContext:
    4522                      .dwcfi  cfa_offset, 1
    4523                      .dwcfi  save_reg_to_mem, 91, -1
    4524 000ec0 4EFB          AADD #-5, SP
    4525                      .dwcfi  cfa_offset, 6
    4526                      .dwpsn  file "../FreeRTOS/Source/tasks_sysStk.c",line 2939,column 2,is_stmt
    4527 000ec2 A931          MOV *(#_uxSchedulerSuspended), AR1 ; |2939| 
         000ec4 0000 
         000ec6 7C-  
    4528 000ec7 6489          BCC $C$L154,AR1 == #0 ; |2939| 
TMS320C55x Assembler PC v4.4.1 Tue Oct 02 02:33:57 2018

Tools Copyright (c) 1996-2012 Texas Instruments Incorporated
tasks_sysStk.asm                                                     PAGE  101

    4529                                                      ; branchcc occurs ; |2939| 
    4530                      .dwpsn  file "../FreeRTOS/Source/tasks_sysStk.c",line 2943,column 3,is_stmt
    4531 000ec9 E631          MOV #1, *(#_xYieldPending) ; |2943| 
         000ecb 0100 
         000ecd 0075-
    4532                      .dwpsn  file "../FreeRTOS/Source/tasks_sysStk.c",line 2944,column 2,is_stmt
    4533 000ecf 0600          B $C$L162 ; |2944| 
         000ed1 9D   
    4534                                                      ; branch occurs ; |2944| 
    4535 000ed2       $C$L154:    
    4536                      .dwpsn  file "../FreeRTOS/Source/tasks_sysStk.c",line 2947,column 3,is_stmt
    4537 000ed2 E631          MOV #0, *(#_xYieldPending) ; |2947| 
         000ed4 0000 
         000ed6 0075-
    4538 000ed8 20            NOP
    4539 000ed9 20            NOP
    4540 000eda 20            NOP
    4541              
    4542              $C$DW$338       .dwtag  DW_TAG_lexical_block, DW_AT_low_pc(0x00), DW_AT_high_pc(0x00)
    4543              $C$DW$339       .dwtag  DW_TAG_variable, DW_AT_name("uxTopPriority")
    4544                      .dwattr $C$DW$339, DW_AT_TI_symbol_name("_uxTopPriority")
    4545                      .dwattr $C$DW$339, DW_AT_type(*$C$DW$T$25)
    4546                      .dwattr $C$DW$339, DW_AT_location[DW_OP_bregx 0x24 0]
    4547                      .dwpsn  file "../FreeRTOS/Source/tasks_sysStk.c",line 2989,column 3,is_stmt
    4548 000edb A931          MOV *(#_uxTopReadyPriority), AR1 ; |2989| 
         000edd 0000 
         000edf 72-  
    4549 000ee0 C900          MOV AR1, *SP(#0) ; |2989| 
    4550 000ee2 4A0D          B $C$L158 ; |2989| 
    4551                                                      ; branch occurs ; |2989| 
    4552 000ee4       $C$L155:    
    4553 000ee4       $C$DW$L$_vTaskSwitchContext$4$B:
    4554 000ee4 A900          MOV *SP(#0), AR1 ; |2989| 
    4555 000ee6 6299          BCC $C$L157,AR1 != #0 ; |2989| 
    4556                                                      ; branchcc occurs ; |2989| 
    4557 000ee8       $C$DW$L$_vTaskSwitchContext$4$E:
    4558 000ee8 20     nop
    4559 000ee9 46B3   bset INTM
    4560 000eeb       $C$L156:    
    4561 000eeb       $C$DW$L$_vTaskSwitchContext$6$B:
    4562 000eeb 4A7E          B $C$L156 ; |2989| 
    4563                                                      ; branch occurs ; |2989| 
    4564 000eed       $C$DW$L$_vTaskSwitchContext$6$E:
    4565 000eed       $C$L157:    
    4566 000eed       $C$DW$L$_vTaskSwitchContext$7$B:
    4567 000eed F700          SUB #1, *SP(#0) ; |2989| 
         000eef FFFF 
    4568 000ef1       $C$DW$L$_vTaskSwitchContext$7$E:
    4569 000ef1       $C$L158:    
    4570 000ef1       $C$DW$L$_vTaskSwitchContext$8$B:
    4571 000ef1 DF00          MOV uns(*SP(#0)), AC1 ; |2989| 
         000ef3 15   
    4572 000ef4 1015          SFTS AC1, #1, AC0 ; |2989| 
         000ef6 01   
    4573 000ef7 1013          ADD AC1 << #3, AC0 ; |2989| 
TMS320C55x Assembler PC v4.4.1 Tue Oct 02 02:33:57 2018

Tools Copyright (c) 1996-2012 Texas Instruments Incorporated
tasks_sysStk.asm                                                     PAGE  102

         000ef9 03   
    4574 000efa 900A          MOV AC0, XAR2
    4575 000efc EC31          AMOV #_pxReadyTasksLists, XAR3 ; |2989| 
         000efe BE00 
         000f00 0006-
    4576 000f02 14A1          AADD XAR2, XAR3 ; |2989| 
         000f04 B0   
    4577 000f05 A961          MOV *AR3, AR1 ; |2989| 
    4578 000f07 6219          BCC $C$L159,AR1 != #0 ; |2989| 
    4579                                                      ; branchcc occurs ; |2989| 
    4580 000f09       $C$DW$L$_vTaskSwitchContext$8$E:
    4581 000f09       $C$DW$L$_vTaskSwitchContext$9$B:
    4582 000f09 3C19          MOV #1, AR1
    4583 000f0b 4A02          B $C$L160 ; |2989| 
    4584                                                      ; branch occurs ; |2989| 
    4585 000f0d       $C$DW$L$_vTaskSwitchContext$9$E:
    4586 000f0d       $C$L159:    
    4587 000f0d       $C$DW$L$_vTaskSwitchContext$10$B:
    4588 000f0d 3C09          MOV #0, AR1
    4589 000f0f       $C$DW$L$_vTaskSwitchContext$10$E:
    4590 000f0f       $C$L160:    
    4591 000f0f       $C$DW$L$_vTaskSwitchContext$11$B:
    4592 000f0f 0419          BCC $C$L155,AR1 != #0 ; |2989| 
         000f11 D2   
    4593                                                      ; branchcc occurs ; |2989| 
    4594 000f12       $C$DW$L$_vTaskSwitchContext$11$E:
    4595              
    4596              $C$DW$340       .dwtag  DW_TAG_lexical_block, DW_AT_low_pc(0x00), DW_AT_high_pc(0x00)
    4597              $C$DW$341       .dwtag  DW_TAG_variable, DW_AT_name("pxConstList")
    4598                      .dwattr $C$DW$341, DW_AT_TI_symbol_name("_pxConstList")
    4599                      .dwattr $C$DW$341, DW_AT_type(*$C$DW$T$67)
    4600                      .dwattr $C$DW$341, DW_AT_location[DW_OP_bregx 0x24 2]
    4601 000f12 DF00          MOV uns(*SP(#0)), AC1 ; |2989| 
         000f14 15   
    4602 000f15 1015          SFTS AC1, #1, AC0 ; |2989| 
         000f17 01   
    4603 000f18 1013          ADD AC1 << #3, AC0 ; |2989| 
         000f1a 03   
    4604 000f1b 900A          MOV AC0, XAR2
    4605 000f1d EC31          AMOV #_pxReadyTasksLists, XAR3 ; |2989| 
         000f1f BE00 
         000f21 0006-
    4606              
    4607 000f23 8E04          MOV XAR3, dbl(*SP(#2))
         000f25 BB10 
         000f27 B5A1 
    4608              ||      AADD XAR2, XAR3 ; |2989| 
    4609              
    4610 000f29 ED75          MOV dbl(*AR3(short(#2))), XAR3
         000f2b BF   
    4611 000f2c ED75          MOV dbl(*AR3(short(#2))), XAR2
         000f2e AF   
    4612 000f2f ED04          MOV dbl(*SP(#2)), XAR3
         000f31 BF   
    4613 000f32 EB75          MOV XAR2, dbl(*AR3(short(#2)))
TMS320C55x Assembler PC v4.4.1 Tue Oct 02 02:33:57 2018

Tools Copyright (c) 1996-2012 Texas Instruments Incorporated
tasks_sysStk.asm                                                     PAGE  103

         000f34 A5   
    4614 000f35 ED04          MOV dbl(*SP(#2)), XAR3
         000f37 BF   
    4615 000f38 1404          AADD #4, AR3 ; |2989| 
         000f3a B4   
    4616 000f3b 90B0          MOV XAR3, AC0
    4617 000f3d ED04          MOV dbl(*SP(#2)), XAR3
         000f3f BF   
    4618 000f40 ED75          MOV dbl(*AR3(short(#2))), XAR3
         000f42 BF   
    4619 000f43 90B1          MOV XAR3, AC1
    4620 000f45 121C          CMPU AC1 != AC0, TC1 ; |2989| 
         000f47 04   
    4621 000f48 67E4          BCC $C$L161,TC1 ; |2989| 
    4622                                                      ; branchcc occurs ; |2989| 
    4623 000f4a ED04          MOV dbl(*SP(#2)), XAR3
         000f4c BF   
    4624 000f4d ED75          MOV dbl(*AR3(short(#2))), XAR3
         000f4f BF   
    4625 000f50 ED75          MOV dbl(*AR3(short(#2))), XAR2
         000f52 AF   
    4626 000f53 ED04          MOV dbl(*SP(#2)), XAR3
         000f55 BF   
    4627 000f56 EB75          MOV XAR2, dbl(*AR3(short(#2)))
         000f58 A5   
    4628 000f59       $C$L161:    
    4629 000f59 ED04          MOV dbl(*SP(#2)), XAR3
         000f5b BF   
    4630 000f5c ED75          MOV dbl(*AR3(short(#2))), XAR3
         000f5e BF   
    4631 000f5f ED7D          MOV dbl(*AR3(short(#6))), XAR3
         000f61 BF   
    4632 000f62 EB31          MOV XAR3, dbl(*(#_pxCurrentTCB))
         000f64 B500 
         000f66 0004-
    4633                      .dwendtag $C$DW$340
    4634              
    4635 000f68 A900          MOV *SP(#0), AR1 ; |2989| 
    4636 000f6a C931          MOV AR1, *(#_uxTopReadyPriority) ; |2989| 
         000f6c 0000 
         000f6e 72-  
    4637                      .dwendtag $C$DW$338
    4638              
    4639                      .dwpsn  file "../FreeRTOS/Source/tasks_sysStk.c",line 3007,column 1,is_stmt
    4640 000f6f       $C$L162:    
    4641 000f6f 4E05          AADD #5, SP
    4642                      .dwcfi  cfa_offset, 1
    4643              $C$DW$342       .dwtag  DW_TAG_TI_branch
    4644                      .dwattr $C$DW$342, DW_AT_low_pc(0x00)
    4645                      .dwattr $C$DW$342, DW_AT_TI_return
    4646 000f71 4804          RET
    4647                                                      ; return occurs
    4648              
    4649              $C$DW$343       .dwtag  DW_TAG_TI_loop
    4650                      .dwattr $C$DW$343, DW_AT_name("F:\eZdsp-DBG-sim\tmp1\c55x-sim2\foo\Debug\tasks_sysStk.asm:$C$L156:1:1
TMS320C55x Assembler PC v4.4.1 Tue Oct 02 02:33:57 2018

Tools Copyright (c) 1996-2012 Texas Instruments Incorporated
tasks_sysStk.asm                                                     PAGE  104

    4651                      .dwattr $C$DW$343, DW_AT_TI_begin_file("../FreeRTOS/Source/tasks_sysStk.c")
    4652                      .dwattr $C$DW$343, DW_AT_TI_begin_line(0xbad)
    4653                      .dwattr $C$DW$343, DW_AT_TI_end_line(0xbad)
    4654              $C$DW$344       .dwtag  DW_TAG_TI_loop_range
    4655                      .dwattr $C$DW$344, DW_AT_low_pc($C$DW$L$_vTaskSwitchContext$6$B)
    4656                      .dwattr $C$DW$344, DW_AT_high_pc($C$DW$L$_vTaskSwitchContext$6$E)
    4657                      .dwendtag $C$DW$343
    4658              
    4659              
    4660              $C$DW$345       .dwtag  DW_TAG_TI_loop
    4661                      .dwattr $C$DW$345, DW_AT_name("F:\eZdsp-DBG-sim\tmp1\c55x-sim2\foo\Debug\tasks_sysStk.asm:$C$L158:1:1
    4662                      .dwattr $C$DW$345, DW_AT_TI_begin_file("../FreeRTOS/Source/tasks_sysStk.c")
    4663                      .dwattr $C$DW$345, DW_AT_TI_begin_line(0xbad)
    4664                      .dwattr $C$DW$345, DW_AT_TI_end_line(0xbad)
    4665              $C$DW$346       .dwtag  DW_TAG_TI_loop_range
    4666                      .dwattr $C$DW$346, DW_AT_low_pc($C$DW$L$_vTaskSwitchContext$8$B)
    4667                      .dwattr $C$DW$346, DW_AT_high_pc($C$DW$L$_vTaskSwitchContext$8$E)
    4668              $C$DW$347       .dwtag  DW_TAG_TI_loop_range
    4669                      .dwattr $C$DW$347, DW_AT_low_pc($C$DW$L$_vTaskSwitchContext$9$B)
    4670                      .dwattr $C$DW$347, DW_AT_high_pc($C$DW$L$_vTaskSwitchContext$9$E)
    4671              $C$DW$348       .dwtag  DW_TAG_TI_loop_range
    4672                      .dwattr $C$DW$348, DW_AT_low_pc($C$DW$L$_vTaskSwitchContext$10$B)
    4673                      .dwattr $C$DW$348, DW_AT_high_pc($C$DW$L$_vTaskSwitchContext$10$E)
    4674              $C$DW$349       .dwtag  DW_TAG_TI_loop_range
    4675                      .dwattr $C$DW$349, DW_AT_low_pc($C$DW$L$_vTaskSwitchContext$11$B)
    4676                      .dwattr $C$DW$349, DW_AT_high_pc($C$DW$L$_vTaskSwitchContext$11$E)
    4677              $C$DW$350       .dwtag  DW_TAG_TI_loop_range
    4678                      .dwattr $C$DW$350, DW_AT_low_pc($C$DW$L$_vTaskSwitchContext$4$B)
    4679                      .dwattr $C$DW$350, DW_AT_high_pc($C$DW$L$_vTaskSwitchContext$4$E)
    4680              $C$DW$351       .dwtag  DW_TAG_TI_loop_range
    4681                      .dwattr $C$DW$351, DW_AT_low_pc($C$DW$L$_vTaskSwitchContext$7$B)
    4682                      .dwattr $C$DW$351, DW_AT_high_pc($C$DW$L$_vTaskSwitchContext$7$E)
    4683                      .dwendtag $C$DW$345
    4684              
    4685                      .dwattr $C$DW$337, DW_AT_TI_end_file("../FreeRTOS/Source/tasks_sysStk.c")
    4686                      .dwattr $C$DW$337, DW_AT_TI_end_line(0xbbf)
    4687                      .dwattr $C$DW$337, DW_AT_TI_end_column(0x01)
    4688                      .dwendentry
    4689                      .dwendtag $C$DW$337
    4690              
    4691 000f73               .sect   ".text"
    4692                      .align 4
    4693                      .global _vTaskPlaceOnEventList
    4694              
    4695              $C$DW$352       .dwtag  DW_TAG_subprogram, DW_AT_name("vTaskPlaceOnEventList")
    4696                      .dwattr $C$DW$352, DW_AT_low_pc(_vTaskPlaceOnEventList)
    4697                      .dwattr $C$DW$352, DW_AT_high_pc(0x00)
    4698                      .dwattr $C$DW$352, DW_AT_TI_symbol_name("_vTaskPlaceOnEventList")
    4699                      .dwattr $C$DW$352, DW_AT_external
    4700                      .dwattr $C$DW$352, DW_AT_TI_begin_file("../FreeRTOS/Source/tasks_sysStk.c")
    4701                      .dwattr $C$DW$352, DW_AT_TI_begin_line(0xbc2)
    4702                      .dwattr $C$DW$352, DW_AT_TI_begin_column(0x06)
    4703                      .dwattr $C$DW$352, DW_AT_TI_max_frame_size(0x06)
    4704                      .dwpsn  file "../FreeRTOS/Source/tasks_sysStk.c",line 3011,column 1,is_stmt,address _vTaskPlaceOnEven
    4705              
TMS320C55x Assembler PC v4.4.1 Tue Oct 02 02:33:57 2018

Tools Copyright (c) 1996-2012 Texas Instruments Incorporated
tasks_sysStk.asm                                                     PAGE  105

    4706                      .dwfde $C$DW$CIE, _vTaskPlaceOnEventList
    4707              $C$DW$353       .dwtag  DW_TAG_formal_parameter, DW_AT_name("pxEventList")
    4708                      .dwattr $C$DW$353, DW_AT_TI_symbol_name("_pxEventList")
    4709                      .dwattr $C$DW$353, DW_AT_type(*$C$DW$T$67)
    4710                      .dwattr $C$DW$353, DW_AT_location[DW_OP_reg17]
    4711              $C$DW$354       .dwtag  DW_TAG_formal_parameter, DW_AT_name("xTicksToWait")
    4712                      .dwattr $C$DW$354, DW_AT_TI_symbol_name("_xTicksToWait")
    4713                      .dwattr $C$DW$354, DW_AT_type(*$C$DW$T$95)
    4714                      .dwattr $C$DW$354, DW_AT_location[DW_OP_reg0]
    4715              ;*******************************************************************************
    4716              ;* FUNCTION NAME: vTaskPlaceOnEventList                                        *
    4717              ;*                                                                             *
    4718              ;*   Function Uses Regs : AC0,AC0,T0,AR0,XAR0,AR1,XAR1,AR3,XAR3,SP,M40,SATA,   *
    4719              ;*                        SATD,RDM,FRCT,SMUL                                   *
    4720              ;*   Stack Frame        : Compact (No Frame Pointer, w/ debug)                 *
    4721              ;*   Total Frame Size   : 6 words                                              *
    4722              ;*                        (2 return address/alignment)                         *
    4723              ;*                        (4 local values)                                     *
    4724              ;*   Min System Stack   : 1 word                                               *
    4725              ;*******************************************************************************
    4726 000f74       _vTaskPlaceOnEventList:
    4727                      .dwcfi  cfa_offset, 1
    4728                      .dwcfi  save_reg_to_mem, 91, -1
    4729 000f74 4EFB          AADD #-5, SP
    4730                      .dwcfi  cfa_offset, 6
    4731              $C$DW$355       .dwtag  DW_TAG_variable, DW_AT_name("pxEventList")
    4732                      .dwattr $C$DW$355, DW_AT_TI_symbol_name("_pxEventList")
    4733                      .dwattr $C$DW$355, DW_AT_type(*$C$DW$T$67)
    4734                      .dwattr $C$DW$355, DW_AT_location[DW_OP_bregx 0x24 0]
    4735              $C$DW$356       .dwtag  DW_TAG_variable, DW_AT_name("xTicksToWait")
    4736                      .dwattr $C$DW$356, DW_AT_TI_symbol_name("_xTicksToWait")
    4737                      .dwattr $C$DW$356, DW_AT_type(*$C$DW$T$95)
    4738                      .dwattr $C$DW$356, DW_AT_location[DW_OP_bregx 0x24 2]
    4739 000f76 EB04          MOV AC0, dbl(*SP(#2)) ; |3011| 
         000f78 08   
    4740 000f79 EB00          MOV XAR0, dbl(*SP(#0))
         000f7b 85   
    4741                      .dwpsn  file "../FreeRTOS/Source/tasks_sysStk.c",line 3012,column 2,is_stmt
    4742 000f7c ED00          MOV dbl(*SP(#0)), XAR3
         000f7e BF   
    4743 000f7f 90B0          MOV XAR3, AC0
    4744 000f81 6290          BCC $C$L164,AC0 != #0 ; |3012| 
    4745                                                      ; branchcc occurs ; |3012| 
    4746 000f83 20     nop
    4747 000f84 46B3   bset INTM
    4748 000f86       $C$L163:    
    4749 000f86       $C$DW$L$_vTaskPlaceOnEventList$3$B:
    4750 000f86 4A7E          B $C$L163 ; |3012| 
    4751                                                      ; branch occurs ; |3012| 
    4752 000f88       $C$DW$L$_vTaskPlaceOnEventList$3$E:
    4753 000f88       $C$L164:    
    4754                      .dwpsn  file "../FreeRTOS/Source/tasks_sysStk.c",line 3021,column 2,is_stmt
    4755 000f88 ED31          MOV dbl(*(#_pxCurrentTCB)), XAR1
         000f8a 9F00 
         000f8c 0004-
TMS320C55x Assembler PC v4.4.1 Tue Oct 02 02:33:57 2018

Tools Copyright (c) 1996-2012 Texas Instruments Incorporated
tasks_sysStk.asm                                                     PAGE  106

    4756 000f8e 140E          AADD #14, AR1 ; |3021| 
         000f90 94   
    4757              $C$DW$357       .dwtag  DW_TAG_TI_branch
    4758                      .dwattr $C$DW$357, DW_AT_low_pc(0x00)
    4759                      .dwattr $C$DW$357, DW_AT_name("_vListInsert")
    4760                      .dwattr $C$DW$357, DW_AT_TI_call
    4761 000f91 6C00          CALL #_vListInsert ; |3021| 
         000f93 0000!
    4762                                                      ; call occurs [#_vListInsert] ; |3021| 
    4763                      .dwpsn  file "../FreeRTOS/Source/tasks_sysStk.c",line 3023,column 2,is_stmt
    4764              
    4765 000f95 ED04          MOV dbl(*SP(#2)), AC0 ; |3023| 
         000f97 08   
    4766 000f98 3D14  ||      MOV #1, T0
    4767              
    4768              $C$DW$358       .dwtag  DW_TAG_TI_branch
    4769                      .dwattr $C$DW$358, DW_AT_low_pc(0x00)
    4770                      .dwattr $C$DW$358, DW_AT_name("_prvAddCurrentTaskToDelayedList")
    4771                      .dwattr $C$DW$358, DW_AT_TI_call
    4772 000f9a 080E          CALL #_prvAddCurrentTaskToDelayedList ; |3023| 
         000f9c D7   
    4773                                                      ; call occurs [#_prvAddCurrentTaskToDelayedList] ; |3023| 
    4774                      .dwpsn  file "../FreeRTOS/Source/tasks_sysStk.c",line 3024,column 1,is_stmt
    4775 000f9d 4E05          AADD #5, SP
    4776                      .dwcfi  cfa_offset, 1
    4777              $C$DW$359       .dwtag  DW_TAG_TI_branch
    4778                      .dwattr $C$DW$359, DW_AT_low_pc(0x00)
    4779                      .dwattr $C$DW$359, DW_AT_TI_return
    4780 000f9f 4804          RET
    4781                                                      ; return occurs
    4782              
    4783              $C$DW$360       .dwtag  DW_TAG_TI_loop
    4784                      .dwattr $C$DW$360, DW_AT_name("F:\eZdsp-DBG-sim\tmp1\c55x-sim2\foo\Debug\tasks_sysStk.asm:$C$L163:1:1
    4785                      .dwattr $C$DW$360, DW_AT_TI_begin_file("../FreeRTOS/Source/tasks_sysStk.c")
    4786                      .dwattr $C$DW$360, DW_AT_TI_begin_line(0xbc4)
    4787                      .dwattr $C$DW$360, DW_AT_TI_end_line(0xbc4)
    4788              $C$DW$361       .dwtag  DW_TAG_TI_loop_range
    4789                      .dwattr $C$DW$361, DW_AT_low_pc($C$DW$L$_vTaskPlaceOnEventList$3$B)
    4790                      .dwattr $C$DW$361, DW_AT_high_pc($C$DW$L$_vTaskPlaceOnEventList$3$E)
    4791                      .dwendtag $C$DW$360
    4792              
    4793                      .dwattr $C$DW$352, DW_AT_TI_end_file("../FreeRTOS/Source/tasks_sysStk.c")
    4794                      .dwattr $C$DW$352, DW_AT_TI_end_line(0xbd0)
    4795                      .dwattr $C$DW$352, DW_AT_TI_end_column(0x01)
    4796                      .dwendentry
    4797                      .dwendtag $C$DW$352
    4798              
    4799 000fa1               .sect   ".text"
    4800                      .align 4
    4801                      .global _vTaskPlaceOnUnorderedEventList
    4802              
    4803              $C$DW$362       .dwtag  DW_TAG_subprogram, DW_AT_name("vTaskPlaceOnUnorderedEventList")
    4804                      .dwattr $C$DW$362, DW_AT_low_pc(_vTaskPlaceOnUnorderedEventList)
    4805                      .dwattr $C$DW$362, DW_AT_high_pc(0x00)
    4806                      .dwattr $C$DW$362, DW_AT_TI_symbol_name("_vTaskPlaceOnUnorderedEventList")
TMS320C55x Assembler PC v4.4.1 Tue Oct 02 02:33:57 2018

Tools Copyright (c) 1996-2012 Texas Instruments Incorporated
tasks_sysStk.asm                                                     PAGE  107

    4807                      .dwattr $C$DW$362, DW_AT_external
    4808                      .dwattr $C$DW$362, DW_AT_TI_begin_file("../FreeRTOS/Source/tasks_sysStk.c")
    4809                      .dwattr $C$DW$362, DW_AT_TI_begin_line(0xbd3)
    4810                      .dwattr $C$DW$362, DW_AT_TI_begin_column(0x06)
    4811                      .dwattr $C$DW$362, DW_AT_TI_max_frame_size(0x08)
    4812                      .dwpsn  file "../FreeRTOS/Source/tasks_sysStk.c",line 3028,column 1,is_stmt,address _vTaskPlaceOnUnor
    4813              
    4814                      .dwfde $C$DW$CIE, _vTaskPlaceOnUnorderedEventList
    4815              $C$DW$363       .dwtag  DW_TAG_formal_parameter, DW_AT_name("pxEventList")
    4816                      .dwattr $C$DW$363, DW_AT_TI_symbol_name("_pxEventList")
    4817                      .dwattr $C$DW$363, DW_AT_type(*$C$DW$T$66)
    4818                      .dwattr $C$DW$363, DW_AT_location[DW_OP_reg17]
    4819              $C$DW$364       .dwtag  DW_TAG_formal_parameter, DW_AT_name("xItemValue")
    4820                      .dwattr $C$DW$364, DW_AT_TI_symbol_name("_xItemValue")
    4821                      .dwattr $C$DW$364, DW_AT_type(*$C$DW$T$95)
    4822                      .dwattr $C$DW$364, DW_AT_location[DW_OP_reg0]
    4823              $C$DW$365       .dwtag  DW_TAG_formal_parameter, DW_AT_name("xTicksToWait")
    4824                      .dwattr $C$DW$365, DW_AT_TI_symbol_name("_xTicksToWait")
    4825                      .dwattr $C$DW$365, DW_AT_type(*$C$DW$T$95)
    4826                      .dwattr $C$DW$365, DW_AT_location[DW_OP_reg3]
    4827              ;*******************************************************************************
    4828              ;* FUNCTION NAME: vTaskPlaceOnUnorderedEventList                               *
    4829              ;*                                                                             *
    4830              ;*   Function Uses Regs : AC0,AC0,AC1,AC1,T0,AR0,XAR0,AR1,XAR1,AR2,AR3,XAR3,SP,*
    4831              ;*                        M40,SATA,SATD,RDM,FRCT,SMUL                          *
    4832              ;*   Stack Frame        : Compact (No Frame Pointer, w/ debug)                 *
    4833              ;*   Total Frame Size   : 8 words                                              *
    4834              ;*                        (2 return address/alignment)                         *
    4835              ;*                        (6 local values)                                     *
    4836              ;*   Min System Stack   : 1 word                                               *
    4837              ;*******************************************************************************
    4838 000fa4       _vTaskPlaceOnUnorderedEventList:
    4839                      .dwcfi  cfa_offset, 1
    4840                      .dwcfi  save_reg_to_mem, 91, -1
    4841 000fa4 4EF9          AADD #-7, SP
    4842                      .dwcfi  cfa_offset, 8
    4843              $C$DW$366       .dwtag  DW_TAG_variable, DW_AT_name("pxEventList")
    4844                      .dwattr $C$DW$366, DW_AT_TI_symbol_name("_pxEventList")
    4845                      .dwattr $C$DW$366, DW_AT_type(*$C$DW$T$66)
    4846                      .dwattr $C$DW$366, DW_AT_location[DW_OP_bregx 0x24 0]
    4847              $C$DW$367       .dwtag  DW_TAG_variable, DW_AT_name("xItemValue")
    4848                      .dwattr $C$DW$367, DW_AT_TI_symbol_name("_xItemValue")
    4849                      .dwattr $C$DW$367, DW_AT_type(*$C$DW$T$95)
    4850                      .dwattr $C$DW$367, DW_AT_location[DW_OP_bregx 0x24 2]
    4851              $C$DW$368       .dwtag  DW_TAG_variable, DW_AT_name("xTicksToWait")
    4852                      .dwattr $C$DW$368, DW_AT_TI_symbol_name("_xTicksToWait")
    4853                      .dwattr $C$DW$368, DW_AT_type(*$C$DW$T$95)
    4854                      .dwattr $C$DW$368, DW_AT_location[DW_OP_bregx 0x24 4]
    4855 000fa6 EB08          MOV AC1, dbl(*SP(#4)) ; |3028| 
         000fa8 18   
    4856 000fa9 EB04          MOV AC0, dbl(*SP(#2)) ; |3028| 
         000fab 08   
    4857 000fac EB00          MOV XAR0, dbl(*SP(#0))
         000fae 85   
    4858                      .dwpsn  file "../FreeRTOS/Source/tasks_sysStk.c",line 3029,column 2,is_stmt
TMS320C55x Assembler PC v4.4.1 Tue Oct 02 02:33:57 2018

Tools Copyright (c) 1996-2012 Texas Instruments Incorporated
tasks_sysStk.asm                                                     PAGE  108

    4859 000faf ED00          MOV dbl(*SP(#0)), XAR3
         000fb1 BF   
    4860 000fb2 90B0          MOV XAR3, AC0
    4861 000fb4 6290          BCC $C$L166,AC0 != #0 ; |3029| 
    4862                                                      ; branchcc occurs ; |3029| 
    4863 000fb6 20     nop
    4864 000fb7 46B3   bset INTM
    4865 000fb9       $C$L165:    
    4866 000fb9       $C$DW$L$_vTaskPlaceOnUnorderedEventList$3$B:
    4867 000fb9 4A7E          B $C$L165 ; |3029| 
    4868                                                      ; branch occurs ; |3029| 
    4869 000fbb       $C$DW$L$_vTaskPlaceOnUnorderedEventList$3$E:
    4870 000fbb       $C$L166:    
    4871                      .dwpsn  file "../FreeRTOS/Source/tasks_sysStk.c",line 3033,column 2,is_stmt
    4872 000fbb AA31          MOV *(#_uxSchedulerSuspended), AR2 ; |3033| 
         000fbd 0000 
         000fbf 7C-  
    4873 000fc0 3C09          MOV #0, AR1
    4874 000fc2 610A          BCC $C$L167,AR2 == #0 ; |3033| 
    4875                                                      ; branchcc occurs ; |3033| 
    4876 000fc4 3C19          MOV #1, AR1
    4877 000fc6       $C$L167:    
    4878 000fc6 6299          BCC $C$L169,AR1 != #0 ; |3033| 
    4879                                                      ; branchcc occurs ; |3033| 
    4880 000fc8 20     nop
    4881 000fc9 46B3   bset INTM
    4882 000fcb       $C$L168:    
    4883 000fcb       $C$DW$L$_vTaskPlaceOnUnorderedEventList$8$B:
    4884 000fcb 4A7E          B $C$L168 ; |3033| 
    4885                                                      ; branch occurs ; |3033| 
    4886 000fcd       $C$DW$L$_vTaskPlaceOnUnorderedEventList$8$E:
    4887 000fcd       $C$L169:    
    4888                      .dwpsn  file "../FreeRTOS/Source/tasks_sysStk.c",line 3038,column 2,is_stmt
    4889 000fcd ED31          MOV dbl(*(#_pxCurrentTCB)), XAR3
         000fcf BF00 
         000fd1 0004-
    4890 000fd3 ED04          MOV dbl(*SP(#2)), AC0 ; |3038| 
         000fd5 08   
    4891 000fd6 EC3E          BSET @#31, AC0 ; |3038| 
         000fd8 00   
    4892 000fd9 EB6D          MOV AC0, dbl(*AR3(#14)) ; |3038| 
         000fdb 0800 
         000fdd 0E   
    4893                      .dwpsn  file "../FreeRTOS/Source/tasks_sysStk.c",line 3045,column 2,is_stmt
    4894 000fde ED31          MOV dbl(*(#_pxCurrentTCB)), XAR1
         000fe0 9F00 
         000fe2 0004-
    4895 000fe4 ED00          MOV dbl(*SP(#0)), XAR0
         000fe6 8F   
    4896 000fe7 140E          AADD #14, AR1 ; |3045| 
         000fe9 94   
    4897              $C$DW$369       .dwtag  DW_TAG_TI_branch
    4898                      .dwattr $C$DW$369, DW_AT_low_pc(0x00)
    4899                      .dwattr $C$DW$369, DW_AT_name("_vListInsertEnd")
    4900                      .dwattr $C$DW$369, DW_AT_TI_call
TMS320C55x Assembler PC v4.4.1 Tue Oct 02 02:33:57 2018

Tools Copyright (c) 1996-2012 Texas Instruments Incorporated
tasks_sysStk.asm                                                     PAGE  109

    4901 000fea 6C00          CALL #_vListInsertEnd ; |3045| 
         000fec 0000!
    4902                                                      ; call occurs [#_vListInsertEnd] ; |3045| 
    4903                      .dwpsn  file "../FreeRTOS/Source/tasks_sysStk.c",line 3047,column 2,is_stmt
    4904              
    4905 000fee ED08          MOV dbl(*SP(#4)), AC0 ; |3047| 
         000ff0 08   
    4906 000ff1 3D14  ||      MOV #1, T0
    4907              
    4908              $C$DW$370       .dwtag  DW_TAG_TI_branch
    4909                      .dwattr $C$DW$370, DW_AT_low_pc(0x00)
    4910                      .dwattr $C$DW$370, DW_AT_name("_prvAddCurrentTaskToDelayedList")
    4911                      .dwattr $C$DW$370, DW_AT_TI_call
    4912 000ff3 080E          CALL #_prvAddCurrentTaskToDelayedList ; |3047| 
         000ff5 7E   
    4913                                                      ; call occurs [#_prvAddCurrentTaskToDelayedList] ; |3047| 
    4914                      .dwpsn  file "../FreeRTOS/Source/tasks_sysStk.c",line 3048,column 1,is_stmt
    4915 000ff6 4E07          AADD #7, SP
    4916                      .dwcfi  cfa_offset, 1
    4917              $C$DW$371       .dwtag  DW_TAG_TI_branch
    4918                      .dwattr $C$DW$371, DW_AT_low_pc(0x00)
    4919                      .dwattr $C$DW$371, DW_AT_TI_return
    4920 000ff8 4804          RET
    4921                                                      ; return occurs
    4922              
    4923              $C$DW$372       .dwtag  DW_TAG_TI_loop
    4924                      .dwattr $C$DW$372, DW_AT_name("F:\eZdsp-DBG-sim\tmp1\c55x-sim2\foo\Debug\tasks_sysStk.asm:$C$L168:1:1
    4925                      .dwattr $C$DW$372, DW_AT_TI_begin_file("../FreeRTOS/Source/tasks_sysStk.c")
    4926                      .dwattr $C$DW$372, DW_AT_TI_begin_line(0xbd9)
    4927                      .dwattr $C$DW$372, DW_AT_TI_end_line(0xbd9)
    4928              $C$DW$373       .dwtag  DW_TAG_TI_loop_range
    4929                      .dwattr $C$DW$373, DW_AT_low_pc($C$DW$L$_vTaskPlaceOnUnorderedEventList$8$B)
    4930                      .dwattr $C$DW$373, DW_AT_high_pc($C$DW$L$_vTaskPlaceOnUnorderedEventList$8$E)
    4931                      .dwendtag $C$DW$372
    4932              
    4933              
    4934              $C$DW$374       .dwtag  DW_TAG_TI_loop
    4935                      .dwattr $C$DW$374, DW_AT_name("F:\eZdsp-DBG-sim\tmp1\c55x-sim2\foo\Debug\tasks_sysStk.asm:$C$L165:1:1
    4936                      .dwattr $C$DW$374, DW_AT_TI_begin_file("../FreeRTOS/Source/tasks_sysStk.c")
    4937                      .dwattr $C$DW$374, DW_AT_TI_begin_line(0xbd5)
    4938                      .dwattr $C$DW$374, DW_AT_TI_end_line(0xbd5)
    4939              $C$DW$375       .dwtag  DW_TAG_TI_loop_range
    4940                      .dwattr $C$DW$375, DW_AT_low_pc($C$DW$L$_vTaskPlaceOnUnorderedEventList$3$B)
    4941                      .dwattr $C$DW$375, DW_AT_high_pc($C$DW$L$_vTaskPlaceOnUnorderedEventList$3$E)
    4942                      .dwendtag $C$DW$374
    4943              
    4944                      .dwattr $C$DW$362, DW_AT_TI_end_file("../FreeRTOS/Source/tasks_sysStk.c")
    4945                      .dwattr $C$DW$362, DW_AT_TI_end_line(0xbe8)
    4946                      .dwattr $C$DW$362, DW_AT_TI_end_column(0x01)
    4947                      .dwendentry
    4948                      .dwendtag $C$DW$362
    4949              
    4950 000ffa               .sect   ".text"
    4951                      .align 4
    4952                      .global _xTaskRemoveFromEventList
TMS320C55x Assembler PC v4.4.1 Tue Oct 02 02:33:57 2018

Tools Copyright (c) 1996-2012 Texas Instruments Incorporated
tasks_sysStk.asm                                                     PAGE  110

    4953              
    4954              $C$DW$376       .dwtag  DW_TAG_subprogram, DW_AT_name("xTaskRemoveFromEventList")
    4955                      .dwattr $C$DW$376, DW_AT_low_pc(_xTaskRemoveFromEventList)
    4956                      .dwattr $C$DW$376, DW_AT_high_pc(0x00)
    4957                      .dwattr $C$DW$376, DW_AT_TI_symbol_name("_xTaskRemoveFromEventList")
    4958                      .dwattr $C$DW$376, DW_AT_external
    4959                      .dwattr $C$DW$376, DW_AT_type(*$C$DW$T$43)
    4960                      .dwattr $C$DW$376, DW_AT_TI_begin_file("../FreeRTOS/Source/tasks_sysStk.c")
    4961                      .dwattr $C$DW$376, DW_AT_TI_begin_line(0xc0c)
    4962                      .dwattr $C$DW$376, DW_AT_TI_begin_column(0x0c)
    4963                      .dwattr $C$DW$376, DW_AT_TI_max_frame_size(0x06)
    4964                      .dwpsn  file "../FreeRTOS/Source/tasks_sysStk.c",line 3085,column 1,is_stmt,address _xTaskRemoveFromE
    4965              
    4966                      .dwfde $C$DW$CIE, _xTaskRemoveFromEventList
    4967              $C$DW$377       .dwtag  DW_TAG_formal_parameter, DW_AT_name("pxEventList")
    4968                      .dwattr $C$DW$377, DW_AT_TI_symbol_name("_pxEventList")
    4969                      .dwattr $C$DW$377, DW_AT_type(*$C$DW$T$130)
    4970                      .dwattr $C$DW$377, DW_AT_location[DW_OP_reg17]
    4971              ;*******************************************************************************
    4972              ;* FUNCTION NAME: xTaskRemoveFromEventList                                     *
    4973              ;*                                                                             *
    4974              ;*   Function Uses Regs : AC0,AC0,AC1,AC1,T0,AR0,XAR0,AR1,XAR1,AR2,AR3,XAR3,SP,*
    4975              ;*                        CARRY,TC1,M40,SATA,SATD,RDM,FRCT,SMUL                *
    4976              ;*   Stack Frame        : Compact (No Frame Pointer, w/ debug)                 *
    4977              ;*   Total Frame Size   : 6 words                                              *
    4978              ;*                        (1 return address/alignment)                         *
    4979              ;*                        (5 local values)                                     *
    4980              ;*   Min System Stack   : 1 word                                               *
    4981              ;*******************************************************************************
    4982 000ffc       _xTaskRemoveFromEventList:
    4983                      .dwcfi  cfa_offset, 1
    4984                      .dwcfi  save_reg_to_mem, 91, -1
    4985 000ffc 4EFB          AADD #-5, SP
    4986                      .dwcfi  cfa_offset, 6
    4987              $C$DW$378       .dwtag  DW_TAG_variable, DW_AT_name("pxEventList")
    4988                      .dwattr $C$DW$378, DW_AT_TI_symbol_name("_pxEventList")
    4989                      .dwattr $C$DW$378, DW_AT_type(*$C$DW$T$130)
    4990                      .dwattr $C$DW$378, DW_AT_location[DW_OP_bregx 0x24 0]
    4991              $C$DW$379       .dwtag  DW_TAG_variable, DW_AT_name("pxUnblockedTCB")
    4992                      .dwattr $C$DW$379, DW_AT_TI_symbol_name("_pxUnblockedTCB")
    4993                      .dwattr $C$DW$379, DW_AT_type(*$C$DW$T$83)
    4994                      .dwattr $C$DW$379, DW_AT_location[DW_OP_bregx 0x24 2]
    4995              $C$DW$380       .dwtag  DW_TAG_variable, DW_AT_name("xReturn")
    4996                      .dwattr $C$DW$380, DW_AT_TI_symbol_name("_xReturn")
    4997                      .dwattr $C$DW$380, DW_AT_type(*$C$DW$T$43)
    4998                      .dwattr $C$DW$380, DW_AT_location[DW_OP_bregx 0x24 4]
    4999 000ffe EB00          MOV XAR0, dbl(*SP(#0))
         001000 85   
    5000                      .dwpsn  file "../FreeRTOS/Source/tasks_sysStk.c",line 3102,column 2,is_stmt
    5001 001001 ED00          MOV dbl(*SP(#0)), XAR3
         001003 BF   
    5002 001004 ED7D          MOV dbl(*AR3(short(#6))), XAR3
         001006 BF   
    5003 001007 ED7D          MOV dbl(*AR3(short(#6))), XAR3
         001009 BF   
TMS320C55x Assembler PC v4.4.1 Tue Oct 02 02:33:57 2018

Tools Copyright (c) 1996-2012 Texas Instruments Incorporated
tasks_sysStk.asm                                                     PAGE  111

    5004 00100a EB04          MOV XAR3, dbl(*SP(#2))
         00100c B5   
    5005                      .dwpsn  file "../FreeRTOS/Source/tasks_sysStk.c",line 3103,column 2,is_stmt
    5006 00100d 90B0          MOV XAR3, AC0
    5007 00100f 6290          BCC $C$L171,AC0 != #0 ; |3103| 
    5008                                                      ; branchcc occurs ; |3103| 
    5009 001011 20     nop
    5010 001012 46B3   bset INTM
    5011 001014       $C$L170:    
    5012 001014       $C$DW$L$_xTaskRemoveFromEventList$3$B:
    5013 001014 4A7E          B $C$L170 ; |3103| 
    5014                                                      ; branch occurs ; |3103| 
    5015 001016       $C$DW$L$_xTaskRemoveFromEventList$3$E:
    5016 001016       $C$L171:    
    5017                      .dwpsn  file "../FreeRTOS/Source/tasks_sysStk.c",line 3104,column 2,is_stmt
    5018 001016 ED04          MOV dbl(*SP(#2)), XAR0
         001018 8F   
    5019 001019 140E          AADD #14, AR0 ; |3104| 
         00101b 84   
    5020              $C$DW$381       .dwtag  DW_TAG_TI_branch
    5021                      .dwattr $C$DW$381, DW_AT_low_pc(0x00)
    5022                      .dwattr $C$DW$381, DW_AT_name("_uxListRemove")
    5023                      .dwattr $C$DW$381, DW_AT_TI_call
    5024 00101c 6C00          CALL #_uxListRemove ; |3104| 
         00101e 0000!
    5025                                                      ; call occurs [#_uxListRemove] ; |3104| 
    5026                      .dwpsn  file "../FreeRTOS/Source/tasks_sysStk.c",line 3106,column 2,is_stmt
    5027 001020 A931          MOV *(#_uxSchedulerSuspended), AR1 ; |3106| 
         001022 0000 
         001024 7C-  
    5028 001025 0419          BCC $C$L173,AR1 != #0 ; |3106| 
         001027 46   
    5029                                                      ; branchcc occurs ; |3106| 
    5030                      .dwpsn  file "../FreeRTOS/Source/tasks_sysStk.c",line 3108,column 3,is_stmt
    5031 001028 ED04          MOV dbl(*SP(#2)), XAR0
         00102a 8F   
    5032 00102b 1404          AADD #4, AR0 ; |3108| 
         00102d 84   
    5033              $C$DW$382       .dwtag  DW_TAG_TI_branch
    5034                      .dwattr $C$DW$382, DW_AT_low_pc(0x00)
    5035                      .dwattr $C$DW$382, DW_AT_name("_uxListRemove")
    5036                      .dwattr $C$DW$382, DW_AT_TI_call
    5037 00102e 6C00          CALL #_uxListRemove ; |3108| 
         001030 0000!
    5038                                                      ; call occurs [#_uxListRemove] ; |3108| 
    5039                      .dwpsn  file "../FreeRTOS/Source/tasks_sysStk.c",line 3109,column 3,is_stmt
    5040 001032 ED04          MOV dbl(*SP(#2)), XAR3
         001034 BF   
    5041 001035 A931          MOV *(#_uxTopReadyPriority), AR1 ; |3109| 
         001037 0000 
         001039 72-  
    5042 00103a AA6D          MOV *AR3(#24), AR2 ; |3109| 
         00103c 0018 
    5043 00103e 1298          CMPU AR2 <= AR1, TC1 ; |3109| 
         001040 A4   
TMS320C55x Assembler PC v4.4.1 Tue Oct 02 02:33:57 2018

Tools Copyright (c) 1996-2012 Texas Instruments Incorporated
tasks_sysStk.asm                                                     PAGE  112

    5044 001041 64E4          BCC $C$L172,TC1 ; |3109| 
    5045                                                      ; branchcc occurs ; |3109| 
    5046 001043 A96D          MOV *AR3(#24), AR1 ; |3109| 
         001045 0018 
    5047 001047 C931          MOV AR1, *(#_uxTopReadyPriority) ; |3109| 
         001049 0000 
         00104b 72-  
    5048 00104c       $C$L172:    
    5049 00104c DF6D          MOV uns(*AR3(#24)), AC1 ; |3109| 
         00104e 1500 
         001050 18   
    5050 001051 ED04          MOV dbl(*SP(#2)), XAR1
         001053 9F   
    5051 001054 1015          SFTS AC1, #1, AC0 ; |3109| 
         001056 01   
    5052 001057 1013          ADD AC1 << #3, AC0 ; |3109| 
         001059 03   
    5053 00105a 900B          MOV AC0, XAR3
    5054 00105c EC31          AMOV #_pxReadyTasksLists, XAR0 ; |3109| 
         00105e 8E00 
         001060 0006-
    5055              
    5056 001062 14B1          AADD XAR3, XAR0 ; |3109| 
         001064 80   
    5057 001065 1504  ||      AADD #4, AR1 ; |3109| 
         001067 9C   
    5058              
    5059              $C$DW$383       .dwtag  DW_TAG_TI_branch
    5060                      .dwattr $C$DW$383, DW_AT_low_pc(0x00)
    5061                      .dwattr $C$DW$383, DW_AT_name("_vListInsertEnd")
    5062                      .dwattr $C$DW$383, DW_AT_TI_call
    5063 001068 6C00          CALL #_vListInsertEnd ; |3109| 
         00106a 0000!
    5064                                                      ; call occurs [#_vListInsertEnd] ; |3109| 
    5065                      .dwpsn  file "../FreeRTOS/Source/tasks_sysStk.c",line 3110,column 2,is_stmt
    5066 00106c 4A10          B $C$L174 ; |3110| 
    5067                                                      ; branch occurs ; |3110| 
    5068 00106e       $C$L173:    
    5069                      .dwpsn  file "../FreeRTOS/Source/tasks_sysStk.c",line 3115,column 3,is_stmt
    5070 00106e ED04          MOV dbl(*SP(#2)), XAR1
         001070 9F   
    5071 001071 EC31          AMOV #_xPendingReadyList, XAR0 ; |3115| 
         001073 8E00 
         001075 0050-
    5072 001077 140E          AADD #14, AR1 ; |3115| 
         001079 94   
    5073              $C$DW$384       .dwtag  DW_TAG_TI_branch
    5074                      .dwattr $C$DW$384, DW_AT_low_pc(0x00)
    5075                      .dwattr $C$DW$384, DW_AT_name("_vListInsertEnd")
    5076                      .dwattr $C$DW$384, DW_AT_TI_call
    5077 00107a 6C00          CALL #_vListInsertEnd ; |3115| 
         00107c 0000!
    5078                                                      ; call occurs [#_vListInsertEnd] ; |3115| 
    5079 00107e       $C$L174:    
    5080                      .dwpsn  file "../FreeRTOS/Source/tasks_sysStk.c",line 3118,column 2,is_stmt
TMS320C55x Assembler PC v4.4.1 Tue Oct 02 02:33:57 2018

Tools Copyright (c) 1996-2012 Texas Instruments Incorporated
tasks_sysStk.asm                                                     PAGE  113

    5081 00107e ED31          MOV dbl(*(#_pxCurrentTCB)), XAR3
         001080 BF00 
         001082 0004-
    5082 001084 A96D          MOV *AR3(#24), AR1 ; |3118| 
         001086 0018 
    5083 001088 ED04          MOV dbl(*SP(#2)), XAR3
         00108a BF   
    5084 00108b AA6D          MOV *AR3(#24), AR2 ; |3118| 
         00108d 0018 
    5085 00108f 1298          CMPU AR2 <= AR1, TC1 ; |3118| 
         001091 A4   
    5086 001092 65E4          BCC $C$L175,TC1 ; |3118| 
    5087                                                      ; branchcc occurs ; |3118| 
    5088                      .dwpsn  file "../FreeRTOS/Source/tasks_sysStk.c",line 3123,column 3,is_stmt
    5089 001094 E608          MOV #1, *SP(#4) ; |3123| 
         001096 01   
    5090                      .dwpsn  file "../FreeRTOS/Source/tasks_sysStk.c",line 3127,column 3,is_stmt
    5091 001097 E631          MOV #1, *(#_xYieldPending) ; |3127| 
         001099 0100 
         00109b 0075-
    5092                      .dwpsn  file "../FreeRTOS/Source/tasks_sysStk.c",line 3128,column 2,is_stmt
    5093 00109d 4A03          B $C$L176 ; |3128| 
    5094                                                      ; branch occurs ; |3128| 
    5095 00109f       $C$L175:    
    5096                      .dwpsn  file "../FreeRTOS/Source/tasks_sysStk.c",line 3131,column 3,is_stmt
    5097 00109f E608          MOV #0, *SP(#4) ; |3131| 
         0010a1 00   
    5098 0010a2       $C$L176:    
    5099                      .dwpsn  file "../FreeRTOS/Source/tasks_sysStk.c",line 3148,column 2,is_stmt
    5100 0010a2 A408          MOV *SP(#4), T0 ; |3148| 
    5101                      .dwpsn  file "../FreeRTOS/Source/tasks_sysStk.c",line 3149,column 1,is_stmt
    5102 0010a4 4E05          AADD #5, SP
    5103                      .dwcfi  cfa_offset, 1
    5104              $C$DW$385       .dwtag  DW_TAG_TI_branch
    5105                      .dwattr $C$DW$385, DW_AT_low_pc(0x00)
    5106                      .dwattr $C$DW$385, DW_AT_TI_return
    5107 0010a6 4804          RET
    5108                                                      ; return occurs
    5109              
    5110              $C$DW$386       .dwtag  DW_TAG_TI_loop
    5111                      .dwattr $C$DW$386, DW_AT_name("F:\eZdsp-DBG-sim\tmp1\c55x-sim2\foo\Debug\tasks_sysStk.asm:$C$L170:1:1
    5112                      .dwattr $C$DW$386, DW_AT_TI_begin_file("../FreeRTOS/Source/tasks_sysStk.c")
    5113                      .dwattr $C$DW$386, DW_AT_TI_begin_line(0xc1f)
    5114                      .dwattr $C$DW$386, DW_AT_TI_end_line(0xc1f)
    5115              $C$DW$387       .dwtag  DW_TAG_TI_loop_range
    5116                      .dwattr $C$DW$387, DW_AT_low_pc($C$DW$L$_xTaskRemoveFromEventList$3$B)
    5117                      .dwattr $C$DW$387, DW_AT_high_pc($C$DW$L$_xTaskRemoveFromEventList$3$E)
    5118                      .dwendtag $C$DW$386
    5119              
    5120                      .dwattr $C$DW$376, DW_AT_TI_end_file("../FreeRTOS/Source/tasks_sysStk.c")
    5121                      .dwattr $C$DW$376, DW_AT_TI_end_line(0xc4d)
    5122                      .dwattr $C$DW$376, DW_AT_TI_end_column(0x01)
    5123                      .dwendentry
    5124                      .dwendtag $C$DW$376
    5125              
TMS320C55x Assembler PC v4.4.1 Tue Oct 02 02:33:57 2018

Tools Copyright (c) 1996-2012 Texas Instruments Incorporated
tasks_sysStk.asm                                                     PAGE  114

    5126 0010a8               .sect   ".text"
    5127                      .align 4
    5128                      .global _vTaskRemoveFromUnorderedEventList
    5129              
    5130              $C$DW$388       .dwtag  DW_TAG_subprogram, DW_AT_name("vTaskRemoveFromUnorderedEventList")
    5131                      .dwattr $C$DW$388, DW_AT_low_pc(_vTaskRemoveFromUnorderedEventList)
    5132                      .dwattr $C$DW$388, DW_AT_high_pc(0x00)
    5133                      .dwattr $C$DW$388, DW_AT_TI_symbol_name("_vTaskRemoveFromUnorderedEventList")
    5134                      .dwattr $C$DW$388, DW_AT_external
    5135                      .dwattr $C$DW$388, DW_AT_TI_begin_file("../FreeRTOS/Source/tasks_sysStk.c")
    5136                      .dwattr $C$DW$388, DW_AT_TI_begin_line(0xc50)
    5137                      .dwattr $C$DW$388, DW_AT_TI_begin_column(0x06)
    5138                      .dwattr $C$DW$388, DW_AT_TI_max_frame_size(0x08)
    5139                      .dwpsn  file "../FreeRTOS/Source/tasks_sysStk.c",line 3153,column 1,is_stmt,address _vTaskRemoveFromU
    5140              
    5141                      .dwfde $C$DW$CIE, _vTaskRemoveFromUnorderedEventList
    5142              $C$DW$389       .dwtag  DW_TAG_formal_parameter, DW_AT_name("pxEventListItem")
    5143                      .dwattr $C$DW$389, DW_AT_TI_symbol_name("_pxEventListItem")
    5144                      .dwattr $C$DW$389, DW_AT_type(*$C$DW$T$34)
    5145                      .dwattr $C$DW$389, DW_AT_location[DW_OP_reg17]
    5146              $C$DW$390       .dwtag  DW_TAG_formal_parameter, DW_AT_name("xItemValue")
    5147                      .dwattr $C$DW$390, DW_AT_TI_symbol_name("_xItemValue")
    5148                      .dwattr $C$DW$390, DW_AT_type(*$C$DW$T$95)
    5149                      .dwattr $C$DW$390, DW_AT_location[DW_OP_reg0]
    5150              ;*******************************************************************************
    5151              ;* FUNCTION NAME: vTaskRemoveFromUnorderedEventList                            *
    5152              ;*                                                                             *
    5153              ;*   Function Uses Regs : AC0,AC0,AC1,AC1,AR0,XAR0,AR1,XAR1,AR2,AR3,XAR3,SP,   *
    5154              ;*                        CARRY,TC1,M40,SATA,SATD,RDM,FRCT,SMUL                *
    5155              ;*   Stack Frame        : Compact (No Frame Pointer, w/ debug)                 *
    5156              ;*   Total Frame Size   : 8 words                                              *
    5157              ;*                        (2 return address/alignment)                         *
    5158              ;*                        (6 local values)                                     *
    5159              ;*   Min System Stack   : 1 word                                               *
    5160              ;*******************************************************************************
    5161 0010a8       _vTaskRemoveFromUnorderedEventList:
    5162                      .dwcfi  cfa_offset, 1
    5163                      .dwcfi  save_reg_to_mem, 91, -1
    5164 0010a8 4EF9          AADD #-7, SP
    5165                      .dwcfi  cfa_offset, 8
    5166              $C$DW$391       .dwtag  DW_TAG_variable, DW_AT_name("pxEventListItem")
    5167                      .dwattr $C$DW$391, DW_AT_TI_symbol_name("_pxEventListItem")
    5168                      .dwattr $C$DW$391, DW_AT_type(*$C$DW$T$34)
    5169                      .dwattr $C$DW$391, DW_AT_location[DW_OP_bregx 0x24 0]
    5170              $C$DW$392       .dwtag  DW_TAG_variable, DW_AT_name("xItemValue")
    5171                      .dwattr $C$DW$392, DW_AT_TI_symbol_name("_xItemValue")
    5172                      .dwattr $C$DW$392, DW_AT_type(*$C$DW$T$95)
    5173                      .dwattr $C$DW$392, DW_AT_location[DW_OP_bregx 0x24 2]
    5174              $C$DW$393       .dwtag  DW_TAG_variable, DW_AT_name("pxUnblockedTCB")
    5175                      .dwattr $C$DW$393, DW_AT_TI_symbol_name("_pxUnblockedTCB")
    5176                      .dwattr $C$DW$393, DW_AT_type(*$C$DW$T$83)
    5177                      .dwattr $C$DW$393, DW_AT_location[DW_OP_bregx 0x24 4]
    5178 0010aa EB04          MOV AC0, dbl(*SP(#2)) ; |3153| 
         0010ac 08   
    5179 0010ad EB00          MOV XAR0, dbl(*SP(#0))
TMS320C55x Assembler PC v4.4.1 Tue Oct 02 02:33:57 2018

Tools Copyright (c) 1996-2012 Texas Instruments Incorporated
tasks_sysStk.asm                                                     PAGE  115

         0010af 85   
    5180                      .dwpsn  file "../FreeRTOS/Source/tasks_sysStk.c",line 3158,column 2,is_stmt
    5181 0010b0 AA31          MOV *(#_uxSchedulerSuspended), AR2 ; |3158| 
         0010b2 0000 
         0010b4 7C-  
    5182              
    5183 0010b5 610A          BCC $C$L177,AR2 == #0 ; |3158| 
    5184 0010b7 3D09  ||      MOV #0, AR1
    5185              
    5186                                                      ; branchcc occurs ; |3158| 
    5187 0010b9 3C19          MOV #1, AR1
    5188 0010bb       $C$L177:    
    5189 0010bb 6299          BCC $C$L179,AR1 != #0 ; |3158| 
    5190                                                      ; branchcc occurs ; |3158| 
    5191 0010bd 20     nop
    5192 0010be 46B3   bset INTM
    5193 0010c0       $C$L178:    
    5194 0010c0       $C$DW$L$_vTaskRemoveFromUnorderedEventList$5$B:
    5195 0010c0 4A7E          B $C$L178 ; |3158| 
    5196                                                      ; branch occurs ; |3158| 
    5197 0010c2       $C$DW$L$_vTaskRemoveFromUnorderedEventList$5$E:
    5198 0010c2       $C$L179:    
    5199                      .dwpsn  file "../FreeRTOS/Source/tasks_sysStk.c",line 3161,column 2,is_stmt
    5200 0010c2 ED00          MOV dbl(*SP(#0)), XAR3
         0010c4 BF   
    5201 0010c5 ED04          MOV dbl(*SP(#2)), AC0 ; |3161| 
         0010c7 08   
    5202 0010c8 EC3E          BSET @#31, AC0 ; |3161| 
         0010ca 00   
    5203 0010cb EB61          MOV AC0, dbl(*AR3) ; |3161| 
         0010cd 08   
    5204                      .dwpsn  file "../FreeRTOS/Source/tasks_sysStk.c",line 3165,column 2,is_stmt
    5205 0010ce ED00          MOV dbl(*SP(#0)), XAR3
         0010d0 BF   
    5206 0010d1 ED7D          MOV dbl(*AR3(short(#6))), XAR3
         0010d3 BF   
    5207 0010d4 EB08          MOV XAR3, dbl(*SP(#4))
         0010d6 B5   
    5208                      .dwpsn  file "../FreeRTOS/Source/tasks_sysStk.c",line 3166,column 2,is_stmt
    5209 0010d7 90B0          MOV XAR3, AC0
    5210 0010d9 6290          BCC $C$L181,AC0 != #0 ; |3166| 
    5211                                                      ; branchcc occurs ; |3166| 
    5212 0010db 20     nop
    5213 0010dc 46B3   bset INTM
    5214 0010de       $C$L180:    
    5215 0010de       $C$DW$L$_vTaskRemoveFromUnorderedEventList$8$B:
    5216 0010de 4A7E          B $C$L180 ; |3166| 
    5217                                                      ; branch occurs ; |3166| 
    5218 0010e0       $C$DW$L$_vTaskRemoveFromUnorderedEventList$8$E:
    5219 0010e0       $C$L181:    
    5220                      .dwpsn  file "../FreeRTOS/Source/tasks_sysStk.c",line 3167,column 2,is_stmt
    5221 0010e0 ED00          MOV dbl(*SP(#0)), XAR0
         0010e2 8F   
    5222              $C$DW$394       .dwtag  DW_TAG_TI_branch
    5223                      .dwattr $C$DW$394, DW_AT_low_pc(0x00)
TMS320C55x Assembler PC v4.4.1 Tue Oct 02 02:33:57 2018

Tools Copyright (c) 1996-2012 Texas Instruments Incorporated
tasks_sysStk.asm                                                     PAGE  116

    5224                      .dwattr $C$DW$394, DW_AT_name("_uxListRemove")
    5225                      .dwattr $C$DW$394, DW_AT_TI_call
    5226 0010e3 6C00          CALL #_uxListRemove ; |3167| 
         0010e5 0000!
    5227                                                      ; call occurs [#_uxListRemove] ; |3167| 
    5228                      .dwpsn  file "../FreeRTOS/Source/tasks_sysStk.c",line 3172,column 2,is_stmt
    5229 0010e7 ED08          MOV dbl(*SP(#4)), XAR0
         0010e9 8F   
    5230 0010ea 1404          AADD #4, AR0 ; |3172| 
         0010ec 84   
    5231              $C$DW$395       .dwtag  DW_TAG_TI_branch
    5232                      .dwattr $C$DW$395, DW_AT_low_pc(0x00)
    5233                      .dwattr $C$DW$395, DW_AT_name("_uxListRemove")
    5234                      .dwattr $C$DW$395, DW_AT_TI_call
    5235 0010ed 6C00          CALL #_uxListRemove ; |3172| 
         0010ef 0000!
    5236                                                      ; call occurs [#_uxListRemove] ; |3172| 
    5237                      .dwpsn  file "../FreeRTOS/Source/tasks_sysStk.c",line 3173,column 2,is_stmt
    5238 0010f1 ED08          MOV dbl(*SP(#4)), XAR3
         0010f3 BF   
    5239 0010f4 A931          MOV *(#_uxTopReadyPriority), AR1 ; |3173| 
         0010f6 0000 
         0010f8 72-  
    5240 0010f9 AA6D          MOV *AR3(#24), AR2 ; |3173| 
         0010fb 0018 
    5241 0010fd 1298          CMPU AR2 <= AR1, TC1 ; |3173| 
         0010ff A4   
    5242 001100 64E4          BCC $C$L182,TC1 ; |3173| 
    5243                                                      ; branchcc occurs ; |3173| 
    5244 001102 A96D          MOV *AR3(#24), AR1 ; |3173| 
         001104 0018 
    5245 001106 C931          MOV AR1, *(#_uxTopReadyPriority) ; |3173| 
         001108 0000 
         00110a 72-  
    5246 00110b       $C$L182:    
    5247 00110b DF6D          MOV uns(*AR3(#24)), AC1 ; |3173| 
         00110d 1500 
         00110f 18   
    5248 001110 ED08          MOV dbl(*SP(#4)), XAR1
         001112 9F   
    5249 001113 1015          SFTS AC1, #1, AC0 ; |3173| 
         001115 01   
    5250 001116 1013          ADD AC1 << #3, AC0 ; |3173| 
         001118 03   
    5251 001119 900B          MOV AC0, XAR3
    5252 00111b EC31          AMOV #_pxReadyTasksLists, XAR0 ; |3173| 
         00111d 8E00 
         00111f 0006-
    5253              
    5254 001121 14B1          AADD XAR3, XAR0 ; |3173| 
         001123 80   
    5255 001124 1504  ||      AADD #4, AR1 ; |3173| 
         001126 9C   
    5256              
    5257              $C$DW$396       .dwtag  DW_TAG_TI_branch
TMS320C55x Assembler PC v4.4.1 Tue Oct 02 02:33:57 2018

Tools Copyright (c) 1996-2012 Texas Instruments Incorporated
tasks_sysStk.asm                                                     PAGE  117

    5258                      .dwattr $C$DW$396, DW_AT_low_pc(0x00)
    5259                      .dwattr $C$DW$396, DW_AT_name("_vListInsertEnd")
    5260                      .dwattr $C$DW$396, DW_AT_TI_call
    5261 001127 6C00          CALL #_vListInsertEnd ; |3173| 
         001129 0000!
    5262                                                      ; call occurs [#_vListInsertEnd] ; |3173| 
    5263                      .dwpsn  file "../FreeRTOS/Source/tasks_sysStk.c",line 3175,column 2,is_stmt
    5264 00112b ED31          MOV dbl(*(#_pxCurrentTCB)), XAR3
         00112d BF00 
         00112f 0004-
    5265 001131 A96D          MOV *AR3(#24), AR1 ; |3175| 
         001133 0018 
    5266 001135 ED08          MOV dbl(*SP(#4)), XAR3
         001137 BF   
    5267 001138 AA6D          MOV *AR3(#24), AR2 ; |3175| 
         00113a 0018 
    5268 00113c 1298          CMPU AR2 <= AR1, TC1 ; |3175| 
         00113e A4   
    5269 00113f 6364          BCC $C$L183,TC1 ; |3175| 
    5270                                                      ; branchcc occurs ; |3175| 
    5271                      .dwpsn  file "../FreeRTOS/Source/tasks_sysStk.c",line 3181,column 3,is_stmt
    5272 001141 E631          MOV #1, *(#_xYieldPending) ; |3181| 
         001143 0100 
         001145 0075-
    5273                      .dwpsn  file "../FreeRTOS/Source/tasks_sysStk.c",line 3183,column 1,is_stmt
    5274 001147       $C$L183:    
    5275 001147 4E07          AADD #7, SP
    5276                      .dwcfi  cfa_offset, 1
    5277              $C$DW$397       .dwtag  DW_TAG_TI_branch
    5278                      .dwattr $C$DW$397, DW_AT_low_pc(0x00)
    5279                      .dwattr $C$DW$397, DW_AT_TI_return
    5280 001149 4804          RET
    5281                                                      ; return occurs
    5282              
    5283              $C$DW$398       .dwtag  DW_TAG_TI_loop
    5284                      .dwattr $C$DW$398, DW_AT_name("F:\eZdsp-DBG-sim\tmp1\c55x-sim2\foo\Debug\tasks_sysStk.asm:$C$L180:1:1
    5285                      .dwattr $C$DW$398, DW_AT_TI_begin_file("../FreeRTOS/Source/tasks_sysStk.c")
    5286                      .dwattr $C$DW$398, DW_AT_TI_begin_line(0xc5e)
    5287                      .dwattr $C$DW$398, DW_AT_TI_end_line(0xc5e)
    5288              $C$DW$399       .dwtag  DW_TAG_TI_loop_range
    5289                      .dwattr $C$DW$399, DW_AT_low_pc($C$DW$L$_vTaskRemoveFromUnorderedEventList$8$B)
    5290                      .dwattr $C$DW$399, DW_AT_high_pc($C$DW$L$_vTaskRemoveFromUnorderedEventList$8$E)
    5291                      .dwendtag $C$DW$398
    5292              
    5293              
    5294              $C$DW$400       .dwtag  DW_TAG_TI_loop
    5295                      .dwattr $C$DW$400, DW_AT_name("F:\eZdsp-DBG-sim\tmp1\c55x-sim2\foo\Debug\tasks_sysStk.asm:$C$L178:1:1
    5296                      .dwattr $C$DW$400, DW_AT_TI_begin_file("../FreeRTOS/Source/tasks_sysStk.c")
    5297                      .dwattr $C$DW$400, DW_AT_TI_begin_line(0xc56)
    5298                      .dwattr $C$DW$400, DW_AT_TI_end_line(0xc56)
    5299              $C$DW$401       .dwtag  DW_TAG_TI_loop_range
    5300                      .dwattr $C$DW$401, DW_AT_low_pc($C$DW$L$_vTaskRemoveFromUnorderedEventList$5$B)
    5301                      .dwattr $C$DW$401, DW_AT_high_pc($C$DW$L$_vTaskRemoveFromUnorderedEventList$5$E)
    5302                      .dwendtag $C$DW$400
    5303              
TMS320C55x Assembler PC v4.4.1 Tue Oct 02 02:33:57 2018

Tools Copyright (c) 1996-2012 Texas Instruments Incorporated
tasks_sysStk.asm                                                     PAGE  118

    5304                      .dwattr $C$DW$388, DW_AT_TI_end_file("../FreeRTOS/Source/tasks_sysStk.c")
    5305                      .dwattr $C$DW$388, DW_AT_TI_end_line(0xc6f)
    5306                      .dwattr $C$DW$388, DW_AT_TI_end_column(0x01)
    5307                      .dwendentry
    5308                      .dwendtag $C$DW$388
    5309              
    5310 00114b               .sect   ".text"
    5311                      .align 4
    5312                      .global _vTaskSetTimeOutState
    5313              
    5314              $C$DW$402       .dwtag  DW_TAG_subprogram, DW_AT_name("vTaskSetTimeOutState")
    5315                      .dwattr $C$DW$402, DW_AT_low_pc(_vTaskSetTimeOutState)
    5316                      .dwattr $C$DW$402, DW_AT_high_pc(0x00)
    5317                      .dwattr $C$DW$402, DW_AT_TI_symbol_name("_vTaskSetTimeOutState")
    5318                      .dwattr $C$DW$402, DW_AT_external
    5319                      .dwattr $C$DW$402, DW_AT_TI_begin_file("../FreeRTOS/Source/tasks_sysStk.c")
    5320                      .dwattr $C$DW$402, DW_AT_TI_begin_line(0xc72)
    5321                      .dwattr $C$DW$402, DW_AT_TI_begin_column(0x06)
    5322                      .dwattr $C$DW$402, DW_AT_TI_max_frame_size(0x04)
    5323                      .dwpsn  file "../FreeRTOS/Source/tasks_sysStk.c",line 3187,column 1,is_stmt,address _vTaskSetTimeOutS
    5324              
    5325                      .dwfde $C$DW$CIE, _vTaskSetTimeOutState
    5326              $C$DW$403       .dwtag  DW_TAG_formal_parameter, DW_AT_name("pxTimeOut")
    5327                      .dwattr $C$DW$403, DW_AT_TI_symbol_name("_pxTimeOut")
    5328                      .dwattr $C$DW$403, DW_AT_type(*$C$DW$T$104)
    5329                      .dwattr $C$DW$403, DW_AT_location[DW_OP_reg17]
    5330              ;*******************************************************************************
    5331              ;* FUNCTION NAME: vTaskSetTimeOutState                                         *
    5332              ;*                                                                             *
    5333              ;*   Function Uses Regs : AC0,AC0,AR0,XAR0,AR1,AR3,XAR3,SP,CARRY,M40,SATA,SATD,*
    5334              ;*                        RDM,FRCT,SMUL                                        *
    5335              ;*   Stack Frame        : Compact (No Frame Pointer, w/ debug)                 *
    5336              ;*   Total Frame Size   : 4 words                                              *
    5337              ;*                        (2 return address/alignment)                         *
    5338              ;*                        (2 local values)                                     *
    5339              ;*   Min System Stack   : 1 word                                               *
    5340              ;*******************************************************************************
    5341 00114c       _vTaskSetTimeOutState:
    5342                      .dwcfi  cfa_offset, 1
    5343                      .dwcfi  save_reg_to_mem, 91, -1
    5344 00114c 4EFD          AADD #-3, SP
    5345                      .dwcfi  cfa_offset, 4
    5346              $C$DW$404       .dwtag  DW_TAG_variable, DW_AT_name("pxTimeOut")
    5347                      .dwattr $C$DW$404, DW_AT_TI_symbol_name("_pxTimeOut")
    5348                      .dwattr $C$DW$404, DW_AT_type(*$C$DW$T$104)
    5349                      .dwattr $C$DW$404, DW_AT_location[DW_OP_bregx 0x24 0]
    5350 00114e EB00          MOV XAR0, dbl(*SP(#0))
         001150 85   
    5351                      .dwpsn  file "../FreeRTOS/Source/tasks_sysStk.c",line 3188,column 2,is_stmt
    5352 001151 ED00          MOV dbl(*SP(#0)), XAR3
         001153 BF   
    5353 001154 90B0          MOV XAR3, AC0
    5354 001156 6290          BCC $C$L185,AC0 != #0 ; |3188| 
    5355                                                      ; branchcc occurs ; |3188| 
    5356 001158 20     nop
TMS320C55x Assembler PC v4.4.1 Tue Oct 02 02:33:57 2018

Tools Copyright (c) 1996-2012 Texas Instruments Incorporated
tasks_sysStk.asm                                                     PAGE  119

    5357 001159 46B3   bset INTM
    5358 00115b       $C$L184:    
    5359 00115b       $C$DW$L$_vTaskSetTimeOutState$3$B:
    5360 00115b 4A7E          B $C$L184 ; |3188| 
    5361                                                      ; branch occurs ; |3188| 
    5362 00115d       $C$DW$L$_vTaskSetTimeOutState$3$E:
    5363 00115d       $C$L185:    
    5364                      .dwpsn  file "../FreeRTOS/Source/tasks_sysStk.c",line 3189,column 2,is_stmt
    5365 00115d 20     nop
    5366 00115e 46B3   bset INTM
    5367 001160 F731          ADD #1, *(#_usCriticalNesting) ; |3189| 
         001162 0001 
         001164 0000 
         001166 00!  
    5368 001167 20            NOP
    5369 001168 20            NOP
    5370 001169 20            NOP
    5371                      .dwpsn  file "../FreeRTOS/Source/tasks_sysStk.c",line 3191,column 3,is_stmt
    5372 00116a A931          MOV *(#_xNumOfOverflows), AR1 ; |3191| 
         00116c 0000 
         00116e 76-  
    5373 00116f C961          MOV AR1, *AR3 ; |3191| 
    5374                      .dwpsn  file "../FreeRTOS/Source/tasks_sysStk.c",line 3192,column 3,is_stmt
    5375 001171 ED00          MOV dbl(*SP(#0)), XAR3
         001173 BF   
    5376 001174 ED31          MOV dbl(*(#_xTickCount)), AC0 ; |3192| 
         001176 0800 
         001178 0070-
    5377 00117a EB75          MOV AC0, dbl(*AR3(short(#2))) ; |3192| 
         00117c 08   
    5378                      .dwpsn  file "../FreeRTOS/Source/tasks_sysStk.c",line 3194,column 2,is_stmt
    5379 00117d A931          MOV *(#_usCriticalNesting), AR1 ; |3194| 
         00117f 0000 
         001181 00!  
    5380 001182 0409          BCC $C$L186,AR1 == #0 ; |3194| 
         001184 14   
    5381                                                      ; branchcc occurs ; |3194| 
    5382 001185 F731          SUB #1, *(#_usCriticalNesting) ; |3194| 
         001187 FFFF 
         001189 0000 
         00118b 00!  
    5383 00118c 20            NOP
    5384 00118d 20            NOP
    5385 00118e 20            NOP
    5386 00118f A931          MOV *(#_usCriticalNesting), AR1 ; |3194| 
         001191 0000 
         001193 00!  
    5387 001194 6199          BCC $C$L186,AR1 != #0 ; |3194| 
    5388                                                      ; branchcc occurs ; |3194| 
    5389 001196 20     nop
    5390 001197 46B2   bclr INTM
    5391                      .dwpsn  file "../FreeRTOS/Source/tasks_sysStk.c",line 3195,column 1,is_stmt
    5392 001199       $C$L186:    
    5393 001199 4E03          AADD #3, SP
    5394                      .dwcfi  cfa_offset, 1
TMS320C55x Assembler PC v4.4.1 Tue Oct 02 02:33:57 2018

Tools Copyright (c) 1996-2012 Texas Instruments Incorporated
tasks_sysStk.asm                                                     PAGE  120

    5395              $C$DW$405       .dwtag  DW_TAG_TI_branch
    5396                      .dwattr $C$DW$405, DW_AT_low_pc(0x00)
    5397                      .dwattr $C$DW$405, DW_AT_TI_return
    5398 00119b 4804          RET
    5399                                                      ; return occurs
    5400              
    5401              $C$DW$406       .dwtag  DW_TAG_TI_loop
    5402                      .dwattr $C$DW$406, DW_AT_name("F:\eZdsp-DBG-sim\tmp1\c55x-sim2\foo\Debug\tasks_sysStk.asm:$C$L184:1:1
    5403                      .dwattr $C$DW$406, DW_AT_TI_begin_file("../FreeRTOS/Source/tasks_sysStk.c")
    5404                      .dwattr $C$DW$406, DW_AT_TI_begin_line(0xc74)
    5405                      .dwattr $C$DW$406, DW_AT_TI_end_line(0xc74)
    5406              $C$DW$407       .dwtag  DW_TAG_TI_loop_range
    5407                      .dwattr $C$DW$407, DW_AT_low_pc($C$DW$L$_vTaskSetTimeOutState$3$B)
    5408                      .dwattr $C$DW$407, DW_AT_high_pc($C$DW$L$_vTaskSetTimeOutState$3$E)
    5409                      .dwendtag $C$DW$406
    5410              
    5411                      .dwattr $C$DW$402, DW_AT_TI_end_file("../FreeRTOS/Source/tasks_sysStk.c")
    5412                      .dwattr $C$DW$402, DW_AT_TI_end_line(0xc7b)
    5413                      .dwattr $C$DW$402, DW_AT_TI_end_column(0x01)
    5414                      .dwendentry
    5415                      .dwendtag $C$DW$402
    5416              
    5417 00119d               .sect   ".text"
    5418                      .align 4
    5419                      .global _vTaskInternalSetTimeOutState
    5420              
    5421              $C$DW$408       .dwtag  DW_TAG_subprogram, DW_AT_name("vTaskInternalSetTimeOutState")
    5422                      .dwattr $C$DW$408, DW_AT_low_pc(_vTaskInternalSetTimeOutState)
    5423                      .dwattr $C$DW$408, DW_AT_high_pc(0x00)
    5424                      .dwattr $C$DW$408, DW_AT_TI_symbol_name("_vTaskInternalSetTimeOutState")
    5425                      .dwattr $C$DW$408, DW_AT_external
    5426                      .dwattr $C$DW$408, DW_AT_TI_begin_file("../FreeRTOS/Source/tasks_sysStk.c")
    5427                      .dwattr $C$DW$408, DW_AT_TI_begin_line(0xc7e)
    5428                      .dwattr $C$DW$408, DW_AT_TI_begin_column(0x06)
    5429                      .dwattr $C$DW$408, DW_AT_TI_max_frame_size(0x04)
    5430                      .dwpsn  file "../FreeRTOS/Source/tasks_sysStk.c",line 3199,column 1,is_stmt,address _vTaskInternalSet
    5431              
    5432                      .dwfde $C$DW$CIE, _vTaskInternalSetTimeOutState
    5433              $C$DW$409       .dwtag  DW_TAG_formal_parameter, DW_AT_name("pxTimeOut")
    5434                      .dwattr $C$DW$409, DW_AT_TI_symbol_name("_pxTimeOut")
    5435                      .dwattr $C$DW$409, DW_AT_type(*$C$DW$T$104)
    5436                      .dwattr $C$DW$409, DW_AT_location[DW_OP_reg17]
    5437              ;*******************************************************************************
    5438              ;* FUNCTION NAME: vTaskInternalSetTimeOutState                                 *
    5439              ;*                                                                             *
    5440              ;*   Function Uses Regs : AC0,AC0,AR0,XAR0,AR1,AR3,XAR3,SP,M40,SATA,SATD,RDM,  *
    5441              ;*                        FRCT,SMUL                                            *
    5442              ;*   Stack Frame        : Compact (No Frame Pointer, w/ debug)                 *
    5443              ;*   Total Frame Size   : 4 words                                              *
    5444              ;*                        (2 return address/alignment)                         *
    5445              ;*                        (2 local values)                                     *
    5446              ;*   Min System Stack   : 1 word                                               *
    5447              ;*******************************************************************************
    5448 0011a0       _vTaskInternalSetTimeOutState:
    5449                      .dwcfi  cfa_offset, 1
TMS320C55x Assembler PC v4.4.1 Tue Oct 02 02:33:57 2018

Tools Copyright (c) 1996-2012 Texas Instruments Incorporated
tasks_sysStk.asm                                                     PAGE  121

    5450                      .dwcfi  save_reg_to_mem, 91, -1
    5451 0011a0 4EFD          AADD #-3, SP
    5452                      .dwcfi  cfa_offset, 4
    5453              $C$DW$410       .dwtag  DW_TAG_variable, DW_AT_name("pxTimeOut")
    5454                      .dwattr $C$DW$410, DW_AT_TI_symbol_name("_pxTimeOut")
    5455                      .dwattr $C$DW$410, DW_AT_type(*$C$DW$T$104)
    5456                      .dwattr $C$DW$410, DW_AT_location[DW_OP_bregx 0x24 0]
    5457 0011a2 EB00          MOV XAR0, dbl(*SP(#0))
         0011a4 85   
    5458                      .dwpsn  file "../FreeRTOS/Source/tasks_sysStk.c",line 3201,column 2,is_stmt
    5459 0011a5 ED00          MOV dbl(*SP(#0)), XAR3
         0011a7 BF   
    5460 0011a8 A931          MOV *(#_xNumOfOverflows), AR1 ; |3201| 
         0011aa 0000 
         0011ac 76-  
    5461 0011ad C961          MOV AR1, *AR3 ; |3201| 
    5462                      .dwpsn  file "../FreeRTOS/Source/tasks_sysStk.c",line 3202,column 2,is_stmt
    5463 0011af ED00          MOV dbl(*SP(#0)), XAR3
         0011b1 BF   
    5464 0011b2 ED31          MOV dbl(*(#_xTickCount)), AC0 ; |3202| 
         0011b4 0800 
         0011b6 0070-
    5465 0011b8 EB75          MOV AC0, dbl(*AR3(short(#2))) ; |3202| 
         0011ba 08   
    5466                      .dwpsn  file "../FreeRTOS/Source/tasks_sysStk.c",line 3203,column 1,is_stmt
    5467 0011bb 4E03          AADD #3, SP
    5468                      .dwcfi  cfa_offset, 1
    5469              $C$DW$411       .dwtag  DW_TAG_TI_branch
    5470                      .dwattr $C$DW$411, DW_AT_low_pc(0x00)
    5471                      .dwattr $C$DW$411, DW_AT_TI_return
    5472 0011bd 4804          RET
    5473                                                      ; return occurs
    5474                      .dwattr $C$DW$408, DW_AT_TI_end_file("../FreeRTOS/Source/tasks_sysStk.c")
    5475                      .dwattr $C$DW$408, DW_AT_TI_end_line(0xc83)
    5476                      .dwattr $C$DW$408, DW_AT_TI_end_column(0x01)
    5477                      .dwendentry
    5478                      .dwendtag $C$DW$408
    5479              
    5480 0011bf               .sect   ".text"
    5481                      .align 4
    5482                      .global _xTaskCheckForTimeOut
    5483              
    5484              $C$DW$412       .dwtag  DW_TAG_subprogram, DW_AT_name("xTaskCheckForTimeOut")
    5485                      .dwattr $C$DW$412, DW_AT_low_pc(_xTaskCheckForTimeOut)
    5486                      .dwattr $C$DW$412, DW_AT_high_pc(0x00)
    5487                      .dwattr $C$DW$412, DW_AT_TI_symbol_name("_xTaskCheckForTimeOut")
    5488                      .dwattr $C$DW$412, DW_AT_external
    5489                      .dwattr $C$DW$412, DW_AT_type(*$C$DW$T$43)
    5490                      .dwattr $C$DW$412, DW_AT_TI_begin_file("../FreeRTOS/Source/tasks_sysStk.c")
    5491                      .dwattr $C$DW$412, DW_AT_TI_begin_line(0xc86)
    5492                      .dwattr $C$DW$412, DW_AT_TI_begin_column(0x0c)
    5493                      .dwattr $C$DW$412, DW_AT_TI_max_frame_size(0x0c)
    5494                      .dwpsn  file "../FreeRTOS/Source/tasks_sysStk.c",line 3207,column 1,is_stmt,address _xTaskCheckForTim
    5495              
    5496                      .dwfde $C$DW$CIE, _xTaskCheckForTimeOut
TMS320C55x Assembler PC v4.4.1 Tue Oct 02 02:33:57 2018

Tools Copyright (c) 1996-2012 Texas Instruments Incorporated
tasks_sysStk.asm                                                     PAGE  122

    5497              $C$DW$413       .dwtag  DW_TAG_formal_parameter, DW_AT_name("pxTimeOut")
    5498                      .dwattr $C$DW$413, DW_AT_TI_symbol_name("_pxTimeOut")
    5499                      .dwattr $C$DW$413, DW_AT_type(*$C$DW$T$104)
    5500                      .dwattr $C$DW$413, DW_AT_location[DW_OP_reg17]
    5501              $C$DW$414       .dwtag  DW_TAG_formal_parameter, DW_AT_name("pxTicksToWait")
    5502                      .dwattr $C$DW$414, DW_AT_TI_symbol_name("_pxTicksToWait")
    5503                      .dwattr $C$DW$414, DW_AT_type(*$C$DW$T$94)
    5504                      .dwattr $C$DW$414, DW_AT_location[DW_OP_reg19]
    5505              ;*******************************************************************************
    5506              ;* FUNCTION NAME: xTaskCheckForTimeOut                                         *
    5507              ;*                                                                             *
    5508              ;*   Function Uses Regs : AC0,AC0,AC1,AC1,T0,AR0,XAR0,AR1,XAR1,AR2,AR3,XAR3,SP,*
    5509              ;*                        CARRY,TC1,M40,SATA,SATD,RDM,FRCT,SMUL                *
    5510              ;*   Stack Frame        : Compact (No Frame Pointer, w/ debug)                 *
    5511              ;*   Total Frame Size   : 12 words                                             *
    5512              ;*                        (2 return address/alignment)                         *
    5513              ;*                        (10 local values)                                    *
    5514              ;*   Min System Stack   : 1 word                                               *
    5515              ;*******************************************************************************
    5516 0011c0       _xTaskCheckForTimeOut:
    5517                      .dwcfi  cfa_offset, 1
    5518                      .dwcfi  save_reg_to_mem, 91, -1
    5519 0011c0 4EF5          AADD #-11, SP
    5520                      .dwcfi  cfa_offset, 12
    5521              $C$DW$415       .dwtag  DW_TAG_variable, DW_AT_name("pxTimeOut")
    5522                      .dwattr $C$DW$415, DW_AT_TI_symbol_name("_pxTimeOut")
    5523                      .dwattr $C$DW$415, DW_AT_type(*$C$DW$T$104)
    5524                      .dwattr $C$DW$415, DW_AT_location[DW_OP_bregx 0x24 0]
    5525              $C$DW$416       .dwtag  DW_TAG_variable, DW_AT_name("pxTicksToWait")
    5526                      .dwattr $C$DW$416, DW_AT_TI_symbol_name("_pxTicksToWait")
    5527                      .dwattr $C$DW$416, DW_AT_type(*$C$DW$T$94)
    5528                      .dwattr $C$DW$416, DW_AT_location[DW_OP_bregx 0x24 2]
    5529              $C$DW$417       .dwtag  DW_TAG_variable, DW_AT_name("xReturn")
    5530                      .dwattr $C$DW$417, DW_AT_TI_symbol_name("_xReturn")
    5531                      .dwattr $C$DW$417, DW_AT_type(*$C$DW$T$43)
    5532                      .dwattr $C$DW$417, DW_AT_location[DW_OP_bregx 0x24 4]
    5533 0011c2 EB04          MOV XAR1, dbl(*SP(#2))
         0011c4 95   
    5534 0011c5 EB00          MOV XAR0, dbl(*SP(#0))
         0011c7 85   
    5535                      .dwpsn  file "../FreeRTOS/Source/tasks_sysStk.c",line 3210,column 2,is_stmt
    5536 0011c8 ED00          MOV dbl(*SP(#0)), XAR3
         0011ca BF   
    5537 0011cb 90B0          MOV XAR3, AC0
    5538 0011cd 6290          BCC $C$L188,AC0 != #0 ; |3210| 
    5539                                                      ; branchcc occurs ; |3210| 
    5540 0011cf 20     nop
    5541 0011d0 46B3   bset INTM
    5542 0011d2       $C$L187:    
    5543 0011d2       $C$DW$L$_xTaskCheckForTimeOut$3$B:
    5544 0011d2 4A7E          B $C$L187 ; |3210| 
    5545                                                      ; branch occurs ; |3210| 
    5546 0011d4       $C$DW$L$_xTaskCheckForTimeOut$3$E:
    5547 0011d4       $C$L188:    
    5548                      .dwpsn  file "../FreeRTOS/Source/tasks_sysStk.c",line 3211,column 2,is_stmt
TMS320C55x Assembler PC v4.4.1 Tue Oct 02 02:33:57 2018

Tools Copyright (c) 1996-2012 Texas Instruments Incorporated
tasks_sysStk.asm                                                     PAGE  123

    5549 0011d4 ED04          MOV dbl(*SP(#2)), XAR3
         0011d6 BF   
    5550 0011d7 90B0          MOV XAR3, AC0
    5551 0011d9 6290          BCC $C$L190,AC0 != #0 ; |3211| 
    5552                                                      ; branchcc occurs ; |3211| 
    5553 0011db 20     nop
    5554 0011dc 46B3   bset INTM
    5555 0011de       $C$L189:    
    5556 0011de       $C$DW$L$_xTaskCheckForTimeOut$6$B:
    5557 0011de 4A7E          B $C$L189 ; |3211| 
    5558                                                      ; branch occurs ; |3211| 
    5559 0011e0       $C$DW$L$_xTaskCheckForTimeOut$6$E:
    5560 0011e0       $C$L190:    
    5561                      .dwpsn  file "../FreeRTOS/Source/tasks_sysStk.c",line 3213,column 2,is_stmt
    5562 0011e0 20     nop
    5563 0011e1 46B3   bset INTM
    5564 0011e3 F731          ADD #1, *(#_usCriticalNesting) ; |3213| 
         0011e5 0001 
         0011e7 0000 
         0011e9 00!  
    5565 0011ea 20            NOP
    5566 0011eb 20            NOP
    5567 0011ec 20            NOP
    5568              
    5569              $C$DW$418       .dwtag  DW_TAG_lexical_block, DW_AT_low_pc(0x00), DW_AT_high_pc(0x00)
    5570              $C$DW$419       .dwtag  DW_TAG_variable, DW_AT_name("xConstTickCount")
    5571                      .dwattr $C$DW$419, DW_AT_TI_symbol_name("_xConstTickCount")
    5572                      .dwattr $C$DW$419, DW_AT_type(*$C$DW$T$95)
    5573                      .dwattr $C$DW$419, DW_AT_location[DW_OP_bregx 0x24 6]
    5574              $C$DW$420       .dwtag  DW_TAG_variable, DW_AT_name("xElapsedTime")
    5575                      .dwattr $C$DW$420, DW_AT_TI_symbol_name("_xElapsedTime")
    5576                      .dwattr $C$DW$420, DW_AT_type(*$C$DW$T$95)
    5577                      .dwattr $C$DW$420, DW_AT_location[DW_OP_bregx 0x24 8]
    5578                      .dwpsn  file "../FreeRTOS/Source/tasks_sysStk.c",line 3216,column 20,is_stmt
    5579 0011ed ED31          MOV dbl(*(#_xTickCount)), AC0 ; |3216| 
         0011ef 0800 
         0011f1 0070-
    5580 0011f3 EB0C          MOV AC0, dbl(*SP(#6)) ; |3216| 
         0011f5 08   
    5581                      .dwpsn  file "../FreeRTOS/Source/tasks_sysStk.c",line 3217,column 20,is_stmt
    5582 0011f6 ED00          MOV dbl(*SP(#0)), XAR3
         0011f8 BF   
    5583 0011f9 ED75          MOV dbl(*AR3(short(#2))), AC0 ; |3217| 
         0011fb 08   
    5584 0011fc ED0C          SUB AC0, dbl(*SP(#6)), AC0 ; |3217| 
         0011fe 04   
    5585 0011ff EB10          MOV AC0, dbl(*SP(#8)) ; |3217| 
         001201 08   
    5586                      .dwpsn  file "../FreeRTOS/Source/tasks_sysStk.c",line 3231,column 4,is_stmt
    5587 001202 ED04          MOV dbl(*SP(#2)), XAR3
         001204 BF   
    5588 001205 7AFF          MOV #-1 << #16, AC0 ; |3231| 
         001207 FF0A 
    5589 001209 7EFF          OR #0xffff, AC0, AC0 ; |3231| 
         00120b FF00 
TMS320C55x Assembler PC v4.4.1 Tue Oct 02 02:33:57 2018

Tools Copyright (c) 1996-2012 Texas Instruments Incorporated
tasks_sysStk.asm                                                     PAGE  124

    5590 00120d ED61          MOV dbl(*AR3), AC1 ; |3231| 
         00120f 18   
    5591 001210 121C          CMPU AC1 != AC0, TC1 ; |3231| 
         001212 04   
    5592 001213 6364          BCC $C$L191,TC1 ; |3231| 
    5593                                                      ; branchcc occurs ; |3231| 
    5594                      .dwpsn  file "../FreeRTOS/Source/tasks_sysStk.c",line 3236,column 5,is_stmt
    5595 001215 E608          MOV #0, *SP(#4) ; |3236| 
         001217 00   
    5596                      .dwpsn  file "../FreeRTOS/Source/tasks_sysStk.c",line 3237,column 4,is_stmt
    5597 001218 0600          B $C$L194 ; |3237| 
         00121a 4B   
    5598                                                      ; branch occurs ; |3237| 
    5599 00121b       $C$L191:    
    5600                      .dwpsn  file "../FreeRTOS/Source/tasks_sysStk.c",line 3241,column 3,is_stmt
    5601 00121b ED00          MOV dbl(*SP(#0)), XAR3
         00121d BF   
    5602 00121e AA31          MOV *(#_xNumOfOverflows), AR2 ; |3241| 
         001220 0000 
         001222 76-  
    5603 001223 A961          MOV *AR3, AR1 ; |3241| 
    5604 001225 12A0          CMP AR2 == AR1, TC1 ; |3241| 
         001227 90   
    5605 001228 0464          BCC $C$L192,TC1 ; |3241| 
         00122a 10   
    5606                                                      ; branchcc occurs ; |3241| 
    5607 00122b ED75          MOV dbl(*AR3(short(#2))), AC0 ; |3241| 
         00122d 08   
    5608 00122e ED0C          MOV dbl(*SP(#6)), AC1 ; |3241| 
         001230 18   
    5609 001231 1214          CMPU AC1 < AC0, TC1 ; |3241| 
         001233 04   
    5610 001234 62E4          BCC $C$L192,TC1 ; |3241| 
    5611                                                      ; branchcc occurs ; |3241| 
    5612                      .dwpsn  file "../FreeRTOS/Source/tasks_sysStk.c",line 3248,column 4,is_stmt
    5613 001236 E608          MOV #1, *SP(#4) ; |3248| 
         001238 01   
    5614                      .dwpsn  file "../FreeRTOS/Source/tasks_sysStk.c",line 3249,column 3,is_stmt
    5615 001239 4A2B          B $C$L194 ; |3249| 
    5616                                                      ; branch occurs ; |3249| 
    5617 00123b       $C$L192:    
    5618                      .dwpsn  file "../FreeRTOS/Source/tasks_sysStk.c",line 3250,column 8,is_stmt
    5619 00123b ED04          MOV dbl(*SP(#2)), XAR3
         00123d BF   
    5620 00123e ED10          MOV dbl(*SP(#8)), AC1 ; |3250| 
         001240 18   
    5621 001241 ED61          MOV dbl(*AR3), AC0 ; |3250| 
         001243 08   
    5622 001244 1218          CMPU AC1 >= AC0, TC1 ; |3250| 
         001246 04   
    5623 001247 0464          BCC $C$L193,TC1 ; |3250| 
         001249 14   
    5624                                                      ; branchcc occurs ; |3250| 
    5625                      .dwpsn  file "../FreeRTOS/Source/tasks_sysStk.c",line 3253,column 4,is_stmt
    5626 00124a ED10          MOV dbl(*SP(#8)), AC0 ; |3253| 
TMS320C55x Assembler PC v4.4.1 Tue Oct 02 02:33:57 2018

Tools Copyright (c) 1996-2012 Texas Instruments Incorporated
tasks_sysStk.asm                                                     PAGE  125

         00124c 08   
    5627 00124d ED61          SUB AC0, dbl(*AR3), AC0 ; |3253| 
         00124f 04   
    5628 001250 EB61          MOV AC0, dbl(*AR3) ; |3253| 
         001252 08   
    5629                      .dwpsn  file "../FreeRTOS/Source/tasks_sysStk.c",line 3254,column 4,is_stmt
    5630 001253 ED00          MOV dbl(*SP(#0)), XAR0
         001255 8F   
    5631              $C$DW$421       .dwtag  DW_TAG_TI_branch
    5632                      .dwattr $C$DW$421, DW_AT_low_pc(0x00)
    5633                      .dwattr $C$DW$421, DW_AT_name("_vTaskInternalSetTimeOutState")
    5634                      .dwattr $C$DW$421, DW_AT_TI_call
    5635 001256 08FF          CALL #_vTaskInternalSetTimeOutState ; |3254| 
         001258 47   
    5636                                                      ; call occurs [#_vTaskInternalSetTimeOutState] ; |3254| 
    5637                      .dwpsn  file "../FreeRTOS/Source/tasks_sysStk.c",line 3255,column 4,is_stmt
    5638 001259 E608          MOV #0, *SP(#4) ; |3255| 
         00125b 00   
    5639                      .dwpsn  file "../FreeRTOS/Source/tasks_sysStk.c",line 3256,column 3,is_stmt
    5640 00125c 4A08          B $C$L194 ; |3256| 
    5641                                                      ; branch occurs ; |3256| 
    5642 00125e       $C$L193:    
    5643                      .dwpsn  file "../FreeRTOS/Source/tasks_sysStk.c",line 3259,column 4,is_stmt
    5644 00125e 3C00          MOV #0, AC0 ; |3259| 
    5645 001260 EB61          MOV AC0, dbl(*AR3) ; |3259| 
         001262 08   
    5646                      .dwpsn  file "../FreeRTOS/Source/tasks_sysStk.c",line 3260,column 4,is_stmt
    5647 001263 E608          MOV #1, *SP(#4) ; |3260| 
         001265 01   
    5648              $C$L194:    
    5649                      .dwendtag $C$DW$418
    5650              
    5651                      .dwpsn  file "../FreeRTOS/Source/tasks_sysStk.c",line 3263,column 2,is_stmt
    5652 001266 A931          MOV *(#_usCriticalNesting), AR1 ; |3263| 
         001268 0000 
         00126a 00!  
    5653 00126b 0409          BCC $C$L195,AR1 == #0 ; |3263| 
         00126d 14   
    5654                                                      ; branchcc occurs ; |3263| 
    5655 00126e F731          SUB #1, *(#_usCriticalNesting) ; |3263| 
         001270 FFFF 
         001272 0000 
         001274 00!  
    5656 001275 20            NOP
    5657 001276 20            NOP
    5658 001277 20            NOP
    5659 001278 A931          MOV *(#_usCriticalNesting), AR1 ; |3263| 
         00127a 0000 
         00127c 00!  
    5660 00127d 6199          BCC $C$L195,AR1 != #0 ; |3263| 
    5661                                                      ; branchcc occurs ; |3263| 
    5662 00127f 20     nop
    5663 001280 46B2   bclr INTM
    5664 001282       $C$L195:    
    5665                      .dwpsn  file "../FreeRTOS/Source/tasks_sysStk.c",line 3265,column 2,is_stmt
TMS320C55x Assembler PC v4.4.1 Tue Oct 02 02:33:57 2018

Tools Copyright (c) 1996-2012 Texas Instruments Incorporated
tasks_sysStk.asm                                                     PAGE  126

    5666 001282 A408          MOV *SP(#4), T0 ; |3265| 
    5667                      .dwpsn  file "../FreeRTOS/Source/tasks_sysStk.c",line 3266,column 1,is_stmt
    5668 001284 4E0B          AADD #11, SP
    5669                      .dwcfi  cfa_offset, 1
    5670              $C$DW$422       .dwtag  DW_TAG_TI_branch
    5671                      .dwattr $C$DW$422, DW_AT_low_pc(0x00)
    5672                      .dwattr $C$DW$422, DW_AT_TI_return
    5673 001286 4804          RET
    5674                                                      ; return occurs
    5675              
    5676              $C$DW$423       .dwtag  DW_TAG_TI_loop
    5677                      .dwattr $C$DW$423, DW_AT_name("F:\eZdsp-DBG-sim\tmp1\c55x-sim2\foo\Debug\tasks_sysStk.asm:$C$L189:1:1
    5678                      .dwattr $C$DW$423, DW_AT_TI_begin_file("../FreeRTOS/Source/tasks_sysStk.c")
    5679                      .dwattr $C$DW$423, DW_AT_TI_begin_line(0xc8b)
    5680                      .dwattr $C$DW$423, DW_AT_TI_end_line(0xc8b)
    5681              $C$DW$424       .dwtag  DW_TAG_TI_loop_range
    5682                      .dwattr $C$DW$424, DW_AT_low_pc($C$DW$L$_xTaskCheckForTimeOut$6$B)
    5683                      .dwattr $C$DW$424, DW_AT_high_pc($C$DW$L$_xTaskCheckForTimeOut$6$E)
    5684                      .dwendtag $C$DW$423
    5685              
    5686              
    5687              $C$DW$425       .dwtag  DW_TAG_TI_loop
    5688                      .dwattr $C$DW$425, DW_AT_name("F:\eZdsp-DBG-sim\tmp1\c55x-sim2\foo\Debug\tasks_sysStk.asm:$C$L187:1:1
    5689                      .dwattr $C$DW$425, DW_AT_TI_begin_file("../FreeRTOS/Source/tasks_sysStk.c")
    5690                      .dwattr $C$DW$425, DW_AT_TI_begin_line(0xc8a)
    5691                      .dwattr $C$DW$425, DW_AT_TI_end_line(0xc8a)
    5692              $C$DW$426       .dwtag  DW_TAG_TI_loop_range
    5693                      .dwattr $C$DW$426, DW_AT_low_pc($C$DW$L$_xTaskCheckForTimeOut$3$B)
    5694                      .dwattr $C$DW$426, DW_AT_high_pc($C$DW$L$_xTaskCheckForTimeOut$3$E)
    5695                      .dwendtag $C$DW$425
    5696              
    5697                      .dwattr $C$DW$412, DW_AT_TI_end_file("../FreeRTOS/Source/tasks_sysStk.c")
    5698                      .dwattr $C$DW$412, DW_AT_TI_end_line(0xcc2)
    5699                      .dwattr $C$DW$412, DW_AT_TI_end_column(0x01)
    5700                      .dwendentry
    5701                      .dwendtag $C$DW$412
    5702              
    5703 001288               .sect   ".text"
    5704                      .align 4
    5705                      .global _vTaskMissedYield
    5706              
    5707              $C$DW$427       .dwtag  DW_TAG_subprogram, DW_AT_name("vTaskMissedYield")
    5708                      .dwattr $C$DW$427, DW_AT_low_pc(_vTaskMissedYield)
    5709                      .dwattr $C$DW$427, DW_AT_high_pc(0x00)
    5710                      .dwattr $C$DW$427, DW_AT_TI_symbol_name("_vTaskMissedYield")
    5711                      .dwattr $C$DW$427, DW_AT_external
    5712                      .dwattr $C$DW$427, DW_AT_TI_begin_file("../FreeRTOS/Source/tasks_sysStk.c")
    5713                      .dwattr $C$DW$427, DW_AT_TI_begin_line(0xcc5)
    5714                      .dwattr $C$DW$427, DW_AT_TI_begin_column(0x06)
    5715                      .dwattr $C$DW$427, DW_AT_TI_max_frame_size(0x01)
    5716                      .dwpsn  file "../FreeRTOS/Source/tasks_sysStk.c",line 3270,column 1,is_stmt,address _vTaskMissedYield
    5717              
    5718                      .dwfde $C$DW$CIE, _vTaskMissedYield
    5719              ;*******************************************************************************
    5720              ;* FUNCTION NAME: vTaskMissedYield                                             *
TMS320C55x Assembler PC v4.4.1 Tue Oct 02 02:33:57 2018

Tools Copyright (c) 1996-2012 Texas Instruments Incorporated
tasks_sysStk.asm                                                     PAGE  127

    5721              ;*                                                                             *
    5722              ;*   Function Uses Regs : SP,M40,SATA,SATD,RDM,FRCT,SMUL                       *
    5723              ;*   Stack Frame        : Compact (No Frame Pointer, w/ debug)                 *
    5724              ;*   Total Frame Size   : 1 word                                               *
    5725              ;*                        (1 return address/alignment)                         *
    5726              ;*   Min System Stack   : 1 word                                               *
    5727              ;*******************************************************************************
    5728 001288       _vTaskMissedYield:
    5729                      .dwcfi  cfa_offset, 1
    5730                      .dwcfi  save_reg_to_mem, 91, -1
    5731                      .dwpsn  file "../FreeRTOS/Source/tasks_sysStk.c",line 3271,column 2,is_stmt
    5732 001288 E631          MOV #1, *(#_xYieldPending) ; |3271| 
         00128a 0100 
         00128c 0075-
    5733                      .dwpsn  file "../FreeRTOS/Source/tasks_sysStk.c",line 3272,column 1,is_stmt
    5734              $C$DW$428       .dwtag  DW_TAG_TI_branch
    5735                      .dwattr $C$DW$428, DW_AT_low_pc(0x00)
    5736                      .dwattr $C$DW$428, DW_AT_TI_return
    5737 00128e 4804          RET
    5738                                                      ; return occurs
    5739                      .dwattr $C$DW$427, DW_AT_TI_end_file("../FreeRTOS/Source/tasks_sysStk.c")
    5740                      .dwattr $C$DW$427, DW_AT_TI_end_line(0xcc8)
    5741                      .dwattr $C$DW$427, DW_AT_TI_end_column(0x01)
    5742                      .dwendentry
    5743                      .dwendtag $C$DW$427
    5744              
    5745 001290               .sect   ".text"
    5746                      .align 4
    5747              
    5748              $C$DW$429       .dwtag  DW_TAG_subprogram, DW_AT_name("prvIdleTask")
    5749                      .dwattr $C$DW$429, DW_AT_low_pc(_prvIdleTask)
    5750                      .dwattr $C$DW$429, DW_AT_high_pc(0x00)
    5751                      .dwattr $C$DW$429, DW_AT_TI_symbol_name("_prvIdleTask")
    5752                      .dwattr $C$DW$429, DW_AT_TI_begin_file("../FreeRTOS/Source/tasks_sysStk.c")
    5753                      .dwattr $C$DW$429, DW_AT_TI_begin_line(0xcfc)
    5754                      .dwattr $C$DW$429, DW_AT_TI_begin_column(0x08)
    5755                      .dwattr $C$DW$429, DW_AT_TI_max_frame_size(0x04)
    5756                      .dwpsn  file "../FreeRTOS/Source/tasks_sysStk.c",line 3325,column 1,is_stmt,address _prvIdleTask
    5757              
    5758                      .dwfde $C$DW$CIE, _prvIdleTask
    5759              $C$DW$430       .dwtag  DW_TAG_formal_parameter, DW_AT_name("pvParameters")
    5760                      .dwattr $C$DW$430, DW_AT_TI_symbol_name("_pvParameters")
    5761                      .dwattr $C$DW$430, DW_AT_type(*$C$DW$T$3)
    5762                      .dwattr $C$DW$430, DW_AT_location[DW_OP_reg17]
    5763              ;*******************************************************************************
    5764              ;* FUNCTION NAME: prvIdleTask                                                  *
    5765              ;*                                                                             *
    5766              ;*   Function Uses Regs : T2,AR0,XAR0,AR1,SP,TC1,M40,SATA,SATD,RDM,FRCT,SMUL   *
    5767              ;*   Save On Entry Regs : T2                                                   *
    5768              ;*   Stack Frame        : Compact (No Frame Pointer, w/ debug)                 *
    5769              ;*   Total Frame Size   : 4 words                                              *
    5770              ;*                        (1 return address/alignment)                         *
    5771              ;*                        (2 local values)                                     *
    5772              ;*                        (1 register save area)                               *
    5773              ;*   Min System Stack   : 1 word                                               *
TMS320C55x Assembler PC v4.4.1 Tue Oct 02 02:33:57 2018

Tools Copyright (c) 1996-2012 Texas Instruments Incorporated
tasks_sysStk.asm                                                     PAGE  128

    5774              ;*******************************************************************************
    5775 001290       _prvIdleTask:
    5776                      .dwcfi  cfa_offset, 1
    5777                      .dwcfi  save_reg_to_mem, 91, -1
    5778 001290 5066          PSH T2
    5779                      .dwcfi  cfa_offset, 2
    5780                      .dwcfi  save_reg_to_mem, 14, -2
    5781 001292 4EFE          AADD #-2, SP
    5782                      .dwcfi  cfa_offset, 4
    5783              $C$DW$431       .dwtag  DW_TAG_variable, DW_AT_name("pvParameters")
    5784                      .dwattr $C$DW$431, DW_AT_TI_symbol_name("_pvParameters")
    5785                      .dwattr $C$DW$431, DW_AT_type(*$C$DW$T$3)
    5786                      .dwattr $C$DW$431, DW_AT_location[DW_OP_bregx 0x24 0]
    5787              
    5788 001294 EB00          MOV XAR0, dbl(*SP(#0))
         001296 85   
    5789 001297 3D16  ||      MOV #1, T2
    5790              
    5791                      .dwpsn  file "../FreeRTOS/Source/tasks_sysStk.c",line 3327,column 2,is_stmt
    5792 001299       $C$L196:    
    5793 001299       $C$DW$L$_prvIdleTask$2$B:
    5794                      .dwpsn  file "../FreeRTOS/Source/tasks_sysStk.c",line 3344,column 3,is_stmt
    5795              $C$DW$432       .dwtag  DW_TAG_TI_branch
    5796                      .dwattr $C$DW$432, DW_AT_low_pc(0x00)
    5797                      .dwattr $C$DW$432, DW_AT_name("_prvCheckTasksWaitingTermination")
    5798                      .dwattr $C$DW$432, DW_AT_TI_call
    5799 001299 0800          CALL #_prvCheckTasksWaitingTermination ; |3344| 
         00129b 98   
    5800                                                      ; call occurs [#_prvCheckTasksWaitingTermination] ; |3344| 
    5801                      .dwpsn  file "../FreeRTOS/Source/tasks_sysStk.c",line 3367,column 4,is_stmt
    5802 00129c A931          MOV *(#_pxReadyTasksLists), AR1 ; |3367| 
         00129e 0000 
         0012a0 06-  
    5803 0012a1 1268          CMPU AR1 <= T2, TC1 ; |3367| 
         0012a3 94   
    5804 0012a4 6264          BCC $C$L197,TC1 ; |3367| 
    5805                                                      ; branchcc occurs ; |3367| 
    5806 0012a6       $C$DW$L$_prvIdleTask$2$E:
    5807 0012a6       $C$DW$L$_prvIdleTask$3$B:
    5808                      .dwpsn  file "../FreeRTOS/Source/tasks_sysStk.c",line 3369,column 5,is_stmt
    5809              $C$DW$433       .dwtag  DW_TAG_TI_branch
    5810                      .dwattr $C$DW$433, DW_AT_low_pc(0x00)
    5811                      .dwattr $C$DW$433, DW_AT_name("_vPortYield")
    5812                      .dwattr $C$DW$433, DW_AT_TI_call
    5813 0012a6 6C00          CALL #_vPortYield ; |3369| 
         0012a8 0000!
    5814                                                      ; call occurs [#_vPortYield] ; |3369| 
    5815                      .dwpsn  file "../FreeRTOS/Source/tasks_sysStk.c",line 3370,column 4,is_stmt
    5816 0012aa       $C$DW$L$_prvIdleTask$3$E:
    5817 0012aa       $C$L197:    
    5818 0012aa       $C$DW$L$_prvIdleTask$4$B:
    5819                      .dwpsn  file "../FreeRTOS/Source/tasks_sysStk.c",line 3387,column 4,is_stmt
    5820              $C$DW$434       .dwtag  DW_TAG_TI_branch
    5821                      .dwattr $C$DW$434, DW_AT_low_pc(0x00)
    5822                      .dwattr $C$DW$434, DW_AT_name("_vApplicationIdleHook")
TMS320C55x Assembler PC v4.4.1 Tue Oct 02 02:33:57 2018

Tools Copyright (c) 1996-2012 Texas Instruments Incorporated
tasks_sysStk.asm                                                     PAGE  129

    5823                      .dwattr $C$DW$434, DW_AT_TI_call
    5824 0012aa 6C00          CALL #_vApplicationIdleHook ; |3387| 
         0012ac 0000!
    5825                                                      ; call occurs [#_vApplicationIdleHook] ; |3387| 
    5826                      .dwpsn  file "../FreeRTOS/Source/tasks_sysStk.c",line 3440,column 2,is_stmt
    5827 0012ae 4A69          B $C$L196 ; |3440| 
    5828                                                      ; branch occurs ; |3440| 
    5829 0012b0       $C$DW$L$_prvIdleTask$4$E:
    5830                      .dwcfi  cfa_offset, 2
    5831                      .dwcfi  restore_reg, 14
    5832                      .dwcfi  cfa_offset, 1
    5833              
    5834              $C$DW$435       .dwtag  DW_TAG_TI_loop
    5835                      .dwattr $C$DW$435, DW_AT_name("F:\eZdsp-DBG-sim\tmp1\c55x-sim2\foo\Debug\tasks_sysStk.asm:$C$L196:1:1
    5836                      .dwattr $C$DW$435, DW_AT_TI_begin_file("../FreeRTOS/Source/tasks_sysStk.c")
    5837                      .dwattr $C$DW$435, DW_AT_TI_begin_line(0xd09)
    5838                      .dwattr $C$DW$435, DW_AT_TI_end_line(0xd70)
    5839              $C$DW$436       .dwtag  DW_TAG_TI_loop_range
    5840                      .dwattr $C$DW$436, DW_AT_low_pc($C$DW$L$_prvIdleTask$2$B)
    5841                      .dwattr $C$DW$436, DW_AT_high_pc($C$DW$L$_prvIdleTask$2$E)
    5842              $C$DW$437       .dwtag  DW_TAG_TI_loop_range
    5843                      .dwattr $C$DW$437, DW_AT_low_pc($C$DW$L$_prvIdleTask$3$B)
    5844                      .dwattr $C$DW$437, DW_AT_high_pc($C$DW$L$_prvIdleTask$3$E)
    5845              $C$DW$438       .dwtag  DW_TAG_TI_loop_range
    5846                      .dwattr $C$DW$438, DW_AT_low_pc($C$DW$L$_prvIdleTask$4$B)
    5847                      .dwattr $C$DW$438, DW_AT_high_pc($C$DW$L$_prvIdleTask$4$E)
    5848                      .dwendtag $C$DW$435
    5849              
    5850                      .dwattr $C$DW$429, DW_AT_TI_end_file("../FreeRTOS/Source/tasks_sysStk.c")
    5851                      .dwattr $C$DW$429, DW_AT_TI_end_line(0xd71)
    5852                      .dwattr $C$DW$429, DW_AT_TI_end_column(0x01)
    5853                      .dwendentry
    5854                      .dwendtag $C$DW$429
    5855              
    5856 0012b0               .sect   ".text"
    5857                      .align 4
    5858              
    5859              $C$DW$439       .dwtag  DW_TAG_subprogram, DW_AT_name("prvInitialiseTaskLists")
    5860                      .dwattr $C$DW$439, DW_AT_low_pc(_prvInitialiseTaskLists)
    5861                      .dwattr $C$DW$439, DW_AT_high_pc(0x00)
    5862                      .dwattr $C$DW$439, DW_AT_TI_symbol_name("_prvInitialiseTaskLists")
    5863                      .dwattr $C$DW$439, DW_AT_TI_begin_file("../FreeRTOS/Source/tasks_sysStk.c")
    5864                      .dwattr $C$DW$439, DW_AT_TI_begin_line(0xdd3)
    5865                      .dwattr $C$DW$439, DW_AT_TI_begin_column(0x0d)
    5866                      .dwattr $C$DW$439, DW_AT_TI_max_frame_size(0x02)
    5867                      .dwpsn  file "../FreeRTOS/Source/tasks_sysStk.c",line 3540,column 1,is_stmt,address _prvInitialiseTas
    5868              
    5869                      .dwfde $C$DW$CIE, _prvInitialiseTaskLists
    5870              ;*******************************************************************************
    5871              ;* FUNCTION NAME: prvInitialiseTaskLists                                       *
    5872              ;*                                                                             *
    5873              ;*   Function Uses Regs : AC0,AC0,AC1,AC1,AR0,XAR0,AR1,AR2,AR3,XAR3,SP,CARRY,  *
    5874              ;*                        TC1,M40,SATA,SATD,RDM,FRCT,SMUL                      *
    5875              ;*   Stack Frame        : Compact (No Frame Pointer, w/ debug)                 *
    5876              ;*   Total Frame Size   : 2 words                                              *
TMS320C55x Assembler PC v4.4.1 Tue Oct 02 02:33:57 2018

Tools Copyright (c) 1996-2012 Texas Instruments Incorporated
tasks_sysStk.asm                                                     PAGE  130

    5877              ;*                        (1 return address/alignment)                         *
    5878              ;*                        (1 local values)                                     *
    5879              ;*   Min System Stack   : 1 word                                               *
    5880              ;*******************************************************************************
    5881 0012b0       _prvInitialiseTaskLists:
    5882                      .dwcfi  cfa_offset, 1
    5883                      .dwcfi  save_reg_to_mem, 91, -1
    5884 0012b0 4EFF          AADD #-1, SP
    5885                      .dwcfi  cfa_offset, 2
    5886              $C$DW$440       .dwtag  DW_TAG_variable, DW_AT_name("uxPriority")
    5887                      .dwattr $C$DW$440, DW_AT_TI_symbol_name("_uxPriority")
    5888                      .dwattr $C$DW$440, DW_AT_type(*$C$DW$T$25)
    5889                      .dwattr $C$DW$440, DW_AT_location[DW_OP_bregx 0x24 0]
    5890                      .dwpsn  file "../FreeRTOS/Source/tasks_sysStk.c",line 3543,column 7,is_stmt
    5891 0012b2 E600          MOV #0, *SP(#0) ; |3543| 
         0012b4 00   
    5892                      .dwpsn  file "../FreeRTOS/Source/tasks_sysStk.c",line 3543,column 40,is_stmt
    5893              
    5894 0012b5 A900          MOV *SP(#0), AR1 ; |3543| 
    5895 0012b7 3D5A  ||      MOV #5, AR2
    5896              
    5897 0012b9 1298          CMPU AR1 >= AR2, TC1 ; |3543| 
         0012bb A4   
    5898 0012bc 0464          BCC $C$L199,TC1 ; |3543| 
         0012be 26   
    5899                                                      ; branchcc occurs ; |3543| 
    5900 0012bf       $C$L198:    
    5901 0012bf       $C$DW$L$_prvInitialiseTaskLists$2$B:
    5902                      .dwpsn  file "../FreeRTOS/Source/tasks_sysStk.c",line 3545,column 3,is_stmt
    5903 0012bf DF00          MOV uns(*SP(#0)), AC1 ; |3545| 
         0012c1 15   
    5904 0012c2 1015          SFTS AC1, #1, AC0 ; |3545| 
         0012c4 01   
    5905 0012c5 1013          ADD AC1 << #3, AC0 ; |3545| 
         0012c7 03   
    5906 0012c8 900B          MOV AC0, XAR3
    5907 0012ca EC31          AMOV #_pxReadyTasksLists, XAR0 ; |3545| 
         0012cc 8E00 
         0012ce 0006-
    5908 0012d0 14B1          AADD XAR3, XAR0 ; |3545| 
         0012d2 80   
    5909              $C$DW$441       .dwtag  DW_TAG_TI_branch
    5910                      .dwattr $C$DW$441, DW_AT_low_pc(0x00)
    5911                      .dwattr $C$DW$441, DW_AT_name("_vListInitialise")
    5912                      .dwattr $C$DW$441, DW_AT_TI_call
    5913 0012d3 6C00          CALL #_vListInitialise ; |3545| 
         0012d5 0000!
    5914                                                      ; call occurs [#_vListInitialise] ; |3545| 
    5915                      .dwpsn  file "../FreeRTOS/Source/tasks_sysStk.c",line 3543,column 91,is_stmt
    5916 0012d7 F700          ADD #1, *SP(#0) ; |3543| 
         0012d9 0001 
    5917                      .dwpsn  file "../FreeRTOS/Source/tasks_sysStk.c",line 3543,column 40,is_stmt
    5918              
    5919 0012db A900          MOV *SP(#0), AR1 ; |3543| 
    5920 0012dd 3D5A  ||      MOV #5, AR2
TMS320C55x Assembler PC v4.4.1 Tue Oct 02 02:33:57 2018

Tools Copyright (c) 1996-2012 Texas Instruments Incorporated
tasks_sysStk.asm                                                     PAGE  131

    5921              
    5922 0012df 1294          CMPU AR1 < AR2, TC1 ; |3543| 
         0012e1 A4   
    5923 0012e2 0464          BCC $C$L198,TC1 ; |3543| 
         0012e4 DA   
    5924                                                      ; branchcc occurs ; |3543| 
    5925 0012e5       $C$DW$L$_prvInitialiseTaskLists$2$E:
    5926 0012e5       $C$L199:    
    5927                      .dwpsn  file "../FreeRTOS/Source/tasks_sysStk.c",line 3548,column 2,is_stmt
    5928 0012e5 EC31          AMOV #_xDelayedTaskList1, XAR0 ; |3548| 
         0012e7 8E00 
         0012e9 0038-
    5929              $C$DW$442       .dwtag  DW_TAG_TI_branch
    5930                      .dwattr $C$DW$442, DW_AT_low_pc(0x00)
    5931                      .dwattr $C$DW$442, DW_AT_name("_vListInitialise")
    5932                      .dwattr $C$DW$442, DW_AT_TI_call
    5933 0012eb 6C00          CALL #_vListInitialise ; |3548| 
         0012ed 0000!
    5934                                                      ; call occurs [#_vListInitialise] ; |3548| 
    5935                      .dwpsn  file "../FreeRTOS/Source/tasks_sysStk.c",line 3549,column 2,is_stmt
    5936 0012ef EC31          AMOV #_xDelayedTaskList2, XAR0 ; |3549| 
         0012f1 8E00 
         0012f3 0042-
    5937              $C$DW$443       .dwtag  DW_TAG_TI_branch
    5938                      .dwattr $C$DW$443, DW_AT_low_pc(0x00)
    5939                      .dwattr $C$DW$443, DW_AT_name("_vListInitialise")
    5940                      .dwattr $C$DW$443, DW_AT_TI_call
    5941 0012f5 6C00          CALL #_vListInitialise ; |3549| 
         0012f7 0000!
    5942                                                      ; call occurs [#_vListInitialise] ; |3549| 
    5943                      .dwpsn  file "../FreeRTOS/Source/tasks_sysStk.c",line 3550,column 2,is_stmt
    5944 0012f9 EC31          AMOV #_xPendingReadyList, XAR0 ; |3550| 
         0012fb 8E00 
         0012fd 0050-
    5945              $C$DW$444       .dwtag  DW_TAG_TI_branch
    5946                      .dwattr $C$DW$444, DW_AT_low_pc(0x00)
    5947                      .dwattr $C$DW$444, DW_AT_name("_vListInitialise")
    5948                      .dwattr $C$DW$444, DW_AT_TI_call
    5949 0012ff 6C00          CALL #_vListInitialise ; |3550| 
         001301 0000!
    5950                                                      ; call occurs [#_vListInitialise] ; |3550| 
    5951                      .dwpsn  file "../FreeRTOS/Source/tasks_sysStk.c",line 3554,column 3,is_stmt
    5952 001303 EC31          AMOV #_xTasksWaitingTermination, XAR0 ; |3554| 
         001305 8E00 
         001307 005A-
    5953              $C$DW$445       .dwtag  DW_TAG_TI_branch
    5954                      .dwattr $C$DW$445, DW_AT_low_pc(0x00)
    5955                      .dwattr $C$DW$445, DW_AT_name("_vListInitialise")
    5956                      .dwattr $C$DW$445, DW_AT_TI_call
    5957 001309 6C00          CALL #_vListInitialise ; |3554| 
         00130b 0000!
    5958                                                      ; call occurs [#_vListInitialise] ; |3554| 
    5959                      .dwpsn  file "../FreeRTOS/Source/tasks_sysStk.c",line 3560,column 3,is_stmt
    5960 00130d EC31          AMOV #_xSuspendedTaskList, XAR0 ; |3560| 
         00130f 8E00 
TMS320C55x Assembler PC v4.4.1 Tue Oct 02 02:33:57 2018

Tools Copyright (c) 1996-2012 Texas Instruments Incorporated
tasks_sysStk.asm                                                     PAGE  132

         001311 0066-
    5961              $C$DW$446       .dwtag  DW_TAG_TI_branch
    5962                      .dwattr $C$DW$446, DW_AT_low_pc(0x00)
    5963                      .dwattr $C$DW$446, DW_AT_name("_vListInitialise")
    5964                      .dwattr $C$DW$446, DW_AT_TI_call
    5965 001313 6C00          CALL #_vListInitialise ; |3560| 
         001315 0000!
    5966                                                      ; call occurs [#_vListInitialise] ; |3560| 
    5967                      .dwpsn  file "../FreeRTOS/Source/tasks_sysStk.c",line 3566,column 2,is_stmt
    5968 001317 EC31          AMOV #_xDelayedTaskList1, XAR3 ; |3566| 
         001319 BE00 
         00131b 0038-
    5969 00131d EB31          MOV XAR3, dbl(*(#_pxDelayedTaskList))
         00131f B500 
         001321 004C-
    5970                      .dwpsn  file "../FreeRTOS/Source/tasks_sysStk.c",line 3567,column 2,is_stmt
    5971 001323 EC31          AMOV #_xDelayedTaskList2, XAR3 ; |3567| 
         001325 BE00 
         001327 0042-
    5972 001329 EB31          MOV XAR3, dbl(*(#_pxOverflowDelayedTaskList))
         00132b B500 
         00132d 004E-
    5973                      .dwpsn  file "../FreeRTOS/Source/tasks_sysStk.c",line 3568,column 1,is_stmt
    5974 00132f 4E01          AADD #1, SP
    5975                      .dwcfi  cfa_offset, 1
    5976              $C$DW$447       .dwtag  DW_TAG_TI_branch
    5977                      .dwattr $C$DW$447, DW_AT_low_pc(0x00)
    5978                      .dwattr $C$DW$447, DW_AT_TI_return
    5979 001331 4804          RET
    5980                                                      ; return occurs
    5981              
    5982              $C$DW$448       .dwtag  DW_TAG_TI_loop
    5983                      .dwattr $C$DW$448, DW_AT_name("F:\eZdsp-DBG-sim\tmp1\c55x-sim2\foo\Debug\tasks_sysStk.asm:$C$L198:1:1
    5984                      .dwattr $C$DW$448, DW_AT_TI_begin_file("../FreeRTOS/Source/tasks_sysStk.c")
    5985                      .dwattr $C$DW$448, DW_AT_TI_begin_line(0xdd7)
    5986                      .dwattr $C$DW$448, DW_AT_TI_end_line(0xdda)
    5987              $C$DW$449       .dwtag  DW_TAG_TI_loop_range
    5988                      .dwattr $C$DW$449, DW_AT_low_pc($C$DW$L$_prvInitialiseTaskLists$2$B)
    5989                      .dwattr $C$DW$449, DW_AT_high_pc($C$DW$L$_prvInitialiseTaskLists$2$E)
    5990                      .dwendtag $C$DW$448
    5991              
    5992                      .dwattr $C$DW$439, DW_AT_TI_end_file("../FreeRTOS/Source/tasks_sysStk.c")
    5993                      .dwattr $C$DW$439, DW_AT_TI_end_line(0xdf0)
    5994                      .dwattr $C$DW$439, DW_AT_TI_end_column(0x01)
    5995                      .dwendentry
    5996                      .dwendtag $C$DW$439
    5997              
    5998 001333               .sect   ".text"
    5999                      .align 4
    6000              
    6001              $C$DW$450       .dwtag  DW_TAG_subprogram, DW_AT_name("prvCheckTasksWaitingTermination")
    6002                      .dwattr $C$DW$450, DW_AT_low_pc(_prvCheckTasksWaitingTermination)
    6003                      .dwattr $C$DW$450, DW_AT_high_pc(0x00)
    6004                      .dwattr $C$DW$450, DW_AT_TI_symbol_name("_prvCheckTasksWaitingTermination")
    6005                      .dwattr $C$DW$450, DW_AT_TI_begin_file("../FreeRTOS/Source/tasks_sysStk.c")
TMS320C55x Assembler PC v4.4.1 Tue Oct 02 02:33:57 2018

Tools Copyright (c) 1996-2012 Texas Instruments Incorporated
tasks_sysStk.asm                                                     PAGE  133

    6006                      .dwattr $C$DW$450, DW_AT_TI_begin_line(0xdf3)
    6007                      .dwattr $C$DW$450, DW_AT_TI_begin_column(0x0d)
    6008                      .dwattr $C$DW$450, DW_AT_TI_max_frame_size(0x04)
    6009                      .dwpsn  file "../FreeRTOS/Source/tasks_sysStk.c",line 3572,column 1,is_stmt,address _prvCheckTasksWai
    6010              
    6011                      .dwfde $C$DW$CIE, _prvCheckTasksWaitingTermination
    6012              ;*******************************************************************************
    6013              ;* FUNCTION NAME: prvCheckTasksWaitingTermination                              *
    6014              ;*                                                                             *
    6015              ;*   Function Uses Regs : AR0,XAR0,AR1,AR3,XAR3,SP,CARRY,M40,SATA,SATD,RDM,    *
    6016              ;*                        FRCT,SMUL                                            *
    6017              ;*   Stack Frame        : Compact (No Frame Pointer, w/ debug)                 *
    6018              ;*   Total Frame Size   : 4 words                                              *
    6019              ;*                        (2 return address/alignment)                         *
    6020              ;*                        (2 local values)                                     *
    6021              ;*   Min System Stack   : 1 word                                               *
    6022              ;*******************************************************************************
    6023 001334       _prvCheckTasksWaitingTermination:
    6024                      .dwcfi  cfa_offset, 1
    6025                      .dwcfi  save_reg_to_mem, 91, -1
    6026 001334 4EFD          AADD #-3, SP
    6027                      .dwcfi  cfa_offset, 4
    6028              
    6029              $C$DW$451       .dwtag  DW_TAG_lexical_block, DW_AT_low_pc(0x00), DW_AT_high_pc(0x00)
    6030              $C$DW$452       .dwtag  DW_TAG_variable, DW_AT_name("pxTCB")
    6031                      .dwattr $C$DW$452, DW_AT_TI_symbol_name("_pxTCB")
    6032                      .dwattr $C$DW$452, DW_AT_type(*$C$DW$T$83)
    6033                      .dwattr $C$DW$452, DW_AT_location[DW_OP_bregx 0x24 0]
    6034                      .dwpsn  file "../FreeRTOS/Source/tasks_sysStk.c",line 3582,column 10,is_stmt
    6035 001336 A931          MOV *(#_uxDeletedTasksWaitingCleanUp), AR1 ; |3582| 
         001338 0000 
         00133a 64-  
    6036 00133b 0409          BCC $C$L202,AR1 == #0 ; |3582| 
         00133d 5B   
    6037                                                      ; branchcc occurs ; |3582| 
    6038 00133e       $C$L200:    
    6039 00133e       $C$DW$L$_prvCheckTasksWaitingTermination$2$B:
    6040                      .dwpsn  file "../FreeRTOS/Source/tasks_sysStk.c",line 3584,column 4,is_stmt
    6041 00133e 20     nop
    6042 00133f 46B3   bset INTM
    6043 001341 F731          ADD #1, *(#_usCriticalNesting) ; |3584| 
         001343 0001 
         001345 0000 
         001347 00!  
    6044                      .dwpsn  file "../FreeRTOS/Source/tasks_sysStk.c",line 3586,column 5,is_stmt
    6045 001348 ED31          MOV dbl(*(#(_xTasksWaitingTermination+6))), XAR3
         00134a BF00 
         00134c 0060-
    6046 00134e ED7D          MOV dbl(*AR3(short(#6))), XAR3
         001350 BF   
    6047 001351 EB00          MOV XAR3, dbl(*SP(#0))
         001353 B5   
    6048                      .dwpsn  file "../FreeRTOS/Source/tasks_sysStk.c",line 3587,column 5,is_stmt
    6049 001354 ED00          MOV dbl(*SP(#0)), XAR0
         001356 8F   
TMS320C55x Assembler PC v4.4.1 Tue Oct 02 02:33:57 2018

Tools Copyright (c) 1996-2012 Texas Instruments Incorporated
tasks_sysStk.asm                                                     PAGE  134

    6050 001357 1404          AADD #4, AR0 ; |3587| 
         001359 84   
    6051              $C$DW$453       .dwtag  DW_TAG_TI_branch
    6052                      .dwattr $C$DW$453, DW_AT_low_pc(0x00)
    6053                      .dwattr $C$DW$453, DW_AT_name("_uxListRemove")
    6054                      .dwattr $C$DW$453, DW_AT_TI_call
    6055 00135a 6C00          CALL #_uxListRemove ; |3587| 
         00135c 0000!
    6056                                                      ; call occurs [#_uxListRemove] ; |3587| 
    6057                      .dwpsn  file "../FreeRTOS/Source/tasks_sysStk.c",line 3588,column 5,is_stmt
    6058 00135e F731          SUB #1, *(#_uxCurrentNumberOfTasks) ; |3588| 
         001360 FFFF 
         001362 0000 
         001364 65-  
    6059                      .dwpsn  file "../FreeRTOS/Source/tasks_sysStk.c",line 3589,column 5,is_stmt
    6060 001365 F731          SUB #1, *(#_uxDeletedTasksWaitingCleanUp) ; |3589| 
         001367 FFFF 
         001369 0000 
         00136b 64-  
    6061 00136c 20            NOP
    6062 00136d 20            NOP
    6063 00136e 20            NOP
    6064                      .dwpsn  file "../FreeRTOS/Source/tasks_sysStk.c",line 3591,column 4,is_stmt
    6065 00136f A931          MOV *(#_usCriticalNesting), AR1 ; |3591| 
         001371 0000 
         001373 00!  
    6066 001374 0409          BCC $C$L201,AR1 == #0 ; |3591| 
         001376 14   
    6067                                                      ; branchcc occurs ; |3591| 
    6068 001377       $C$DW$L$_prvCheckTasksWaitingTermination$2$E:
    6069 001377       $C$DW$L$_prvCheckTasksWaitingTermination$3$B:
    6070 001377 F731          SUB #1, *(#_usCriticalNesting) ; |3591| 
         001379 FFFF 
         00137b 0000 
         00137d 00!  
    6071 00137e 20            NOP
    6072 00137f 20            NOP
    6073 001380 20            NOP
    6074 001381 A931          MOV *(#_usCriticalNesting), AR1 ; |3591| 
         001383 0000 
         001385 00!  
    6075 001386 6199          BCC $C$L201,AR1 != #0 ; |3591| 
    6076                                                      ; branchcc occurs ; |3591| 
    6077 001388       $C$DW$L$_prvCheckTasksWaitingTermination$3$E:
    6078 001388       $C$DW$L$_prvCheckTasksWaitingTermination$4$B:
    6079 001388 20     nop
    6080 001389 46B2   bclr INTM
    6081 00138b       $C$DW$L$_prvCheckTasksWaitingTermination$4$E:
    6082 00138b       $C$L201:    
    6083 00138b       $C$DW$L$_prvCheckTasksWaitingTermination$5$B:
    6084                      .dwpsn  file "../FreeRTOS/Source/tasks_sysStk.c",line 3593,column 4,is_stmt
    6085 00138b ED00          MOV dbl(*SP(#0)), XAR0
         00138d 8F   
    6086              $C$DW$454       .dwtag  DW_TAG_TI_branch
    6087                      .dwattr $C$DW$454, DW_AT_low_pc(0x00)
TMS320C55x Assembler PC v4.4.1 Tue Oct 02 02:33:57 2018

Tools Copyright (c) 1996-2012 Texas Instruments Incorporated
tasks_sysStk.asm                                                     PAGE  135

    6088                      .dwattr $C$DW$454, DW_AT_name("_prvDeleteTCB")
    6089                      .dwattr $C$DW$454, DW_AT_TI_call
    6090 00138e 0800          CALL #_prvDeleteTCB ; |3593| 
         001390 7B   
    6091                                                      ; call occurs [#_prvDeleteTCB] ; |3593| 
    6092                      .dwpsn  file "../FreeRTOS/Source/tasks_sysStk.c",line 3582,column 10,is_stmt
    6093 001391 A931          MOV *(#_uxDeletedTasksWaitingCleanUp), AR1 ; |3582| 
         001393 0000 
         001395 64-  
    6094 001396 0419          BCC $C$L200,AR1 != #0 ; |3582| 
         001398 A5   
    6095                                                      ; branchcc occurs ; |3582| 
    6096              $C$DW$L$_prvCheckTasksWaitingTermination$5$E:
    6097                      .dwendtag $C$DW$451
    6098              
    6099                      .dwpsn  file "../FreeRTOS/Source/tasks_sysStk.c",line 3597,column 1,is_stmt
    6100 001399       $C$L202:    
    6101 001399 4E03          AADD #3, SP
    6102                      .dwcfi  cfa_offset, 1
    6103              $C$DW$455       .dwtag  DW_TAG_TI_branch
    6104                      .dwattr $C$DW$455, DW_AT_low_pc(0x00)
    6105                      .dwattr $C$DW$455, DW_AT_TI_return
    6106 00139b 4804          RET
    6107                                                      ; return occurs
    6108              
    6109              $C$DW$456       .dwtag  DW_TAG_TI_loop
    6110                      .dwattr $C$DW$456, DW_AT_name("F:\eZdsp-DBG-sim\tmp1\c55x-sim2\foo\Debug\tasks_sysStk.asm:$C$L200:1:1
    6111                      .dwattr $C$DW$456, DW_AT_TI_begin_file("../FreeRTOS/Source/tasks_sysStk.c")
    6112                      .dwattr $C$DW$456, DW_AT_TI_begin_line(0xdfe)
    6113                      .dwattr $C$DW$456, DW_AT_TI_end_line(0xe0a)
    6114              $C$DW$457       .dwtag  DW_TAG_TI_loop_range
    6115                      .dwattr $C$DW$457, DW_AT_low_pc($C$DW$L$_prvCheckTasksWaitingTermination$2$B)
    6116                      .dwattr $C$DW$457, DW_AT_high_pc($C$DW$L$_prvCheckTasksWaitingTermination$2$E)
    6117              $C$DW$458       .dwtag  DW_TAG_TI_loop_range
    6118                      .dwattr $C$DW$458, DW_AT_low_pc($C$DW$L$_prvCheckTasksWaitingTermination$3$B)
    6119                      .dwattr $C$DW$458, DW_AT_high_pc($C$DW$L$_prvCheckTasksWaitingTermination$3$E)
    6120              $C$DW$459       .dwtag  DW_TAG_TI_loop_range
    6121                      .dwattr $C$DW$459, DW_AT_low_pc($C$DW$L$_prvCheckTasksWaitingTermination$4$B)
    6122                      .dwattr $C$DW$459, DW_AT_high_pc($C$DW$L$_prvCheckTasksWaitingTermination$4$E)
    6123              $C$DW$460       .dwtag  DW_TAG_TI_loop_range
    6124                      .dwattr $C$DW$460, DW_AT_low_pc($C$DW$L$_prvCheckTasksWaitingTermination$5$B)
    6125                      .dwattr $C$DW$460, DW_AT_high_pc($C$DW$L$_prvCheckTasksWaitingTermination$5$E)
    6126                      .dwendtag $C$DW$456
    6127              
    6128                      .dwattr $C$DW$450, DW_AT_TI_end_file("../FreeRTOS/Source/tasks_sysStk.c")
    6129                      .dwattr $C$DW$450, DW_AT_TI_end_line(0xe0d)
    6130                      .dwattr $C$DW$450, DW_AT_TI_end_column(0x01)
    6131                      .dwendentry
    6132                      .dwendtag $C$DW$450
    6133              
    6134 00139d               .sect   ".text"
    6135                      .align 4
    6136              
    6137              $C$DW$461       .dwtag  DW_TAG_subprogram, DW_AT_name("prvTaskCheckFreeStackSpace")
    6138                      .dwattr $C$DW$461, DW_AT_low_pc(_prvTaskCheckFreeStackSpace)
TMS320C55x Assembler PC v4.4.1 Tue Oct 02 02:33:57 2018

Tools Copyright (c) 1996-2012 Texas Instruments Incorporated
tasks_sysStk.asm                                                     PAGE  136

    6139                      .dwattr $C$DW$461, DW_AT_high_pc(0x00)
    6140                      .dwattr $C$DW$461, DW_AT_TI_symbol_name("_prvTaskCheckFreeStackSpace")
    6141                      .dwattr $C$DW$461, DW_AT_type(*$C$DW$T$121)
    6142                      .dwattr $C$DW$461, DW_AT_TI_begin_file("../FreeRTOS/Source/tasks_sysStk.c")
    6143                      .dwattr $C$DW$461, DW_AT_TI_begin_line(0xe95)
    6144                      .dwattr $C$DW$461, DW_AT_TI_begin_column(0x20)
    6145                      .dwattr $C$DW$461, DW_AT_TI_max_frame_size(0x06)
    6146                      .dwpsn  file "../FreeRTOS/Source/tasks_sysStk.c",line 3734,column 2,is_stmt,address _prvTaskCheckFree
    6147              
    6148                      .dwfde $C$DW$CIE, _prvTaskCheckFreeStackSpace
    6149              $C$DW$462       .dwtag  DW_TAG_formal_parameter, DW_AT_name("pucStackByte")
    6150                      .dwattr $C$DW$462, DW_AT_TI_symbol_name("_pucStackByte")
    6151                      .dwattr $C$DW$462, DW_AT_type(*$C$DW$T$116)
    6152                      .dwattr $C$DW$462, DW_AT_location[DW_OP_reg17]
    6153              ;*******************************************************************************
    6154              ;* FUNCTION NAME: prvTaskCheckFreeStackSpace                                   *
    6155              ;*                                                                             *
    6156              ;*   Function Uses Regs : AC0,AC0,T0,AR0,XAR0,AR1,AR2,AR3,XAR3,SP,CARRY,TC1,   *
    6157              ;*                        M40,SATA,SATD,RDM,FRCT,SMUL                          *
    6158              ;*   Stack Frame        : Compact (No Frame Pointer, w/ debug)                 *
    6159              ;*   Total Frame Size   : 6 words                                              *
    6160              ;*                        (2 return address/alignment)                         *
    6161              ;*                        (4 local values)                                     *
    6162              ;*   Min System Stack   : 1 word                                               *
    6163              ;*******************************************************************************
    6164 0013a0       _prvTaskCheckFreeStackSpace:
    6165                      .dwcfi  cfa_offset, 1
    6166                      .dwcfi  save_reg_to_mem, 91, -1
    6167 0013a0 4EFB          AADD #-5, SP
    6168                      .dwcfi  cfa_offset, 6
    6169              $C$DW$463       .dwtag  DW_TAG_variable, DW_AT_name("pucStackByte")
    6170                      .dwattr $C$DW$463, DW_AT_TI_symbol_name("_pucStackByte")
    6171                      .dwattr $C$DW$463, DW_AT_type(*$C$DW$T$116)
    6172                      .dwattr $C$DW$463, DW_AT_location[DW_OP_bregx 0x24 0]
    6173              $C$DW$464       .dwtag  DW_TAG_variable, DW_AT_name("ulCount")
    6174                      .dwattr $C$DW$464, DW_AT_TI_symbol_name("_ulCount")
    6175                      .dwattr $C$DW$464, DW_AT_type(*$C$DW$T$28)
    6176                      .dwattr $C$DW$464, DW_AT_location[DW_OP_bregx 0x24 2]
    6177 0013a2 EB00          MOV XAR0, dbl(*SP(#0))
         0013a4 85   
    6178                      .dwpsn  file "../FreeRTOS/Source/tasks_sysStk.c",line 3735,column 11,is_stmt
    6179 0013a5 3C00          MOV #0, AC0 ; |3735| 
    6180 0013a7 EB04          MOV AC0, dbl(*SP(#2)) ; |3735| 
         0013a9 08   
    6181                      .dwpsn  file "../FreeRTOS/Source/tasks_sysStk.c",line 3737,column 10,is_stmt
    6182 0013aa ED00          MOV dbl(*SP(#0)), XAR3
         0013ac BF   
    6183 0013ad 76A5          MOV #42405, AR2 ; |3737| 
         0013af A5A8 
    6184 0013b1 A961          MOV *AR3, AR1 ; |3737| 
    6185 0013b3 129C          CMPU AR1 != AR2, TC1 ; |3737| 
         0013b5 A4   
    6186 0013b6 0464          BCC $C$L204,TC1 ; |3737| 
         0013b8 18   
    6187                                                      ; branchcc occurs ; |3737| 
TMS320C55x Assembler PC v4.4.1 Tue Oct 02 02:33:57 2018

Tools Copyright (c) 1996-2012 Texas Instruments Incorporated
tasks_sysStk.asm                                                     PAGE  137

    6188 0013b9       $C$L203:    
    6189 0013b9       $C$DW$L$_prvTaskCheckFreeStackSpace$2$B:
    6190                      .dwpsn  file "../FreeRTOS/Source/tasks_sysStk.c",line 3739,column 4,is_stmt
    6191 0013b9 B463          AMAR *AR3+
    6192 0013bb EB00          MOV XAR3, dbl(*SP(#0))
         0013bd B5   
    6193                      .dwpsn  file "../FreeRTOS/Source/tasks_sysStk.c",line 3740,column 4,is_stmt
    6194 0013be ED04          MOV dbl(*SP(#2)), AC0 ; |3740| 
         0013c0 08   
    6195 0013c1 4010          ADD #1, AC0 ; |3740| 
    6196 0013c3 EB04          MOV AC0, dbl(*SP(#2)) ; |3740| 
         0013c5 08   
    6197                      .dwpsn  file "../FreeRTOS/Source/tasks_sysStk.c",line 3737,column 10,is_stmt
    6198 0013c6 ED00          MOV dbl(*SP(#0)), XAR3
         0013c8 BF   
    6199 0013c9 A961          MOV *AR3, AR1 ; |3737| 
    6200 0013cb 1290          CMPU AR1 == AR2, TC1 ; |3737| 
         0013cd A4   
    6201 0013ce 0464          BCC $C$L203,TC1 ; |3737| 
         0013d0 E8   
    6202                                                      ; branchcc occurs ; |3737| 
    6203 0013d1       $C$DW$L$_prvTaskCheckFreeStackSpace$2$E:
    6204 0013d1       $C$L204:    
    6205                      .dwpsn  file "../FreeRTOS/Source/tasks_sysStk.c",line 3743,column 3,is_stmt
    6206 0013d1 ED04          MOV dbl(*SP(#2)), AC0 ; |3743| 
         0013d3 08   
    6207 0013d4 EB04          MOV AC0, dbl(*SP(#2)) ; |3743| 
         0013d6 08   
    6208                      .dwpsn  file "../FreeRTOS/Source/tasks_sysStk.c",line 3745,column 3,is_stmt
    6209 0013d7 A406          MOV *SP(#3), T0 ; |3745| 
    6210                      .dwpsn  file "../FreeRTOS/Source/tasks_sysStk.c",line 3746,column 2,is_stmt
    6211 0013d9 4E05          AADD #5, SP
    6212                      .dwcfi  cfa_offset, 1
    6213              $C$DW$465       .dwtag  DW_TAG_TI_branch
    6214                      .dwattr $C$DW$465, DW_AT_low_pc(0x00)
    6215                      .dwattr $C$DW$465, DW_AT_TI_return
    6216 0013db 4804          RET
    6217                                                      ; return occurs
    6218              
    6219              $C$DW$466       .dwtag  DW_TAG_TI_loop
    6220                      .dwattr $C$DW$466, DW_AT_name("F:\eZdsp-DBG-sim\tmp1\c55x-sim2\foo\Debug\tasks_sysStk.asm:$C$L203:1:1
    6221                      .dwattr $C$DW$466, DW_AT_TI_begin_file("../FreeRTOS/Source/tasks_sysStk.c")
    6222                      .dwattr $C$DW$466, DW_AT_TI_begin_line(0xe99)
    6223                      .dwattr $C$DW$466, DW_AT_TI_end_line(0xe9d)
    6224              $C$DW$467       .dwtag  DW_TAG_TI_loop_range
    6225                      .dwattr $C$DW$467, DW_AT_low_pc($C$DW$L$_prvTaskCheckFreeStackSpace$2$B)
    6226                      .dwattr $C$DW$467, DW_AT_high_pc($C$DW$L$_prvTaskCheckFreeStackSpace$2$E)
    6227                      .dwendtag $C$DW$466
    6228              
    6229                      .dwattr $C$DW$461, DW_AT_TI_end_file("../FreeRTOS/Source/tasks_sysStk.c")
    6230                      .dwattr $C$DW$461, DW_AT_TI_end_line(0xea2)
    6231                      .dwattr $C$DW$461, DW_AT_TI_end_column(0x02)
    6232                      .dwendentry
    6233                      .dwendtag $C$DW$461
    6234              
TMS320C55x Assembler PC v4.4.1 Tue Oct 02 02:33:57 2018

Tools Copyright (c) 1996-2012 Texas Instruments Incorporated
tasks_sysStk.asm                                                     PAGE  138

    6235 0013dd               .sect   ".text"
    6236                      .align 4
    6237                      .global _uxTaskGetStackHighWaterMark
    6238              
    6239              $C$DW$468       .dwtag  DW_TAG_subprogram, DW_AT_name("uxTaskGetStackHighWaterMark")
    6240                      .dwattr $C$DW$468, DW_AT_low_pc(_uxTaskGetStackHighWaterMark)
    6241                      .dwattr $C$DW$468, DW_AT_high_pc(0x00)
    6242                      .dwattr $C$DW$468, DW_AT_TI_symbol_name("_uxTaskGetStackHighWaterMark")
    6243                      .dwattr $C$DW$468, DW_AT_external
    6244                      .dwattr $C$DW$468, DW_AT_type(*$C$DW$T$25)
    6245                      .dwattr $C$DW$468, DW_AT_TI_begin_file("../FreeRTOS/Source/tasks_sysStk.c")
    6246                      .dwattr $C$DW$468, DW_AT_TI_begin_line(0xea9)
    6247                      .dwattr $C$DW$468, DW_AT_TI_begin_column(0x0e)
    6248                      .dwattr $C$DW$468, DW_AT_TI_max_frame_size(0x08)
    6249                      .dwpsn  file "../FreeRTOS/Source/tasks_sysStk.c",line 3754,column 2,is_stmt,address _uxTaskGetStackHi
    6250              
    6251                      .dwfde $C$DW$CIE, _uxTaskGetStackHighWaterMark
    6252              $C$DW$469       .dwtag  DW_TAG_formal_parameter, DW_AT_name("xTask")
    6253                      .dwattr $C$DW$469, DW_AT_TI_symbol_name("_xTask")
    6254                      .dwattr $C$DW$469, DW_AT_type(*$C$DW$T$48)
    6255                      .dwattr $C$DW$469, DW_AT_location[DW_OP_reg17]
    6256              ;*******************************************************************************
    6257              ;* FUNCTION NAME: uxTaskGetStackHighWaterMark                                  *
    6258              ;*                                                                             *
    6259              ;*   Function Uses Regs : AC0,AC0,T0,AR0,XAR0,AR3,XAR3,SP,M40,SATA,SATD,RDM,   *
    6260              ;*                        FRCT,SMUL                                            *
    6261              ;*   Stack Frame        : Compact (No Frame Pointer, w/ debug)                 *
    6262              ;*   Total Frame Size   : 8 words                                              *
    6263              ;*                        (1 return address/alignment)                         *
    6264              ;*                        (7 local values)                                     *
    6265              ;*   Min System Stack   : 1 word                                               *
    6266              ;*******************************************************************************
    6267 0013e0       _uxTaskGetStackHighWaterMark:
    6268                      .dwcfi  cfa_offset, 1
    6269                      .dwcfi  save_reg_to_mem, 91, -1
    6270 0013e0 4EF9          AADD #-7, SP
    6271                      .dwcfi  cfa_offset, 8
    6272              $C$DW$470       .dwtag  DW_TAG_variable, DW_AT_name("xTask")
    6273                      .dwattr $C$DW$470, DW_AT_TI_symbol_name("_xTask")
    6274                      .dwattr $C$DW$470, DW_AT_type(*$C$DW$T$48)
    6275                      .dwattr $C$DW$470, DW_AT_location[DW_OP_bregx 0x24 0]
    6276              $C$DW$471       .dwtag  DW_TAG_variable, DW_AT_name("pxTCB")
    6277                      .dwattr $C$DW$471, DW_AT_TI_symbol_name("_pxTCB")
    6278                      .dwattr $C$DW$471, DW_AT_type(*$C$DW$T$83)
    6279                      .dwattr $C$DW$471, DW_AT_location[DW_OP_bregx 0x24 2]
    6280              $C$DW$472       .dwtag  DW_TAG_variable, DW_AT_name("pucEndOfStack")
    6281                      .dwattr $C$DW$472, DW_AT_TI_symbol_name("_pucEndOfStack")
    6282                      .dwattr $C$DW$472, DW_AT_type(*$C$DW$T$114)
    6283                      .dwattr $C$DW$472, DW_AT_location[DW_OP_bregx 0x24 4]
    6284              $C$DW$473       .dwtag  DW_TAG_variable, DW_AT_name("uxReturn")
    6285                      .dwattr $C$DW$473, DW_AT_TI_symbol_name("_uxReturn")
    6286                      .dwattr $C$DW$473, DW_AT_type(*$C$DW$T$25)
    6287                      .dwattr $C$DW$473, DW_AT_location[DW_OP_bregx 0x24 6]
    6288 0013e2 EB00          MOV XAR0, dbl(*SP(#0))
         0013e4 85   
TMS320C55x Assembler PC v4.4.1 Tue Oct 02 02:33:57 2018

Tools Copyright (c) 1996-2012 Texas Instruments Incorporated
tasks_sysStk.asm                                                     PAGE  139

    6289                      .dwpsn  file "../FreeRTOS/Source/tasks_sysStk.c",line 3759,column 3,is_stmt
    6290 0013e5 ED00          MOV dbl(*SP(#0)), XAR3
         0013e7 BF   
    6291 0013e8 90B0          MOV XAR3, AC0
    6292 0013ea 6310          BCC $C$L205,AC0 != #0 ; |3759| 
    6293                                                      ; branchcc occurs ; |3759| 
    6294 0013ec ED31          MOV dbl(*(#_pxCurrentTCB)), XAR3
         0013ee BF00 
         0013f0 0004-
    6295 0013f2       $C$L205:    
    6296 0013f2 EB04          MOV XAR3, dbl(*SP(#2))
         0013f4 B5   
    6297                      .dwpsn  file "../FreeRTOS/Source/tasks_sysStk.c",line 3763,column 4,is_stmt
    6298 0013f5 ED6D          MOV dbl(*AR3(#26)), XAR3
         0013f7 BF00 
         0013f9 1A   
    6299 0013fa EB08          MOV XAR3, dbl(*SP(#4))
         0013fc B5   
    6300                      .dwpsn  file "../FreeRTOS/Source/tasks_sysStk.c",line 3772,column 3,is_stmt
    6301 0013fd ED08          MOV dbl(*SP(#4)), XAR0
         0013ff 8F   
    6302              $C$DW$474       .dwtag  DW_TAG_TI_branch
    6303                      .dwattr $C$DW$474, DW_AT_low_pc(0x00)
    6304                      .dwattr $C$DW$474, DW_AT_name("_prvTaskCheckFreeStackSpace")
    6305                      .dwattr $C$DW$474, DW_AT_TI_call
    6306 001400 08FF          CALL #_prvTaskCheckFreeStackSpace ; |3772| 
         001402 9D   
    6307                                                      ; call occurs [#_prvTaskCheckFreeStackSpace] ; |3772| 
    6308 001403 C40C          MOV T0, *SP(#6) ; |3772| 
    6309                      .dwpsn  file "../FreeRTOS/Source/tasks_sysStk.c",line 3774,column 3,is_stmt
    6310                      .dwpsn  file "../FreeRTOS/Source/tasks_sysStk.c",line 3775,column 2,is_stmt
    6311 001405 4E07          AADD #7, SP
    6312                      .dwcfi  cfa_offset, 1
    6313              $C$DW$475       .dwtag  DW_TAG_TI_branch
    6314                      .dwattr $C$DW$475, DW_AT_low_pc(0x00)
    6315                      .dwattr $C$DW$475, DW_AT_TI_return
    6316 001407 4804          RET
    6317                                                      ; return occurs
    6318                      .dwattr $C$DW$468, DW_AT_TI_end_file("../FreeRTOS/Source/tasks_sysStk.c")
    6319                      .dwattr $C$DW$468, DW_AT_TI_end_line(0xebf)
    6320                      .dwattr $C$DW$468, DW_AT_TI_end_column(0x02)
    6321                      .dwendentry
    6322                      .dwendtag $C$DW$468
    6323              
    6324 001409               .sect   ".text"
    6325                      .align 4
    6326              
    6327              $C$DW$476       .dwtag  DW_TAG_subprogram, DW_AT_name("prvDeleteTCB")
    6328                      .dwattr $C$DW$476, DW_AT_low_pc(_prvDeleteTCB)
    6329                      .dwattr $C$DW$476, DW_AT_high_pc(0x00)
    6330                      .dwattr $C$DW$476, DW_AT_TI_symbol_name("_prvDeleteTCB")
    6331                      .dwattr $C$DW$476, DW_AT_TI_begin_file("../FreeRTOS/Source/tasks_sysStk.c")
    6332                      .dwattr $C$DW$476, DW_AT_TI_begin_line(0xec6)
    6333                      .dwattr $C$DW$476, DW_AT_TI_begin_column(0x0e)
    6334                      .dwattr $C$DW$476, DW_AT_TI_max_frame_size(0x04)
TMS320C55x Assembler PC v4.4.1 Tue Oct 02 02:33:57 2018

Tools Copyright (c) 1996-2012 Texas Instruments Incorporated
tasks_sysStk.asm                                                     PAGE  140

    6335                      .dwpsn  file "../FreeRTOS/Source/tasks_sysStk.c",line 3783,column 2,is_stmt,address _prvDeleteTCB
    6336              
    6337                      .dwfde $C$DW$CIE, _prvDeleteTCB
    6338              $C$DW$477       .dwtag  DW_TAG_formal_parameter, DW_AT_name("pxTCB")
    6339                      .dwattr $C$DW$477, DW_AT_TI_symbol_name("_pxTCB")
    6340                      .dwattr $C$DW$477, DW_AT_type(*$C$DW$T$83)
    6341                      .dwattr $C$DW$477, DW_AT_location[DW_OP_reg17]
    6342              ;*******************************************************************************
    6343              ;* FUNCTION NAME: prvDeleteTCB                                                 *
    6344              ;*                                                                             *
    6345              ;*   Function Uses Regs : AR0,XAR0,AR3,XAR3,SP,M40,SATA,SATD,RDM,FRCT,SMUL     *
    6346              ;*   Stack Frame        : Compact (No Frame Pointer, w/ debug)                 *
    6347              ;*   Total Frame Size   : 4 words                                              *
    6348              ;*                        (2 return address/alignment)                         *
    6349              ;*                        (2 local values)                                     *
    6350              ;*   Min System Stack   : 1 word                                               *
    6351              ;*******************************************************************************
    6352 00140c       _prvDeleteTCB:
    6353                      .dwcfi  cfa_offset, 1
    6354                      .dwcfi  save_reg_to_mem, 91, -1
    6355 00140c 4EFD          AADD #-3, SP
    6356                      .dwcfi  cfa_offset, 4
    6357              $C$DW$478       .dwtag  DW_TAG_variable, DW_AT_name("pxTCB")
    6358                      .dwattr $C$DW$478, DW_AT_TI_symbol_name("_pxTCB")
    6359                      .dwattr $C$DW$478, DW_AT_type(*$C$DW$T$83)
    6360                      .dwattr $C$DW$478, DW_AT_location[DW_OP_bregx 0x24 0]
    6361 00140e EB00          MOV XAR0, dbl(*SP(#0))
         001410 85   
    6362                      .dwpsn  file "../FreeRTOS/Source/tasks_sysStk.c",line 3787,column 3,is_stmt
    6363                      .dwpsn  file "../FreeRTOS/Source/tasks_sysStk.c",line 3801,column 4,is_stmt
    6364 001411 ED00          MOV dbl(*SP(#0)), XAR3
         001413 BF   
    6365 001414 ED6D          MOV dbl(*AR3(#26)), XAR0
         001416 8F00 
         001418 1A   
    6366              $C$DW$479       .dwtag  DW_TAG_TI_branch
    6367                      .dwattr $C$DW$479, DW_AT_low_pc(0x00)
    6368                      .dwattr $C$DW$479, DW_AT_name("_vPortFree")
    6369                      .dwattr $C$DW$479, DW_AT_TI_call
    6370 001419 6C00          CALL #_vPortFree ; |3801| 
         00141b 0000!
    6371                                                      ; call occurs [#_vPortFree] ; |3801| 
    6372                      .dwpsn  file "../FreeRTOS/Source/tasks_sysStk.c",line 3802,column 4,is_stmt
    6373 00141d ED00          MOV dbl(*SP(#0)), XAR3
         00141f BF   
    6374 001420 ED6D          MOV dbl(*AR3(#28)), XAR0
         001422 8F00 
         001424 1C   
    6375              $C$DW$480       .dwtag  DW_TAG_TI_branch
    6376                      .dwattr $C$DW$480, DW_AT_low_pc(0x00)
    6377                      .dwattr $C$DW$480, DW_AT_name("_vPortFree")
    6378                      .dwattr $C$DW$480, DW_AT_TI_call
    6379 001425 6C00          CALL #_vPortFree ; |3802| 
         001427 0000!
    6380                                                      ; call occurs [#_vPortFree] ; |3802| 
TMS320C55x Assembler PC v4.4.1 Tue Oct 02 02:33:57 2018

Tools Copyright (c) 1996-2012 Texas Instruments Incorporated
tasks_sysStk.asm                                                     PAGE  141

    6381                      .dwpsn  file "../FreeRTOS/Source/tasks_sysStk.c",line 3803,column 4,is_stmt
    6382 001429 ED00          MOV dbl(*SP(#0)), XAR0
         00142b 8F   
    6383              $C$DW$481       .dwtag  DW_TAG_TI_branch
    6384                      .dwattr $C$DW$481, DW_AT_low_pc(0x00)
    6385                      .dwattr $C$DW$481, DW_AT_name("_vPortFree")
    6386                      .dwattr $C$DW$481, DW_AT_TI_call
    6387 00142c 6C00          CALL #_vPortFree ; |3803| 
         00142e 0000!
    6388                                                      ; call occurs [#_vPortFree] ; |3803| 
    6389                      .dwpsn  file "../FreeRTOS/Source/tasks_sysStk.c",line 3833,column 2,is_stmt
    6390 001430 4E03          AADD #3, SP
    6391                      .dwcfi  cfa_offset, 1
    6392              $C$DW$482       .dwtag  DW_TAG_TI_branch
    6393                      .dwattr $C$DW$482, DW_AT_low_pc(0x00)
    6394                      .dwattr $C$DW$482, DW_AT_TI_return
    6395 001432 4804          RET
    6396                                                      ; return occurs
    6397                      .dwattr $C$DW$476, DW_AT_TI_end_file("../FreeRTOS/Source/tasks_sysStk.c")
    6398                      .dwattr $C$DW$476, DW_AT_TI_end_line(0xef9)
    6399                      .dwattr $C$DW$476, DW_AT_TI_end_column(0x02)
    6400                      .dwendentry
    6401                      .dwendtag $C$DW$476
    6402              
    6403 001434               .sect   ".text"
    6404                      .align 4
    6405              
    6406              $C$DW$483       .dwtag  DW_TAG_subprogram, DW_AT_name("prvResetNextTaskUnblockTime")
    6407                      .dwattr $C$DW$483, DW_AT_low_pc(_prvResetNextTaskUnblockTime)
    6408                      .dwattr $C$DW$483, DW_AT_high_pc(0x00)
    6409                      .dwattr $C$DW$483, DW_AT_TI_symbol_name("_prvResetNextTaskUnblockTime")
    6410                      .dwattr $C$DW$483, DW_AT_TI_begin_file("../FreeRTOS/Source/tasks_sysStk.c")
    6411                      .dwattr $C$DW$483, DW_AT_TI_begin_line(0xefe)
    6412                      .dwattr $C$DW$483, DW_AT_TI_begin_column(0x0d)
    6413                      .dwattr $C$DW$483, DW_AT_TI_max_frame_size(0x04)
    6414                      .dwpsn  file "../FreeRTOS/Source/tasks_sysStk.c",line 3839,column 1,is_stmt,address _prvResetNextTask
    6415              
    6416                      .dwfde $C$DW$CIE, _prvResetNextTaskUnblockTime
    6417              ;*******************************************************************************
    6418              ;* FUNCTION NAME: prvResetNextTaskUnblockTime                                  *
    6419              ;*                                                                             *
    6420              ;*   Function Uses Regs : AC0,AC0,AR1,AR3,XAR3,SP,M40,SATA,SATD,RDM,FRCT,SMUL  *
    6421              ;*   Stack Frame        : Compact (No Frame Pointer, w/ debug)                 *
    6422              ;*   Total Frame Size   : 4 words                                              *
    6423              ;*                        (2 return address/alignment)                         *
    6424              ;*                        (2 local values)                                     *
    6425              ;*   Min System Stack   : 1 word                                               *
    6426              ;*******************************************************************************
    6427 001434       _prvResetNextTaskUnblockTime:
    6428                      .dwcfi  cfa_offset, 1
    6429                      .dwcfi  save_reg_to_mem, 91, -1
    6430 001434 4EFD          AADD #-3, SP
    6431                      .dwcfi  cfa_offset, 4
    6432              $C$DW$484       .dwtag  DW_TAG_variable, DW_AT_name("pxTCB")
    6433                      .dwattr $C$DW$484, DW_AT_TI_symbol_name("_pxTCB")
TMS320C55x Assembler PC v4.4.1 Tue Oct 02 02:33:57 2018

Tools Copyright (c) 1996-2012 Texas Instruments Incorporated
tasks_sysStk.asm                                                     PAGE  142

    6434                      .dwattr $C$DW$484, DW_AT_type(*$C$DW$T$83)
    6435                      .dwattr $C$DW$484, DW_AT_location[DW_OP_bregx 0x24 0]
    6436                      .dwpsn  file "../FreeRTOS/Source/tasks_sysStk.c",line 3842,column 2,is_stmt
    6437 001436 ED31          MOV dbl(*(#_pxDelayedTaskList)), XAR3
         001438 BF00 
         00143a 004C-
    6438 00143c A961          MOV *AR3, AR1 ; |3842| 
    6439 00143e 6219          BCC $C$L206,AR1 != #0 ; |3842| 
    6440                                                      ; branchcc occurs ; |3842| 
    6441 001440 3C19          MOV #1, AR1
    6442 001442 4A02          B $C$L207 ; |3842| 
    6443                                                      ; branch occurs ; |3842| 
    6444 001444       $C$L206:    
    6445 001444 3C09          MOV #0, AR1
    6446 001446       $C$L207:    
    6447 001446 0409          BCC $C$L208,AR1 == #0 ; |3842| 
         001448 10   
    6448                                                      ; branchcc occurs ; |3842| 
    6449                      .dwpsn  file "../FreeRTOS/Source/tasks_sysStk.c",line 3848,column 3,is_stmt
    6450 001449 7AFF          MOV #-1 << #16, AC0 ; |3848| 
         00144b FF0A 
    6451 00144d 7EFF          OR #0xffff, AC0, AC0 ; |3848| 
         00144f FF00 
    6452 001451 EB31          MOV AC0, dbl(*(#_xNextTaskUnblockTime)) ; |3848| 
         001453 0800 
         001455 0078-
    6453                      .dwpsn  file "../FreeRTOS/Source/tasks_sysStk.c",line 3849,column 2,is_stmt
    6454 001457 4A18          B $C$L209 ; |3849| 
    6455                                                      ; branch occurs ; |3849| 
    6456 001459       $C$L208:    
    6457                      .dwpsn  file "../FreeRTOS/Source/tasks_sysStk.c",line 3856,column 3,is_stmt
    6458 001459 ED31          MOV dbl(*(#_pxDelayedTaskList)), XAR3
         00145b BF00 
         00145d 004C-
    6459 00145f ED7D          MOV dbl(*AR3(short(#6))), XAR3
         001461 BF   
    6460 001462 ED7D          MOV dbl(*AR3(short(#6))), XAR3
         001464 BF   
    6461 001465 EB00          MOV XAR3, dbl(*SP(#0))
         001467 B5   
    6462                      .dwpsn  file "../FreeRTOS/Source/tasks_sysStk.c",line 3857,column 3,is_stmt
    6463 001468 ED79          MOV dbl(*AR3(short(#4))), AC0 ; |3857| 
         00146a 08   
    6464 00146b EB31          MOV AC0, dbl(*(#_xNextTaskUnblockTime)) ; |3857| 
         00146d 0800 
         00146f 0078-
    6465                      .dwpsn  file "../FreeRTOS/Source/tasks_sysStk.c",line 3859,column 1,is_stmt
    6466 001471       $C$L209:    
    6467 001471 4E03          AADD #3, SP
    6468                      .dwcfi  cfa_offset, 1
    6469              $C$DW$485       .dwtag  DW_TAG_TI_branch
    6470                      .dwattr $C$DW$485, DW_AT_low_pc(0x00)
    6471                      .dwattr $C$DW$485, DW_AT_TI_return
    6472 001473 4804          RET
    6473                                                      ; return occurs
TMS320C55x Assembler PC v4.4.1 Tue Oct 02 02:33:57 2018

Tools Copyright (c) 1996-2012 Texas Instruments Incorporated
tasks_sysStk.asm                                                     PAGE  143

    6474                      .dwattr $C$DW$483, DW_AT_TI_end_file("../FreeRTOS/Source/tasks_sysStk.c")
    6475                      .dwattr $C$DW$483, DW_AT_TI_end_line(0xf13)
    6476                      .dwattr $C$DW$483, DW_AT_TI_end_column(0x01)
    6477                      .dwendentry
    6478                      .dwendtag $C$DW$483
    6479              
    6480 001475               .sect   ".text"
    6481                      .align 4
    6482                      .global _xTaskGetCurrentTaskHandle
    6483              
    6484              $C$DW$486       .dwtag  DW_TAG_subprogram, DW_AT_name("xTaskGetCurrentTaskHandle")
    6485                      .dwattr $C$DW$486, DW_AT_low_pc(_xTaskGetCurrentTaskHandle)
    6486                      .dwattr $C$DW$486, DW_AT_high_pc(0x00)
    6487                      .dwattr $C$DW$486, DW_AT_TI_symbol_name("_xTaskGetCurrentTaskHandle")
    6488                      .dwattr $C$DW$486, DW_AT_external
    6489                      .dwattr $C$DW$486, DW_AT_type(*$C$DW$T$48)
    6490                      .dwattr $C$DW$486, DW_AT_TI_begin_file("../FreeRTOS/Source/tasks_sysStk.c")
    6491                      .dwattr $C$DW$486, DW_AT_TI_begin_line(0xf18)
    6492                      .dwattr $C$DW$486, DW_AT_TI_begin_column(0x0f)
    6493                      .dwattr $C$DW$486, DW_AT_TI_max_frame_size(0x04)
    6494                      .dwpsn  file "../FreeRTOS/Source/tasks_sysStk.c",line 3865,column 2,is_stmt,address _xTaskGetCurrentT
    6495              
    6496                      .dwfde $C$DW$CIE, _xTaskGetCurrentTaskHandle
    6497              ;*******************************************************************************
    6498              ;* FUNCTION NAME: xTaskGetCurrentTaskHandle                                    *
    6499              ;*                                                                             *
    6500              ;*   Function Uses Regs : AR0,XAR0,AR3,XAR3,SP,M40,SATA,SATD,RDM,FRCT,SMUL     *
    6501              ;*   Stack Frame        : Compact (No Frame Pointer, w/ debug)                 *
    6502              ;*   Total Frame Size   : 4 words                                              *
    6503              ;*                        (2 return address/alignment)                         *
    6504              ;*                        (2 local values)                                     *
    6505              ;*   Min System Stack   : 1 word                                               *
    6506              ;*******************************************************************************
    6507 001478       _xTaskGetCurrentTaskHandle:
    6508                      .dwcfi  cfa_offset, 1
    6509                      .dwcfi  save_reg_to_mem, 91, -1
    6510 001478 4EFD          AADD #-3, SP
    6511                      .dwcfi  cfa_offset, 4
    6512              $C$DW$487       .dwtag  DW_TAG_variable, DW_AT_name("xReturn")
    6513                      .dwattr $C$DW$487, DW_AT_TI_symbol_name("_xReturn")
    6514                      .dwattr $C$DW$487, DW_AT_type(*$C$DW$T$48)
    6515                      .dwattr $C$DW$487, DW_AT_location[DW_OP_bregx 0x24 0]
    6516                      .dwpsn  file "../FreeRTOS/Source/tasks_sysStk.c",line 3871,column 3,is_stmt
    6517 00147a ED31          MOV dbl(*(#_pxCurrentTCB)), XAR3
         00147c BF00 
         00147e 0004-
    6518 001480 EB00          MOV XAR3, dbl(*SP(#0))
         001482 B5   
    6519                      .dwpsn  file "../FreeRTOS/Source/tasks_sysStk.c",line 3873,column 3,is_stmt
    6520 001483 ED00          MOV dbl(*SP(#0)), XAR0
         001485 8F   
    6521                      .dwpsn  file "../FreeRTOS/Source/tasks_sysStk.c",line 3874,column 2,is_stmt
    6522 001486 4E03          AADD #3, SP
    6523                      .dwcfi  cfa_offset, 1
    6524              $C$DW$488       .dwtag  DW_TAG_TI_branch
TMS320C55x Assembler PC v4.4.1 Tue Oct 02 02:33:57 2018

Tools Copyright (c) 1996-2012 Texas Instruments Incorporated
tasks_sysStk.asm                                                     PAGE  144

    6525                      .dwattr $C$DW$488, DW_AT_low_pc(0x00)
    6526                      .dwattr $C$DW$488, DW_AT_TI_return
    6527 001488 4804          RET
    6528                                                      ; return occurs
    6529                      .dwattr $C$DW$486, DW_AT_TI_end_file("../FreeRTOS/Source/tasks_sysStk.c")
    6530                      .dwattr $C$DW$486, DW_AT_TI_end_line(0xf22)
    6531                      .dwattr $C$DW$486, DW_AT_TI_end_column(0x02)
    6532                      .dwendentry
    6533                      .dwendtag $C$DW$486
    6534              
    6535 00148a               .sect   ".text"
    6536                      .align 4
    6537                      .global _xTaskPriorityInherit
    6538              
    6539              $C$DW$489       .dwtag  DW_TAG_subprogram, DW_AT_name("xTaskPriorityInherit")
    6540                      .dwattr $C$DW$489, DW_AT_low_pc(_xTaskPriorityInherit)
    6541                      .dwattr $C$DW$489, DW_AT_high_pc(0x00)
    6542                      .dwattr $C$DW$489, DW_AT_TI_symbol_name("_xTaskPriorityInherit")
    6543                      .dwattr $C$DW$489, DW_AT_external
    6544                      .dwattr $C$DW$489, DW_AT_type(*$C$DW$T$43)
    6545                      .dwattr $C$DW$489, DW_AT_TI_begin_file("../FreeRTOS/Source/tasks_sysStk.c")
    6546                      .dwattr $C$DW$489, DW_AT_TI_begin_line(0xf45)
    6547                      .dwattr $C$DW$489, DW_AT_TI_begin_column(0x0d)
    6548                      .dwattr $C$DW$489, DW_AT_TI_max_frame_size(0x06)
    6549                      .dwpsn  file "../FreeRTOS/Source/tasks_sysStk.c",line 3910,column 2,is_stmt,address _xTaskPriorityInh
    6550              
    6551                      .dwfde $C$DW$CIE, _xTaskPriorityInherit
    6552              $C$DW$490       .dwtag  DW_TAG_formal_parameter, DW_AT_name("pxMutexHolder")
    6553                      .dwattr $C$DW$490, DW_AT_TI_symbol_name("_pxMutexHolder")
    6554                      .dwattr $C$DW$490, DW_AT_type(*$C$DW$T$107)
    6555                      .dwattr $C$DW$490, DW_AT_location[DW_OP_reg17]
    6556              ;*******************************************************************************
    6557              ;* FUNCTION NAME: xTaskPriorityInherit                                         *
    6558              ;*                                                                             *
    6559              ;*   Function Uses Regs : AC0,AC0,AC1,AC1,T0,AR0,XAR0,AR1,XAR1,AR2,XAR2,AR3,   *
    6560              ;*                        XAR3,SP,CARRY,TC1,M40,SATA,SATD,RDM,FRCT,SMUL        *
    6561              ;*   Stack Frame        : Compact (No Frame Pointer, w/ debug)                 *
    6562              ;*   Total Frame Size   : 6 words                                              *
    6563              ;*                        (1 return address/alignment)                         *
    6564              ;*                        (5 local values)                                     *
    6565              ;*   Min System Stack   : 1 word                                               *
    6566              ;*******************************************************************************
    6567 00148c       _xTaskPriorityInherit:
    6568                      .dwcfi  cfa_offset, 1
    6569                      .dwcfi  save_reg_to_mem, 91, -1
    6570 00148c 4EFB          AADD #-5, SP
    6571                      .dwcfi  cfa_offset, 6
    6572              $C$DW$491       .dwtag  DW_TAG_variable, DW_AT_name("pxMutexHolder")
    6573                      .dwattr $C$DW$491, DW_AT_TI_symbol_name("_pxMutexHolder")
    6574                      .dwattr $C$DW$491, DW_AT_type(*$C$DW$T$107)
    6575                      .dwattr $C$DW$491, DW_AT_location[DW_OP_bregx 0x24 0]
    6576              $C$DW$492       .dwtag  DW_TAG_variable, DW_AT_name("pxMutexHolderTCB")
    6577                      .dwattr $C$DW$492, DW_AT_TI_symbol_name("_pxMutexHolderTCB")
    6578                      .dwattr $C$DW$492, DW_AT_type(*$C$DW$T$160)
    6579                      .dwattr $C$DW$492, DW_AT_location[DW_OP_bregx 0x24 2]
TMS320C55x Assembler PC v4.4.1 Tue Oct 02 02:33:57 2018

Tools Copyright (c) 1996-2012 Texas Instruments Incorporated
tasks_sysStk.asm                                                     PAGE  145

    6580              $C$DW$493       .dwtag  DW_TAG_variable, DW_AT_name("xReturn")
    6581                      .dwattr $C$DW$493, DW_AT_TI_symbol_name("_xReturn")
    6582                      .dwattr $C$DW$493, DW_AT_type(*$C$DW$T$43)
    6583                      .dwattr $C$DW$493, DW_AT_location[DW_OP_bregx 0x24 4]
    6584 00148e EB00          MOV XAR0, dbl(*SP(#0))
         001490 85   
    6585                      .dwpsn  file "../FreeRTOS/Source/tasks_sysStk.c",line 3911,column 16,is_stmt
    6586 001491 ED00          MOV dbl(*SP(#0)), XAR3
         001493 BF   
    6587 001494 EB04          MOV XAR3, dbl(*SP(#2))
         001496 B5   
    6588                      .dwpsn  file "../FreeRTOS/Source/tasks_sysStk.c",line 3912,column 13,is_stmt
    6589 001497 E608          MOV #0, *SP(#4) ; |3912| 
         001499 00   
    6590                      .dwpsn  file "../FreeRTOS/Source/tasks_sysStk.c",line 3917,column 3,is_stmt
    6591 00149a ED00          MOV dbl(*SP(#0)), XAR3
         00149c BF   
    6592 00149d 90B0          MOV XAR3, AC0
    6593 00149f 6D00          BCC $C$L218,AC0 == #0 ; |3917| 
         0014a1 00F8 
    6594                                                      ; branchcc occurs ; |3917| 
    6595                      .dwpsn  file "../FreeRTOS/Source/tasks_sysStk.c",line 3922,column 4,is_stmt
    6596 0014a3 ED31          MOV dbl(*(#_pxCurrentTCB)), XAR3
         0014a5 BF00 
         0014a7 0004-
    6597 0014a9 A96D          MOV *AR3(#24), AR1 ; |3922| 
         0014ab 0018 
    6598 0014ad ED04          MOV dbl(*SP(#2)), XAR3
         0014af BF   
    6599 0014b0 AA6D          MOV *AR3(#24), AR2 ; |3922| 
         0014b2 0018 
    6600 0014b4 12A8          CMPU AR2 >= AR1, TC1 ; |3922| 
         0014b6 94   
    6601 0014b7 6D64          BCC $C$L217,TC1 ; |3922| 
         0014b9 00C5 
    6602                                                      ; branchcc occurs ; |3922| 
    6603                      .dwpsn  file "../FreeRTOS/Source/tasks_sysStk.c",line 3927,column 5,is_stmt
    6604 0014bb ED6D          MOV dbl(*AR3(#14)), AC1 ; |3927| 
         0014bd 1800 
         0014bf 0E   
    6605 0014c0 7A80          MOV #-32768 << #16, AC0 ; |3927| 
         0014c2 000A 
    6606 0014c4 2810          AND AC1, AC0 ; |3927| 
    6607 0014c6 0410          BCC $C$L210,AC0 != #0 ; |3927| 
         0014c8 15   
    6608                                                      ; branchcc occurs ; |3927| 
    6609                      .dwpsn  file "../FreeRTOS/Source/tasks_sysStk.c",line 3929,column 6,is_stmt
    6610 0014c9 ED31          MOV dbl(*(#_pxCurrentTCB)), XAR3
         0014cb BF00 
         0014cd 0004-
    6611 0014cf 3C50          MOV #5, AC0 ; |3929| 
    6612 0014d1 DF6D          SUB uns(*AR3(#24)), AC0, AC0 ; |3929| 
         0014d3 0F00 
         0014d5 18   
    6613 0014d6 ED04          MOV dbl(*SP(#2)), XAR3
TMS320C55x Assembler PC v4.4.1 Tue Oct 02 02:33:57 2018

Tools Copyright (c) 1996-2012 Texas Instruments Incorporated
tasks_sysStk.asm                                                     PAGE  146

         0014d8 BF   
    6614 0014d9 EB6D          MOV AC0, dbl(*AR3(#14)) ; |3929| 
         0014db 0800 
         0014dd 0E   
    6615                      .dwpsn  file "../FreeRTOS/Source/tasks_sysStk.c",line 3930,column 5,is_stmt
    6616 0014de       $C$L210:    
    6617                      .dwpsn  file "../FreeRTOS/Source/tasks_sysStk.c",line 3938,column 5,is_stmt
    6618 0014de ED04          MOV dbl(*SP(#2)), XAR3
         0014e0 BF   
    6619 0014e1 DF6D          MOV uns(*AR3(#24)), AC1 ; |3938| 
         0014e3 1500 
         0014e5 18   
    6620 0014e6 1015          SFTS AC1, #1, AC0 ; |3938| 
         0014e8 01   
    6621 0014e9 1013          ADD AC1 << #3, AC0 ; |3938| 
         0014eb 03   
    6622 0014ec 900A          MOV AC0, XAR2
    6623 0014ee EC31          AMOV #_pxReadyTasksLists, XAR3 ; |3938| 
         0014f0 BE00 
         0014f2 0006-
    6624 0014f4 14A1          AADD XAR2, XAR3 ; |3938| 
         0014f6 B0   
    6625 0014f7 90B1          MOV XAR3, AC1
    6626 0014f9 ED04          MOV dbl(*SP(#2)), XAR3
         0014fb BF   
    6627 0014fc ED6D          MOV dbl(*AR3(#12)), XAR3
         0014fe BF00 
         001500 0C   
    6628 001501 90B0          MOV XAR3, AC0
    6629 001503 120C          CMPU AC0 != AC1, TC1 ; |3938| 
         001505 14   
    6630 001506 6264          BCC $C$L211,TC1 ; |3938| 
    6631                                                      ; branchcc occurs ; |3938| 
    6632 001508 3C19          MOV #1, AR1
    6633 00150a 4A02          B $C$L212 ; |3938| 
    6634                                                      ; branch occurs ; |3938| 
    6635 00150c       $C$L211:    
    6636 00150c 3C09          MOV #0, AR1
    6637 00150e       $C$L212:    
    6638 00150e 0409          BCC $C$L215,AR1 == #0 ; |3938| 
         001510 59   
    6639                                                      ; branchcc occurs ; |3938| 
    6640                      .dwpsn  file "../FreeRTOS/Source/tasks_sysStk.c",line 3940,column 6,is_stmt
    6641 001511 ED04          MOV dbl(*SP(#2)), XAR0
         001513 8F   
    6642 001514 1404          AADD #4, AR0 ; |3940| 
         001516 84   
    6643              $C$DW$494       .dwtag  DW_TAG_TI_branch
    6644                      .dwattr $C$DW$494, DW_AT_low_pc(0x00)
    6645                      .dwattr $C$DW$494, DW_AT_name("_uxListRemove")
    6646                      .dwattr $C$DW$494, DW_AT_TI_call
    6647 001517 6C00          CALL #_uxListRemove ; |3940| 
         001519 0000!
    6648                                                      ; call occurs [#_uxListRemove] ; |3940| 
    6649 00151b 6004          BCC $C$L213,T0 == #0 ; |3940| 
TMS320C55x Assembler PC v4.4.1 Tue Oct 02 02:33:57 2018

Tools Copyright (c) 1996-2012 Texas Instruments Incorporated
tasks_sysStk.asm                                                     PAGE  147

    6650                                                      ; branchcc occurs ; |3940| 
    6651                      .dwpsn  file "../FreeRTOS/Source/tasks_sysStk.c",line 3943,column 6,is_stmt
    6652 00151d       $C$L213:    
    6653                      .dwpsn  file "../FreeRTOS/Source/tasks_sysStk.c",line 3950,column 6,is_stmt
    6654 00151d ED31          MOV dbl(*(#_pxCurrentTCB)), XAR3
         00151f BF00 
         001521 0004-
    6655 001523 A96D          MOV *AR3(#24), AR1 ; |3950| 
         001525 0018 
    6656 001527 ED04          MOV dbl(*SP(#2)), XAR3
         001529 BF   
    6657 00152a C96D          MOV AR1, *AR3(#24) ; |3950| 
         00152c 0018 
    6658                      .dwpsn  file "../FreeRTOS/Source/tasks_sysStk.c",line 3951,column 6,is_stmt
    6659 00152e ED04          MOV dbl(*SP(#2)), XAR3
         001530 BF   
    6660 001531 A931          MOV *(#_uxTopReadyPriority), AR1 ; |3951| 
         001533 0000 
         001535 72-  
    6661 001536 AA6D          MOV *AR3(#24), AR2 ; |3951| 
         001538 0018 
    6662 00153a 1298          CMPU AR2 <= AR1, TC1 ; |3951| 
         00153c A4   
    6663 00153d 64E4          BCC $C$L214,TC1 ; |3951| 
    6664                                                      ; branchcc occurs ; |3951| 
    6665 00153f A96D          MOV *AR3(#24), AR1 ; |3951| 
         001541 0018 
    6666 001543 C931          MOV AR1, *(#_uxTopReadyPriority) ; |3951| 
         001545 0000 
         001547 72-  
    6667 001548       $C$L214:    
    6668 001548 DF6D          MOV uns(*AR3(#24)), AC1 ; |3951| 
         00154a 1500 
         00154c 18   
    6669 00154d ED04          MOV dbl(*SP(#2)), XAR1
         00154f 9F   
    6670 001550 1015          SFTS AC1, #1, AC0 ; |3951| 
         001552 01   
    6671 001553 1013          ADD AC1 << #3, AC0 ; |3951| 
         001555 03   
    6672 001556 900B          MOV AC0, XAR3
    6673 001558 EC31          AMOV #_pxReadyTasksLists, XAR0 ; |3951| 
         00155a 8E00 
         00155c 0006-
    6674              
    6675 00155e 14B1          AADD XAR3, XAR0 ; |3951| 
         001560 80   
    6676 001561 1504  ||      AADD #4, AR1 ; |3951| 
         001563 9C   
    6677              
    6678              $C$DW$495       .dwtag  DW_TAG_TI_branch
    6679                      .dwattr $C$DW$495, DW_AT_low_pc(0x00)
    6680                      .dwattr $C$DW$495, DW_AT_name("_vListInsertEnd")
    6681                      .dwattr $C$DW$495, DW_AT_TI_call
    6682 001564 6C00          CALL #_vListInsertEnd ; |3951| 
TMS320C55x Assembler PC v4.4.1 Tue Oct 02 02:33:57 2018

Tools Copyright (c) 1996-2012 Texas Instruments Incorporated
tasks_sysStk.asm                                                     PAGE  148

         001566 0000!
    6683                                                      ; call occurs [#_vListInsertEnd] ; |3951| 
    6684                      .dwpsn  file "../FreeRTOS/Source/tasks_sysStk.c",line 3952,column 5,is_stmt
    6685 001568 4A11          B $C$L216 ; |3952| 
    6686                                                      ; branch occurs ; |3952| 
    6687 00156a       $C$L215:    
    6688                      .dwpsn  file "../FreeRTOS/Source/tasks_sysStk.c",line 3956,column 6,is_stmt
    6689 00156a ED31          MOV dbl(*(#_pxCurrentTCB)), XAR3
         00156c BF00 
         00156e 0004-
    6690 001570 A96D          MOV *AR3(#24), AR1 ; |3956| 
         001572 0018 
    6691 001574 ED04          MOV dbl(*SP(#2)), XAR3
         001576 BF   
    6692 001577 C96D          MOV AR1, *AR3(#24) ; |3956| 
         001579 0018 
    6693 00157b       $C$L216:    
    6694                      .dwpsn  file "../FreeRTOS/Source/tasks_sysStk.c",line 3962,column 5,is_stmt
    6695 00157b E608          MOV #1, *SP(#4) ; |3962| 
         00157d 01   
    6696                      .dwpsn  file "../FreeRTOS/Source/tasks_sysStk.c",line 3963,column 4,is_stmt
    6697 00157e 4A1B          B $C$L218 ; |3963| 
    6698                                                      ; branch occurs ; |3963| 
    6699 001580       $C$L217:    
    6700                      .dwpsn  file "../FreeRTOS/Source/tasks_sysStk.c",line 3966,column 5,is_stmt
    6701 001580 ED31          MOV dbl(*(#_pxCurrentTCB)), XAR3
         001582 BF00 
         001584 0004-
    6702 001586 A96D          MOV *AR3(#24), AR1 ; |3966| 
         001588 0018 
    6703 00158a ED04          MOV dbl(*SP(#2)), XAR3
         00158c BF   
    6704 00158d AA6D          MOV *AR3(#43), AR2 ; |3966| 
         00158f 002B 
    6705 001591 12A8          CMPU AR2 >= AR1, TC1 ; |3966| 
         001593 94   
    6706 001594 62E4          BCC $C$L218,TC1 ; |3966| 
    6707                                                      ; branchcc occurs ; |3966| 
    6708                      .dwpsn  file "../FreeRTOS/Source/tasks_sysStk.c",line 3975,column 6,is_stmt
    6709 001596 E608          MOV #1, *SP(#4) ; |3975| 
         001598 01   
    6710                      .dwpsn  file "../FreeRTOS/Source/tasks_sysStk.c",line 3976,column 5,is_stmt
    6711 001599 4A00          B $C$L218 ; |3976| 
    6712                                                      ; branch occurs ; |3976| 
    6713 00159b       $C$L218:    
    6714                      .dwpsn  file "../FreeRTOS/Source/tasks_sysStk.c",line 3988,column 3,is_stmt
    6715 00159b A408          MOV *SP(#4), T0 ; |3988| 
    6716                      .dwpsn  file "../FreeRTOS/Source/tasks_sysStk.c",line 3989,column 2,is_stmt
    6717 00159d 4E05          AADD #5, SP
    6718                      .dwcfi  cfa_offset, 1
    6719              $C$DW$496       .dwtag  DW_TAG_TI_branch
    6720                      .dwattr $C$DW$496, DW_AT_low_pc(0x00)
    6721                      .dwattr $C$DW$496, DW_AT_TI_return
    6722 00159f 4804          RET
    6723                                                      ; return occurs
TMS320C55x Assembler PC v4.4.1 Tue Oct 02 02:33:57 2018

Tools Copyright (c) 1996-2012 Texas Instruments Incorporated
tasks_sysStk.asm                                                     PAGE  149

    6724                      .dwattr $C$DW$489, DW_AT_TI_end_file("../FreeRTOS/Source/tasks_sysStk.c")
    6725                      .dwattr $C$DW$489, DW_AT_TI_end_line(0xf95)
    6726                      .dwattr $C$DW$489, DW_AT_TI_end_column(0x02)
    6727                      .dwendentry
    6728                      .dwendtag $C$DW$489
    6729              
    6730 0015a1               .sect   ".text"
    6731                      .align 4
    6732                      .global _xTaskPriorityDisinherit
    6733              
    6734              $C$DW$497       .dwtag  DW_TAG_subprogram, DW_AT_name("xTaskPriorityDisinherit")
    6735                      .dwattr $C$DW$497, DW_AT_low_pc(_xTaskPriorityDisinherit)
    6736                      .dwattr $C$DW$497, DW_AT_high_pc(0x00)
    6737                      .dwattr $C$DW$497, DW_AT_TI_symbol_name("_xTaskPriorityDisinherit")
    6738                      .dwattr $C$DW$497, DW_AT_external
    6739                      .dwattr $C$DW$497, DW_AT_type(*$C$DW$T$43)
    6740                      .dwattr $C$DW$497, DW_AT_TI_begin_file("../FreeRTOS/Source/tasks_sysStk.c")
    6741                      .dwattr $C$DW$497, DW_AT_TI_begin_line(0xf9c)
    6742                      .dwattr $C$DW$497, DW_AT_TI_begin_column(0x0d)
    6743                      .dwattr $C$DW$497, DW_AT_TI_max_frame_size(0x06)
    6744                      .dwpsn  file "../FreeRTOS/Source/tasks_sysStk.c",line 3997,column 2,is_stmt,address _xTaskPriorityDis
    6745              
    6746                      .dwfde $C$DW$CIE, _xTaskPriorityDisinherit
    6747              $C$DW$498       .dwtag  DW_TAG_formal_parameter, DW_AT_name("pxMutexHolder")
    6748                      .dwattr $C$DW$498, DW_AT_TI_symbol_name("_pxMutexHolder")
    6749                      .dwattr $C$DW$498, DW_AT_type(*$C$DW$T$107)
    6750                      .dwattr $C$DW$498, DW_AT_location[DW_OP_reg17]
    6751              ;*******************************************************************************
    6752              ;* FUNCTION NAME: xTaskPriorityDisinherit                                      *
    6753              ;*                                                                             *
    6754              ;*   Function Uses Regs : AC0,AC0,AC1,AC1,T0,AR0,XAR0,AR1,XAR1,AR2,AR3,XAR3,SP,*
    6755              ;*                        CARRY,TC1,M40,SATA,SATD,RDM,FRCT,SMUL                *
    6756              ;*   Stack Frame        : Compact (No Frame Pointer, w/ debug)                 *
    6757              ;*   Total Frame Size   : 6 words                                              *
    6758              ;*                        (1 return address/alignment)                         *
    6759              ;*                        (5 local values)                                     *
    6760              ;*   Min System Stack   : 1 word                                               *
    6761              ;*******************************************************************************
    6762 0015a4       _xTaskPriorityDisinherit:
    6763                      .dwcfi  cfa_offset, 1
    6764                      .dwcfi  save_reg_to_mem, 91, -1
    6765 0015a4 4EFB          AADD #-5, SP
    6766                      .dwcfi  cfa_offset, 6
    6767              $C$DW$499       .dwtag  DW_TAG_variable, DW_AT_name("pxMutexHolder")
    6768                      .dwattr $C$DW$499, DW_AT_TI_symbol_name("_pxMutexHolder")
    6769                      .dwattr $C$DW$499, DW_AT_type(*$C$DW$T$107)
    6770                      .dwattr $C$DW$499, DW_AT_location[DW_OP_bregx 0x24 0]
    6771              $C$DW$500       .dwtag  DW_TAG_variable, DW_AT_name("pxTCB")
    6772                      .dwattr $C$DW$500, DW_AT_TI_symbol_name("_pxTCB")
    6773                      .dwattr $C$DW$500, DW_AT_type(*$C$DW$T$160)
    6774                      .dwattr $C$DW$500, DW_AT_location[DW_OP_bregx 0x24 2]
    6775              $C$DW$501       .dwtag  DW_TAG_variable, DW_AT_name("xReturn")
    6776                      .dwattr $C$DW$501, DW_AT_TI_symbol_name("_xReturn")
    6777                      .dwattr $C$DW$501, DW_AT_type(*$C$DW$T$43)
    6778                      .dwattr $C$DW$501, DW_AT_location[DW_OP_bregx 0x24 4]
TMS320C55x Assembler PC v4.4.1 Tue Oct 02 02:33:57 2018

Tools Copyright (c) 1996-2012 Texas Instruments Incorporated
tasks_sysStk.asm                                                     PAGE  150

    6779 0015a6 EB00          MOV XAR0, dbl(*SP(#0))
         0015a8 85   
    6780                      .dwpsn  file "../FreeRTOS/Source/tasks_sysStk.c",line 3998,column 16,is_stmt
    6781 0015a9 ED00          MOV dbl(*SP(#0)), XAR3
         0015ab BF   
    6782 0015ac EB04          MOV XAR3, dbl(*SP(#2))
         0015ae B5   
    6783                      .dwpsn  file "../FreeRTOS/Source/tasks_sysStk.c",line 3999,column 13,is_stmt
    6784 0015af E608          MOV #0, *SP(#4) ; |3999| 
         0015b1 00   
    6785                      .dwpsn  file "../FreeRTOS/Source/tasks_sysStk.c",line 4001,column 3,is_stmt
    6786 0015b2 ED00          MOV dbl(*SP(#0)), XAR3
         0015b4 BF   
    6787 0015b5 90B0          MOV XAR3, AC0
    6788 0015b7 6D00          BCC $C$L226,AC0 == #0 ; |4001| 
         0015b9 00AB 
    6789                                                      ; branchcc occurs ; |4001| 
    6790                      .dwpsn  file "../FreeRTOS/Source/tasks_sysStk.c",line 4007,column 4,is_stmt
    6791 0015bb ED31          MOV dbl(*(#_pxCurrentTCB)), XAR3
         0015bd BF00 
         0015bf 0004-
    6792 0015c1 90B0          MOV XAR3, AC0
    6793 0015c3 ED04          MOV dbl(*SP(#2)), XAR3
         0015c5 BF   
    6794 0015c6 90B1          MOV XAR3, AC1
    6795 0015c8 121C          CMPU AC1 != AC0, TC1 ; |4007| 
         0015ca 04   
    6796 0015cb 3C09          MOV #0, AR1
    6797 0015cd 6164          BCC $C$L219,TC1 ; |4007| 
    6798                                                      ; branchcc occurs ; |4007| 
    6799 0015cf 3C19          MOV #1, AR1
    6800 0015d1       $C$L219:    
    6801 0015d1 6299          BCC $C$L221,AR1 != #0 ; |4007| 
    6802                                                      ; branchcc occurs ; |4007| 
    6803 0015d3 20     nop
    6804 0015d4 46B3   bset INTM
    6805 0015d6       $C$L220:    
    6806 0015d6       $C$DW$L$_xTaskPriorityDisinherit$6$B:
    6807 0015d6 4A7E          B $C$L220 ; |4007| 
    6808                                                      ; branch occurs ; |4007| 
    6809 0015d8       $C$DW$L$_xTaskPriorityDisinherit$6$E:
    6810 0015d8       $C$L221:    
    6811                      .dwpsn  file "../FreeRTOS/Source/tasks_sysStk.c",line 4008,column 4,is_stmt
    6812 0015d8 A96D          MOV *AR3(#44), AR1 ; |4008| 
         0015da 002C 
    6813 0015dc 6299          BCC $C$L223,AR1 != #0 ; |4008| 
    6814                                                      ; branchcc occurs ; |4008| 
    6815 0015de 20     nop
    6816 0015df 46B3   bset INTM
    6817 0015e1       $C$L222:    
    6818 0015e1       $C$DW$L$_xTaskPriorityDisinherit$9$B:
    6819 0015e1 4A7E          B $C$L222 ; |4008| 
    6820                                                      ; branch occurs ; |4008| 
    6821 0015e3       $C$DW$L$_xTaskPriorityDisinherit$9$E:
    6822 0015e3       $C$L223:    
TMS320C55x Assembler PC v4.4.1 Tue Oct 02 02:33:57 2018

Tools Copyright (c) 1996-2012 Texas Instruments Incorporated
tasks_sysStk.asm                                                     PAGE  151

    6823                      .dwpsn  file "../FreeRTOS/Source/tasks_sysStk.c",line 4009,column 4,is_stmt
    6824 0015e3 F76D          SUB #1, *AR3(#44) ; |4009| 
         0015e5 FFFF 
         0015e7 002C 
    6825                      .dwpsn  file "../FreeRTOS/Source/tasks_sysStk.c",line 4013,column 4,is_stmt
    6826 0015e9 ED04          MOV dbl(*SP(#2)), XAR3
         0015eb BF   
    6827 0015ec AA6D          MOV *AR3(#24), AR2 ; |4013| 
         0015ee 0018 
    6828 0015f0 A96D          MOV *AR3(#43), AR1 ; |4013| 
         0015f2 002B 
    6829 0015f4 12A0          CMPU AR2 == AR1, TC1 ; |4013| 
         0015f6 94   
    6830 0015f7 0464          BCC $C$L226,TC1 ; |4013| 
         0015f9 6C   
    6831                                                      ; branchcc occurs ; |4013| 
    6832                      .dwpsn  file "../FreeRTOS/Source/tasks_sysStk.c",line 4016,column 5,is_stmt
    6833 0015fa A96D          MOV *AR3(#44), AR1 ; |4016| 
         0015fc 002C 
    6834 0015fe 0419          BCC $C$L226,AR1 != #0 ; |4016| 
         001600 65   
    6835                                                      ; branchcc occurs ; |4016| 
    6836                      .dwpsn  file "../FreeRTOS/Source/tasks_sysStk.c",line 4023,column 6,is_stmt
    6837 001601 ED04          MOV dbl(*SP(#2)), XAR0
         001603 8F   
    6838 001604 1404          AADD #4, AR0 ; |4023| 
         001606 84   
    6839              $C$DW$502       .dwtag  DW_TAG_TI_branch
    6840                      .dwattr $C$DW$502, DW_AT_low_pc(0x00)
    6841                      .dwattr $C$DW$502, DW_AT_name("_uxListRemove")
    6842                      .dwattr $C$DW$502, DW_AT_TI_call
    6843 001607 6C00          CALL #_uxListRemove ; |4023| 
         001609 0000!
    6844                                                      ; call occurs [#_uxListRemove] ; |4023| 
    6845 00160b 6004          BCC $C$L224,T0 == #0 ; |4023| 
    6846                                                      ; branchcc occurs ; |4023| 
    6847                      .dwpsn  file "../FreeRTOS/Source/tasks_sysStk.c",line 4026,column 6,is_stmt
    6848 00160d       $C$L224:    
    6849                      .dwpsn  file "../FreeRTOS/Source/tasks_sysStk.c",line 4035,column 6,is_stmt
    6850 00160d ED04          MOV dbl(*SP(#2)), XAR3
         00160f BF   
    6851 001610 A96D          MOV *AR3(#43), AR1 ; |4035| 
         001612 002B 
    6852 001614 C96D          MOV AR1, *AR3(#24) ; |4035| 
         001616 0018 
    6853                      .dwpsn  file "../FreeRTOS/Source/tasks_sysStk.c",line 4040,column 6,is_stmt
    6854 001618 ED04          MOV dbl(*SP(#2)), XAR3
         00161a BF   
    6855 00161b 3C50          MOV #5, AC0 ; |4040| 
    6856 00161d DF6D          SUB uns(*AR3(#24)), AC0, AC0 ; |4040| 
         00161f 0F00 
         001621 18   
    6857 001622 EB6D          MOV AC0, dbl(*AR3(#14)) ; |4040| 
         001624 0800 
         001626 0E   
TMS320C55x Assembler PC v4.4.1 Tue Oct 02 02:33:57 2018

Tools Copyright (c) 1996-2012 Texas Instruments Incorporated
tasks_sysStk.asm                                                     PAGE  152

    6858                      .dwpsn  file "../FreeRTOS/Source/tasks_sysStk.c",line 4041,column 6,is_stmt
    6859 001627 ED04          MOV dbl(*SP(#2)), XAR3
         001629 BF   
    6860 00162a A931          MOV *(#_uxTopReadyPriority), AR1 ; |4041| 
         00162c 0000 
         00162e 72-  
    6861 00162f AA6D          MOV *AR3(#24), AR2 ; |4041| 
         001631 0018 
    6862 001633 1298          CMPU AR2 <= AR1, TC1 ; |4041| 
         001635 A4   
    6863 001636 64E4          BCC $C$L225,TC1 ; |4041| 
    6864                                                      ; branchcc occurs ; |4041| 
    6865 001638 A96D          MOV *AR3(#24), AR1 ; |4041| 
         00163a 0018 
    6866 00163c C931          MOV AR1, *(#_uxTopReadyPriority) ; |4041| 
         00163e 0000 
         001640 72-  
    6867 001641       $C$L225:    
    6868 001641 DF6D          MOV uns(*AR3(#24)), AC1 ; |4041| 
         001643 1500 
         001645 18   
    6869 001646 ED04          MOV dbl(*SP(#2)), XAR1
         001648 9F   
    6870 001649 1015          SFTS AC1, #1, AC0 ; |4041| 
         00164b 01   
    6871 00164c 1013          ADD AC1 << #3, AC0 ; |4041| 
         00164e 03   
    6872 00164f 900B          MOV AC0, XAR3
    6873 001651 EC31          AMOV #_pxReadyTasksLists, XAR0 ; |4041| 
         001653 8E00 
         001655 0006-
    6874              
    6875 001657 14B1          AADD XAR3, XAR0 ; |4041| 
         001659 80   
    6876 00165a 1504  ||      AADD #4, AR1 ; |4041| 
         00165c 9C   
    6877              
    6878              $C$DW$503       .dwtag  DW_TAG_TI_branch
    6879                      .dwattr $C$DW$503, DW_AT_low_pc(0x00)
    6880                      .dwattr $C$DW$503, DW_AT_name("_vListInsertEnd")
    6881                      .dwattr $C$DW$503, DW_AT_TI_call
    6882 00165d 6C00          CALL #_vListInsertEnd ; |4041| 
         00165f 0000!
    6883                                                      ; call occurs [#_vListInsertEnd] ; |4041| 
    6884                      .dwpsn  file "../FreeRTOS/Source/tasks_sysStk.c",line 4051,column 6,is_stmt
    6885 001661 E608          MOV #1, *SP(#4) ; |4051| 
         001663 01   
    6886                      .dwpsn  file "../FreeRTOS/Source/tasks_sysStk.c",line 4052,column 5,is_stmt
    6887 001664 4A00          B $C$L226 ; |4052| 
    6888                                                      ; branch occurs ; |4052| 
    6889 001666       $C$L226:    
    6890                      .dwpsn  file "../FreeRTOS/Source/tasks_sysStk.c",line 4068,column 3,is_stmt
    6891 001666 A408          MOV *SP(#4), T0 ; |4068| 
    6892                      .dwpsn  file "../FreeRTOS/Source/tasks_sysStk.c",line 4069,column 2,is_stmt
    6893 001668 4E05          AADD #5, SP
TMS320C55x Assembler PC v4.4.1 Tue Oct 02 02:33:57 2018

Tools Copyright (c) 1996-2012 Texas Instruments Incorporated
tasks_sysStk.asm                                                     PAGE  153

    6894                      .dwcfi  cfa_offset, 1
    6895              $C$DW$504       .dwtag  DW_TAG_TI_branch
    6896                      .dwattr $C$DW$504, DW_AT_low_pc(0x00)
    6897                      .dwattr $C$DW$504, DW_AT_TI_return
    6898 00166a 4804          RET
    6899                                                      ; return occurs
    6900              
    6901              $C$DW$505       .dwtag  DW_TAG_TI_loop
    6902                      .dwattr $C$DW$505, DW_AT_name("F:\eZdsp-DBG-sim\tmp1\c55x-sim2\foo\Debug\tasks_sysStk.asm:$C$L222:1:1
    6903                      .dwattr $C$DW$505, DW_AT_TI_begin_file("../FreeRTOS/Source/tasks_sysStk.c")
    6904                      .dwattr $C$DW$505, DW_AT_TI_begin_line(0xfa8)
    6905                      .dwattr $C$DW$505, DW_AT_TI_end_line(0xfa8)
    6906              $C$DW$506       .dwtag  DW_TAG_TI_loop_range
    6907                      .dwattr $C$DW$506, DW_AT_low_pc($C$DW$L$_xTaskPriorityDisinherit$9$B)
    6908                      .dwattr $C$DW$506, DW_AT_high_pc($C$DW$L$_xTaskPriorityDisinherit$9$E)
    6909                      .dwendtag $C$DW$505
    6910              
    6911              
    6912              $C$DW$507       .dwtag  DW_TAG_TI_loop
    6913                      .dwattr $C$DW$507, DW_AT_name("F:\eZdsp-DBG-sim\tmp1\c55x-sim2\foo\Debug\tasks_sysStk.asm:$C$L220:1:1
    6914                      .dwattr $C$DW$507, DW_AT_TI_begin_file("../FreeRTOS/Source/tasks_sysStk.c")
    6915                      .dwattr $C$DW$507, DW_AT_TI_begin_line(0xfa7)
    6916                      .dwattr $C$DW$507, DW_AT_TI_end_line(0xfa7)
    6917              $C$DW$508       .dwtag  DW_TAG_TI_loop_range
    6918                      .dwattr $C$DW$508, DW_AT_low_pc($C$DW$L$_xTaskPriorityDisinherit$6$B)
    6919                      .dwattr $C$DW$508, DW_AT_high_pc($C$DW$L$_xTaskPriorityDisinherit$6$E)
    6920                      .dwendtag $C$DW$507
    6921              
    6922                      .dwattr $C$DW$497, DW_AT_TI_end_file("../FreeRTOS/Source/tasks_sysStk.c")
    6923                      .dwattr $C$DW$497, DW_AT_TI_end_line(0xfe5)
    6924                      .dwattr $C$DW$497, DW_AT_TI_end_column(0x02)
    6925                      .dwendentry
    6926                      .dwendtag $C$DW$497
    6927              
    6928 00166c               .sect   ".text"
    6929                      .align 4
    6930                      .global _vTaskPriorityDisinheritAfterTimeout
    6931              
    6932              $C$DW$509       .dwtag  DW_TAG_subprogram, DW_AT_name("vTaskPriorityDisinheritAfterTimeout")
    6933                      .dwattr $C$DW$509, DW_AT_low_pc(_vTaskPriorityDisinheritAfterTimeout)
    6934                      .dwattr $C$DW$509, DW_AT_high_pc(0x00)
    6935                      .dwattr $C$DW$509, DW_AT_TI_symbol_name("_vTaskPriorityDisinheritAfterTimeout")
    6936                      .dwattr $C$DW$509, DW_AT_external
    6937                      .dwattr $C$DW$509, DW_AT_TI_begin_file("../FreeRTOS/Source/tasks_sysStk.c")
    6938                      .dwattr $C$DW$509, DW_AT_TI_begin_line(0xfec)
    6939                      .dwattr $C$DW$509, DW_AT_TI_begin_column(0x07)
    6940                      .dwattr $C$DW$509, DW_AT_TI_max_frame_size(0x0a)
    6941                      .dwpsn  file "../FreeRTOS/Source/tasks_sysStk.c",line 4077,column 2,is_stmt,address _vTaskPriorityDis
    6942              
    6943                      .dwfde $C$DW$CIE, _vTaskPriorityDisinheritAfterTimeout
    6944              $C$DW$510       .dwtag  DW_TAG_formal_parameter, DW_AT_name("pxMutexHolder")
    6945                      .dwattr $C$DW$510, DW_AT_TI_symbol_name("_pxMutexHolder")
    6946                      .dwattr $C$DW$510, DW_AT_type(*$C$DW$T$107)
    6947                      .dwattr $C$DW$510, DW_AT_location[DW_OP_reg17]
    6948              $C$DW$511       .dwtag  DW_TAG_formal_parameter, DW_AT_name("uxHighestPriorityWaitingTask")
TMS320C55x Assembler PC v4.4.1 Tue Oct 02 02:33:57 2018

Tools Copyright (c) 1996-2012 Texas Instruments Incorporated
tasks_sysStk.asm                                                     PAGE  154

    6949                      .dwattr $C$DW$511, DW_AT_TI_symbol_name("_uxHighestPriorityWaitingTask")
    6950                      .dwattr $C$DW$511, DW_AT_type(*$C$DW$T$25)
    6951                      .dwattr $C$DW$511, DW_AT_location[DW_OP_reg12]
    6952              ;*******************************************************************************
    6953              ;* FUNCTION NAME: vTaskPriorityDisinheritAfterTimeout                          *
    6954              ;*                                                                             *
    6955              ;*   Function Uses Regs : AC0,AC0,AC1,AC1,T0,AR0,XAR0,AR1,XAR1,AR2,XAR2,AR3,   *
    6956              ;*                        XAR3,SP,CARRY,TC1,M40,SATA,SATD,RDM,FRCT,SMUL        *
    6957              ;*   Stack Frame        : Compact (No Frame Pointer, w/ debug)                 *
    6958              ;*   Total Frame Size   : 10 words                                             *
    6959              ;*                        (1 return address/alignment)                         *
    6960              ;*                        (9 local values)                                     *
    6961              ;*   Min System Stack   : 1 word                                               *
    6962              ;*******************************************************************************
    6963 00166c       _vTaskPriorityDisinheritAfterTimeout:
    6964                      .dwcfi  cfa_offset, 1
    6965                      .dwcfi  save_reg_to_mem, 91, -1
    6966 00166c 4EF7          AADD #-9, SP
    6967                      .dwcfi  cfa_offset, 10
    6968              $C$DW$512       .dwtag  DW_TAG_variable, DW_AT_name("pxMutexHolder")
    6969                      .dwattr $C$DW$512, DW_AT_TI_symbol_name("_pxMutexHolder")
    6970                      .dwattr $C$DW$512, DW_AT_type(*$C$DW$T$107)
    6971                      .dwattr $C$DW$512, DW_AT_location[DW_OP_bregx 0x24 0]
    6972              $C$DW$513       .dwtag  DW_TAG_variable, DW_AT_name("uxHighestPriorityWaitingTask")
    6973                      .dwattr $C$DW$513, DW_AT_TI_symbol_name("_uxHighestPriorityWaitingTask")
    6974                      .dwattr $C$DW$513, DW_AT_type(*$C$DW$T$25)
    6975                      .dwattr $C$DW$513, DW_AT_location[DW_OP_bregx 0x24 2]
    6976              $C$DW$514       .dwtag  DW_TAG_variable, DW_AT_name("pxTCB")
    6977                      .dwattr $C$DW$514, DW_AT_TI_symbol_name("_pxTCB")
    6978                      .dwattr $C$DW$514, DW_AT_type(*$C$DW$T$160)
    6979                      .dwattr $C$DW$514, DW_AT_location[DW_OP_bregx 0x24 4]
    6980              $C$DW$515       .dwtag  DW_TAG_variable, DW_AT_name("uxPriorityUsedOnEntry")
    6981                      .dwattr $C$DW$515, DW_AT_TI_symbol_name("_uxPriorityUsedOnEntry")
    6982                      .dwattr $C$DW$515, DW_AT_type(*$C$DW$T$25)
    6983                      .dwattr $C$DW$515, DW_AT_location[DW_OP_bregx 0x24 6]
    6984              $C$DW$516       .dwtag  DW_TAG_variable, DW_AT_name("uxPriorityToUse")
    6985                      .dwattr $C$DW$516, DW_AT_TI_symbol_name("_uxPriorityToUse")
    6986                      .dwattr $C$DW$516, DW_AT_type(*$C$DW$T$25)
    6987                      .dwattr $C$DW$516, DW_AT_location[DW_OP_bregx 0x24 7]
    6988              $C$DW$517       .dwtag  DW_TAG_variable, DW_AT_name("uxOnlyOneMutexHeld")
    6989                      .dwattr $C$DW$517, DW_AT_TI_symbol_name("_uxOnlyOneMutexHeld")
    6990                      .dwattr $C$DW$517, DW_AT_type(*$C$DW$T$137)
    6991                      .dwattr $C$DW$517, DW_AT_location[DW_OP_bregx 0x24 8]
    6992 00166e C404          MOV T0, *SP(#2) ; |4077| 
    6993 001670 EB00          MOV XAR0, dbl(*SP(#0))
         001672 85   
    6994                      .dwpsn  file "../FreeRTOS/Source/tasks_sysStk.c",line 4078,column 16,is_stmt
    6995 001673 ED00          MOV dbl(*SP(#0)), XAR3
         001675 BF   
    6996 001676 EB08          MOV XAR3, dbl(*SP(#4))
         001678 B5   
    6997                      .dwpsn  file "../FreeRTOS/Source/tasks_sysStk.c",line 4080,column 20,is_stmt
    6998 001679 E610          MOV #1, *SP(#8) ; |4080| 
         00167b 01   
    6999                      .dwpsn  file "../FreeRTOS/Source/tasks_sysStk.c",line 4082,column 3,is_stmt
TMS320C55x Assembler PC v4.4.1 Tue Oct 02 02:33:57 2018

Tools Copyright (c) 1996-2012 Texas Instruments Incorporated
tasks_sysStk.asm                                                     PAGE  155

    7000 00167c ED00          MOV dbl(*SP(#0)), XAR3
         00167e BF   
    7001 00167f 90B0          MOV XAR3, AC0
    7002 001681 6D00          BCC $C$L239,AC0 == #0 ; |4082| 
         001683 00FA 
    7003                                                      ; branchcc occurs ; |4082| 
    7004                      .dwpsn  file "../FreeRTOS/Source/tasks_sysStk.c",line 4086,column 4,is_stmt
    7005 001685 ED08          MOV dbl(*SP(#4)), XAR3
         001687 BF   
    7006 001688 A96D          MOV *AR3(#44), AR1 ; |4086| 
         00168a 002C 
    7007 00168c 6299          BCC $C$L228,AR1 != #0 ; |4086| 
    7008                                                      ; branchcc occurs ; |4086| 
    7009 00168e 20     nop
    7010 00168f 46B3   bset INTM
    7011 001691       $C$L227:    
    7012 001691       $C$DW$L$_vTaskPriorityDisinheritAfterTimeout$4$B:
    7013 001691 4A7E          B $C$L227 ; |4086| 
    7014                                                      ; branch occurs ; |4086| 
    7015 001693       $C$DW$L$_vTaskPriorityDisinheritAfterTimeout$4$E:
    7016 001693       $C$L228:    
    7017                      .dwpsn  file "../FreeRTOS/Source/tasks_sysStk.c",line 4092,column 4,is_stmt
    7018 001693 A904          MOV *SP(#2), AR1 ; |4092| 
    7019 001695 AA6D          MOV *AR3(#43), AR2 ; |4092| 
         001697 002B 
    7020 001699 12A8          CMPU AR2 >= AR1, TC1 ; |4092| 
         00169b 94   
    7021 00169c 6264          BCC $C$L229,TC1 ; |4092| 
    7022                                                      ; branchcc occurs ; |4092| 
    7023                      .dwpsn  file "../FreeRTOS/Source/tasks_sysStk.c",line 4094,column 5,is_stmt
    7024 00169e C90E          MOV AR1, *SP(#7) ; |4094| 
    7025                      .dwpsn  file "../FreeRTOS/Source/tasks_sysStk.c",line 4095,column 4,is_stmt
    7026 0016a0 4A06          B $C$L230 ; |4095| 
    7027                                                      ; branch occurs ; |4095| 
    7028 0016a2       $C$L229:    
    7029                      .dwpsn  file "../FreeRTOS/Source/tasks_sysStk.c",line 4098,column 5,is_stmt
    7030 0016a2 A96D          MOV *AR3(#43), AR1 ; |4098| 
         0016a4 002B 
    7031 0016a6 C90E          MOV AR1, *SP(#7) ; |4098| 
    7032 0016a8       $C$L230:    
    7033                      .dwpsn  file "../FreeRTOS/Source/tasks_sysStk.c",line 4102,column 4,is_stmt
    7034 0016a8 ED08          MOV dbl(*SP(#4)), XAR3
         0016aa BF   
    7035 0016ab AA6D          MOV *AR3(#24), AR2 ; |4102| 
         0016ad 0018 
    7036 0016af 12A0          CMPU AR2 == AR1, TC1 ; |4102| 
         0016b1 94   
    7037 0016b2 6D64          BCC $C$L239,TC1 ; |4102| 
         0016b4 00C9 
    7038                                                      ; branchcc occurs ; |4102| 
    7039                      .dwpsn  file "../FreeRTOS/Source/tasks_sysStk.c",line 4108,column 5,is_stmt
    7040 0016b6 A910          MOV *SP(#8), AR1 ; |4108| 
    7041 0016b8 AA6D          MOV *AR3(#44), AR2 ; |4108| 
         0016ba 002C 
    7042 0016bc 12AC          CMPU AR2 != AR1, TC1 ; |4108| 
TMS320C55x Assembler PC v4.4.1 Tue Oct 02 02:33:57 2018

Tools Copyright (c) 1996-2012 Texas Instruments Incorporated
tasks_sysStk.asm                                                     PAGE  156

         0016be 94   
    7043 0016bf 6D64          BCC $C$L239,TC1 ; |4108| 
         0016c1 00BC 
    7044                                                      ; branchcc occurs ; |4108| 
    7045                      .dwpsn  file "../FreeRTOS/Source/tasks_sysStk.c",line 4113,column 6,is_stmt
    7046 0016c3 ED31          MOV dbl(*(#_pxCurrentTCB)), XAR3
         0016c5 BF00 
         0016c7 0004-
    7047 0016c9 90B0          MOV XAR3, AC0
    7048 0016cb ED08          MOV dbl(*SP(#4)), XAR3
         0016cd BF   
    7049 0016ce 90B1          MOV XAR3, AC1
    7050 0016d0 1210          CMPU AC1 == AC0, TC1 ; |4113| 
         0016d2 04   
    7051 0016d3 3C09          MOV #0, AR1
    7052 0016d5 6164          BCC $C$L231,TC1 ; |4113| 
    7053                                                      ; branchcc occurs ; |4113| 
    7054 0016d7 3C19          MOV #1, AR1
    7055 0016d9       $C$L231:    
    7056 0016d9 6299          BCC $C$L233,AR1 != #0 ; |4113| 
    7057                                                      ; branchcc occurs ; |4113| 
    7058 0016db 20     nop
    7059 0016dc 46B3   bset INTM
    7060 0016de       $C$L232:    
    7061 0016de       $C$DW$L$_vTaskPriorityDisinheritAfterTimeout$14$B:
    7062 0016de 4A7E          B $C$L232 ; |4113| 
    7063                                                      ; branch occurs ; |4113| 
    7064 0016e0       $C$DW$L$_vTaskPriorityDisinheritAfterTimeout$14$E:
    7065 0016e0       $C$L233:    
    7066                      .dwpsn  file "../FreeRTOS/Source/tasks_sysStk.c",line 4119,column 6,is_stmt
    7067 0016e0 A96D          MOV *AR3(#24), AR1 ; |4119| 
         0016e2 0018 
    7068 0016e4 C90C          MOV AR1, *SP(#6) ; |4119| 
    7069                      .dwpsn  file "../FreeRTOS/Source/tasks_sysStk.c",line 4120,column 6,is_stmt
    7070 0016e6 ED08          MOV dbl(*SP(#4)), XAR3
         0016e8 BF   
    7071 0016e9 A90E          MOV *SP(#7), AR1 ; |4120| 
    7072 0016eb C96D          MOV AR1, *AR3(#24) ; |4120| 
         0016ed 0018 
    7073                      .dwpsn  file "../FreeRTOS/Source/tasks_sysStk.c",line 4124,column 6,is_stmt
    7074 0016ef ED08          MOV dbl(*SP(#4)), XAR3
         0016f1 BF   
    7075 0016f2 7A80          MOV #-32768 << #16, AC0 ; |4124| 
         0016f4 000A 
    7076 0016f6 ED6D          MOV dbl(*AR3(#14)), AC1 ; |4124| 
         0016f8 1800 
         0016fa 0E   
    7077 0016fb 2810          AND AC1, AC0 ; |4124| 
    7078 0016fd 6510          BCC $C$L234,AC0 != #0 ; |4124| 
    7079                                                      ; branchcc occurs ; |4124| 
    7080                      .dwpsn  file "../FreeRTOS/Source/tasks_sysStk.c",line 4126,column 7,is_stmt
    7081 0016ff 3C50          MOV #5, AC0 ; |4126| 
    7082 001701 DF0E          SUB uns(*SP(#7)), AC0, AC0 ; |4126| 
         001703 0F   
    7083 001704 EB6D          MOV AC0, dbl(*AR3(#14)) ; |4126| 
TMS320C55x Assembler PC v4.4.1 Tue Oct 02 02:33:57 2018

Tools Copyright (c) 1996-2012 Texas Instruments Incorporated
tasks_sysStk.asm                                                     PAGE  157

         001706 0800 
         001708 0E   
    7084                      .dwpsn  file "../FreeRTOS/Source/tasks_sysStk.c",line 4127,column 6,is_stmt
    7085 001709       $C$L234:    
    7086                      .dwpsn  file "../FreeRTOS/Source/tasks_sysStk.c",line 4139,column 6,is_stmt
    7087 001709 DF0C          MOV uns(*SP(#6)), AC1 ; |4139| 
         00170b 15   
    7088 00170c 1015          SFTS AC1, #1, AC0 ; |4139| 
         00170e 01   
    7089 00170f 1013          ADD AC1 << #3, AC0 ; |4139| 
         001711 03   
    7090 001712 900A          MOV AC0, XAR2
    7091 001714 EC31          AMOV #_pxReadyTasksLists, XAR3 ; |4139| 
         001716 BE00 
         001718 0006-
    7092 00171a 14A1          AADD XAR2, XAR3 ; |4139| 
         00171c B0   
    7093 00171d 90B1          MOV XAR3, AC1
    7094 00171f ED08          MOV dbl(*SP(#4)), XAR3
         001721 BF   
    7095 001722 ED6D          MOV dbl(*AR3(#12)), XAR3
         001724 BF00 
         001726 0C   
    7096 001727 90B0          MOV XAR3, AC0
    7097 001729 120C          CMPU AC0 != AC1, TC1 ; |4139| 
         00172b 14   
    7098 00172c 6264          BCC $C$L235,TC1 ; |4139| 
    7099                                                      ; branchcc occurs ; |4139| 
    7100 00172e 3C19          MOV #1, AR1
    7101 001730 4A02          B $C$L236 ; |4139| 
    7102                                                      ; branch occurs ; |4139| 
    7103 001732       $C$L235:    
    7104 001732 3C09          MOV #0, AR1
    7105 001734       $C$L236:    
    7106 001734 0409          BCC $C$L239,AR1 == #0 ; |4139| 
         001736 48   
    7107                                                      ; branchcc occurs ; |4139| 
    7108                      .dwpsn  file "../FreeRTOS/Source/tasks_sysStk.c",line 4141,column 7,is_stmt
    7109 001737 ED08          MOV dbl(*SP(#4)), XAR0
         001739 8F   
    7110 00173a 1404          AADD #4, AR0 ; |4141| 
         00173c 84   
    7111              $C$DW$518       .dwtag  DW_TAG_TI_branch
    7112                      .dwattr $C$DW$518, DW_AT_low_pc(0x00)
    7113                      .dwattr $C$DW$518, DW_AT_name("_uxListRemove")
    7114                      .dwattr $C$DW$518, DW_AT_TI_call
    7115 00173d 6C00          CALL #_uxListRemove ; |4141| 
         00173f 0000!
    7116                                                      ; call occurs [#_uxListRemove] ; |4141| 
    7117 001741 6004          BCC $C$L237,T0 == #0 ; |4141| 
    7118                                                      ; branchcc occurs ; |4141| 
    7119                      .dwpsn  file "../FreeRTOS/Source/tasks_sysStk.c",line 4144,column 7,is_stmt
    7120 001743       $C$L237:    
    7121                      .dwpsn  file "../FreeRTOS/Source/tasks_sysStk.c",line 4150,column 7,is_stmt
    7122 001743 ED08          MOV dbl(*SP(#4)), XAR3
TMS320C55x Assembler PC v4.4.1 Tue Oct 02 02:33:57 2018

Tools Copyright (c) 1996-2012 Texas Instruments Incorporated
tasks_sysStk.asm                                                     PAGE  158

         001745 BF   
    7123 001746 A931          MOV *(#_uxTopReadyPriority), AR1 ; |4150| 
         001748 0000 
         00174a 72-  
    7124 00174b AA6D          MOV *AR3(#24), AR2 ; |4150| 
         00174d 0018 
    7125 00174f 1298          CMPU AR2 <= AR1, TC1 ; |4150| 
         001751 A4   
    7126 001752 64E4          BCC $C$L238,TC1 ; |4150| 
    7127                                                      ; branchcc occurs ; |4150| 
    7128 001754 A96D          MOV *AR3(#24), AR1 ; |4150| 
         001756 0018 
    7129 001758 C931          MOV AR1, *(#_uxTopReadyPriority) ; |4150| 
         00175a 0000 
         00175c 72-  
    7130 00175d       $C$L238:    
    7131 00175d DF6D          MOV uns(*AR3(#24)), AC1 ; |4150| 
         00175f 1500 
         001761 18   
    7132 001762 ED08          MOV dbl(*SP(#4)), XAR1
         001764 9F   
    7133 001765 1015          SFTS AC1, #1, AC0 ; |4150| 
         001767 01   
    7134 001768 1013          ADD AC1 << #3, AC0 ; |4150| 
         00176a 03   
    7135 00176b 900B          MOV AC0, XAR3
    7136 00176d EC31          AMOV #_pxReadyTasksLists, XAR0 ; |4150| 
         00176f 8E00 
         001771 0006-
    7137              
    7138 001773 14B1          AADD XAR3, XAR0 ; |4150| 
         001775 80   
    7139 001776 1504  ||      AADD #4, AR1 ; |4150| 
         001778 9C   
    7140              
    7141              $C$DW$519       .dwtag  DW_TAG_TI_branch
    7142                      .dwattr $C$DW$519, DW_AT_low_pc(0x00)
    7143                      .dwattr $C$DW$519, DW_AT_name("_vListInsertEnd")
    7144                      .dwattr $C$DW$519, DW_AT_TI_call
    7145 001779 6C00          CALL #_vListInsertEnd ; |4150| 
         00177b 0000!
    7146                                                      ; call occurs [#_vListInsertEnd] ; |4150| 
    7147                      .dwpsn  file "../FreeRTOS/Source/tasks_sysStk.c",line 4151,column 6,is_stmt
    7148 00177d 4A00          B $C$L239 ; |4151| 
    7149                                                      ; branch occurs ; |4151| 
    7150 00177f       $C$L239:    
    7151 00177f 4E09          AADD #9, SP
    7152                      .dwcfi  cfa_offset, 1
    7153              $C$DW$520       .dwtag  DW_TAG_TI_branch
    7154                      .dwattr $C$DW$520, DW_AT_low_pc(0x00)
    7155                      .dwattr $C$DW$520, DW_AT_TI_return
    7156 001781 4804          RET
    7157                                                      ; return occurs
    7158              
    7159              $C$DW$521       .dwtag  DW_TAG_TI_loop
TMS320C55x Assembler PC v4.4.1 Tue Oct 02 02:33:57 2018

Tools Copyright (c) 1996-2012 Texas Instruments Incorporated
tasks_sysStk.asm                                                     PAGE  159

    7160                      .dwattr $C$DW$521, DW_AT_name("F:\eZdsp-DBG-sim\tmp1\c55x-sim2\foo\Debug\tasks_sysStk.asm:$C$L232:1:1
    7161                      .dwattr $C$DW$521, DW_AT_TI_begin_file("../FreeRTOS/Source/tasks_sysStk.c")
    7162                      .dwattr $C$DW$521, DW_AT_TI_begin_line(0x1011)
    7163                      .dwattr $C$DW$521, DW_AT_TI_end_line(0x1011)
    7164              $C$DW$522       .dwtag  DW_TAG_TI_loop_range
    7165                      .dwattr $C$DW$522, DW_AT_low_pc($C$DW$L$_vTaskPriorityDisinheritAfterTimeout$14$B)
    7166                      .dwattr $C$DW$522, DW_AT_high_pc($C$DW$L$_vTaskPriorityDisinheritAfterTimeout$14$E)
    7167                      .dwendtag $C$DW$521
    7168              
    7169              
    7170              $C$DW$523       .dwtag  DW_TAG_TI_loop
    7171                      .dwattr $C$DW$523, DW_AT_name("F:\eZdsp-DBG-sim\tmp1\c55x-sim2\foo\Debug\tasks_sysStk.asm:$C$L227:1:1
    7172                      .dwattr $C$DW$523, DW_AT_TI_begin_file("../FreeRTOS/Source/tasks_sysStk.c")
    7173                      .dwattr $C$DW$523, DW_AT_TI_begin_line(0xff6)
    7174                      .dwattr $C$DW$523, DW_AT_TI_end_line(0xff6)
    7175              $C$DW$524       .dwtag  DW_TAG_TI_loop_range
    7176                      .dwattr $C$DW$524, DW_AT_low_pc($C$DW$L$_vTaskPriorityDisinheritAfterTimeout$4$B)
    7177                      .dwattr $C$DW$524, DW_AT_high_pc($C$DW$L$_vTaskPriorityDisinheritAfterTimeout$4$E)
    7178                      .dwendtag $C$DW$523
    7179              
    7180                      .dwattr $C$DW$509, DW_AT_TI_end_file("../FreeRTOS/Source/tasks_sysStk.c")
    7181                      .dwattr $C$DW$509, DW_AT_TI_end_line(0x104b)
    7182                      .dwattr $C$DW$509, DW_AT_TI_end_column(0x02)
    7183                      .dwendentry
    7184                      .dwendtag $C$DW$509
    7185              
    7186 001783               .sect   ".text"
    7187                      .align 4
    7188                      .global _vTaskEnterCritical
    7189              
    7190              $C$DW$525       .dwtag  DW_TAG_subprogram, DW_AT_name("vTaskEnterCritical")
    7191                      .dwattr $C$DW$525, DW_AT_low_pc(_vTaskEnterCritical)
    7192                      .dwattr $C$DW$525, DW_AT_high_pc(0x00)
    7193                      .dwattr $C$DW$525, DW_AT_TI_symbol_name("_vTaskEnterCritical")
    7194                      .dwattr $C$DW$525, DW_AT_external
    7195                      .dwattr $C$DW$525, DW_AT_TI_begin_file("../FreeRTOS/Source/tasks_sysStk.c")
    7196                      .dwattr $C$DW$525, DW_AT_TI_begin_line(0x1052)
    7197                      .dwattr $C$DW$525, DW_AT_TI_begin_column(0x07)
    7198                      .dwattr $C$DW$525, DW_AT_TI_max_frame_size(0x01)
    7199                      .dwpsn  file "../FreeRTOS/Source/tasks_sysStk.c",line 4179,column 2,is_stmt,address _vTaskEnterCritic
    7200              
    7201                      .dwfde $C$DW$CIE, _vTaskEnterCritical
    7202              ;*******************************************************************************
    7203              ;* FUNCTION NAME: vTaskEnterCritical                                           *
    7204              ;*                                                                             *
    7205              ;*   Function Uses Regs : AR1,AR3,XAR3,SP,CARRY,TC1,M40,SATA,SATD,RDM,FRCT,    *
    7206              ;*                        SMUL                                                 *
    7207              ;*   Stack Frame        : Compact (No Frame Pointer, w/ debug)                 *
    7208              ;*   Total Frame Size   : 1 word                                               *
    7209              ;*                        (1 return address/alignment)                         *
    7210              ;*   Min System Stack   : 1 word                                               *
    7211              ;*******************************************************************************
    7212 001784       _vTaskEnterCritical:
    7213                      .dwcfi  cfa_offset, 1
    7214                      .dwcfi  save_reg_to_mem, 91, -1
TMS320C55x Assembler PC v4.4.1 Tue Oct 02 02:33:57 2018

Tools Copyright (c) 1996-2012 Texas Instruments Incorporated
tasks_sysStk.asm                                                     PAGE  160

    7215                      .dwpsn  file "../FreeRTOS/Source/tasks_sysStk.c",line 4180,column 3,is_stmt
    7216 001784 20     nop
    7217 001785 46B3   bset INTM
    7218                      .dwpsn  file "../FreeRTOS/Source/tasks_sysStk.c",line 4182,column 3,is_stmt
    7219 001787 A931          MOV *(#_xSchedulerRunning), AR1 ; |4182| 
         001789 0000 
         00178b 73-  
    7220 00178c 0409          BCC $C$L240,AR1 == #0 ; |4182| 
         00178e 1B   
    7221                                                      ; branchcc occurs ; |4182| 
    7222                      .dwpsn  file "../FreeRTOS/Source/tasks_sysStk.c",line 4184,column 4,is_stmt
    7223 00178f ED31          MOV dbl(*(#_pxCurrentTCB)), XAR3
         001791 BF00 
         001793 0004-
    7224 001795 142A          AADD #42, AR3 ; |4184| 
         001797 B4   
    7225 001798 F761          ADD #1, *AR3 ; |4184| 
         00179a 0001 
    7226                      .dwpsn  file "../FreeRTOS/Source/tasks_sysStk.c",line 4192,column 4,is_stmt
    7227 00179c ED31          MOV dbl(*(#_pxCurrentTCB)), XAR3
         00179e BF00 
         0017a0 0004-
    7228 0017a2 F06D          CMP *AR3(#42) == #1, TC1 ; |4192| 
         0017a4 0001 
         0017a6 002A 
    7229 0017a8 6064          BCC $C$L240,TC1 ; |4192| 
    7230                                                      ; branchcc occurs ; |4192| 
    7231                      .dwpsn  file "../FreeRTOS/Source/tasks_sysStk.c",line 4196,column 3,is_stmt
    7232                      .dwpsn  file "../FreeRTOS/Source/tasks_sysStk.c",line 4201,column 2,is_stmt
    7233              $C$L240:    
    7234              $C$DW$526       .dwtag  DW_TAG_TI_branch
    7235                      .dwattr $C$DW$526, DW_AT_low_pc(0x00)
    7236                      .dwattr $C$DW$526, DW_AT_TI_return
    7237 0017aa 4804          RET
    7238                                                      ; return occurs
    7239                      .dwattr $C$DW$525, DW_AT_TI_end_file("../FreeRTOS/Source/tasks_sysStk.c")
    7240                      .dwattr $C$DW$525, DW_AT_TI_end_line(0x1069)
    7241                      .dwattr $C$DW$525, DW_AT_TI_end_column(0x02)
    7242                      .dwendentry
    7243                      .dwendtag $C$DW$525
    7244              
    7245 0017ac               .sect   ".text"
    7246                      .align 4
    7247                      .global _vTaskExitCritical
    7248              
    7249              $C$DW$527       .dwtag  DW_TAG_subprogram, DW_AT_name("vTaskExitCritical")
    7250                      .dwattr $C$DW$527, DW_AT_low_pc(_vTaskExitCritical)
    7251                      .dwattr $C$DW$527, DW_AT_high_pc(0x00)
    7252                      .dwattr $C$DW$527, DW_AT_TI_symbol_name("_vTaskExitCritical")
    7253                      .dwattr $C$DW$527, DW_AT_external
    7254                      .dwattr $C$DW$527, DW_AT_TI_begin_file("../FreeRTOS/Source/tasks_sysStk.c")
    7255                      .dwattr $C$DW$527, DW_AT_TI_begin_line(0x1070)
    7256                      .dwattr $C$DW$527, DW_AT_TI_begin_column(0x07)
    7257                      .dwattr $C$DW$527, DW_AT_TI_max_frame_size(0x01)
    7258                      .dwpsn  file "../FreeRTOS/Source/tasks_sysStk.c",line 4209,column 2,is_stmt,address _vTaskExitCritica
TMS320C55x Assembler PC v4.4.1 Tue Oct 02 02:33:57 2018

Tools Copyright (c) 1996-2012 Texas Instruments Incorporated
tasks_sysStk.asm                                                     PAGE  161

    7259              
    7260                      .dwfde $C$DW$CIE, _vTaskExitCritical
    7261              ;*******************************************************************************
    7262              ;* FUNCTION NAME: vTaskExitCritical                                            *
    7263              ;*                                                                             *
    7264              ;*   Function Uses Regs : AR1,AR3,XAR3,SP,CARRY,M40,SATA,SATD,RDM,FRCT,SMUL    *
    7265              ;*   Stack Frame        : Compact (No Frame Pointer, w/ debug)                 *
    7266              ;*   Total Frame Size   : 1 word                                               *
    7267              ;*                        (1 return address/alignment)                         *
    7268              ;*   Min System Stack   : 1 word                                               *
    7269              ;*******************************************************************************
    7270 0017ac       _vTaskExitCritical:
    7271                      .dwcfi  cfa_offset, 1
    7272                      .dwcfi  save_reg_to_mem, 91, -1
    7273                      .dwpsn  file "../FreeRTOS/Source/tasks_sysStk.c",line 4210,column 3,is_stmt
    7274 0017ac A931          MOV *(#_xSchedulerRunning), AR1 ; |4210| 
         0017ae 0000 
         0017b0 73-  
    7275 0017b1 0409          BCC $C$L241,AR1 == #0 ; |4210| 
         0017b3 2B   
    7276                                                      ; branchcc occurs ; |4210| 
    7277                      .dwpsn  file "../FreeRTOS/Source/tasks_sysStk.c",line 4212,column 4,is_stmt
    7278 0017b4 ED31          MOV dbl(*(#_pxCurrentTCB)), XAR3
         0017b6 BF00 
         0017b8 0004-
    7279 0017ba A96D          MOV *AR3(#42), AR1 ; |4212| 
         0017bc 002A 
    7280 0017be 0409          BCC $C$L241,AR1 == #0 ; |4212| 
         0017c0 1E   
    7281                                                      ; branchcc occurs ; |4212| 
    7282                      .dwpsn  file "../FreeRTOS/Source/tasks_sysStk.c",line 4214,column 5,is_stmt
    7283 0017c1 ED31          MOV dbl(*(#_pxCurrentTCB)), XAR3
         0017c3 BF00 
         0017c5 0004-
    7284 0017c7 142A          AADD #42, AR3 ; |4214| 
         0017c9 B4   
    7285 0017ca F761          SUB #1, *AR3 ; |4214| 
         0017cc FFFF 
    7286                      .dwpsn  file "../FreeRTOS/Source/tasks_sysStk.c",line 4216,column 5,is_stmt
    7287 0017ce ED31          MOV dbl(*(#_pxCurrentTCB)), XAR3
         0017d0 BF00 
         0017d2 0004-
    7288 0017d4 A96D          MOV *AR3(#42), AR1 ; |4216| 
         0017d6 002A 
    7289 0017d8 6299          BCC $C$L241,AR1 != #0 ; |4216| 
    7290                                                      ; branchcc occurs ; |4216| 
    7291                      .dwpsn  file "../FreeRTOS/Source/tasks_sysStk.c",line 4218,column 6,is_stmt
    7292 0017da 20     nop
    7293 0017db 46B2   bclr INTM
    7294                      .dwpsn  file "../FreeRTOS/Source/tasks_sysStk.c",line 4219,column 5,is_stmt
    7295 0017dd 4A00          B $C$L241 ; |4219| 
    7296                                                      ; branch occurs ; |4219| 
    7297              $C$L241:    
    7298              $C$DW$528       .dwtag  DW_TAG_TI_branch
    7299                      .dwattr $C$DW$528, DW_AT_low_pc(0x00)
TMS320C55x Assembler PC v4.4.1 Tue Oct 02 02:33:57 2018

Tools Copyright (c) 1996-2012 Texas Instruments Incorporated
tasks_sysStk.asm                                                     PAGE  162

    7300                      .dwattr $C$DW$528, DW_AT_TI_return
    7301 0017df 4804          RET
    7302                                                      ; return occurs
    7303                      .dwattr $C$DW$527, DW_AT_TI_end_file("../FreeRTOS/Source/tasks_sysStk.c")
    7304                      .dwattr $C$DW$527, DW_AT_TI_end_line(0x108a)
    7305                      .dwattr $C$DW$527, DW_AT_TI_end_column(0x02)
    7306                      .dwendentry
    7307                      .dwendtag $C$DW$527
    7308              
    7309 0017e1               .sect   ".text"
    7310                      .align 4
    7311                      .global _uxTaskResetEventItemValue
    7312              
    7313              $C$DW$529       .dwtag  DW_TAG_subprogram, DW_AT_name("uxTaskResetEventItemValue")
    7314                      .dwattr $C$DW$529, DW_AT_low_pc(_uxTaskResetEventItemValue)
    7315                      .dwattr $C$DW$529, DW_AT_high_pc(0x00)
    7316                      .dwattr $C$DW$529, DW_AT_TI_symbol_name("_uxTaskResetEventItemValue")
    7317                      .dwattr $C$DW$529, DW_AT_external
    7318                      .dwattr $C$DW$529, DW_AT_type(*$C$DW$T$37)
    7319                      .dwattr $C$DW$529, DW_AT_TI_begin_file("../FreeRTOS/Source/tasks_sysStk.c")
    7320                      .dwattr $C$DW$529, DW_AT_TI_begin_line(0x118b)
    7321                      .dwattr $C$DW$529, DW_AT_TI_begin_column(0x0c)
    7322                      .dwattr $C$DW$529, DW_AT_TI_max_frame_size(0x04)
    7323                      .dwpsn  file "../FreeRTOS/Source/tasks_sysStk.c",line 4492,column 1,is_stmt,address _uxTaskResetEvent
    7324              
    7325                      .dwfde $C$DW$CIE, _uxTaskResetEventItemValue
    7326              ;*******************************************************************************
    7327              ;* FUNCTION NAME: uxTaskResetEventItemValue                                    *
    7328              ;*                                                                             *
    7329              ;*   Function Uses Regs : AC0,AC0,AR3,XAR3,SP,CARRY,M40,SATA,SATD,RDM,FRCT,    *
    7330              ;*                        SMUL                                                 *
    7331              ;*   Stack Frame        : Compact (No Frame Pointer, w/ debug)                 *
    7332              ;*   Total Frame Size   : 4 words                                              *
    7333              ;*                        (2 return address/alignment)                         *
    7334              ;*                        (2 local values)                                     *
    7335              ;*   Min System Stack   : 1 word                                               *
    7336              ;*******************************************************************************
    7337 0017e4       _uxTaskResetEventItemValue:
    7338                      .dwcfi  cfa_offset, 1
    7339                      .dwcfi  save_reg_to_mem, 91, -1
    7340 0017e4 4EFD          AADD #-3, SP
    7341                      .dwcfi  cfa_offset, 4
    7342              $C$DW$530       .dwtag  DW_TAG_variable, DW_AT_name("uxReturn")
    7343                      .dwattr $C$DW$530, DW_AT_TI_symbol_name("_uxReturn")
    7344                      .dwattr $C$DW$530, DW_AT_type(*$C$DW$T$37)
    7345                      .dwattr $C$DW$530, DW_AT_location[DW_OP_bregx 0x24 0]
    7346                      .dwpsn  file "../FreeRTOS/Source/tasks_sysStk.c",line 4495,column 2,is_stmt
    7347 0017e6 ED31          MOV dbl(*(#_pxCurrentTCB)), XAR3
         0017e8 BF00 
         0017ea 0004-
    7348 0017ec ED6D          MOV dbl(*AR3(#14)), AC0 ; |4495| 
         0017ee 0800 
         0017f0 0E   
    7349 0017f1 EB00          MOV AC0, dbl(*SP(#0)) ; |4495| 
         0017f3 08   
TMS320C55x Assembler PC v4.4.1 Tue Oct 02 02:33:57 2018

Tools Copyright (c) 1996-2012 Texas Instruments Incorporated
tasks_sysStk.asm                                                     PAGE  163

    7350                      .dwpsn  file "../FreeRTOS/Source/tasks_sysStk.c",line 4499,column 2,is_stmt
    7351 0017f4 ED31          MOV dbl(*(#_pxCurrentTCB)), XAR3
         0017f6 BF00 
         0017f8 0004-
    7352 0017fa 3C50          MOV #5, AC0 ; |4499| 
    7353 0017fc DF6D          SUB uns(*AR3(#24)), AC0, AC0 ; |4499| 
         0017fe 0F00 
         001800 18   
    7354 001801 ED31          MOV dbl(*(#_pxCurrentTCB)), XAR3
         001803 BF00 
         001805 0004-
    7355 001807 EB6D          MOV AC0, dbl(*AR3(#14)) ; |4499| 
         001809 0800 
         00180b 0E   
    7356                      .dwpsn  file "../FreeRTOS/Source/tasks_sysStk.c",line 4501,column 2,is_stmt
    7357 00180c ED00          MOV dbl(*SP(#0)), AC0 ; |4501| 
         00180e 08   
    7358                      .dwpsn  file "../FreeRTOS/Source/tasks_sysStk.c",line 4502,column 1,is_stmt
    7359 00180f 4E03          AADD #3, SP
    7360                      .dwcfi  cfa_offset, 1
    7361              $C$DW$531       .dwtag  DW_TAG_TI_branch
    7362                      .dwattr $C$DW$531, DW_AT_low_pc(0x00)
    7363                      .dwattr $C$DW$531, DW_AT_TI_return
    7364 001811 4804          RET
    7365                                                      ; return occurs
    7366                      .dwattr $C$DW$529, DW_AT_TI_end_file("../FreeRTOS/Source/tasks_sysStk.c")
    7367                      .dwattr $C$DW$529, DW_AT_TI_end_line(0x1196)
    7368                      .dwattr $C$DW$529, DW_AT_TI_end_column(0x01)
    7369                      .dwendentry
    7370                      .dwendtag $C$DW$529
    7371              
    7372 001813               .sect   ".text"
    7373                      .align 4
    7374                      .global _pvTaskIncrementMutexHeldCount
    7375              
    7376              $C$DW$532       .dwtag  DW_TAG_subprogram, DW_AT_name("pvTaskIncrementMutexHeldCount")
    7377                      .dwattr $C$DW$532, DW_AT_low_pc(_pvTaskIncrementMutexHeldCount)
    7378                      .dwattr $C$DW$532, DW_AT_high_pc(0x00)
    7379                      .dwattr $C$DW$532, DW_AT_TI_symbol_name("_pvTaskIncrementMutexHeldCount")
    7380                      .dwattr $C$DW$532, DW_AT_external
    7381                      .dwattr $C$DW$532, DW_AT_type(*$C$DW$T$48)
    7382                      .dwattr $C$DW$532, DW_AT_TI_begin_file("../FreeRTOS/Source/tasks_sysStk.c")
    7383                      .dwattr $C$DW$532, DW_AT_TI_begin_line(0x119b)
    7384                      .dwattr $C$DW$532, DW_AT_TI_begin_column(0x0f)
    7385                      .dwattr $C$DW$532, DW_AT_TI_max_frame_size(0x01)
    7386                      .dwpsn  file "../FreeRTOS/Source/tasks_sysStk.c",line 4508,column 2,is_stmt,address _pvTaskIncrementM
    7387              
    7388                      .dwfde $C$DW$CIE, _pvTaskIncrementMutexHeldCount
    7389              ;*******************************************************************************
    7390              ;* FUNCTION NAME: pvTaskIncrementMutexHeldCount                                *
    7391              ;*                                                                             *
    7392              ;*   Function Uses Regs : AC0,AC0,AR0,XAR0,AR3,XAR3,SP,CARRY,M40,SATA,SATD,RDM,*
    7393              ;*                        FRCT,SMUL                                            *
    7394              ;*   Stack Frame        : Compact (No Frame Pointer, w/ debug)                 *
    7395              ;*   Total Frame Size   : 1 word                                               *
TMS320C55x Assembler PC v4.4.1 Tue Oct 02 02:33:57 2018

Tools Copyright (c) 1996-2012 Texas Instruments Incorporated
tasks_sysStk.asm                                                     PAGE  164

    7396              ;*                        (1 return address/alignment)                         *
    7397              ;*   Min System Stack   : 1 word                                               *
    7398              ;*******************************************************************************
    7399 001814       _pvTaskIncrementMutexHeldCount:
    7400                      .dwcfi  cfa_offset, 1
    7401                      .dwcfi  save_reg_to_mem, 91, -1
    7402                      .dwpsn  file "../FreeRTOS/Source/tasks_sysStk.c",line 4511,column 3,is_stmt
    7403 001814 ED31          MOV dbl(*(#_pxCurrentTCB)), XAR3
         001816 BF00 
         001818 0004-
    7404 00181a 90B0          MOV XAR3, AC0
    7405 00181c 6680          BCC $C$L242,AC0 == #0 ; |4511| 
    7406                                                      ; branchcc occurs ; |4511| 
    7407                      .dwpsn  file "../FreeRTOS/Source/tasks_sysStk.c",line 4513,column 4,is_stmt
    7408 00181e ED31          MOV dbl(*(#_pxCurrentTCB)), XAR3
         001820 BF00 
         001822 0004-
    7409 001824 142C          AADD #44, AR3 ; |4513| 
         001826 B4   
    7410 001827 F761          ADD #1, *AR3 ; |4513| 
         001829 0001 
    7411 00182b       $C$L242:    
    7412                      .dwpsn  file "../FreeRTOS/Source/tasks_sysStk.c",line 4516,column 3,is_stmt
    7413 00182b ED31          MOV dbl(*(#_pxCurrentTCB)), XAR0
         00182d 8F00 
         00182f 0004-
    7414                      .dwpsn  file "../FreeRTOS/Source/tasks_sysStk.c",line 4517,column 2,is_stmt
    7415              $C$DW$533       .dwtag  DW_TAG_TI_branch
    7416                      .dwattr $C$DW$533, DW_AT_low_pc(0x00)
    7417                      .dwattr $C$DW$533, DW_AT_TI_return
    7418 001831 4804          RET
    7419                                                      ; return occurs
    7420                      .dwattr $C$DW$532, DW_AT_TI_end_file("../FreeRTOS/Source/tasks_sysStk.c")
    7421                      .dwattr $C$DW$532, DW_AT_TI_end_line(0x11a5)
    7422                      .dwattr $C$DW$532, DW_AT_TI_end_column(0x02)
    7423                      .dwendentry
    7424                      .dwendtag $C$DW$532
    7425              
    7426 001833               .sect   ".text"
    7427                      .align 4
    7428                      .global _ulTaskNotifyTake
    7429              
    7430              $C$DW$534       .dwtag  DW_TAG_subprogram, DW_AT_name("ulTaskNotifyTake")
    7431                      .dwattr $C$DW$534, DW_AT_low_pc(_ulTaskNotifyTake)
    7432                      .dwattr $C$DW$534, DW_AT_high_pc(0x00)
    7433                      .dwattr $C$DW$534, DW_AT_TI_symbol_name("_ulTaskNotifyTake")
    7434                      .dwattr $C$DW$534, DW_AT_external
    7435                      .dwattr $C$DW$534, DW_AT_type(*$C$DW$T$28)
    7436                      .dwattr $C$DW$534, DW_AT_TI_begin_file("../FreeRTOS/Source/tasks_sysStk.c")
    7437                      .dwattr $C$DW$534, DW_AT_TI_begin_line(0x11ac)
    7438                      .dwattr $C$DW$534, DW_AT_TI_begin_column(0x0b)
    7439                      .dwattr $C$DW$534, DW_AT_TI_max_frame_size(0x08)
    7440                      .dwpsn  file "../FreeRTOS/Source/tasks_sysStk.c",line 4525,column 2,is_stmt,address _ulTaskNotifyTake
    7441              
    7442                      .dwfde $C$DW$CIE, _ulTaskNotifyTake
TMS320C55x Assembler PC v4.4.1 Tue Oct 02 02:33:57 2018

Tools Copyright (c) 1996-2012 Texas Instruments Incorporated
tasks_sysStk.asm                                                     PAGE  165

    7443              $C$DW$535       .dwtag  DW_TAG_formal_parameter, DW_AT_name("xClearCountOnExit")
    7444                      .dwattr $C$DW$535, DW_AT_TI_symbol_name("_xClearCountOnExit")
    7445                      .dwattr $C$DW$535, DW_AT_type(*$C$DW$T$43)
    7446                      .dwattr $C$DW$535, DW_AT_location[DW_OP_reg12]
    7447              $C$DW$536       .dwtag  DW_TAG_formal_parameter, DW_AT_name("xTicksToWait")
    7448                      .dwattr $C$DW$536, DW_AT_TI_symbol_name("_xTicksToWait")
    7449                      .dwattr $C$DW$536, DW_AT_type(*$C$DW$T$37)
    7450                      .dwattr $C$DW$536, DW_AT_location[DW_OP_reg0]
    7451              ;*******************************************************************************
    7452              ;* FUNCTION NAME: ulTaskNotifyTake                                             *
    7453              ;*                                                                             *
    7454              ;*   Function Uses Regs : AC0,AC0,T0,AR1,AR3,XAR3,SP,CARRY,M40,SATA,SATD,RDM,  *
    7455              ;*                        FRCT,SMUL                                            *
    7456              ;*   Stack Frame        : Compact (No Frame Pointer, w/ debug)                 *
    7457              ;*   Total Frame Size   : 8 words                                              *
    7458              ;*                        (2 return address/alignment)                         *
    7459              ;*                        (6 local values)                                     *
    7460              ;*   Min System Stack   : 1 word                                               *
    7461              ;*******************************************************************************
    7462 001834       _ulTaskNotifyTake:
    7463                      .dwcfi  cfa_offset, 1
    7464                      .dwcfi  save_reg_to_mem, 91, -1
    7465 001834 4EF9          AADD #-7, SP
    7466                      .dwcfi  cfa_offset, 8
    7467              $C$DW$537       .dwtag  DW_TAG_variable, DW_AT_name("xClearCountOnExit")
    7468                      .dwattr $C$DW$537, DW_AT_TI_symbol_name("_xClearCountOnExit")
    7469                      .dwattr $C$DW$537, DW_AT_type(*$C$DW$T$43)
    7470                      .dwattr $C$DW$537, DW_AT_location[DW_OP_bregx 0x24 0]
    7471              $C$DW$538       .dwtag  DW_TAG_variable, DW_AT_name("xTicksToWait")
    7472                      .dwattr $C$DW$538, DW_AT_TI_symbol_name("_xTicksToWait")
    7473                      .dwattr $C$DW$538, DW_AT_type(*$C$DW$T$37)
    7474                      .dwattr $C$DW$538, DW_AT_location[DW_OP_bregx 0x24 2]
    7475              $C$DW$539       .dwtag  DW_TAG_variable, DW_AT_name("ulReturn")
    7476                      .dwattr $C$DW$539, DW_AT_TI_symbol_name("_ulReturn")
    7477                      .dwattr $C$DW$539, DW_AT_type(*$C$DW$T$28)
    7478                      .dwattr $C$DW$539, DW_AT_location[DW_OP_bregx 0x24 4]
    7479 001836 EB04          MOV AC0, dbl(*SP(#2)) ; |4525| 
         001838 08   
    7480 001839 C400          MOV T0, *SP(#0) ; |4525| 
    7481                      .dwpsn  file "../FreeRTOS/Source/tasks_sysStk.c",line 4528,column 3,is_stmt
    7482 00183b 20     nop
    7483 00183c 46B3   bset INTM
    7484 00183e F731          ADD #1, *(#_usCriticalNesting) ; |4528| 
         001840 0001 
         001842 0000 
         001844 00!  
    7485 001845 20            NOP
    7486 001846 20            NOP
    7487 001847 20            NOP
    7488                      .dwpsn  file "../FreeRTOS/Source/tasks_sysStk.c",line 4531,column 4,is_stmt
    7489 001848 ED31          MOV dbl(*(#_pxCurrentTCB)), XAR3
         00184a BF00 
         00184c 0004-
    7490 00184e ED6D          MOV dbl(*AR3(#46)), AC0 ; |4531| 
         001850 0800 
TMS320C55x Assembler PC v4.4.1 Tue Oct 02 02:33:57 2018

Tools Copyright (c) 1996-2012 Texas Instruments Incorporated
tasks_sysStk.asm                                                     PAGE  166

         001852 2E   
    7491 001853 0410          BCC $C$L243,AC0 != #0 ; |4531| 
         001855 1E   
    7492                                                      ; branchcc occurs ; |4531| 
    7493                      .dwpsn  file "../FreeRTOS/Source/tasks_sysStk.c",line 4534,column 5,is_stmt
    7494 001856 ED31          MOV dbl(*(#_pxCurrentTCB)), XAR3
         001858 BF00 
         00185a 0004-
    7495 00185c E66D          MOV #1, *AR3(#48) ; |4534| 
         00185e 0100 
         001860 30   
    7496                      .dwpsn  file "../FreeRTOS/Source/tasks_sysStk.c",line 4536,column 5,is_stmt
    7497 001861 ED04          MOV dbl(*SP(#2)), AC0 ; |4536| 
         001863 08   
    7498 001864 6700          BCC $C$L243,AC0 == #0 ; |4536| 
    7499                                                      ; branchcc occurs ; |4536| 
    7500                      .dwpsn  file "../FreeRTOS/Source/tasks_sysStk.c",line 4538,column 6,is_stmt
    7501 001866 ED04          MOV dbl(*SP(#2)), AC0 ; |4538| 
         001868 08   
    7502              $C$DW$540       .dwtag  DW_TAG_TI_branch
    7503                      .dwattr $C$DW$540, DW_AT_low_pc(0x00)
    7504                      .dwattr $C$DW$540, DW_AT_name("_prvAddCurrentTaskToDelayedList")
    7505                      .dwattr $C$DW$540, DW_AT_TI_call
    7506              
    7507 001869 0806          CALL #_prvAddCurrentTaskToDelayedList ; |4538| 
         00186b 06   
    7508 00186c 3D14  ||      MOV #1, T0
    7509              
    7510                                                      ; call occurs [#_prvAddCurrentTaskToDelayedList] ; |4538| 
    7511                      .dwpsn  file "../FreeRTOS/Source/tasks_sysStk.c",line 4545,column 6,is_stmt
    7512              $C$DW$541       .dwtag  DW_TAG_TI_branch
    7513                      .dwattr $C$DW$541, DW_AT_low_pc(0x00)
    7514                      .dwattr $C$DW$541, DW_AT_name("_vPortYield")
    7515                      .dwattr $C$DW$541, DW_AT_TI_call
    7516 00186e 6C00          CALL #_vPortYield ; |4545| 
         001870 0000!
    7517                                                      ; call occurs [#_vPortYield] ; |4545| 
    7518                      .dwpsn  file "../FreeRTOS/Source/tasks_sysStk.c",line 4546,column 5,is_stmt
    7519 001872 4A00          B $C$L243 ; |4546| 
    7520                                                      ; branch occurs ; |4546| 
    7521 001874       $C$L243:    
    7522                      .dwpsn  file "../FreeRTOS/Source/tasks_sysStk.c",line 4557,column 3,is_stmt
    7523 001874 A931          MOV *(#_usCriticalNesting), AR1 ; |4557| 
         001876 0000 
         001878 00!  
    7524 001879 0409          BCC $C$L244,AR1 == #0 ; |4557| 
         00187b 14   
    7525                                                      ; branchcc occurs ; |4557| 
    7526 00187c F731          SUB #1, *(#_usCriticalNesting) ; |4557| 
         00187e FFFF 
         001880 0000 
         001882 00!  
    7527 001883 20            NOP
    7528 001884 20            NOP
    7529 001885 20            NOP
TMS320C55x Assembler PC v4.4.1 Tue Oct 02 02:33:57 2018

Tools Copyright (c) 1996-2012 Texas Instruments Incorporated
tasks_sysStk.asm                                                     PAGE  167

    7530 001886 A931          MOV *(#_usCriticalNesting), AR1 ; |4557| 
         001888 0000 
         00188a 00!  
    7531 00188b 6199          BCC $C$L244,AR1 != #0 ; |4557| 
    7532                                                      ; branchcc occurs ; |4557| 
    7533 00188d 20     nop
    7534 00188e 46B2   bclr INTM
    7535 001890       $C$L244:    
    7536                      .dwpsn  file "../FreeRTOS/Source/tasks_sysStk.c",line 4559,column 3,is_stmt
    7537 001890 20     nop
    7538 001891 46B3   bset INTM
    7539 001893 F731          ADD #1, *(#_usCriticalNesting) ; |4559| 
         001895 0001 
         001897 0000 
         001899 00!  
    7540 00189a 20            NOP
    7541 00189b 20            NOP
    7542 00189c 20            NOP
    7543                      .dwpsn  file "../FreeRTOS/Source/tasks_sysStk.c",line 4562,column 4,is_stmt
    7544 00189d ED31          MOV dbl(*(#_pxCurrentTCB)), XAR3
         00189f BF00 
         0018a1 0004-
    7545 0018a3 ED6D          MOV dbl(*AR3(#46)), AC0 ; |4562| 
         0018a5 0800 
         0018a7 2E   
    7546 0018a8 EB08          MOV AC0, dbl(*SP(#4)) ; |4562| 
         0018aa 08   
    7547                      .dwpsn  file "../FreeRTOS/Source/tasks_sysStk.c",line 4564,column 4,is_stmt
    7548 0018ab ED08          MOV dbl(*SP(#4)), AC0 ; |4564| 
         0018ad 08   
    7549 0018ae 0400          BCC $C$L246,AC0 == #0 ; |4564| 
         0018b0 23   
    7550                                                      ; branchcc occurs ; |4564| 
    7551                      .dwpsn  file "../FreeRTOS/Source/tasks_sysStk.c",line 4566,column 5,is_stmt
    7552 0018b1 A900          MOV *SP(#0), AR1 ; |4566| 
    7553 0018b3 6789          BCC $C$L245,AR1 == #0 ; |4566| 
    7554                                                      ; branchcc occurs ; |4566| 
    7555                      .dwpsn  file "../FreeRTOS/Source/tasks_sysStk.c",line 4568,column 6,is_stmt
    7556 0018b5 ED31          MOV dbl(*(#_pxCurrentTCB)), XAR3
         0018b7 BF00 
         0018b9 0004-
    7557 0018bb 3C00          MOV #0, AC0 ; |4568| 
    7558 0018bd EB6D          MOV AC0, dbl(*AR3(#46)) ; |4568| 
         0018bf 0800 
         0018c1 2E   
    7559                      .dwpsn  file "../FreeRTOS/Source/tasks_sysStk.c",line 4569,column 5,is_stmt
    7560 0018c2 4A10          B $C$L246 ; |4569| 
    7561                                                      ; branch occurs ; |4569| 
    7562 0018c4       $C$L245:    
    7563                      .dwpsn  file "../FreeRTOS/Source/tasks_sysStk.c",line 4572,column 6,is_stmt
    7564 0018c4 ED31          MOV dbl(*(#_pxCurrentTCB)), XAR3
         0018c6 BF00 
         0018c8 0004-
    7565 0018ca ED08          MOV dbl(*SP(#4)), AC0 ; |4572| 
         0018cc 08   
TMS320C55x Assembler PC v4.4.1 Tue Oct 02 02:33:57 2018

Tools Copyright (c) 1996-2012 Texas Instruments Incorporated
tasks_sysStk.asm                                                     PAGE  168

    7566 0018cd 4210          SUB #1, AC0 ; |4572| 
    7567 0018cf EB6D          MOV AC0, dbl(*AR3(#46)) ; |4572| 
         0018d1 0800 
         0018d3 2E   
    7568                      .dwpsn  file "../FreeRTOS/Source/tasks_sysStk.c",line 4574,column 4,is_stmt
    7569 0018d4       $C$L246:    
    7570                      .dwpsn  file "../FreeRTOS/Source/tasks_sysStk.c",line 4580,column 4,is_stmt
    7571 0018d4 ED31          MOV dbl(*(#_pxCurrentTCB)), XAR3
         0018d6 BF00 
         0018d8 0004-
    7572 0018da E66D          MOV #0, *AR3(#48) ; |4580| 
         0018dc 0000 
         0018de 30   
    7573 0018df 20            NOP
    7574 0018e0 20            NOP
    7575 0018e1 20            NOP
    7576                      .dwpsn  file "../FreeRTOS/Source/tasks_sysStk.c",line 4582,column 3,is_stmt
    7577 0018e2 A931          MOV *(#_usCriticalNesting), AR1 ; |4582| 
         0018e4 0000 
         0018e6 00!  
    7578 0018e7 0409          BCC $C$L247,AR1 == #0 ; |4582| 
         0018e9 14   
    7579                                                      ; branchcc occurs ; |4582| 
    7580 0018ea F731          SUB #1, *(#_usCriticalNesting) ; |4582| 
         0018ec FFFF 
         0018ee 0000 
         0018f0 00!  
    7581 0018f1 20            NOP
    7582 0018f2 20            NOP
    7583 0018f3 20            NOP
    7584 0018f4 A931          MOV *(#_usCriticalNesting), AR1 ; |4582| 
         0018f6 0000 
         0018f8 00!  
    7585 0018f9 6199          BCC $C$L247,AR1 != #0 ; |4582| 
    7586                                                      ; branchcc occurs ; |4582| 
    7587 0018fb 20     nop
    7588 0018fc 46B2   bclr INTM
    7589 0018fe       $C$L247:    
    7590                      .dwpsn  file "../FreeRTOS/Source/tasks_sysStk.c",line 4584,column 3,is_stmt
    7591 0018fe ED08          MOV dbl(*SP(#4)), AC0 ; |4584| 
         001900 08   
    7592                      .dwpsn  file "../FreeRTOS/Source/tasks_sysStk.c",line 4585,column 2,is_stmt
    7593 001901 4E07          AADD #7, SP
    7594                      .dwcfi  cfa_offset, 1
    7595              $C$DW$542       .dwtag  DW_TAG_TI_branch
    7596                      .dwattr $C$DW$542, DW_AT_low_pc(0x00)
    7597                      .dwattr $C$DW$542, DW_AT_TI_return
    7598 001903 4804          RET
    7599                                                      ; return occurs
    7600                      .dwattr $C$DW$534, DW_AT_TI_end_file("../FreeRTOS/Source/tasks_sysStk.c")
    7601                      .dwattr $C$DW$534, DW_AT_TI_end_line(0x11e9)
    7602                      .dwattr $C$DW$534, DW_AT_TI_end_column(0x02)
    7603                      .dwendentry
    7604                      .dwendtag $C$DW$534
    7605              
TMS320C55x Assembler PC v4.4.1 Tue Oct 02 02:33:57 2018

Tools Copyright (c) 1996-2012 Texas Instruments Incorporated
tasks_sysStk.asm                                                     PAGE  169

    7606 001905               .sect   ".text"
    7607                      .align 4
    7608                      .global _xTaskNotifyWait
    7609              
    7610              $C$DW$543       .dwtag  DW_TAG_subprogram, DW_AT_name("xTaskNotifyWait")
    7611                      .dwattr $C$DW$543, DW_AT_low_pc(_xTaskNotifyWait)
    7612                      .dwattr $C$DW$543, DW_AT_high_pc(0x00)
    7613                      .dwattr $C$DW$543, DW_AT_TI_symbol_name("_xTaskNotifyWait")
    7614                      .dwattr $C$DW$543, DW_AT_external
    7615                      .dwattr $C$DW$543, DW_AT_type(*$C$DW$T$43)
    7616                      .dwattr $C$DW$543, DW_AT_TI_begin_file("../FreeRTOS/Source/tasks_sysStk.c")
    7617                      .dwattr $C$DW$543, DW_AT_TI_begin_line(0x11f0)
    7618                      .dwattr $C$DW$543, DW_AT_TI_begin_column(0x0d)
    7619                      .dwattr $C$DW$543, DW_AT_TI_max_frame_size(0x0a)
    7620                      .dwpsn  file "../FreeRTOS/Source/tasks_sysStk.c",line 4593,column 2,is_stmt,address _xTaskNotifyWait
    7621              
    7622                      .dwfde $C$DW$CIE, _xTaskNotifyWait
    7623              $C$DW$544       .dwtag  DW_TAG_formal_parameter, DW_AT_name("ulBitsToClearOnEntry")
    7624                      .dwattr $C$DW$544, DW_AT_TI_symbol_name("_ulBitsToClearOnEntry")
    7625                      .dwattr $C$DW$544, DW_AT_type(*$C$DW$T$28)
    7626                      .dwattr $C$DW$544, DW_AT_location[DW_OP_reg0]
    7627              $C$DW$545       .dwtag  DW_TAG_formal_parameter, DW_AT_name("ulBitsToClearOnExit")
    7628                      .dwattr $C$DW$545, DW_AT_TI_symbol_name("_ulBitsToClearOnExit")
    7629                      .dwattr $C$DW$545, DW_AT_type(*$C$DW$T$28)
    7630                      .dwattr $C$DW$545, DW_AT_location[DW_OP_reg3]
    7631              $C$DW$546       .dwtag  DW_TAG_formal_parameter, DW_AT_name("pulNotificationValue")
    7632                      .dwattr $C$DW$546, DW_AT_TI_symbol_name("_pulNotificationValue")
    7633                      .dwattr $C$DW$546, DW_AT_type(*$C$DW$T$133)
    7634                      .dwattr $C$DW$546, DW_AT_location[DW_OP_reg17]
    7635              $C$DW$547       .dwtag  DW_TAG_formal_parameter, DW_AT_name("xTicksToWait")
    7636                      .dwattr $C$DW$547, DW_AT_TI_symbol_name("_xTicksToWait")
    7637                      .dwattr $C$DW$547, DW_AT_type(*$C$DW$T$37)
    7638                      .dwattr $C$DW$547, DW_AT_location[DW_OP_reg6]
    7639              ;*******************************************************************************
    7640              ;* FUNCTION NAME: xTaskNotifyWait                                              *
    7641              ;*                                                                             *
    7642              ;*   Function Uses Regs : AC0,AC0,AC1,AC1,AC2,AC2,T0,AR0,XAR0,AR1,AR2,XAR2,AR3,*
    7643              ;*                        XAR3,SP,CARRY,TC1,M40,SATA,SATD,RDM,FRCT,SMUL        *
    7644              ;*   Stack Frame        : Compact (No Frame Pointer, w/ debug)                 *
    7645              ;*   Total Frame Size   : 10 words                                             *
    7646              ;*                        (1 return address/alignment)                         *
    7647              ;*                        (9 local values)                                     *
    7648              ;*   Min System Stack   : 1 word                                               *
    7649              ;*******************************************************************************
    7650 001908       _xTaskNotifyWait:
    7651                      .dwcfi  cfa_offset, 1
    7652                      .dwcfi  save_reg_to_mem, 91, -1
    7653 001908 4EF7          AADD #-9, SP
    7654                      .dwcfi  cfa_offset, 10
    7655              $C$DW$548       .dwtag  DW_TAG_variable, DW_AT_name("ulBitsToClearOnEntry")
    7656                      .dwattr $C$DW$548, DW_AT_TI_symbol_name("_ulBitsToClearOnEntry")
    7657                      .dwattr $C$DW$548, DW_AT_type(*$C$DW$T$28)
    7658                      .dwattr $C$DW$548, DW_AT_location[DW_OP_bregx 0x24 0]
    7659              $C$DW$549       .dwtag  DW_TAG_variable, DW_AT_name("ulBitsToClearOnExit")
    7660                      .dwattr $C$DW$549, DW_AT_TI_symbol_name("_ulBitsToClearOnExit")
TMS320C55x Assembler PC v4.4.1 Tue Oct 02 02:33:57 2018

Tools Copyright (c) 1996-2012 Texas Instruments Incorporated
tasks_sysStk.asm                                                     PAGE  170

    7661                      .dwattr $C$DW$549, DW_AT_type(*$C$DW$T$28)
    7662                      .dwattr $C$DW$549, DW_AT_location[DW_OP_bregx 0x24 2]
    7663              $C$DW$550       .dwtag  DW_TAG_variable, DW_AT_name("pulNotificationValue")
    7664                      .dwattr $C$DW$550, DW_AT_TI_symbol_name("_pulNotificationValue")
    7665                      .dwattr $C$DW$550, DW_AT_type(*$C$DW$T$133)
    7666                      .dwattr $C$DW$550, DW_AT_location[DW_OP_bregx 0x24 4]
    7667              $C$DW$551       .dwtag  DW_TAG_variable, DW_AT_name("xTicksToWait")
    7668                      .dwattr $C$DW$551, DW_AT_TI_symbol_name("_xTicksToWait")
    7669                      .dwattr $C$DW$551, DW_AT_type(*$C$DW$T$37)
    7670                      .dwattr $C$DW$551, DW_AT_location[DW_OP_bregx 0x24 6]
    7671              $C$DW$552       .dwtag  DW_TAG_variable, DW_AT_name("xReturn")
    7672                      .dwattr $C$DW$552, DW_AT_TI_symbol_name("_xReturn")
    7673                      .dwattr $C$DW$552, DW_AT_type(*$C$DW$T$43)
    7674                      .dwattr $C$DW$552, DW_AT_location[DW_OP_bregx 0x24 8]
    7675 00190a EB0C          MOV AC2, dbl(*SP(#6)) ; |4593| 
         00190c 28   
    7676 00190d EB08          MOV XAR0, dbl(*SP(#4))
         00190f 85   
    7677 001910 EB04          MOV AC1, dbl(*SP(#2)) ; |4593| 
         001912 18   
    7678 001913 EB00          MOV AC0, dbl(*SP(#0)) ; |4593| 
         001915 08   
    7679                      .dwpsn  file "../FreeRTOS/Source/tasks_sysStk.c",line 4596,column 3,is_stmt
    7680 001916 20     nop
    7681 001917 46B3   bset INTM
    7682 001919 F731          ADD #1, *(#_usCriticalNesting) ; |4596| 
         00191b 0001 
         00191d 0000 
         00191f 00!  
    7683 001920 20            NOP
    7684 001921 20            NOP
    7685 001922 20            NOP
    7686                      .dwpsn  file "../FreeRTOS/Source/tasks_sysStk.c",line 4599,column 4,is_stmt
    7687 001923 ED31          MOV dbl(*(#_pxCurrentTCB)), XAR3
         001925 BF00 
         001927 0004-
    7688 001929 F06D          CMP *AR3(#48) == #2, TC1 ; |4599| 
         00192b 0002 
         00192d 0030 
    7689 00192f 0464          BCC $C$L248,TC1 ; |4599| 
         001931 37   
    7690                                                      ; branchcc occurs ; |4599| 
    7691                      .dwpsn  file "../FreeRTOS/Source/tasks_sysStk.c",line 4604,column 5,is_stmt
    7692 001932 ED31          MOV dbl(*(#_pxCurrentTCB)), XAR3
         001934 BF00 
         001936 0004-
    7693              
    7694                      AADD #46, AR3 ; |4604| 
    7695 001938 8E00  ||      MOV dbl(*SP(#0)), AC0 ; |4604| 
         00193a BD1C 
         00193c 082E 
    7696              
    7697 00193e ED61          MOV dbl(*AR3), AC1 ; |4604| 
         001940 18   
    7698 001941 3700  ||      NOT AC0, AC0 ; |4604| 
TMS320C55x Assembler PC v4.4.1 Tue Oct 02 02:33:57 2018

Tools Copyright (c) 1996-2012 Texas Instruments Incorporated
tasks_sysStk.asm                                                     PAGE  171

    7699              
    7700 001943 2810          AND AC1, AC0 ; |4604| 
    7701 001945 EB61          MOV AC0, dbl(*AR3) ; |4604| 
         001947 08   
    7702 001948 20            NOP
    7703 001949 20            NOP
    7704 00194a 20            NOP
    7705                      .dwpsn  file "../FreeRTOS/Source/tasks_sysStk.c",line 4607,column 5,is_stmt
    7706 00194b ED31          MOV dbl(*(#_pxCurrentTCB)), XAR3
         00194d BF00 
         00194f 0004-
    7707 001951 E66D          MOV #1, *AR3(#48) ; |4607| 
         001953 0100 
         001955 30   
    7708                      .dwpsn  file "../FreeRTOS/Source/tasks_sysStk.c",line 4609,column 5,is_stmt
    7709 001956 ED0C          MOV dbl(*SP(#6)), AC0 ; |4609| 
         001958 08   
    7710 001959 6700          BCC $C$L248,AC0 == #0 ; |4609| 
    7711                                                      ; branchcc occurs ; |4609| 
    7712                      .dwpsn  file "../FreeRTOS/Source/tasks_sysStk.c",line 4611,column 6,is_stmt
    7713 00195b ED0C          MOV dbl(*SP(#6)), AC0 ; |4611| 
         00195d 08   
    7714              $C$DW$553       .dwtag  DW_TAG_TI_branch
    7715                      .dwattr $C$DW$553, DW_AT_low_pc(0x00)
    7716                      .dwattr $C$DW$553, DW_AT_name("_prvAddCurrentTaskToDelayedList")
    7717                      .dwattr $C$DW$553, DW_AT_TI_call
    7718              
    7719 00195e 0805          CALL #_prvAddCurrentTaskToDelayedList ; |4611| 
         001960 11   
    7720 001961 3D14  ||      MOV #1, T0
    7721              
    7722                                                      ; call occurs [#_prvAddCurrentTaskToDelayedList] ; |4611| 
    7723                      .dwpsn  file "../FreeRTOS/Source/tasks_sysStk.c",line 4618,column 6,is_stmt
    7724              $C$DW$554       .dwtag  DW_TAG_TI_branch
    7725                      .dwattr $C$DW$554, DW_AT_low_pc(0x00)
    7726                      .dwattr $C$DW$554, DW_AT_name("_vPortYield")
    7727                      .dwattr $C$DW$554, DW_AT_TI_call
    7728 001963 6C00          CALL #_vPortYield ; |4618| 
         001965 0000!
    7729                                                      ; call occurs [#_vPortYield] ; |4618| 
    7730                      .dwpsn  file "../FreeRTOS/Source/tasks_sysStk.c",line 4619,column 5,is_stmt
    7731 001967 4A00          B $C$L248 ; |4619| 
    7732                                                      ; branch occurs ; |4619| 
    7733 001969       $C$L248:    
    7734                      .dwpsn  file "../FreeRTOS/Source/tasks_sysStk.c",line 4630,column 3,is_stmt
    7735 001969 A931          MOV *(#_usCriticalNesting), AR1 ; |4630| 
         00196b 0000 
         00196d 00!  
    7736 00196e 0409          BCC $C$L249,AR1 == #0 ; |4630| 
         001970 14   
    7737                                                      ; branchcc occurs ; |4630| 
    7738 001971 F731          SUB #1, *(#_usCriticalNesting) ; |4630| 
         001973 FFFF 
         001975 0000 
         001977 00!  
TMS320C55x Assembler PC v4.4.1 Tue Oct 02 02:33:57 2018

Tools Copyright (c) 1996-2012 Texas Instruments Incorporated
tasks_sysStk.asm                                                     PAGE  172

    7739 001978 20            NOP
    7740 001979 20            NOP
    7741 00197a 20            NOP
    7742 00197b A931          MOV *(#_usCriticalNesting), AR1 ; |4630| 
         00197d 0000 
         00197f 00!  
    7743 001980 6199          BCC $C$L249,AR1 != #0 ; |4630| 
    7744                                                      ; branchcc occurs ; |4630| 
    7745 001982 20     nop
    7746 001983 46B2   bclr INTM
    7747 001985       $C$L249:    
    7748                      .dwpsn  file "../FreeRTOS/Source/tasks_sysStk.c",line 4632,column 3,is_stmt
    7749 001985 20     nop
    7750 001986 46B3   bset INTM
    7751 001988 F731          ADD #1, *(#_usCriticalNesting) ; |4632| 
         00198a 0001 
         00198c 0000 
         00198e 00!  
    7752                      .dwpsn  file "../FreeRTOS/Source/tasks_sysStk.c",line 4636,column 4,is_stmt
    7753 00198f ED08          MOV dbl(*SP(#4)), XAR3
         001991 BF   
    7754 001992 90B0          MOV XAR3, AC0
    7755 001994 6780          BCC $C$L250,AC0 == #0 ; |4636| 
    7756                                                      ; branchcc occurs ; |4636| 
    7757                      .dwpsn  file "../FreeRTOS/Source/tasks_sysStk.c",line 4640,column 5,is_stmt
    7758 001996 ED31          MOV dbl(*(#_pxCurrentTCB)), XAR3
         001998 BF00 
         00199a 0004-
    7759 00199c ED08          MOV dbl(*SP(#4)), XAR2
         00199e AF   
    7760 00199f 142E          AADD #46, AR3 ; |4640| 
         0019a1 B4   
    7761 0019a2 8061          MOV dbl(*AR3), dbl(*AR2) ; |4640| 
         0019a4 00   
    7762 0019a5       $C$L250:    
    7763                      .dwpsn  file "../FreeRTOS/Source/tasks_sysStk.c",line 4647,column 4,is_stmt
    7764 0019a5 ED31          MOV dbl(*(#_pxCurrentTCB)), XAR3
         0019a7 BF00 
         0019a9 0004-
    7765 0019ab F06D          CMP *AR3(#48) == #2, TC1 ; |4647| 
         0019ad 0002 
         0019af 0030 
    7766 0019b1 62E4          BCC $C$L251,TC1 ; |4647| 
    7767                                                      ; branchcc occurs ; |4647| 
    7768                      .dwpsn  file "../FreeRTOS/Source/tasks_sysStk.c",line 4650,column 5,is_stmt
    7769 0019b3 E610          MOV #0, *SP(#8) ; |4650| 
         0019b5 00   
    7770                      .dwpsn  file "../FreeRTOS/Source/tasks_sysStk.c",line 4651,column 4,is_stmt
    7771 0019b6 4A19          B $C$L252 ; |4651| 
    7772                                                      ; branch occurs ; |4651| 
    7773 0019b8       $C$L251:    
    7774                      .dwpsn  file "../FreeRTOS/Source/tasks_sysStk.c",line 4656,column 5,is_stmt
    7775 0019b8 ED31          MOV dbl(*(#_pxCurrentTCB)), XAR3
         0019ba BF00 
         0019bc 0004-
TMS320C55x Assembler PC v4.4.1 Tue Oct 02 02:33:57 2018

Tools Copyright (c) 1996-2012 Texas Instruments Incorporated
tasks_sysStk.asm                                                     PAGE  173

    7776              
    7777                      AADD #46, AR3 ; |4656| 
    7778 0019be 8E04  ||      MOV dbl(*SP(#2)), AC0 ; |4656| 
         0019c0 BD1C 
         0019c2 082E 
    7779              
    7780 0019c4 ED61          MOV dbl(*AR3), AC1 ; |4656| 
         0019c6 18   
    7781 0019c7 3700  ||      NOT AC0, AC0 ; |4656| 
    7782              
    7783 0019c9 2810          AND AC1, AC0 ; |4656| 
    7784 0019cb EB61          MOV AC0, dbl(*AR3) ; |4656| 
         0019cd 08   
    7785                      .dwpsn  file "../FreeRTOS/Source/tasks_sysStk.c",line 4657,column 5,is_stmt
    7786 0019ce E610          MOV #1, *SP(#8) ; |4657| 
         0019d0 01   
    7787 0019d1       $C$L252:    
    7788                      .dwpsn  file "../FreeRTOS/Source/tasks_sysStk.c",line 4660,column 4,is_stmt
    7789 0019d1 ED31          MOV dbl(*(#_pxCurrentTCB)), XAR3
         0019d3 BF00 
         0019d5 0004-
    7790 0019d7 E66D          MOV #0, *AR3(#48) ; |4660| 
         0019d9 0000 
         0019db 30   
    7791 0019dc 20            NOP
    7792 0019dd 20            NOP
    7793 0019de 20            NOP
    7794                      .dwpsn  file "../FreeRTOS/Source/tasks_sysStk.c",line 4662,column 3,is_stmt
    7795 0019df A931          MOV *(#_usCriticalNesting), AR1 ; |4662| 
         0019e1 0000 
         0019e3 00!  
    7796 0019e4 0409          BCC $C$L253,AR1 == #0 ; |4662| 
         0019e6 14   
    7797                                                      ; branchcc occurs ; |4662| 
    7798 0019e7 F731          SUB #1, *(#_usCriticalNesting) ; |4662| 
         0019e9 FFFF 
         0019eb 0000 
         0019ed 00!  
    7799 0019ee 20            NOP
    7800 0019ef 20            NOP
    7801 0019f0 20            NOP
    7802 0019f1 A931          MOV *(#_usCriticalNesting), AR1 ; |4662| 
         0019f3 0000 
         0019f5 00!  
    7803 0019f6 6199          BCC $C$L253,AR1 != #0 ; |4662| 
    7804                                                      ; branchcc occurs ; |4662| 
    7805 0019f8 20     nop
    7806 0019f9 46B2   bclr INTM
    7807 0019fb       $C$L253:    
    7808                      .dwpsn  file "../FreeRTOS/Source/tasks_sysStk.c",line 4664,column 3,is_stmt
    7809 0019fb A410          MOV *SP(#8), T0 ; |4664| 
    7810                      .dwpsn  file "../FreeRTOS/Source/tasks_sysStk.c",line 4665,column 2,is_stmt
    7811 0019fd 4E09          AADD #9, SP
    7812                      .dwcfi  cfa_offset, 1
    7813              $C$DW$555       .dwtag  DW_TAG_TI_branch
TMS320C55x Assembler PC v4.4.1 Tue Oct 02 02:33:57 2018

Tools Copyright (c) 1996-2012 Texas Instruments Incorporated
tasks_sysStk.asm                                                     PAGE  174

    7814                      .dwattr $C$DW$555, DW_AT_low_pc(0x00)
    7815                      .dwattr $C$DW$555, DW_AT_TI_return
    7816 0019ff 4804          RET
    7817                                                      ; return occurs
    7818                      .dwattr $C$DW$543, DW_AT_TI_end_file("../FreeRTOS/Source/tasks_sysStk.c")
    7819                      .dwattr $C$DW$543, DW_AT_TI_end_line(0x1239)
    7820                      .dwattr $C$DW$543, DW_AT_TI_end_column(0x02)
    7821                      .dwendentry
    7822                      .dwendtag $C$DW$543
    7823              
    7824 001a01               .sect   ".text"
    7825                      .align 4
    7826                      .global _xTaskGenericNotify
    7827              
    7828              $C$DW$556       .dwtag  DW_TAG_subprogram, DW_AT_name("xTaskGenericNotify")
    7829                      .dwattr $C$DW$556, DW_AT_low_pc(_xTaskGenericNotify)
    7830                      .dwattr $C$DW$556, DW_AT_high_pc(0x00)
    7831                      .dwattr $C$DW$556, DW_AT_TI_symbol_name("_xTaskGenericNotify")
    7832                      .dwattr $C$DW$556, DW_AT_external
    7833                      .dwattr $C$DW$556, DW_AT_type(*$C$DW$T$43)
    7834                      .dwattr $C$DW$556, DW_AT_TI_begin_file("../FreeRTOS/Source/tasks_sysStk.c")
    7835                      .dwattr $C$DW$556, DW_AT_TI_begin_line(0x1240)
    7836                      .dwattr $C$DW$556, DW_AT_TI_begin_column(0x0d)
    7837                      .dwattr $C$DW$556, DW_AT_TI_max_frame_size(0x0e)
    7838                      .dwpsn  file "../FreeRTOS/Source/tasks_sysStk.c",line 4673,column 2,is_stmt,address _xTaskGenericNoti
    7839              
    7840                      .dwfde $C$DW$CIE, _xTaskGenericNotify
    7841              $C$DW$557       .dwtag  DW_TAG_formal_parameter, DW_AT_name("xTaskToNotify")
    7842                      .dwattr $C$DW$557, DW_AT_TI_symbol_name("_xTaskToNotify")
    7843                      .dwattr $C$DW$557, DW_AT_type(*$C$DW$T$48)
    7844                      .dwattr $C$DW$557, DW_AT_location[DW_OP_reg17]
    7845              $C$DW$558       .dwtag  DW_TAG_formal_parameter, DW_AT_name("ulValue")
    7846                      .dwattr $C$DW$558, DW_AT_TI_symbol_name("_ulValue")
    7847                      .dwattr $C$DW$558, DW_AT_type(*$C$DW$T$28)
    7848                      .dwattr $C$DW$558, DW_AT_location[DW_OP_reg0]
    7849              $C$DW$559       .dwtag  DW_TAG_formal_parameter, DW_AT_name("eAction")
    7850                      .dwattr $C$DW$559, DW_AT_TI_symbol_name("_eAction")
    7851                      .dwattr $C$DW$559, DW_AT_type(*$C$DW$T$51)
    7852                      .dwattr $C$DW$559, DW_AT_location[DW_OP_reg12]
    7853              $C$DW$560       .dwtag  DW_TAG_formal_parameter, DW_AT_name("pulPreviousNotificationValue")
    7854                      .dwattr $C$DW$560, DW_AT_TI_symbol_name("_pulPreviousNotificationValue")
    7855                      .dwattr $C$DW$560, DW_AT_type(*$C$DW$T$133)
    7856                      .dwattr $C$DW$560, DW_AT_location[DW_OP_reg19]
    7857              ;*******************************************************************************
    7858              ;* FUNCTION NAME: xTaskGenericNotify                                           *
    7859              ;*                                                                             *
    7860              ;*   Function Uses Regs : AC0,AC0,AC1,AC1,T0,AR0,XAR0,AR1,XAR1,AR2,XAR2,AR3,   *
    7861              ;*                        XAR3,SP,CARRY,TC1,M40,SATA,SATD,RDM,FRCT,SMUL        *
    7862              ;*   Stack Frame        : Compact (No Frame Pointer, w/ debug)                 *
    7863              ;*   Total Frame Size   : 14 words                                             *
    7864              ;*                        (2 return address/alignment)                         *
    7865              ;*                        (12 local values)                                    *
    7866              ;*   Min System Stack   : 1 word                                               *
    7867              ;*******************************************************************************
    7868 001a04       _xTaskGenericNotify:
TMS320C55x Assembler PC v4.4.1 Tue Oct 02 02:33:57 2018

Tools Copyright (c) 1996-2012 Texas Instruments Incorporated
tasks_sysStk.asm                                                     PAGE  175

    7869                      .dwcfi  cfa_offset, 1
    7870                      .dwcfi  save_reg_to_mem, 91, -1
    7871 001a04 4EF3          AADD #-13, SP
    7872                      .dwcfi  cfa_offset, 14
    7873              $C$DW$561       .dwtag  DW_TAG_variable, DW_AT_name("xTaskToNotify")
    7874                      .dwattr $C$DW$561, DW_AT_TI_symbol_name("_xTaskToNotify")
    7875                      .dwattr $C$DW$561, DW_AT_type(*$C$DW$T$48)
    7876                      .dwattr $C$DW$561, DW_AT_location[DW_OP_bregx 0x24 0]
    7877              $C$DW$562       .dwtag  DW_TAG_variable, DW_AT_name("ulValue")
    7878                      .dwattr $C$DW$562, DW_AT_TI_symbol_name("_ulValue")
    7879                      .dwattr $C$DW$562, DW_AT_type(*$C$DW$T$28)
    7880                      .dwattr $C$DW$562, DW_AT_location[DW_OP_bregx 0x24 2]
    7881              $C$DW$563       .dwtag  DW_TAG_variable, DW_AT_name("eAction")
    7882                      .dwattr $C$DW$563, DW_AT_TI_symbol_name("_eAction")
    7883                      .dwattr $C$DW$563, DW_AT_type(*$C$DW$T$51)
    7884                      .dwattr $C$DW$563, DW_AT_location[DW_OP_bregx 0x24 4]
    7885              $C$DW$564       .dwtag  DW_TAG_variable, DW_AT_name("pulPreviousNotificationValue")
    7886                      .dwattr $C$DW$564, DW_AT_TI_symbol_name("_pulPreviousNotificationValue")
    7887                      .dwattr $C$DW$564, DW_AT_type(*$C$DW$T$133)
    7888                      .dwattr $C$DW$564, DW_AT_location[DW_OP_bregx 0x24 6]
    7889              $C$DW$565       .dwtag  DW_TAG_variable, DW_AT_name("pxTCB")
    7890                      .dwattr $C$DW$565, DW_AT_TI_symbol_name("_pxTCB")
    7891                      .dwattr $C$DW$565, DW_AT_type(*$C$DW$T$83)
    7892                      .dwattr $C$DW$565, DW_AT_location[DW_OP_bregx 0x24 8]
    7893              $C$DW$566       .dwtag  DW_TAG_variable, DW_AT_name("xReturn")
    7894                      .dwattr $C$DW$566, DW_AT_TI_symbol_name("_xReturn")
    7895                      .dwattr $C$DW$566, DW_AT_type(*$C$DW$T$43)
    7896                      .dwattr $C$DW$566, DW_AT_location[DW_OP_bregx 0x24 10]
    7897              $C$DW$567       .dwtag  DW_TAG_variable, DW_AT_name("ucOriginalNotifyState")
    7898                      .dwattr $C$DW$567, DW_AT_TI_symbol_name("_ucOriginalNotifyState")
    7899                      .dwattr $C$DW$567, DW_AT_type(*$C$DW$T$30)
    7900                      .dwattr $C$DW$567, DW_AT_location[DW_OP_bregx 0x24 11]
    7901 001a06 EB0C          MOV XAR1, dbl(*SP(#6))
         001a08 95   
    7902 001a09 C408          MOV T0, *SP(#4) ; |4673| 
    7903 001a0b EB04          MOV AC0, dbl(*SP(#2)) ; |4673| 
         001a0d 08   
    7904 001a0e EB00          MOV XAR0, dbl(*SP(#0))
         001a10 85   
    7905                      .dwpsn  file "../FreeRTOS/Source/tasks_sysStk.c",line 4675,column 13,is_stmt
    7906 001a11 E614          MOV #1, *SP(#10) ; |4675| 
         001a13 01   
    7907                      .dwpsn  file "../FreeRTOS/Source/tasks_sysStk.c",line 4678,column 3,is_stmt
    7908 001a14 ED00          MOV dbl(*SP(#0)), XAR3
         001a16 BF   
    7909 001a17 90B0          MOV XAR3, AC0
    7910 001a19 6290          BCC $C$L255,AC0 != #0 ; |4678| 
    7911                                                      ; branchcc occurs ; |4678| 
    7912 001a1b 20     nop
    7913 001a1c 46B3   bset INTM
    7914 001a1e       $C$L254:    
    7915 001a1e       $C$DW$L$_xTaskGenericNotify$3$B:
    7916 001a1e 4A7E          B $C$L254 ; |4678| 
    7917                                                      ; branch occurs ; |4678| 
    7918 001a20       $C$DW$L$_xTaskGenericNotify$3$E:
TMS320C55x Assembler PC v4.4.1 Tue Oct 02 02:33:57 2018

Tools Copyright (c) 1996-2012 Texas Instruments Incorporated
tasks_sysStk.asm                                                     PAGE  176

    7919 001a20       $C$L255:    
    7920                      .dwpsn  file "../FreeRTOS/Source/tasks_sysStk.c",line 4679,column 3,is_stmt
    7921 001a20 EB10          MOV XAR3, dbl(*SP(#8))
         001a22 B5   
    7922                      .dwpsn  file "../FreeRTOS/Source/tasks_sysStk.c",line 4681,column 3,is_stmt
    7923 001a23 20     nop
    7924 001a24 46B3   bset INTM
    7925 001a26 F731          ADD #1, *(#_usCriticalNesting) ; |4681| 
         001a28 0001 
         001a2a 0000 
         001a2c 00!  
    7926                      .dwpsn  file "../FreeRTOS/Source/tasks_sysStk.c",line 4683,column 4,is_stmt
    7927 001a2d ED0C          MOV dbl(*SP(#6)), XAR3
         001a2f BF   
    7928 001a30 90B0          MOV XAR3, AC0
    7929 001a32 6600          BCC $C$L256,AC0 == #0 ; |4683| 
    7930                                                      ; branchcc occurs ; |4683| 
    7931                      .dwpsn  file "../FreeRTOS/Source/tasks_sysStk.c",line 4685,column 5,is_stmt
    7932 001a34 ED10          MOV dbl(*SP(#8)), XAR3
         001a36 BF   
    7933 001a37 ED0C          MOV dbl(*SP(#6)), XAR2
         001a39 AF   
    7934 001a3a 142E          AADD #46, AR3 ; |4685| 
         001a3c B4   
    7935 001a3d 8061          MOV dbl(*AR3), dbl(*AR2) ; |4685| 
         001a3f 00   
    7936 001a40       $C$L256:    
    7937                      .dwpsn  file "../FreeRTOS/Source/tasks_sysStk.c",line 4688,column 4,is_stmt
    7938 001a40 ED10          MOV dbl(*SP(#8)), XAR3
         001a42 BF   
    7939 001a43 A96D          MOV *AR3(#48), AR1 ; |4688| 
         001a45 0030 
    7940 001a47 C916          MOV AR1, *SP(#11) ; |4688| 
    7941                      .dwpsn  file "../FreeRTOS/Source/tasks_sysStk.c",line 4690,column 4,is_stmt
    7942 001a49 ED10          MOV dbl(*SP(#8)), XAR3
         001a4b BF   
    7943 001a4c E66D          MOV #2, *AR3(#48) ; |4690| 
         001a4e 0200 
         001a50 30   
    7944                      .dwpsn  file "../FreeRTOS/Source/tasks_sysStk.c",line 4692,column 4,is_stmt
    7945 001a51 0600          B $C$L265 ; |4692| 
         001a53 70   
    7946                                                      ; branch occurs ; |4692| 
    7947 001a54       $C$L257:    
    7948                      .dwpsn  file "../FreeRTOS/Source/tasks_sysStk.c",line 4695,column 6,is_stmt
    7949 001a54 ED10          MOV dbl(*SP(#8)), XAR3
         001a56 BF   
    7950 001a57 ED04          MOV dbl(*SP(#2)), AC0 ; |4695| 
         001a59 08   
    7951 001a5a ED6D          MOV dbl(*AR3(#46)), AC1 ; |4695| 
         001a5c 1800 
         001a5e 2E   
    7952 001a5f 2A10          OR AC1, AC0 ; |4695| 
    7953 001a61 EB6D          MOV AC0, dbl(*AR3(#46)) ; |4695| 
         001a63 0800 
TMS320C55x Assembler PC v4.4.1 Tue Oct 02 02:33:57 2018

Tools Copyright (c) 1996-2012 Texas Instruments Incorporated
tasks_sysStk.asm                                                     PAGE  177

         001a65 2E   
    7954                      .dwpsn  file "../FreeRTOS/Source/tasks_sysStk.c",line 4696,column 11,is_stmt
    7955 001a66 0600          B $C$L267 ; |4696| 
         001a68 8C   
    7956                                                      ; branch occurs ; |4696| 
    7957 001a69       $C$L258:    
    7958                      .dwpsn  file "../FreeRTOS/Source/tasks_sysStk.c",line 4699,column 6,is_stmt
    7959 001a69 ED10          MOV dbl(*SP(#8)), XAR3
         001a6b BF   
    7960 001a6c ED6D          MOV dbl(*AR3(#46)), AC0 ; |4699| 
         001a6e 0800 
         001a70 2E   
    7961 001a71 4010          ADD #1, AC0 ; |4699| 
    7962 001a73 EB6D          MOV AC0, dbl(*AR3(#46)) ; |4699| 
         001a75 0800 
         001a77 2E   
    7963                      .dwpsn  file "../FreeRTOS/Source/tasks_sysStk.c",line 4700,column 11,is_stmt
    7964 001a78 0600          B $C$L267 ; |4700| 
         001a7a 7A   
    7965                                                      ; branch occurs ; |4700| 
    7966 001a7b       $C$L259:    
    7967                      .dwpsn  file "../FreeRTOS/Source/tasks_sysStk.c",line 4703,column 6,is_stmt
    7968 001a7b ED10          MOV dbl(*SP(#8)), XAR3
         001a7d BF   
    7969 001a7e ED04          MOV dbl(*SP(#2)), AC0 ; |4703| 
         001a80 08   
    7970 001a81 EB6D          MOV AC0, dbl(*AR3(#46)) ; |4703| 
         001a83 0800 
         001a85 2E   
    7971                      .dwpsn  file "../FreeRTOS/Source/tasks_sysStk.c",line 4704,column 11,is_stmt
    7972 001a86 0600          B $C$L267 ; |4704| 
         001a88 6C   
    7973                                                      ; branch occurs ; |4704| 
    7974 001a89       $C$L260:    
    7975                      .dwpsn  file "../FreeRTOS/Source/tasks_sysStk.c",line 4707,column 6,is_stmt
    7976 001a89 F016          CMP *SP(#11) == #2, TC1 ; |4707| 
         001a8b 0002 
    7977 001a8d 6764          BCC $C$L261,TC1 ; |4707| 
    7978                                                      ; branchcc occurs ; |4707| 
    7979                      .dwpsn  file "../FreeRTOS/Source/tasks_sysStk.c",line 4709,column 7,is_stmt
    7980 001a8f ED10          MOV dbl(*SP(#8)), XAR3
         001a91 BF   
    7981 001a92 ED04          MOV dbl(*SP(#2)), AC0 ; |4709| 
         001a94 08   
    7982 001a95 EB6D          MOV AC0, dbl(*AR3(#46)) ; |4709| 
         001a97 0800 
         001a99 2E   
    7983                      .dwpsn  file "../FreeRTOS/Source/tasks_sysStk.c",line 4710,column 6,is_stmt
    7984 001a9a 0600          B $C$L267 ; |4710| 
         001a9c 58   
    7985                                                      ; branch occurs ; |4710| 
    7986 001a9d       $C$L261:    
    7987                      .dwpsn  file "../FreeRTOS/Source/tasks_sysStk.c",line 4714,column 7,is_stmt
    7988 001a9d E614          MOV #0, *SP(#10) ; |4714| 
         001a9f 00   
TMS320C55x Assembler PC v4.4.1 Tue Oct 02 02:33:57 2018

Tools Copyright (c) 1996-2012 Texas Instruments Incorporated
tasks_sysStk.asm                                                     PAGE  178

    7989                      .dwpsn  file "../FreeRTOS/Source/tasks_sysStk.c",line 4716,column 11,is_stmt
    7990 001aa0 0600          B $C$L267 ; |4716| 
         001aa2 52   
    7991                                                      ; branch occurs ; |4716| 
    7992 001aa3       $C$L262:    
    7993                      .dwpsn  file "../FreeRTOS/Source/tasks_sysStk.c",line 4727,column 6,is_stmt
    7994 001aa3 ED10          MOV dbl(*SP(#8)), XAR3
         001aa5 BF   
    7995 001aa6 7AFF          MOV #-1 << #16, AC0 ; |4727| 
         001aa8 FF0A 
    7996 001aaa 7EFF          OR #0xffff, AC0, AC0 ; |4727| 
         001aac FF00 
    7997 001aae ED6D          MOV dbl(*AR3(#46)), AC1 ; |4727| 
         001ab0 1800 
         001ab2 2E   
    7998 001ab3 121C          CMPU AC1 != AC0, TC1 ; |4727| 
         001ab5 04   
    7999 001ab6 3C09          MOV #0, AR1
    8000 001ab8 6164          BCC $C$L263,TC1 ; |4727| 
    8001                                                      ; branchcc occurs ; |4727| 
    8002 001aba 3C19          MOV #1, AR1
    8003 001abc       $C$L263:    
    8004 001abc 0419          BCC $C$L267,AR1 != #0 ; |4727| 
         001abe 36   
    8005                                                      ; branchcc occurs ; |4727| 
    8006 001abf 20     nop
    8007 001ac0 46B3   bset INTM
    8008 001ac2       $C$L264:    
    8009 001ac2       $C$DW$L$_xTaskGenericNotify$19$B:
    8010 001ac2 4A7E          B $C$L264 ; |4727| 
    8011                                                      ; branch occurs ; |4727| 
    8012 001ac4       $C$DW$L$_xTaskGenericNotify$19$E:
    8013 001ac4       $C$L265:    
    8014                      .dwpsn  file "../FreeRTOS/Source/tasks_sysStk.c",line 4692,column 4,is_stmt
    8015              
    8016 001ac4 A908          MOV *SP(#4), AR1 ; |4692| 
    8017 001ac6 3D2A  ||      MOV #2, AR2
    8018              
    8019 001ac8 12A4          CMP AR1 > AR2, TC1 ; |4692| 
         001aca 90   
    8020 001acb 0464          BCC $C$L266,TC1 ; |4692| 
         001acd 14   
    8021                                                      ; branchcc occurs ; |4692| 
    8022 001ace 1290          CMP AR1 == AR2, TC1 ; |4692| 
         001ad0 A0   
    8023 001ad1 0464          BCC $C$L258,TC1 ; |4692| 
         001ad3 95   
    8024                                                      ; branchcc occurs ; |4692| 
    8025 001ad4 0409          BCC $C$L267,AR1 == #0 ; |4692| 
         001ad6 1E   
    8026                                                      ; branchcc occurs ; |4692| 
    8027 001ad7 3C1A          MOV #1, AR2
    8028 001ad9 1290          CMP AR1 == AR2, TC1 ; |4692| 
         001adb A0   
    8029 001adc 6D64          BCC $C$L257,TC1 ; |4692| 
TMS320C55x Assembler PC v4.4.1 Tue Oct 02 02:33:57 2018

Tools Copyright (c) 1996-2012 Texas Instruments Incorporated
tasks_sysStk.asm                                                     PAGE  179

         001ade FF74 
    8030                                                      ; branchcc occurs ; |4692| 
    8031 001ae0 4A41          B $C$L262 ; |4692| 
    8032                                                      ; branch occurs ; |4692| 
    8033 001ae2       $C$L266:    
    8034 001ae2 3C3A          MOV #3, AR2
    8035 001ae4 1290          CMP AR1 == AR2, TC1 ; |4692| 
         001ae6 A0   
    8036 001ae7 0464          BCC $C$L259,TC1 ; |4692| 
         001ae9 91   
    8037                                                      ; branchcc occurs ; |4692| 
    8038 001aea 3C4A          MOV #4, AR2
    8039 001aec 1290          CMP AR1 == AR2, TC1 ; |4692| 
         001aee A0   
    8040 001aef 0464          BCC $C$L260,TC1 ; |4692| 
         001af1 97   
    8041                                                      ; branchcc occurs ; |4692| 
    8042 001af2 06FF          B $C$L262 ; |4692| 
         001af4 AE   
    8043                                                      ; branch occurs ; |4692| 
    8044 001af5       $C$L267:    
    8045                      .dwpsn  file "../FreeRTOS/Source/tasks_sysStk.c",line 4736,column 4,is_stmt
    8046 001af5 F016          CMP *SP(#11) == #1, TC1 ; |4736| 
         001af7 0001 
    8047 001af9 0474          BCC $C$L272,!TC1 ; |4736| 
         001afb 77   
    8048                                                      ; branchcc occurs ; |4736| 
    8049                      .dwpsn  file "../FreeRTOS/Source/tasks_sysStk.c",line 4738,column 5,is_stmt
    8050 001afc ED10          MOV dbl(*SP(#8)), XAR0
         001afe 8F   
    8051 001aff 1404          AADD #4, AR0 ; |4738| 
         001b01 84   
    8052              $C$DW$568       .dwtag  DW_TAG_TI_branch
    8053                      .dwattr $C$DW$568, DW_AT_low_pc(0x00)
    8054                      .dwattr $C$DW$568, DW_AT_name("_uxListRemove")
    8055                      .dwattr $C$DW$568, DW_AT_TI_call
    8056 001b02 6C00          CALL #_uxListRemove ; |4738| 
         001b04 0000!
    8057                                                      ; call occurs [#_uxListRemove] ; |4738| 
    8058                      .dwpsn  file "../FreeRTOS/Source/tasks_sysStk.c",line 4739,column 5,is_stmt
    8059 001b06 ED10          MOV dbl(*SP(#8)), XAR3
         001b08 BF   
    8060 001b09 A931          MOV *(#_uxTopReadyPriority), AR1 ; |4739| 
         001b0b 0000 
         001b0d 72-  
    8061 001b0e AA6D          MOV *AR3(#24), AR2 ; |4739| 
         001b10 0018 
    8062 001b12 1298          CMPU AR2 <= AR1, TC1 ; |4739| 
         001b14 A4   
    8063 001b15 64E4          BCC $C$L268,TC1 ; |4739| 
    8064                                                      ; branchcc occurs ; |4739| 
    8065 001b17 A96D          MOV *AR3(#24), AR1 ; |4739| 
         001b19 0018 
    8066 001b1b C931          MOV AR1, *(#_uxTopReadyPriority) ; |4739| 
         001b1d 0000 
TMS320C55x Assembler PC v4.4.1 Tue Oct 02 02:33:57 2018

Tools Copyright (c) 1996-2012 Texas Instruments Incorporated
tasks_sysStk.asm                                                     PAGE  180

         001b1f 72-  
    8067 001b20       $C$L268:    
    8068 001b20 DF6D          MOV uns(*AR3(#24)), AC1 ; |4739| 
         001b22 1500 
         001b24 18   
    8069 001b25 ED10          MOV dbl(*SP(#8)), XAR1
         001b27 9F   
    8070 001b28 1015          SFTS AC1, #1, AC0 ; |4739| 
         001b2a 01   
    8071 001b2b 1013          ADD AC1 << #3, AC0 ; |4739| 
         001b2d 03   
    8072 001b2e 900B          MOV AC0, XAR3
    8073 001b30 EC31          AMOV #_pxReadyTasksLists, XAR0 ; |4739| 
         001b32 8E00 
         001b34 0006-
    8074              
    8075 001b36 14B1          AADD XAR3, XAR0 ; |4739| 
         001b38 80   
    8076 001b39 1504  ||      AADD #4, AR1 ; |4739| 
         001b3b 9C   
    8077              
    8078              $C$DW$569       .dwtag  DW_TAG_TI_branch
    8079                      .dwattr $C$DW$569, DW_AT_low_pc(0x00)
    8080                      .dwattr $C$DW$569, DW_AT_name("_vListInsertEnd")
    8081                      .dwattr $C$DW$569, DW_AT_TI_call
    8082 001b3c 6C00          CALL #_vListInsertEnd ; |4739| 
         001b3e 0000!
    8083                                                      ; call occurs [#_vListInsertEnd] ; |4739| 
    8084                      .dwpsn  file "../FreeRTOS/Source/tasks_sysStk.c",line 4742,column 5,is_stmt
    8085 001b40 ED10          MOV dbl(*SP(#8)), XAR3
         001b42 BF   
    8086 001b43 ED6D          MOV dbl(*AR3(#22)), XAR3
         001b45 BF00 
         001b47 16   
    8087 001b48 90B0          MOV XAR3, AC0
    8088 001b4a 3C09          MOV #0, AR1
    8089 001b4c 6110          BCC $C$L269,AC0 != #0 ; |4742| 
    8090                                                      ; branchcc occurs ; |4742| 
    8091 001b4e 3C19          MOV #1, AR1
    8092 001b50       $C$L269:    
    8093 001b50 6299          BCC $C$L271,AR1 != #0 ; |4742| 
    8094                                                      ; branchcc occurs ; |4742| 
    8095 001b52 20     nop
    8096 001b53 46B3   bset INTM
    8097 001b55       $C$L270:    
    8098 001b55       $C$DW$L$_xTaskGenericNotify$36$B:
    8099 001b55 4A7E          B $C$L270 ; |4742| 
    8100                                                      ; branch occurs ; |4742| 
    8101 001b57       $C$DW$L$_xTaskGenericNotify$36$E:
    8102 001b57       $C$L271:    
    8103                      .dwpsn  file "../FreeRTOS/Source/tasks_sysStk.c",line 4760,column 5,is_stmt
    8104 001b57 ED31          MOV dbl(*(#_pxCurrentTCB)), XAR3
         001b59 BF00 
         001b5b 0004-
    8105 001b5d A96D          MOV *AR3(#24), AR1 ; |4760| 
TMS320C55x Assembler PC v4.4.1 Tue Oct 02 02:33:57 2018

Tools Copyright (c) 1996-2012 Texas Instruments Incorporated
tasks_sysStk.asm                                                     PAGE  181

         001b5f 0018 
    8106 001b61 ED10          MOV dbl(*SP(#8)), XAR3
         001b63 BF   
    8107 001b64 AA6D          MOV *AR3(#24), AR2 ; |4760| 
         001b66 0018 
    8108 001b68 1298          CMPU AR2 <= AR1, TC1 ; |4760| 
         001b6a A4   
    8109 001b6b 6364          BCC $C$L272,TC1 ; |4760| 
    8110                                                      ; branchcc occurs ; |4760| 
    8111                      .dwpsn  file "../FreeRTOS/Source/tasks_sysStk.c",line 4764,column 6,is_stmt
    8112              $C$DW$570       .dwtag  DW_TAG_TI_branch
    8113                      .dwattr $C$DW$570, DW_AT_low_pc(0x00)
    8114                      .dwattr $C$DW$570, DW_AT_name("_vPortYield")
    8115                      .dwattr $C$DW$570, DW_AT_TI_call
    8116 001b6d 6C00          CALL #_vPortYield ; |4764| 
         001b6f 0000!
    8117                                                      ; call occurs [#_vPortYield] ; |4764| 
    8118                      .dwpsn  file "../FreeRTOS/Source/tasks_sysStk.c",line 4765,column 5,is_stmt
    8119 001b71 4A00          B $C$L272 ; |4765| 
    8120                                                      ; branch occurs ; |4765| 
    8121 001b73       $C$L272:    
    8122                      .dwpsn  file "../FreeRTOS/Source/tasks_sysStk.c",line 4776,column 3,is_stmt
    8123 001b73 A931          MOV *(#_usCriticalNesting), AR1 ; |4776| 
         001b75 0000 
         001b77 00!  
    8124 001b78 0409          BCC $C$L273,AR1 == #0 ; |4776| 
         001b7a 14   
    8125                                                      ; branchcc occurs ; |4776| 
    8126 001b7b F731          SUB #1, *(#_usCriticalNesting) ; |4776| 
         001b7d FFFF 
         001b7f 0000 
         001b81 00!  
    8127 001b82 20            NOP
    8128 001b83 20            NOP
    8129 001b84 20            NOP
    8130 001b85 A931          MOV *(#_usCriticalNesting), AR1 ; |4776| 
         001b87 0000 
         001b89 00!  
    8131 001b8a 6199          BCC $C$L273,AR1 != #0 ; |4776| 
    8132                                                      ; branchcc occurs ; |4776| 
    8133 001b8c 20     nop
    8134 001b8d 46B2   bclr INTM
    8135 001b8f       $C$L273:    
    8136                      .dwpsn  file "../FreeRTOS/Source/tasks_sysStk.c",line 4778,column 3,is_stmt
    8137 001b8f A414          MOV *SP(#10), T0 ; |4778| 
    8138                      .dwpsn  file "../FreeRTOS/Source/tasks_sysStk.c",line 4779,column 2,is_stmt
    8139 001b91 4E0D          AADD #13, SP
    8140                      .dwcfi  cfa_offset, 1
    8141              $C$DW$571       .dwtag  DW_TAG_TI_branch
    8142                      .dwattr $C$DW$571, DW_AT_low_pc(0x00)
    8143                      .dwattr $C$DW$571, DW_AT_TI_return
    8144 001b93 4804          RET
    8145                                                      ; return occurs
    8146              
    8147              $C$DW$572       .dwtag  DW_TAG_TI_loop
TMS320C55x Assembler PC v4.4.1 Tue Oct 02 02:33:57 2018

Tools Copyright (c) 1996-2012 Texas Instruments Incorporated
tasks_sysStk.asm                                                     PAGE  182

    8148                      .dwattr $C$DW$572, DW_AT_name("F:\eZdsp-DBG-sim\tmp1\c55x-sim2\foo\Debug\tasks_sysStk.asm:$C$L270:1:1
    8149                      .dwattr $C$DW$572, DW_AT_TI_begin_file("../FreeRTOS/Source/tasks_sysStk.c")
    8150                      .dwattr $C$DW$572, DW_AT_TI_begin_line(0x1286)
    8151                      .dwattr $C$DW$572, DW_AT_TI_end_line(0x1286)
    8152              $C$DW$573       .dwtag  DW_TAG_TI_loop_range
    8153                      .dwattr $C$DW$573, DW_AT_low_pc($C$DW$L$_xTaskGenericNotify$36$B)
    8154                      .dwattr $C$DW$573, DW_AT_high_pc($C$DW$L$_xTaskGenericNotify$36$E)
    8155                      .dwendtag $C$DW$572
    8156              
    8157              
    8158              $C$DW$574       .dwtag  DW_TAG_TI_loop
    8159                      .dwattr $C$DW$574, DW_AT_name("F:\eZdsp-DBG-sim\tmp1\c55x-sim2\foo\Debug\tasks_sysStk.asm:$C$L264:1:1
    8160                      .dwattr $C$DW$574, DW_AT_TI_begin_file("../FreeRTOS/Source/tasks_sysStk.c")
    8161                      .dwattr $C$DW$574, DW_AT_TI_begin_line(0x1277)
    8162                      .dwattr $C$DW$574, DW_AT_TI_end_line(0x1277)
    8163              $C$DW$575       .dwtag  DW_TAG_TI_loop_range
    8164                      .dwattr $C$DW$575, DW_AT_low_pc($C$DW$L$_xTaskGenericNotify$19$B)
    8165                      .dwattr $C$DW$575, DW_AT_high_pc($C$DW$L$_xTaskGenericNotify$19$E)
    8166                      .dwendtag $C$DW$574
    8167              
    8168              
    8169              $C$DW$576       .dwtag  DW_TAG_TI_loop
    8170                      .dwattr $C$DW$576, DW_AT_name("F:\eZdsp-DBG-sim\tmp1\c55x-sim2\foo\Debug\tasks_sysStk.asm:$C$L254:1:1
    8171                      .dwattr $C$DW$576, DW_AT_TI_begin_file("../FreeRTOS/Source/tasks_sysStk.c")
    8172                      .dwattr $C$DW$576, DW_AT_TI_begin_line(0x1246)
    8173                      .dwattr $C$DW$576, DW_AT_TI_end_line(0x1246)
    8174              $C$DW$577       .dwtag  DW_TAG_TI_loop_range
    8175                      .dwattr $C$DW$577, DW_AT_low_pc($C$DW$L$_xTaskGenericNotify$3$B)
    8176                      .dwattr $C$DW$577, DW_AT_high_pc($C$DW$L$_xTaskGenericNotify$3$E)
    8177                      .dwendtag $C$DW$576
    8178              
    8179                      .dwattr $C$DW$556, DW_AT_TI_end_file("../FreeRTOS/Source/tasks_sysStk.c")
    8180                      .dwattr $C$DW$556, DW_AT_TI_end_line(0x12ab)
    8181                      .dwattr $C$DW$556, DW_AT_TI_end_column(0x02)
    8182                      .dwendentry
    8183                      .dwendtag $C$DW$556
    8184              
    8185 001b95               .sect   ".text"
    8186                      .align 4
    8187                      .global _xTaskGenericNotifyFromISR
    8188              
    8189              $C$DW$578       .dwtag  DW_TAG_subprogram, DW_AT_name("xTaskGenericNotifyFromISR")
    8190                      .dwattr $C$DW$578, DW_AT_low_pc(_xTaskGenericNotifyFromISR)
    8191                      .dwattr $C$DW$578, DW_AT_high_pc(0x00)
    8192                      .dwattr $C$DW$578, DW_AT_TI_symbol_name("_xTaskGenericNotifyFromISR")
    8193                      .dwattr $C$DW$578, DW_AT_external
    8194                      .dwattr $C$DW$578, DW_AT_type(*$C$DW$T$43)
    8195                      .dwattr $C$DW$578, DW_AT_TI_begin_file("../FreeRTOS/Source/tasks_sysStk.c")
    8196                      .dwattr $C$DW$578, DW_AT_TI_begin_line(0x12b2)
    8197                      .dwattr $C$DW$578, DW_AT_TI_begin_column(0x0d)
    8198                      .dwattr $C$DW$578, DW_AT_TI_max_frame_size(0x10)
    8199                      .dwpsn  file "../FreeRTOS/Source/tasks_sysStk.c",line 4787,column 2,is_stmt,address _xTaskGenericNoti
    8200              
    8201                      .dwfde $C$DW$CIE, _xTaskGenericNotifyFromISR
    8202              $C$DW$579       .dwtag  DW_TAG_formal_parameter, DW_AT_name("xTaskToNotify")
TMS320C55x Assembler PC v4.4.1 Tue Oct 02 02:33:57 2018

Tools Copyright (c) 1996-2012 Texas Instruments Incorporated
tasks_sysStk.asm                                                     PAGE  183

    8203                      .dwattr $C$DW$579, DW_AT_TI_symbol_name("_xTaskToNotify")
    8204                      .dwattr $C$DW$579, DW_AT_type(*$C$DW$T$48)
    8205                      .dwattr $C$DW$579, DW_AT_location[DW_OP_reg17]
    8206              $C$DW$580       .dwtag  DW_TAG_formal_parameter, DW_AT_name("ulValue")
    8207                      .dwattr $C$DW$580, DW_AT_TI_symbol_name("_ulValue")
    8208                      .dwattr $C$DW$580, DW_AT_type(*$C$DW$T$28)
    8209                      .dwattr $C$DW$580, DW_AT_location[DW_OP_reg0]
    8210              $C$DW$581       .dwtag  DW_TAG_formal_parameter, DW_AT_name("eAction")
    8211                      .dwattr $C$DW$581, DW_AT_TI_symbol_name("_eAction")
    8212                      .dwattr $C$DW$581, DW_AT_type(*$C$DW$T$51)
    8213                      .dwattr $C$DW$581, DW_AT_location[DW_OP_reg12]
    8214              $C$DW$582       .dwtag  DW_TAG_formal_parameter, DW_AT_name("pulPreviousNotificationValue")
    8215                      .dwattr $C$DW$582, DW_AT_TI_symbol_name("_pulPreviousNotificationValue")
    8216                      .dwattr $C$DW$582, DW_AT_type(*$C$DW$T$133)
    8217                      .dwattr $C$DW$582, DW_AT_location[DW_OP_reg19]
    8218              $C$DW$583       .dwtag  DW_TAG_formal_parameter, DW_AT_name("pxHigherPriorityTaskWoken")
    8219                      .dwattr $C$DW$583, DW_AT_TI_symbol_name("_pxHigherPriorityTaskWoken")
    8220                      .dwattr $C$DW$583, DW_AT_type(*$C$DW$T$109)
    8221                      .dwattr $C$DW$583, DW_AT_location[DW_OP_reg21]
    8222              ;*******************************************************************************
    8223              ;* FUNCTION NAME: xTaskGenericNotifyFromISR                                    *
    8224              ;*                                                                             *
    8225              ;*   Function Uses Regs : AC0,AC0,AC1,AC1,T0,AR0,XAR0,AR1,XAR1,AR2,XAR2,AR3,   *
    8226              ;*                        XAR3,SP,CARRY,TC1,M40,SATA,SATD,RDM,FRCT,SMUL        *
    8227              ;*   Stack Frame        : Compact (No Frame Pointer, w/ debug)                 *
    8228              ;*   Total Frame Size   : 16 words                                             *
    8229              ;*                        (1 return address/alignment)                         *
    8230              ;*                        (15 local values)                                    *
    8231              ;*   Min System Stack   : 1 word                                               *
    8232              ;*******************************************************************************
    8233 001b98       _xTaskGenericNotifyFromISR:
    8234                      .dwcfi  cfa_offset, 1
    8235                      .dwcfi  save_reg_to_mem, 91, -1
    8236 001b98 4EF1          AADD #-15, SP
    8237                      .dwcfi  cfa_offset, 16
    8238              $C$DW$584       .dwtag  DW_TAG_variable, DW_AT_name("xTaskToNotify")
    8239                      .dwattr $C$DW$584, DW_AT_TI_symbol_name("_xTaskToNotify")
    8240                      .dwattr $C$DW$584, DW_AT_type(*$C$DW$T$48)
    8241                      .dwattr $C$DW$584, DW_AT_location[DW_OP_bregx 0x24 0]
    8242              $C$DW$585       .dwtag  DW_TAG_variable, DW_AT_name("ulValue")
    8243                      .dwattr $C$DW$585, DW_AT_TI_symbol_name("_ulValue")
    8244                      .dwattr $C$DW$585, DW_AT_type(*$C$DW$T$28)
    8245                      .dwattr $C$DW$585, DW_AT_location[DW_OP_bregx 0x24 2]
    8246              $C$DW$586       .dwtag  DW_TAG_variable, DW_AT_name("eAction")
    8247                      .dwattr $C$DW$586, DW_AT_TI_symbol_name("_eAction")
    8248                      .dwattr $C$DW$586, DW_AT_type(*$C$DW$T$51)
    8249                      .dwattr $C$DW$586, DW_AT_location[DW_OP_bregx 0x24 4]
    8250              $C$DW$587       .dwtag  DW_TAG_variable, DW_AT_name("pulPreviousNotificationValue")
    8251                      .dwattr $C$DW$587, DW_AT_TI_symbol_name("_pulPreviousNotificationValue")
    8252                      .dwattr $C$DW$587, DW_AT_type(*$C$DW$T$133)
    8253                      .dwattr $C$DW$587, DW_AT_location[DW_OP_bregx 0x24 6]
    8254              $C$DW$588       .dwtag  DW_TAG_variable, DW_AT_name("pxHigherPriorityTaskWoken")
    8255                      .dwattr $C$DW$588, DW_AT_TI_symbol_name("_pxHigherPriorityTaskWoken")
    8256                      .dwattr $C$DW$588, DW_AT_type(*$C$DW$T$109)
    8257                      .dwattr $C$DW$588, DW_AT_location[DW_OP_bregx 0x24 8]
TMS320C55x Assembler PC v4.4.1 Tue Oct 02 02:33:57 2018

Tools Copyright (c) 1996-2012 Texas Instruments Incorporated
tasks_sysStk.asm                                                     PAGE  184

    8258              $C$DW$589       .dwtag  DW_TAG_variable, DW_AT_name("pxTCB")
    8259                      .dwattr $C$DW$589, DW_AT_TI_symbol_name("_pxTCB")
    8260                      .dwattr $C$DW$589, DW_AT_type(*$C$DW$T$83)
    8261                      .dwattr $C$DW$589, DW_AT_location[DW_OP_bregx 0x24 10]
    8262              $C$DW$590       .dwtag  DW_TAG_variable, DW_AT_name("ucOriginalNotifyState")
    8263                      .dwattr $C$DW$590, DW_AT_TI_symbol_name("_ucOriginalNotifyState")
    8264                      .dwattr $C$DW$590, DW_AT_type(*$C$DW$T$30)
    8265                      .dwattr $C$DW$590, DW_AT_location[DW_OP_bregx 0x24 12]
    8266              $C$DW$591       .dwtag  DW_TAG_variable, DW_AT_name("xReturn")
    8267                      .dwattr $C$DW$591, DW_AT_TI_symbol_name("_xReturn")
    8268                      .dwattr $C$DW$591, DW_AT_type(*$C$DW$T$43)
    8269                      .dwattr $C$DW$591, DW_AT_location[DW_OP_bregx 0x24 13]
    8270              $C$DW$592       .dwtag  DW_TAG_variable, DW_AT_name("uxSavedInterruptStatus")
    8271                      .dwattr $C$DW$592, DW_AT_TI_symbol_name("_uxSavedInterruptStatus")
    8272                      .dwattr $C$DW$592, DW_AT_type(*$C$DW$T$25)
    8273                      .dwattr $C$DW$592, DW_AT_location[DW_OP_bregx 0x24 14]
    8274 001b9a EB10          MOV XAR2, dbl(*SP(#8))
         001b9c A5   
    8275 001b9d EB0C          MOV XAR1, dbl(*SP(#6))
         001b9f 95   
    8276 001ba0 C408          MOV T0, *SP(#4) ; |4787| 
    8277 001ba2 EB04          MOV AC0, dbl(*SP(#2)) ; |4787| 
         001ba4 08   
    8278 001ba5 EB00          MOV XAR0, dbl(*SP(#0))
         001ba7 85   
    8279                      .dwpsn  file "../FreeRTOS/Source/tasks_sysStk.c",line 4790,column 13,is_stmt
    8280 001ba8 E61A          MOV #1, *SP(#13) ; |4790| 
         001baa 01   
    8281                      .dwpsn  file "../FreeRTOS/Source/tasks_sysStk.c",line 4793,column 3,is_stmt
    8282 001bab ED00          MOV dbl(*SP(#0)), XAR3
         001bad BF   
    8283 001bae 90B0          MOV XAR3, AC0
    8284 001bb0 6290          BCC $C$L275,AC0 != #0 ; |4793| 
    8285                                                      ; branchcc occurs ; |4793| 
    8286 001bb2 20     nop
    8287 001bb3 46B3   bset INTM
    8288 001bb5       $C$L274:    
    8289 001bb5       $C$DW$L$_xTaskGenericNotifyFromISR$3$B:
    8290 001bb5 4A7E          B $C$L274 ; |4793| 
    8291                                                      ; branch occurs ; |4793| 
    8292 001bb7       $C$DW$L$_xTaskGenericNotifyFromISR$3$E:
    8293 001bb7       $C$L275:    
    8294                      .dwpsn  file "../FreeRTOS/Source/tasks_sysStk.c",line 4813,column 3,is_stmt
    8295 001bb7 EB14          MOV XAR3, dbl(*SP(#10))
         001bb9 B5   
    8296                      .dwpsn  file "../FreeRTOS/Source/tasks_sysStk.c",line 4815,column 3,is_stmt
    8297 001bba E61C          MOV #0, *SP(#14) ; |4815| 
         001bbc 00   
    8298                      .dwpsn  file "../FreeRTOS/Source/tasks_sysStk.c",line 4817,column 4,is_stmt
    8299 001bbd ED0C          MOV dbl(*SP(#6)), XAR3
         001bbf BF   
    8300 001bc0 90B0          MOV XAR3, AC0
    8301 001bc2 6600          BCC $C$L276,AC0 == #0 ; |4817| 
    8302                                                      ; branchcc occurs ; |4817| 
    8303                      .dwpsn  file "../FreeRTOS/Source/tasks_sysStk.c",line 4819,column 5,is_stmt
TMS320C55x Assembler PC v4.4.1 Tue Oct 02 02:33:57 2018

Tools Copyright (c) 1996-2012 Texas Instruments Incorporated
tasks_sysStk.asm                                                     PAGE  185

    8304 001bc4 ED14          MOV dbl(*SP(#10)), XAR3
         001bc6 BF   
    8305 001bc7 ED0C          MOV dbl(*SP(#6)), XAR2
         001bc9 AF   
    8306 001bca 142E          AADD #46, AR3 ; |4819| 
         001bcc B4   
    8307 001bcd 8061          MOV dbl(*AR3), dbl(*AR2) ; |4819| 
         001bcf 00   
    8308 001bd0       $C$L276:    
    8309                      .dwpsn  file "../FreeRTOS/Source/tasks_sysStk.c",line 4822,column 4,is_stmt
    8310 001bd0 ED14          MOV dbl(*SP(#10)), XAR3
         001bd2 BF   
    8311 001bd3 A96D          MOV *AR3(#48), AR1 ; |4822| 
         001bd5 0030 
    8312 001bd7 C918          MOV AR1, *SP(#12) ; |4822| 
    8313                      .dwpsn  file "../FreeRTOS/Source/tasks_sysStk.c",line 4823,column 4,is_stmt
    8314 001bd9 ED14          MOV dbl(*SP(#10)), XAR3
         001bdb BF   
    8315 001bdc E66D          MOV #2, *AR3(#48) ; |4823| 
         001bde 0200 
         001be0 30   
    8316                      .dwpsn  file "../FreeRTOS/Source/tasks_sysStk.c",line 4825,column 4,is_stmt
    8317 001be1 0600          B $C$L285 ; |4825| 
         001be3 70   
    8318                                                      ; branch occurs ; |4825| 
    8319 001be4       $C$L277:    
    8320                      .dwpsn  file "../FreeRTOS/Source/tasks_sysStk.c",line 4828,column 6,is_stmt
    8321 001be4 ED14          MOV dbl(*SP(#10)), XAR3
         001be6 BF   
    8322 001be7 ED04          MOV dbl(*SP(#2)), AC0 ; |4828| 
         001be9 08   
    8323 001bea ED6D          MOV dbl(*AR3(#46)), AC1 ; |4828| 
         001bec 1800 
         001bee 2E   
    8324 001bef 2A10          OR AC1, AC0 ; |4828| 
    8325 001bf1 EB6D          MOV AC0, dbl(*AR3(#46)) ; |4828| 
         001bf3 0800 
         001bf5 2E   
    8326                      .dwpsn  file "../FreeRTOS/Source/tasks_sysStk.c",line 4829,column 11,is_stmt
    8327 001bf6 0600          B $C$L287 ; |4829| 
         001bf8 8C   
    8328                                                      ; branch occurs ; |4829| 
    8329 001bf9       $C$L278:    
    8330                      .dwpsn  file "../FreeRTOS/Source/tasks_sysStk.c",line 4832,column 6,is_stmt
    8331 001bf9 ED14          MOV dbl(*SP(#10)), XAR3
         001bfb BF   
    8332 001bfc ED6D          MOV dbl(*AR3(#46)), AC0 ; |4832| 
         001bfe 0800 
         001c00 2E   
    8333 001c01 4010          ADD #1, AC0 ; |4832| 
    8334 001c03 EB6D          MOV AC0, dbl(*AR3(#46)) ; |4832| 
         001c05 0800 
         001c07 2E   
    8335                      .dwpsn  file "../FreeRTOS/Source/tasks_sysStk.c",line 4833,column 11,is_stmt
    8336 001c08 0600          B $C$L287 ; |4833| 
TMS320C55x Assembler PC v4.4.1 Tue Oct 02 02:33:57 2018

Tools Copyright (c) 1996-2012 Texas Instruments Incorporated
tasks_sysStk.asm                                                     PAGE  186

         001c0a 7A   
    8337                                                      ; branch occurs ; |4833| 
    8338 001c0b       $C$L279:    
    8339                      .dwpsn  file "../FreeRTOS/Source/tasks_sysStk.c",line 4836,column 6,is_stmt
    8340 001c0b ED14          MOV dbl(*SP(#10)), XAR3
         001c0d BF   
    8341 001c0e ED04          MOV dbl(*SP(#2)), AC0 ; |4836| 
         001c10 08   
    8342 001c11 EB6D          MOV AC0, dbl(*AR3(#46)) ; |4836| 
         001c13 0800 
         001c15 2E   
    8343                      .dwpsn  file "../FreeRTOS/Source/tasks_sysStk.c",line 4837,column 11,is_stmt
    8344 001c16 0600          B $C$L287 ; |4837| 
         001c18 6C   
    8345                                                      ; branch occurs ; |4837| 
    8346 001c19       $C$L280:    
    8347                      .dwpsn  file "../FreeRTOS/Source/tasks_sysStk.c",line 4840,column 6,is_stmt
    8348 001c19 F018          CMP *SP(#12) == #2, TC1 ; |4840| 
         001c1b 0002 
    8349 001c1d 6764          BCC $C$L281,TC1 ; |4840| 
    8350                                                      ; branchcc occurs ; |4840| 
    8351                      .dwpsn  file "../FreeRTOS/Source/tasks_sysStk.c",line 4842,column 7,is_stmt
    8352 001c1f ED14          MOV dbl(*SP(#10)), XAR3
         001c21 BF   
    8353 001c22 ED04          MOV dbl(*SP(#2)), AC0 ; |4842| 
         001c24 08   
    8354 001c25 EB6D          MOV AC0, dbl(*AR3(#46)) ; |4842| 
         001c27 0800 
         001c29 2E   
    8355                      .dwpsn  file "../FreeRTOS/Source/tasks_sysStk.c",line 4843,column 6,is_stmt
    8356 001c2a 0600          B $C$L287 ; |4843| 
         001c2c 58   
    8357                                                      ; branch occurs ; |4843| 
    8358 001c2d       $C$L281:    
    8359                      .dwpsn  file "../FreeRTOS/Source/tasks_sysStk.c",line 4847,column 7,is_stmt
    8360 001c2d E61A          MOV #0, *SP(#13) ; |4847| 
         001c2f 00   
    8361                      .dwpsn  file "../FreeRTOS/Source/tasks_sysStk.c",line 4849,column 11,is_stmt
    8362 001c30 0600          B $C$L287 ; |4849| 
         001c32 52   
    8363                                                      ; branch occurs ; |4849| 
    8364 001c33       $C$L282:    
    8365                      .dwpsn  file "../FreeRTOS/Source/tasks_sysStk.c",line 4860,column 6,is_stmt
    8366 001c33 ED14          MOV dbl(*SP(#10)), XAR3
         001c35 BF   
    8367 001c36 7AFF          MOV #-1 << #16, AC0 ; |4860| 
         001c38 FF0A 
    8368 001c3a 7EFF          OR #0xffff, AC0, AC0 ; |4860| 
         001c3c FF00 
    8369 001c3e ED6D          MOV dbl(*AR3(#46)), AC1 ; |4860| 
         001c40 1800 
         001c42 2E   
    8370 001c43 121C          CMPU AC1 != AC0, TC1 ; |4860| 
         001c45 04   
    8371 001c46 3C09          MOV #0, AR1
TMS320C55x Assembler PC v4.4.1 Tue Oct 02 02:33:57 2018

Tools Copyright (c) 1996-2012 Texas Instruments Incorporated
tasks_sysStk.asm                                                     PAGE  187

    8372 001c48 6164          BCC $C$L283,TC1 ; |4860| 
    8373                                                      ; branchcc occurs ; |4860| 
    8374 001c4a 3C19          MOV #1, AR1
    8375 001c4c       $C$L283:    
    8376 001c4c 0419          BCC $C$L287,AR1 != #0 ; |4860| 
         001c4e 36   
    8377                                                      ; branchcc occurs ; |4860| 
    8378 001c4f 20     nop
    8379 001c50 46B3   bset INTM
    8380 001c52       $C$L284:    
    8381 001c52       $C$DW$L$_xTaskGenericNotifyFromISR$19$B:
    8382 001c52 4A7E          B $C$L284 ; |4860| 
    8383                                                      ; branch occurs ; |4860| 
    8384 001c54       $C$DW$L$_xTaskGenericNotifyFromISR$19$E:
    8385 001c54       $C$L285:    
    8386                      .dwpsn  file "../FreeRTOS/Source/tasks_sysStk.c",line 4825,column 4,is_stmt
    8387              
    8388 001c54 A908          MOV *SP(#4), AR1 ; |4825| 
    8389 001c56 3D2A  ||      MOV #2, AR2
    8390              
    8391 001c58 12A4          CMP AR1 > AR2, TC1 ; |4825| 
         001c5a 90   
    8392 001c5b 0464          BCC $C$L286,TC1 ; |4825| 
         001c5d 14   
    8393                                                      ; branchcc occurs ; |4825| 
    8394 001c5e 1290          CMP AR1 == AR2, TC1 ; |4825| 
         001c60 A0   
    8395 001c61 0464          BCC $C$L278,TC1 ; |4825| 
         001c63 95   
    8396                                                      ; branchcc occurs ; |4825| 
    8397 001c64 0409          BCC $C$L287,AR1 == #0 ; |4825| 
         001c66 1E   
    8398                                                      ; branchcc occurs ; |4825| 
    8399 001c67 3C1A          MOV #1, AR2
    8400 001c69 1290          CMP AR1 == AR2, TC1 ; |4825| 
         001c6b A0   
    8401 001c6c 6D64          BCC $C$L277,TC1 ; |4825| 
         001c6e FF74 
    8402                                                      ; branchcc occurs ; |4825| 
    8403 001c70 4A41          B $C$L282 ; |4825| 
    8404                                                      ; branch occurs ; |4825| 
    8405 001c72       $C$L286:    
    8406 001c72 3C3A          MOV #3, AR2
    8407 001c74 1290          CMP AR1 == AR2, TC1 ; |4825| 
         001c76 A0   
    8408 001c77 0464          BCC $C$L279,TC1 ; |4825| 
         001c79 91   
    8409                                                      ; branchcc occurs ; |4825| 
    8410 001c7a 3C4A          MOV #4, AR2
    8411 001c7c 1290          CMP AR1 == AR2, TC1 ; |4825| 
         001c7e A0   
    8412 001c7f 0464          BCC $C$L280,TC1 ; |4825| 
         001c81 97   
    8413                                                      ; branchcc occurs ; |4825| 
    8414 001c82 06FF          B $C$L282 ; |4825| 
TMS320C55x Assembler PC v4.4.1 Tue Oct 02 02:33:57 2018

Tools Copyright (c) 1996-2012 Texas Instruments Incorporated
tasks_sysStk.asm                                                     PAGE  188

         001c84 AE   
    8415                                                      ; branch occurs ; |4825| 
    8416 001c85       $C$L287:    
    8417                      .dwpsn  file "../FreeRTOS/Source/tasks_sysStk.c",line 4868,column 4,is_stmt
    8418 001c85 F018          CMP *SP(#12) == #1, TC1 ; |4868| 
         001c87 0001 
    8419 001c89 6D74          BCC $C$L295,!TC1 ; |4868| 
         001c8b 009C 
    8420                                                      ; branchcc occurs ; |4868| 
    8421                      .dwpsn  file "../FreeRTOS/Source/tasks_sysStk.c",line 4871,column 5,is_stmt
    8422 001c8d ED14          MOV dbl(*SP(#10)), XAR3
         001c8f BF   
    8423 001c90 ED6D          MOV dbl(*AR3(#22)), XAR3
         001c92 BF00 
         001c94 16   
    8424 001c95 90B0          MOV XAR3, AC0
    8425 001c97 3C09          MOV #0, AR1
    8426 001c99 6110          BCC $C$L288,AC0 != #0 ; |4871| 
    8427                                                      ; branchcc occurs ; |4871| 
    8428 001c9b 3C19          MOV #1, AR1
    8429 001c9d       $C$L288:    
    8430 001c9d 6299          BCC $C$L290,AR1 != #0 ; |4871| 
    8431                                                      ; branchcc occurs ; |4871| 
    8432 001c9f 20     nop
    8433 001ca0 46B3   bset INTM
    8434 001ca2       $C$L289:    
    8435 001ca2       $C$DW$L$_xTaskGenericNotifyFromISR$34$B:
    8436 001ca2 4A7E          B $C$L289 ; |4871| 
    8437                                                      ; branch occurs ; |4871| 
    8438 001ca4       $C$DW$L$_xTaskGenericNotifyFromISR$34$E:
    8439 001ca4       $C$L290:    
    8440                      .dwpsn  file "../FreeRTOS/Source/tasks_sysStk.c",line 4873,column 5,is_stmt
    8441 001ca4 A931          MOV *(#_uxSchedulerSuspended), AR1 ; |4873| 
         001ca6 0000 
         001ca8 7C-  
    8442 001ca9 0419          BCC $C$L292,AR1 != #0 ; |4873| 
         001cab 46   
    8443                                                      ; branchcc occurs ; |4873| 
    8444                      .dwpsn  file "../FreeRTOS/Source/tasks_sysStk.c",line 4875,column 6,is_stmt
    8445 001cac ED14          MOV dbl(*SP(#10)), XAR0
         001cae 8F   
    8446 001caf 1404          AADD #4, AR0 ; |4875| 
         001cb1 84   
    8447              $C$DW$593       .dwtag  DW_TAG_TI_branch
    8448                      .dwattr $C$DW$593, DW_AT_low_pc(0x00)
    8449                      .dwattr $C$DW$593, DW_AT_name("_uxListRemove")
    8450                      .dwattr $C$DW$593, DW_AT_TI_call
    8451 001cb2 6C00          CALL #_uxListRemove ; |4875| 
         001cb4 0000!
    8452                                                      ; call occurs [#_uxListRemove] ; |4875| 
    8453                      .dwpsn  file "../FreeRTOS/Source/tasks_sysStk.c",line 4876,column 6,is_stmt
    8454 001cb6 ED14          MOV dbl(*SP(#10)), XAR3
         001cb8 BF   
    8455 001cb9 A931          MOV *(#_uxTopReadyPriority), AR1 ; |4876| 
         001cbb 0000 
TMS320C55x Assembler PC v4.4.1 Tue Oct 02 02:33:57 2018

Tools Copyright (c) 1996-2012 Texas Instruments Incorporated
tasks_sysStk.asm                                                     PAGE  189

         001cbd 72-  
    8456 001cbe AA6D          MOV *AR3(#24), AR2 ; |4876| 
         001cc0 0018 
    8457 001cc2 1298          CMPU AR2 <= AR1, TC1 ; |4876| 
         001cc4 A4   
    8458 001cc5 64E4          BCC $C$L291,TC1 ; |4876| 
    8459                                                      ; branchcc occurs ; |4876| 
    8460 001cc7 A96D          MOV *AR3(#24), AR1 ; |4876| 
         001cc9 0018 
    8461 001ccb C931          MOV AR1, *(#_uxTopReadyPriority) ; |4876| 
         001ccd 0000 
         001ccf 72-  
    8462 001cd0       $C$L291:    
    8463 001cd0 DF6D          MOV uns(*AR3(#24)), AC1 ; |4876| 
         001cd2 1500 
         001cd4 18   
    8464 001cd5 ED14          MOV dbl(*SP(#10)), XAR1
         001cd7 9F   
    8465 001cd8 1015          SFTS AC1, #1, AC0 ; |4876| 
         001cda 01   
    8466 001cdb 1013          ADD AC1 << #3, AC0 ; |4876| 
         001cdd 03   
    8467 001cde 900B          MOV AC0, XAR3
    8468 001ce0 EC31          AMOV #_pxReadyTasksLists, XAR0 ; |4876| 
         001ce2 8E00 
         001ce4 0006-
    8469              
    8470 001ce6 14B1          AADD XAR3, XAR0 ; |4876| 
         001ce8 80   
    8471 001ce9 1504  ||      AADD #4, AR1 ; |4876| 
         001ceb 9C   
    8472              
    8473              $C$DW$594       .dwtag  DW_TAG_TI_branch
    8474                      .dwattr $C$DW$594, DW_AT_low_pc(0x00)
    8475                      .dwattr $C$DW$594, DW_AT_name("_vListInsertEnd")
    8476                      .dwattr $C$DW$594, DW_AT_TI_call
    8477 001cec 6C00          CALL #_vListInsertEnd ; |4876| 
         001cee 0000!
    8478                                                      ; call occurs [#_vListInsertEnd] ; |4876| 
    8479                      .dwpsn  file "../FreeRTOS/Source/tasks_sysStk.c",line 4877,column 5,is_stmt
    8480 001cf0 4A10          B $C$L293 ; |4877| 
    8481                                                      ; branch occurs ; |4877| 
    8482 001cf2       $C$L292:    
    8483                      .dwpsn  file "../FreeRTOS/Source/tasks_sysStk.c",line 4882,column 6,is_stmt
    8484 001cf2 ED14          MOV dbl(*SP(#10)), XAR1
         001cf4 9F   
    8485 001cf5 EC31          AMOV #_xPendingReadyList, XAR0 ; |4882| 
         001cf7 8E00 
         001cf9 0050-
    8486 001cfb 140E          AADD #14, AR1 ; |4882| 
         001cfd 94   
    8487              $C$DW$595       .dwtag  DW_TAG_TI_branch
    8488                      .dwattr $C$DW$595, DW_AT_low_pc(0x00)
    8489                      .dwattr $C$DW$595, DW_AT_name("_vListInsertEnd")
    8490                      .dwattr $C$DW$595, DW_AT_TI_call
TMS320C55x Assembler PC v4.4.1 Tue Oct 02 02:33:57 2018

Tools Copyright (c) 1996-2012 Texas Instruments Incorporated
tasks_sysStk.asm                                                     PAGE  190

    8491 001cfe 6C00          CALL #_vListInsertEnd ; |4882| 
         001d00 0000!
    8492                                                      ; call occurs [#_vListInsertEnd] ; |4882| 
    8493 001d02       $C$L293:    
    8494                      .dwpsn  file "../FreeRTOS/Source/tasks_sysStk.c",line 4885,column 5,is_stmt
    8495 001d02 ED31          MOV dbl(*(#_pxCurrentTCB)), XAR3
         001d04 BF00 
         001d06 0004-
    8496 001d08 A96D          MOV *AR3(#24), AR1 ; |4885| 
         001d0a 0018 
    8497 001d0c ED14          MOV dbl(*SP(#10)), XAR3
         001d0e BF   
    8498 001d0f AA6D          MOV *AR3(#24), AR2 ; |4885| 
         001d11 0018 
    8499 001d13 1298          CMPU AR2 <= AR1, TC1 ; |4885| 
         001d15 A4   
    8500 001d16 0464          BCC $C$L295,TC1 ; |4885| 
         001d18 10   
    8501                                                      ; branchcc occurs ; |4885| 
    8502                      .dwpsn  file "../FreeRTOS/Source/tasks_sysStk.c",line 4889,column 6,is_stmt
    8503 001d19 ED10          MOV dbl(*SP(#8)), XAR3
         001d1b BF   
    8504 001d1c 90B0          MOV XAR3, AC0
    8505 001d1e 6180          BCC $C$L294,AC0 == #0 ; |4889| 
    8506                                                      ; branchcc occurs ; |4889| 
    8507                      .dwpsn  file "../FreeRTOS/Source/tasks_sysStk.c",line 4891,column 7,is_stmt
    8508 001d20 E661          MOV #1, *AR3 ; |4891| 
         001d22 01   
    8509 001d23       $C$L294:    
    8510                      .dwpsn  file "../FreeRTOS/Source/tasks_sysStk.c",line 4897,column 6,is_stmt
    8511 001d23 E631          MOV #1, *(#_xYieldPending) ; |4897| 
         001d25 0100 
         001d27 0075-
    8512                      .dwpsn  file "../FreeRTOS/Source/tasks_sysStk.c",line 4898,column 5,is_stmt
    8513 001d29       $C$L295:    
    8514                      .dwpsn  file "../FreeRTOS/Source/tasks_sysStk.c",line 4905,column 3,is_stmt
    8515                      .dwpsn  file "../FreeRTOS/Source/tasks_sysStk.c",line 4907,column 3,is_stmt
    8516 001d29 A41A          MOV *SP(#13), T0 ; |4907| 
    8517                      .dwpsn  file "../FreeRTOS/Source/tasks_sysStk.c",line 4908,column 2,is_stmt
    8518 001d2b 4E0F          AADD #15, SP
    8519                      .dwcfi  cfa_offset, 1
    8520              $C$DW$596       .dwtag  DW_TAG_TI_branch
    8521                      .dwattr $C$DW$596, DW_AT_low_pc(0x00)
    8522                      .dwattr $C$DW$596, DW_AT_TI_return
    8523 001d2d 4804          RET
    8524                                                      ; return occurs
    8525              
    8526              $C$DW$597       .dwtag  DW_TAG_TI_loop
    8527                      .dwattr $C$DW$597, DW_AT_name("F:\eZdsp-DBG-sim\tmp1\c55x-sim2\foo\Debug\tasks_sysStk.asm:$C$L289:1:1
    8528                      .dwattr $C$DW$597, DW_AT_TI_begin_file("../FreeRTOS/Source/tasks_sysStk.c")
    8529                      .dwattr $C$DW$597, DW_AT_TI_begin_line(0x1307)
    8530                      .dwattr $C$DW$597, DW_AT_TI_end_line(0x1307)
    8531              $C$DW$598       .dwtag  DW_TAG_TI_loop_range
    8532                      .dwattr $C$DW$598, DW_AT_low_pc($C$DW$L$_xTaskGenericNotifyFromISR$34$B)
    8533                      .dwattr $C$DW$598, DW_AT_high_pc($C$DW$L$_xTaskGenericNotifyFromISR$34$E)
TMS320C55x Assembler PC v4.4.1 Tue Oct 02 02:33:57 2018

Tools Copyright (c) 1996-2012 Texas Instruments Incorporated
tasks_sysStk.asm                                                     PAGE  191

    8534                      .dwendtag $C$DW$597
    8535              
    8536              
    8537              $C$DW$599       .dwtag  DW_TAG_TI_loop
    8538                      .dwattr $C$DW$599, DW_AT_name("F:\eZdsp-DBG-sim\tmp1\c55x-sim2\foo\Debug\tasks_sysStk.asm:$C$L284:1:1
    8539                      .dwattr $C$DW$599, DW_AT_TI_begin_file("../FreeRTOS/Source/tasks_sysStk.c")
    8540                      .dwattr $C$DW$599, DW_AT_TI_begin_line(0x12fc)
    8541                      .dwattr $C$DW$599, DW_AT_TI_end_line(0x12fc)
    8542              $C$DW$600       .dwtag  DW_TAG_TI_loop_range
    8543                      .dwattr $C$DW$600, DW_AT_low_pc($C$DW$L$_xTaskGenericNotifyFromISR$19$B)
    8544                      .dwattr $C$DW$600, DW_AT_high_pc($C$DW$L$_xTaskGenericNotifyFromISR$19$E)
    8545                      .dwendtag $C$DW$599
    8546              
    8547              
    8548              $C$DW$601       .dwtag  DW_TAG_TI_loop
    8549                      .dwattr $C$DW$601, DW_AT_name("F:\eZdsp-DBG-sim\tmp1\c55x-sim2\foo\Debug\tasks_sysStk.asm:$C$L274:1:1
    8550                      .dwattr $C$DW$601, DW_AT_TI_begin_file("../FreeRTOS/Source/tasks_sysStk.c")
    8551                      .dwattr $C$DW$601, DW_AT_TI_begin_line(0x12b9)
    8552                      .dwattr $C$DW$601, DW_AT_TI_end_line(0x12b9)
    8553              $C$DW$602       .dwtag  DW_TAG_TI_loop_range
    8554                      .dwattr $C$DW$602, DW_AT_low_pc($C$DW$L$_xTaskGenericNotifyFromISR$3$B)
    8555                      .dwattr $C$DW$602, DW_AT_high_pc($C$DW$L$_xTaskGenericNotifyFromISR$3$E)
    8556                      .dwendtag $C$DW$601
    8557              
    8558                      .dwattr $C$DW$578, DW_AT_TI_end_file("../FreeRTOS/Source/tasks_sysStk.c")
    8559                      .dwattr $C$DW$578, DW_AT_TI_end_line(0x132c)
    8560                      .dwattr $C$DW$578, DW_AT_TI_end_column(0x02)
    8561                      .dwendentry
    8562                      .dwendtag $C$DW$578
    8563              
    8564 001d2f               .sect   ".text"
    8565                      .align 4
    8566                      .global _vTaskNotifyGiveFromISR
    8567              
    8568              $C$DW$603       .dwtag  DW_TAG_subprogram, DW_AT_name("vTaskNotifyGiveFromISR")
    8569                      .dwattr $C$DW$603, DW_AT_low_pc(_vTaskNotifyGiveFromISR)
    8570                      .dwattr $C$DW$603, DW_AT_high_pc(0x00)
    8571                      .dwattr $C$DW$603, DW_AT_TI_symbol_name("_vTaskNotifyGiveFromISR")
    8572                      .dwattr $C$DW$603, DW_AT_external
    8573                      .dwattr $C$DW$603, DW_AT_TI_begin_file("../FreeRTOS/Source/tasks_sysStk.c")
    8574                      .dwattr $C$DW$603, DW_AT_TI_begin_line(0x1333)
    8575                      .dwattr $C$DW$603, DW_AT_TI_begin_column(0x07)
    8576                      .dwattr $C$DW$603, DW_AT_TI_max_frame_size(0x0a)
    8577                      .dwpsn  file "../FreeRTOS/Source/tasks_sysStk.c",line 4916,column 2,is_stmt,address _vTaskNotifyGiveF
    8578              
    8579                      .dwfde $C$DW$CIE, _vTaskNotifyGiveFromISR
    8580              $C$DW$604       .dwtag  DW_TAG_formal_parameter, DW_AT_name("xTaskToNotify")
    8581                      .dwattr $C$DW$604, DW_AT_TI_symbol_name("_xTaskToNotify")
    8582                      .dwattr $C$DW$604, DW_AT_type(*$C$DW$T$48)
    8583                      .dwattr $C$DW$604, DW_AT_location[DW_OP_reg17]
    8584              $C$DW$605       .dwtag  DW_TAG_formal_parameter, DW_AT_name("pxHigherPriorityTaskWoken")
    8585                      .dwattr $C$DW$605, DW_AT_TI_symbol_name("_pxHigherPriorityTaskWoken")
    8586                      .dwattr $C$DW$605, DW_AT_type(*$C$DW$T$109)
    8587                      .dwattr $C$DW$605, DW_AT_location[DW_OP_reg19]
    8588              ;*******************************************************************************
TMS320C55x Assembler PC v4.4.1 Tue Oct 02 02:33:57 2018

Tools Copyright (c) 1996-2012 Texas Instruments Incorporated
tasks_sysStk.asm                                                     PAGE  192

    8589              ;* FUNCTION NAME: vTaskNotifyGiveFromISR                                       *
    8590              ;*                                                                             *
    8591              ;*   Function Uses Regs : AC0,AC0,AC1,AC1,AR0,XAR0,AR1,XAR1,AR2,AR3,XAR3,SP,   *
    8592              ;*                        CARRY,TC1,M40,SATA,SATD,RDM,FRCT,SMUL                *
    8593              ;*   Stack Frame        : Compact (No Frame Pointer, w/ debug)                 *
    8594              ;*   Total Frame Size   : 10 words                                             *
    8595              ;*                        (2 return address/alignment)                         *
    8596              ;*                        (8 local values)                                     *
    8597              ;*   Min System Stack   : 1 word                                               *
    8598              ;*******************************************************************************
    8599 001d30       _vTaskNotifyGiveFromISR:
    8600                      .dwcfi  cfa_offset, 1
    8601                      .dwcfi  save_reg_to_mem, 91, -1
    8602 001d30 4EF7          AADD #-9, SP
    8603                      .dwcfi  cfa_offset, 10
    8604              $C$DW$606       .dwtag  DW_TAG_variable, DW_AT_name("xTaskToNotify")
    8605                      .dwattr $C$DW$606, DW_AT_TI_symbol_name("_xTaskToNotify")
    8606                      .dwattr $C$DW$606, DW_AT_type(*$C$DW$T$48)
    8607                      .dwattr $C$DW$606, DW_AT_location[DW_OP_bregx 0x24 0]
    8608              $C$DW$607       .dwtag  DW_TAG_variable, DW_AT_name("pxHigherPriorityTaskWoken")
    8609                      .dwattr $C$DW$607, DW_AT_TI_symbol_name("_pxHigherPriorityTaskWoken")
    8610                      .dwattr $C$DW$607, DW_AT_type(*$C$DW$T$109)
    8611                      .dwattr $C$DW$607, DW_AT_location[DW_OP_bregx 0x24 2]
    8612              $C$DW$608       .dwtag  DW_TAG_variable, DW_AT_name("pxTCB")
    8613                      .dwattr $C$DW$608, DW_AT_TI_symbol_name("_pxTCB")
    8614                      .dwattr $C$DW$608, DW_AT_type(*$C$DW$T$83)
    8615                      .dwattr $C$DW$608, DW_AT_location[DW_OP_bregx 0x24 4]
    8616              $C$DW$609       .dwtag  DW_TAG_variable, DW_AT_name("ucOriginalNotifyState")
    8617                      .dwattr $C$DW$609, DW_AT_TI_symbol_name("_ucOriginalNotifyState")
    8618                      .dwattr $C$DW$609, DW_AT_type(*$C$DW$T$30)
    8619                      .dwattr $C$DW$609, DW_AT_location[DW_OP_bregx 0x24 6]
    8620              $C$DW$610       .dwtag  DW_TAG_variable, DW_AT_name("uxSavedInterruptStatus")
    8621                      .dwattr $C$DW$610, DW_AT_TI_symbol_name("_uxSavedInterruptStatus")
    8622                      .dwattr $C$DW$610, DW_AT_type(*$C$DW$T$25)
    8623                      .dwattr $C$DW$610, DW_AT_location[DW_OP_bregx 0x24 7]
    8624 001d32 EB04          MOV XAR1, dbl(*SP(#2))
         001d34 95   
    8625 001d35 EB00          MOV XAR0, dbl(*SP(#0))
         001d37 85   
    8626                      .dwpsn  file "../FreeRTOS/Source/tasks_sysStk.c",line 4921,column 3,is_stmt
    8627 001d38 ED00          MOV dbl(*SP(#0)), XAR3
         001d3a BF   
    8628 001d3b 90B0          MOV XAR3, AC0
    8629 001d3d 6290          BCC $C$L297,AC0 != #0 ; |4921| 
    8630                                                      ; branchcc occurs ; |4921| 
    8631 001d3f 20     nop
    8632 001d40 46B3   bset INTM
    8633 001d42       $C$L296:    
    8634 001d42       $C$DW$L$_vTaskNotifyGiveFromISR$3$B:
    8635 001d42 4A7E          B $C$L296 ; |4921| 
    8636                                                      ; branch occurs ; |4921| 
    8637 001d44       $C$DW$L$_vTaskNotifyGiveFromISR$3$E:
    8638 001d44       $C$L297:    
    8639                      .dwpsn  file "../FreeRTOS/Source/tasks_sysStk.c",line 4941,column 3,is_stmt
    8640 001d44 EB08          MOV XAR3, dbl(*SP(#4))
TMS320C55x Assembler PC v4.4.1 Tue Oct 02 02:33:57 2018

Tools Copyright (c) 1996-2012 Texas Instruments Incorporated
tasks_sysStk.asm                                                     PAGE  193

         001d46 B5   
    8641                      .dwpsn  file "../FreeRTOS/Source/tasks_sysStk.c",line 4943,column 3,is_stmt
    8642 001d47 E60E          MOV #0, *SP(#7) ; |4943| 
         001d49 00   
    8643                      .dwpsn  file "../FreeRTOS/Source/tasks_sysStk.c",line 4945,column 4,is_stmt
    8644 001d4a ED08          MOV dbl(*SP(#4)), XAR3
         001d4c BF   
    8645 001d4d A96D          MOV *AR3(#48), AR1 ; |4945| 
         001d4f 0030 
    8646 001d51 C90C          MOV AR1, *SP(#6) ; |4945| 
    8647                      .dwpsn  file "../FreeRTOS/Source/tasks_sysStk.c",line 4946,column 4,is_stmt
    8648 001d53 ED08          MOV dbl(*SP(#4)), XAR3
         001d55 BF   
    8649 001d56 E66D          MOV #2, *AR3(#48) ; |4946| 
         001d58 0200 
         001d5a 30   
    8650 001d5b 20            NOP
    8651 001d5c 20            NOP
    8652                      .dwpsn  file "../FreeRTOS/Source/tasks_sysStk.c",line 4950,column 4,is_stmt
    8653 001d5d ED08          MOV dbl(*SP(#4)), XAR3
         001d5f BF   
    8654 001d60 ED6D          MOV dbl(*AR3(#46)), AC0 ; |4950| 
         001d62 0800 
         001d64 2E   
    8655 001d65 4010          ADD #1, AC0 ; |4950| 
    8656 001d67 EB6D          MOV AC0, dbl(*AR3(#46)) ; |4950| 
         001d69 0800 
         001d6b 2E   
    8657                      .dwpsn  file "../FreeRTOS/Source/tasks_sysStk.c",line 4956,column 4,is_stmt
    8658 001d6c F00C          CMP *SP(#6) == #1, TC1 ; |4956| 
         001d6e 0001 
    8659 001d70 6D74          BCC $C$L305,!TC1 ; |4956| 
         001d72 009E 
    8660                                                      ; branchcc occurs ; |4956| 
    8661                      .dwpsn  file "../FreeRTOS/Source/tasks_sysStk.c",line 4959,column 5,is_stmt
    8662 001d74 ED08          MOV dbl(*SP(#4)), XAR3
         001d76 BF   
    8663 001d77 ED6D          MOV dbl(*AR3(#22)), XAR3
         001d79 BF00 
         001d7b 16   
    8664 001d7c 90B0          MOV XAR3, AC0
    8665 001d7e 3C09          MOV #0, AR1
    8666 001d80 6110          BCC $C$L298,AC0 != #0 ; |4959| 
    8667                                                      ; branchcc occurs ; |4959| 
    8668 001d82 3C19          MOV #1, AR1
    8669 001d84       $C$L298:    
    8670 001d84 6299          BCC $C$L300,AR1 != #0 ; |4959| 
    8671                                                      ; branchcc occurs ; |4959| 
    8672 001d86 20     nop
    8673 001d87 46B3   bset INTM
    8674 001d89       $C$L299:    
    8675 001d89       $C$DW$L$_vTaskNotifyGiveFromISR$9$B:
    8676 001d89 4A7E          B $C$L299 ; |4959| 
    8677                                                      ; branch occurs ; |4959| 
    8678 001d8b       $C$DW$L$_vTaskNotifyGiveFromISR$9$E:
TMS320C55x Assembler PC v4.4.1 Tue Oct 02 02:33:57 2018

Tools Copyright (c) 1996-2012 Texas Instruments Incorporated
tasks_sysStk.asm                                                     PAGE  194

    8679 001d8b       $C$L300:    
    8680                      .dwpsn  file "../FreeRTOS/Source/tasks_sysStk.c",line 4961,column 5,is_stmt
    8681 001d8b A931          MOV *(#_uxSchedulerSuspended), AR1 ; |4961| 
         001d8d 0000 
         001d8f 7C-  
    8682 001d90 0419          BCC $C$L302,AR1 != #0 ; |4961| 
         001d92 46   
    8683                                                      ; branchcc occurs ; |4961| 
    8684                      .dwpsn  file "../FreeRTOS/Source/tasks_sysStk.c",line 4963,column 6,is_stmt
    8685 001d93 ED08          MOV dbl(*SP(#4)), XAR0
         001d95 8F   
    8686 001d96 1404          AADD #4, AR0 ; |4963| 
         001d98 84   
    8687              $C$DW$611       .dwtag  DW_TAG_TI_branch
    8688                      .dwattr $C$DW$611, DW_AT_low_pc(0x00)
    8689                      .dwattr $C$DW$611, DW_AT_name("_uxListRemove")
    8690                      .dwattr $C$DW$611, DW_AT_TI_call
    8691 001d99 6C00          CALL #_uxListRemove ; |4963| 
         001d9b 0000!
    8692                                                      ; call occurs [#_uxListRemove] ; |4963| 
    8693                      .dwpsn  file "../FreeRTOS/Source/tasks_sysStk.c",line 4964,column 6,is_stmt
    8694 001d9d ED08          MOV dbl(*SP(#4)), XAR3
         001d9f BF   
    8695 001da0 A931          MOV *(#_uxTopReadyPriority), AR1 ; |4964| 
         001da2 0000 
         001da4 72-  
    8696 001da5 AA6D          MOV *AR3(#24), AR2 ; |4964| 
         001da7 0018 
    8697 001da9 1298          CMPU AR2 <= AR1, TC1 ; |4964| 
         001dab A4   
    8698 001dac 64E4          BCC $C$L301,TC1 ; |4964| 
    8699                                                      ; branchcc occurs ; |4964| 
    8700 001dae A96D          MOV *AR3(#24), AR1 ; |4964| 
         001db0 0018 
    8701 001db2 C931          MOV AR1, *(#_uxTopReadyPriority) ; |4964| 
         001db4 0000 
         001db6 72-  
    8702 001db7       $C$L301:    
    8703 001db7 DF6D          MOV uns(*AR3(#24)), AC1 ; |4964| 
         001db9 1500 
         001dbb 18   
    8704 001dbc ED08          MOV dbl(*SP(#4)), XAR1
         001dbe 9F   
    8705 001dbf 1015          SFTS AC1, #1, AC0 ; |4964| 
         001dc1 01   
    8706 001dc2 1013          ADD AC1 << #3, AC0 ; |4964| 
         001dc4 03   
    8707 001dc5 900B          MOV AC0, XAR3
    8708 001dc7 EC31          AMOV #_pxReadyTasksLists, XAR0 ; |4964| 
         001dc9 8E00 
         001dcb 0006-
    8709              
    8710 001dcd 14B1          AADD XAR3, XAR0 ; |4964| 
         001dcf 80   
    8711 001dd0 1504  ||      AADD #4, AR1 ; |4964| 
TMS320C55x Assembler PC v4.4.1 Tue Oct 02 02:33:57 2018

Tools Copyright (c) 1996-2012 Texas Instruments Incorporated
tasks_sysStk.asm                                                     PAGE  195

         001dd2 9C   
    8712              
    8713              $C$DW$612       .dwtag  DW_TAG_TI_branch
    8714                      .dwattr $C$DW$612, DW_AT_low_pc(0x00)
    8715                      .dwattr $C$DW$612, DW_AT_name("_vListInsertEnd")
    8716                      .dwattr $C$DW$612, DW_AT_TI_call
    8717 001dd3 6C00          CALL #_vListInsertEnd ; |4964| 
         001dd5 0000!
    8718                                                      ; call occurs [#_vListInsertEnd] ; |4964| 
    8719                      .dwpsn  file "../FreeRTOS/Source/tasks_sysStk.c",line 4965,column 5,is_stmt
    8720 001dd7 4A10          B $C$L303 ; |4965| 
    8721                                                      ; branch occurs ; |4965| 
    8722 001dd9       $C$L302:    
    8723                      .dwpsn  file "../FreeRTOS/Source/tasks_sysStk.c",line 4970,column 6,is_stmt
    8724 001dd9 ED08          MOV dbl(*SP(#4)), XAR1
         001ddb 9F   
    8725 001ddc EC31          AMOV #_xPendingReadyList, XAR0 ; |4970| 
         001dde 8E00 
         001de0 0050-
    8726 001de2 140E          AADD #14, AR1 ; |4970| 
         001de4 94   
    8727              $C$DW$613       .dwtag  DW_TAG_TI_branch
    8728                      .dwattr $C$DW$613, DW_AT_low_pc(0x00)
    8729                      .dwattr $C$DW$613, DW_AT_name("_vListInsertEnd")
    8730                      .dwattr $C$DW$613, DW_AT_TI_call
    8731 001de5 6C00          CALL #_vListInsertEnd ; |4970| 
         001de7 0000!
    8732                                                      ; call occurs [#_vListInsertEnd] ; |4970| 
    8733 001de9       $C$L303:    
    8734                      .dwpsn  file "../FreeRTOS/Source/tasks_sysStk.c",line 4973,column 5,is_stmt
    8735 001de9 ED31          MOV dbl(*(#_pxCurrentTCB)), XAR3
         001deb BF00 
         001ded 0004-
    8736 001def A96D          MOV *AR3(#24), AR1 ; |4973| 
         001df1 0018 
    8737 001df3 ED08          MOV dbl(*SP(#4)), XAR3
         001df5 BF   
    8738 001df6 AA6D          MOV *AR3(#24), AR2 ; |4973| 
         001df8 0018 
    8739 001dfa 1298          CMPU AR2 <= AR1, TC1 ; |4973| 
         001dfc A4   
    8740 001dfd 0464          BCC $C$L305,TC1 ; |4973| 
         001dff 12   
    8741                                                      ; branchcc occurs ; |4973| 
    8742                      .dwpsn  file "../FreeRTOS/Source/tasks_sysStk.c",line 4977,column 6,is_stmt
    8743 001e00 ED04          MOV dbl(*SP(#2)), XAR3
         001e02 BF   
    8744 001e03 90B0          MOV XAR3, AC0
    8745 001e05 6180          BCC $C$L304,AC0 == #0 ; |4977| 
    8746                                                      ; branchcc occurs ; |4977| 
    8747                      .dwpsn  file "../FreeRTOS/Source/tasks_sysStk.c",line 4979,column 7,is_stmt
    8748 001e07 E661          MOV #1, *AR3 ; |4979| 
         001e09 01   
    8749 001e0a       $C$L304:    
    8750                      .dwpsn  file "../FreeRTOS/Source/tasks_sysStk.c",line 4985,column 6,is_stmt
TMS320C55x Assembler PC v4.4.1 Tue Oct 02 02:33:57 2018

Tools Copyright (c) 1996-2012 Texas Instruments Incorporated
tasks_sysStk.asm                                                     PAGE  196

    8751 001e0a E631          MOV #1, *(#_xYieldPending) ; |4985| 
         001e0c 0100 
         001e0e 0075-
    8752                      .dwpsn  file "../FreeRTOS/Source/tasks_sysStk.c",line 4986,column 5,is_stmt
    8753 001e10 4A00          B $C$L305 ; |4986| 
    8754                                                      ; branch occurs ; |4986| 
    8755 001e12       $C$L305:    
    8756 001e12 4E09          AADD #9, SP
    8757                      .dwcfi  cfa_offset, 1
    8758              $C$DW$614       .dwtag  DW_TAG_TI_branch
    8759                      .dwattr $C$DW$614, DW_AT_low_pc(0x00)
    8760                      .dwattr $C$DW$614, DW_AT_TI_return
    8761 001e14 4804          RET
    8762                                                      ; return occurs
    8763              
    8764              $C$DW$615       .dwtag  DW_TAG_TI_loop
    8765                      .dwattr $C$DW$615, DW_AT_name("F:\eZdsp-DBG-sim\tmp1\c55x-sim2\foo\Debug\tasks_sysStk.asm:$C$L299:1:1
    8766                      .dwattr $C$DW$615, DW_AT_TI_begin_file("../FreeRTOS/Source/tasks_sysStk.c")
    8767                      .dwattr $C$DW$615, DW_AT_TI_begin_line(0x135f)
    8768                      .dwattr $C$DW$615, DW_AT_TI_end_line(0x135f)
    8769              $C$DW$616       .dwtag  DW_TAG_TI_loop_range
    8770                      .dwattr $C$DW$616, DW_AT_low_pc($C$DW$L$_vTaskNotifyGiveFromISR$9$B)
    8771                      .dwattr $C$DW$616, DW_AT_high_pc($C$DW$L$_vTaskNotifyGiveFromISR$9$E)
    8772                      .dwendtag $C$DW$615
    8773              
    8774              
    8775              $C$DW$617       .dwtag  DW_TAG_TI_loop
    8776                      .dwattr $C$DW$617, DW_AT_name("F:\eZdsp-DBG-sim\tmp1\c55x-sim2\foo\Debug\tasks_sysStk.asm:$C$L296:1:1
    8777                      .dwattr $C$DW$617, DW_AT_TI_begin_file("../FreeRTOS/Source/tasks_sysStk.c")
    8778                      .dwattr $C$DW$617, DW_AT_TI_begin_line(0x1339)
    8779                      .dwattr $C$DW$617, DW_AT_TI_end_line(0x1339)
    8780              $C$DW$618       .dwtag  DW_TAG_TI_loop_range
    8781                      .dwattr $C$DW$618, DW_AT_low_pc($C$DW$L$_vTaskNotifyGiveFromISR$3$B)
    8782                      .dwattr $C$DW$618, DW_AT_high_pc($C$DW$L$_vTaskNotifyGiveFromISR$3$E)
    8783                      .dwendtag $C$DW$617
    8784              
    8785                      .dwattr $C$DW$603, DW_AT_TI_end_file("../FreeRTOS/Source/tasks_sysStk.c")
    8786                      .dwattr $C$DW$603, DW_AT_TI_end_line(0x1382)
    8787                      .dwattr $C$DW$603, DW_AT_TI_end_column(0x02)
    8788                      .dwendentry
    8789                      .dwendtag $C$DW$603
    8790              
    8791 001e16               .sect   ".text"
    8792                      .align 4
    8793                      .global _xTaskNotifyStateClear
    8794              
    8795              $C$DW$619       .dwtag  DW_TAG_subprogram, DW_AT_name("xTaskNotifyStateClear")
    8796                      .dwattr $C$DW$619, DW_AT_low_pc(_xTaskNotifyStateClear)
    8797                      .dwattr $C$DW$619, DW_AT_high_pc(0x00)
    8798                      .dwattr $C$DW$619, DW_AT_TI_symbol_name("_xTaskNotifyStateClear")
    8799                      .dwattr $C$DW$619, DW_AT_external
    8800                      .dwattr $C$DW$619, DW_AT_type(*$C$DW$T$43)
    8801                      .dwattr $C$DW$619, DW_AT_TI_begin_file("../FreeRTOS/Source/tasks_sysStk.c")
    8802                      .dwattr $C$DW$619, DW_AT_TI_begin_line(0x138a)
    8803                      .dwattr $C$DW$619, DW_AT_TI_begin_column(0x0d)
TMS320C55x Assembler PC v4.4.1 Tue Oct 02 02:33:57 2018

Tools Copyright (c) 1996-2012 Texas Instruments Incorporated
tasks_sysStk.asm                                                     PAGE  197

    8804                      .dwattr $C$DW$619, DW_AT_TI_max_frame_size(0x06)
    8805                      .dwpsn  file "../FreeRTOS/Source/tasks_sysStk.c",line 5003,column 2,is_stmt,address _xTaskNotifyState
    8806              
    8807                      .dwfde $C$DW$CIE, _xTaskNotifyStateClear
    8808              $C$DW$620       .dwtag  DW_TAG_formal_parameter, DW_AT_name("xTask")
    8809                      .dwattr $C$DW$620, DW_AT_TI_symbol_name("_xTask")
    8810                      .dwattr $C$DW$620, DW_AT_type(*$C$DW$T$48)
    8811                      .dwattr $C$DW$620, DW_AT_location[DW_OP_reg17]
    8812              ;*******************************************************************************
    8813              ;* FUNCTION NAME: xTaskNotifyStateClear                                        *
    8814              ;*                                                                             *
    8815              ;*   Function Uses Regs : AC0,AC0,T0,AR0,XAR0,AR1,AR3,XAR3,SP,CARRY,TC1,M40,   *
    8816              ;*                        SATA,SATD,RDM,FRCT,SMUL                              *
    8817              ;*   Stack Frame        : Compact (No Frame Pointer, w/ debug)                 *
    8818              ;*   Total Frame Size   : 6 words                                              *
    8819              ;*                        (1 return address/alignment)                         *
    8820              ;*                        (5 local values)                                     *
    8821              ;*   Min System Stack   : 1 word                                               *
    8822              ;*******************************************************************************
    8823 001e18       _xTaskNotifyStateClear:
    8824                      .dwcfi  cfa_offset, 1
    8825                      .dwcfi  save_reg_to_mem, 91, -1
    8826 001e18 4EFB          AADD #-5, SP
    8827                      .dwcfi  cfa_offset, 6
    8828              $C$DW$621       .dwtag  DW_TAG_variable, DW_AT_name("xTask")
    8829                      .dwattr $C$DW$621, DW_AT_TI_symbol_name("_xTask")
    8830                      .dwattr $C$DW$621, DW_AT_type(*$C$DW$T$48)
    8831                      .dwattr $C$DW$621, DW_AT_location[DW_OP_bregx 0x24 0]
    8832              $C$DW$622       .dwtag  DW_TAG_variable, DW_AT_name("pxTCB")
    8833                      .dwattr $C$DW$622, DW_AT_TI_symbol_name("_pxTCB")
    8834                      .dwattr $C$DW$622, DW_AT_type(*$C$DW$T$83)
    8835                      .dwattr $C$DW$622, DW_AT_location[DW_OP_bregx 0x24 2]
    8836              $C$DW$623       .dwtag  DW_TAG_variable, DW_AT_name("xReturn")
    8837                      .dwattr $C$DW$623, DW_AT_TI_symbol_name("_xReturn")
    8838                      .dwattr $C$DW$623, DW_AT_type(*$C$DW$T$43)
    8839                      .dwattr $C$DW$623, DW_AT_location[DW_OP_bregx 0x24 4]
    8840 001e1a EB00          MOV XAR0, dbl(*SP(#0))
         001e1c 85   
    8841                      .dwpsn  file "../FreeRTOS/Source/tasks_sysStk.c",line 5009,column 3,is_stmt
    8842 001e1d ED00          MOV dbl(*SP(#0)), XAR3
         001e1f BF   
    8843 001e20 90B0          MOV XAR3, AC0
    8844 001e22 6310          BCC $C$L306,AC0 != #0 ; |5009| 
    8845                                                      ; branchcc occurs ; |5009| 
    8846 001e24 ED31          MOV dbl(*(#_pxCurrentTCB)), XAR3
         001e26 BF00 
         001e28 0004-
    8847 001e2a       $C$L306:    
    8848 001e2a EB04          MOV XAR3, dbl(*SP(#2))
         001e2c B5   
    8849                      .dwpsn  file "../FreeRTOS/Source/tasks_sysStk.c",line 5011,column 3,is_stmt
    8850 001e2d 20     nop
    8851 001e2e 46B3   bset INTM
    8852 001e30 F731          ADD #1, *(#_usCriticalNesting) ; |5011| 
         001e32 0001 
TMS320C55x Assembler PC v4.4.1 Tue Oct 02 02:33:57 2018

Tools Copyright (c) 1996-2012 Texas Instruments Incorporated
tasks_sysStk.asm                                                     PAGE  198

         001e34 0000 
         001e36 00!  
    8853 001e37 20            NOP
    8854 001e38 20            NOP
    8855 001e39 20            NOP
    8856                      .dwpsn  file "../FreeRTOS/Source/tasks_sysStk.c",line 5013,column 4,is_stmt
    8857 001e3a F06D          CMP *AR3(#48) == #2, TC1 ; |5013| 
         001e3c 0002 
         001e3e 0030 
    8858 001e40 6574          BCC $C$L307,!TC1 ; |5013| 
    8859                                                      ; branchcc occurs ; |5013| 
    8860                      .dwpsn  file "../FreeRTOS/Source/tasks_sysStk.c",line 5015,column 5,is_stmt
    8861 001e42 E66D          MOV #0, *AR3(#48) ; |5015| 
         001e44 0000 
         001e46 30   
    8862                      .dwpsn  file "../FreeRTOS/Source/tasks_sysStk.c",line 5016,column 5,is_stmt
    8863 001e47 E608          MOV #1, *SP(#4) ; |5016| 
         001e49 01   
    8864                      .dwpsn  file "../FreeRTOS/Source/tasks_sysStk.c",line 5017,column 4,is_stmt
    8865 001e4a 4A03          B $C$L308 ; |5017| 
    8866                                                      ; branch occurs ; |5017| 
    8867 001e4c       $C$L307:    
    8868                      .dwpsn  file "../FreeRTOS/Source/tasks_sysStk.c",line 5020,column 5,is_stmt
    8869 001e4c E608          MOV #0, *SP(#4) ; |5020| 
         001e4e 00   
    8870 001e4f       $C$L308:    
    8871                      .dwpsn  file "../FreeRTOS/Source/tasks_sysStk.c",line 5023,column 3,is_stmt
    8872 001e4f A931          MOV *(#_usCriticalNesting), AR1 ; |5023| 
         001e51 0000 
         001e53 00!  
    8873 001e54 0409          BCC $C$L309,AR1 == #0 ; |5023| 
         001e56 14   
    8874                                                      ; branchcc occurs ; |5023| 
    8875 001e57 F731          SUB #1, *(#_usCriticalNesting) ; |5023| 
         001e59 FFFF 
         001e5b 0000 
         001e5d 00!  
    8876 001e5e 20            NOP
    8877 001e5f 20            NOP
    8878 001e60 20            NOP
    8879 001e61 A931          MOV *(#_usCriticalNesting), AR1 ; |5023| 
         001e63 0000 
         001e65 00!  
    8880 001e66 6199          BCC $C$L309,AR1 != #0 ; |5023| 
    8881                                                      ; branchcc occurs ; |5023| 
    8882 001e68 20     nop
    8883 001e69 46B2   bclr INTM
    8884 001e6b       $C$L309:    
    8885                      .dwpsn  file "../FreeRTOS/Source/tasks_sysStk.c",line 5025,column 3,is_stmt
    8886 001e6b A408          MOV *SP(#4), T0 ; |5025| 
    8887                      .dwpsn  file "../FreeRTOS/Source/tasks_sysStk.c",line 5026,column 2,is_stmt
    8888 001e6d 4E05          AADD #5, SP
    8889                      .dwcfi  cfa_offset, 1
    8890              $C$DW$624       .dwtag  DW_TAG_TI_branch
    8891                      .dwattr $C$DW$624, DW_AT_low_pc(0x00)
TMS320C55x Assembler PC v4.4.1 Tue Oct 02 02:33:57 2018

Tools Copyright (c) 1996-2012 Texas Instruments Incorporated
tasks_sysStk.asm                                                     PAGE  199

    8892                      .dwattr $C$DW$624, DW_AT_TI_return
    8893 001e6f 4804          RET
    8894                                                      ; return occurs
    8895                      .dwattr $C$DW$619, DW_AT_TI_end_file("../FreeRTOS/Source/tasks_sysStk.c")
    8896                      .dwattr $C$DW$619, DW_AT_TI_end_line(0x13a2)
    8897                      .dwattr $C$DW$619, DW_AT_TI_end_column(0x02)
    8898                      .dwendentry
    8899                      .dwendtag $C$DW$619
    8900              
    8901 001e71               .sect   ".text"
    8902                      .align 4
    8903              
    8904              $C$DW$625       .dwtag  DW_TAG_subprogram, DW_AT_name("prvAddCurrentTaskToDelayedList")
    8905                      .dwattr $C$DW$625, DW_AT_low_pc(_prvAddCurrentTaskToDelayedList)
    8906                      .dwattr $C$DW$625, DW_AT_high_pc(0x00)
    8907                      .dwattr $C$DW$625, DW_AT_TI_symbol_name("_prvAddCurrentTaskToDelayedList")
    8908                      .dwattr $C$DW$625, DW_AT_TI_begin_file("../FreeRTOS/Source/tasks_sysStk.c")
    8909                      .dwattr $C$DW$625, DW_AT_TI_begin_line(0x13a8)
    8910                      .dwattr $C$DW$625, DW_AT_TI_begin_column(0x0d)
    8911                      .dwattr $C$DW$625, DW_AT_TI_max_frame_size(0x0a)
    8912                      .dwpsn  file "../FreeRTOS/Source/tasks_sysStk.c",line 5033,column 1,is_stmt,address _prvAddCurrentTas
    8913              
    8914                      .dwfde $C$DW$CIE, _prvAddCurrentTaskToDelayedList
    8915              $C$DW$626       .dwtag  DW_TAG_formal_parameter, DW_AT_name("xTicksToWait")
    8916                      .dwattr $C$DW$626, DW_AT_TI_symbol_name("_xTicksToWait")
    8917                      .dwattr $C$DW$626, DW_AT_type(*$C$DW$T$37)
    8918                      .dwattr $C$DW$626, DW_AT_location[DW_OP_reg0]
    8919              $C$DW$627       .dwtag  DW_TAG_formal_parameter, DW_AT_name("xCanBlockIndefinitely")
    8920                      .dwattr $C$DW$627, DW_AT_TI_symbol_name("_xCanBlockIndefinitely")
    8921                      .dwattr $C$DW$627, DW_AT_type(*$C$DW$T$111)
    8922                      .dwattr $C$DW$627, DW_AT_location[DW_OP_reg12]
    8923              ;*******************************************************************************
    8924              ;* FUNCTION NAME: prvAddCurrentTaskToDelayedList                               *
    8925              ;*                                                                             *
    8926              ;*   Function Uses Regs : AC0,AC0,AC1,AC1,T0,AR0,XAR0,AR1,XAR1,AR3,XAR3,SP,    *
    8927              ;*                        CARRY,TC1,M40,SATA,SATD,RDM,FRCT,SMUL                *
    8928              ;*   Stack Frame        : Compact (No Frame Pointer, w/ debug)                 *
    8929              ;*   Total Frame Size   : 10 words                                             *
    8930              ;*                        (2 return address/alignment)                         *
    8931              ;*                        (8 local values)                                     *
    8932              ;*   Min System Stack   : 1 word                                               *
    8933              ;*******************************************************************************
    8934 001e74       _prvAddCurrentTaskToDelayedList:
    8935                      .dwcfi  cfa_offset, 1
    8936                      .dwcfi  save_reg_to_mem, 91, -1
    8937 001e74 4EF7          AADD #-9, SP
    8938                      .dwcfi  cfa_offset, 10
    8939              $C$DW$628       .dwtag  DW_TAG_variable, DW_AT_name("xTicksToWait")
    8940                      .dwattr $C$DW$628, DW_AT_TI_symbol_name("_xTicksToWait")
    8941                      .dwattr $C$DW$628, DW_AT_type(*$C$DW$T$37)
    8942                      .dwattr $C$DW$628, DW_AT_location[DW_OP_bregx 0x24 0]
    8943              $C$DW$629       .dwtag  DW_TAG_variable, DW_AT_name("xCanBlockIndefinitely")
    8944                      .dwattr $C$DW$629, DW_AT_TI_symbol_name("_xCanBlockIndefinitely")
    8945                      .dwattr $C$DW$629, DW_AT_type(*$C$DW$T$111)
    8946                      .dwattr $C$DW$629, DW_AT_location[DW_OP_bregx 0x24 2]
TMS320C55x Assembler PC v4.4.1 Tue Oct 02 02:33:57 2018

Tools Copyright (c) 1996-2012 Texas Instruments Incorporated
tasks_sysStk.asm                                                     PAGE  200

    8947              $C$DW$630       .dwtag  DW_TAG_variable, DW_AT_name("xTimeToWake")
    8948                      .dwattr $C$DW$630, DW_AT_TI_symbol_name("_xTimeToWake")
    8949                      .dwattr $C$DW$630, DW_AT_type(*$C$DW$T$37)
    8950                      .dwattr $C$DW$630, DW_AT_location[DW_OP_bregx 0x24 4]
    8951              $C$DW$631       .dwtag  DW_TAG_variable, DW_AT_name("xConstTickCount")
    8952                      .dwattr $C$DW$631, DW_AT_TI_symbol_name("_xConstTickCount")
    8953                      .dwattr $C$DW$631, DW_AT_type(*$C$DW$T$95)
    8954                      .dwattr $C$DW$631, DW_AT_location[DW_OP_bregx 0x24 6]
    8955 001e76 C404          MOV T0, *SP(#2) ; |5033| 
    8956 001e78 EB00          MOV AC0, dbl(*SP(#0)) ; |5033| 
         001e7a 08   
    8957                      .dwpsn  file "../FreeRTOS/Source/tasks_sysStk.c",line 5035,column 18,is_stmt
    8958 001e7b ED31          MOV dbl(*(#_xTickCount)), AC0 ; |5035| 
         001e7d 0800 
         001e7f 0070-
    8959 001e81 EB0C          MOV AC0, dbl(*SP(#6)) ; |5035| 
         001e83 08   
    8960                      .dwpsn  file "../FreeRTOS/Source/tasks_sysStk.c",line 5048,column 2,is_stmt
    8961 001e84 ED31          MOV dbl(*(#_pxCurrentTCB)), XAR0
         001e86 8F00 
         001e88 0004-
    8962 001e8a 1404          AADD #4, AR0 ; |5048| 
         001e8c 84   
    8963              $C$DW$632       .dwtag  DW_TAG_TI_branch
    8964                      .dwattr $C$DW$632, DW_AT_low_pc(0x00)
    8965                      .dwattr $C$DW$632, DW_AT_name("_uxListRemove")
    8966                      .dwattr $C$DW$632, DW_AT_TI_call
    8967 001e8d 6C00          CALL #_uxListRemove ; |5048| 
         001e8f 0000!
    8968                                                      ; call occurs [#_uxListRemove] ; |5048| 
    8969 001e91 6004          BCC $C$L310,T0 == #0 ; |5048| 
    8970                                                      ; branchcc occurs ; |5048| 
    8971                      .dwpsn  file "../FreeRTOS/Source/tasks_sysStk.c",line 5053,column 2,is_stmt
    8972 001e93       $C$L310:    
    8973                      .dwpsn  file "../FreeRTOS/Source/tasks_sysStk.c",line 5061,column 3,is_stmt
    8974 001e93 7AFF          MOV #-1 << #16, AC0 ; |5061| 
         001e95 FF0A 
    8975 001e97 ED00          MOV dbl(*SP(#0)), AC1 ; |5061| 
         001e99 18   
    8976 001e9a 7EFF          OR #0xffff, AC0, AC0 ; |5061| 
         001e9c FF00 
    8977 001e9e 121C          CMPU AC1 != AC0, TC1 ; |5061| 
         001ea0 04   
    8978 001ea1 0464          BCC $C$L311,TC1 ; |5061| 
         001ea3 1B   
    8979                                                      ; branchcc occurs ; |5061| 
    8980 001ea4 A904          MOV *SP(#2), AR1 ; |5061| 
    8981 001ea6 0409          BCC $C$L311,AR1 == #0 ; |5061| 
         001ea8 16   
    8982                                                      ; branchcc occurs ; |5061| 
    8983                      .dwpsn  file "../FreeRTOS/Source/tasks_sysStk.c",line 5066,column 4,is_stmt
    8984 001ea9 ED31          MOV dbl(*(#_pxCurrentTCB)), XAR1
         001eab 9F00 
         001ead 0004-
    8985 001eaf EC31          AMOV #_xSuspendedTaskList, XAR0 ; |5066| 
TMS320C55x Assembler PC v4.4.1 Tue Oct 02 02:33:57 2018

Tools Copyright (c) 1996-2012 Texas Instruments Incorporated
tasks_sysStk.asm                                                     PAGE  201

         001eb1 8E00 
         001eb3 0066-
    8986 001eb5 1404          AADD #4, AR1 ; |5066| 
         001eb7 94   
    8987              $C$DW$633       .dwtag  DW_TAG_TI_branch
    8988                      .dwattr $C$DW$633, DW_AT_low_pc(0x00)
    8989                      .dwattr $C$DW$633, DW_AT_name("_vListInsertEnd")
    8990                      .dwattr $C$DW$633, DW_AT_TI_call
    8991 001eb8 6C00          CALL #_vListInsertEnd ; |5066| 
         001eba 0000!
    8992                                                      ; call occurs [#_vListInsertEnd] ; |5066| 
    8993                      .dwpsn  file "../FreeRTOS/Source/tasks_sysStk.c",line 5067,column 3,is_stmt
    8994 001ebc 0600          B $C$L313 ; |5067| 
         001ebe 62   
    8995                                                      ; branch occurs ; |5067| 
    8996 001ebf       $C$L311:    
    8997                      .dwpsn  file "../FreeRTOS/Source/tasks_sysStk.c",line 5073,column 4,is_stmt
    8998 001ebf ED00          MOV dbl(*SP(#0)), AC0 ; |5073| 
         001ec1 08   
    8999 001ec2 ED0C          ADD dbl(*SP(#6)), AC0, AC0 ; |5073| 
         001ec4 00   
    9000 001ec5 EB08          MOV AC0, dbl(*SP(#4)) ; |5073| 
         001ec7 08   
    9001                      .dwpsn  file "../FreeRTOS/Source/tasks_sysStk.c",line 5076,column 4,is_stmt
    9002 001ec8 ED31          MOV dbl(*(#_pxCurrentTCB)), XAR3
         001eca BF00 
         001ecc 0004-
    9003 001ece ED08          MOV dbl(*SP(#4)), AC0 ; |5076| 
         001ed0 08   
    9004 001ed1 EB79          MOV AC0, dbl(*AR3(short(#4))) ; |5076| 
         001ed3 08   
    9005                      .dwpsn  file "../FreeRTOS/Source/tasks_sysStk.c",line 5078,column 4,is_stmt
    9006 001ed4 ED08          MOV dbl(*SP(#4)), AC1 ; |5078| 
         001ed6 18   
    9007 001ed7 ED0C          MOV dbl(*SP(#6)), AC0 ; |5078| 
         001ed9 08   
    9008 001eda 1218          CMPU AC1 >= AC0, TC1 ; |5078| 
         001edc 04   
    9009 001edd 0464          BCC $C$L312,TC1 ; |5078| 
         001edf 15   
    9010                                                      ; branchcc occurs ; |5078| 
    9011                      .dwpsn  file "../FreeRTOS/Source/tasks_sysStk.c",line 5082,column 5,is_stmt
    9012 001ee0 ED31          MOV dbl(*(#_pxCurrentTCB)), XAR1
         001ee2 9F00 
         001ee4 0004-
    9013 001ee6 ED31          MOV dbl(*(#_pxOverflowDelayedTaskList)), XAR0
         001ee8 8F00 
         001eea 004E-
    9014 001eec 1404          AADD #4, AR1 ; |5082| 
         001eee 94   
    9015              $C$DW$634       .dwtag  DW_TAG_TI_branch
    9016                      .dwattr $C$DW$634, DW_AT_low_pc(0x00)
    9017                      .dwattr $C$DW$634, DW_AT_name("_vListInsert")
    9018                      .dwattr $C$DW$634, DW_AT_TI_call
    9019 001eef 6C00          CALL #_vListInsert ; |5082| 
TMS320C55x Assembler PC v4.4.1 Tue Oct 02 02:33:57 2018

Tools Copyright (c) 1996-2012 Texas Instruments Incorporated
tasks_sysStk.asm                                                     PAGE  202

         001ef1 0000!
    9020                                                      ; call occurs [#_vListInsert] ; |5082| 
    9021                      .dwpsn  file "../FreeRTOS/Source/tasks_sysStk.c",line 5083,column 4,is_stmt
    9022 001ef3 4A2C          B $C$L313 ; |5083| 
    9023                                                      ; branch occurs ; |5083| 
    9024 001ef5       $C$L312:    
    9025                      .dwpsn  file "../FreeRTOS/Source/tasks_sysStk.c",line 5088,column 5,is_stmt
    9026 001ef5 ED31          MOV dbl(*(#_pxCurrentTCB)), XAR1
         001ef7 9F00 
         001ef9 0004-
    9027 001efb ED31          MOV dbl(*(#_pxDelayedTaskList)), XAR0
         001efd 8F00 
         001eff 004C-
    9028 001f01 1404          AADD #4, AR1 ; |5088| 
         001f03 94   
    9029              $C$DW$635       .dwtag  DW_TAG_TI_branch
    9030                      .dwattr $C$DW$635, DW_AT_low_pc(0x00)
    9031                      .dwattr $C$DW$635, DW_AT_name("_vListInsert")
    9032                      .dwattr $C$DW$635, DW_AT_TI_call
    9033 001f04 6C00          CALL #_vListInsert ; |5088| 
         001f06 0000!
    9034                                                      ; call occurs [#_vListInsert] ; |5088| 
    9035                      .dwpsn  file "../FreeRTOS/Source/tasks_sysStk.c",line 5093,column 5,is_stmt
    9036 001f08 ED31          MOV dbl(*(#_xNextTaskUnblockTime)), AC0 ; |5093| 
         001f0a 0800 
         001f0c 0078-
    9037 001f0e ED08          MOV dbl(*SP(#4)), AC1 ; |5093| 
         001f10 18   
    9038 001f11 1218          CMPU AC1 >= AC0, TC1 ; |5093| 
         001f13 04   
    9039 001f14 65E4          BCC $C$L313,TC1 ; |5093| 
    9040                                                      ; branchcc occurs ; |5093| 
    9041                      .dwpsn  file "../FreeRTOS/Source/tasks_sysStk.c",line 5095,column 6,is_stmt
    9042 001f16 ED08          MOV dbl(*SP(#4)), AC0 ; |5095| 
         001f18 08   
    9043 001f19 EB31          MOV AC0, dbl(*(#_xNextTaskUnblockTime)) ; |5095| 
         001f1b 0800 
         001f1d 0078-
    9044                      .dwpsn  file "../FreeRTOS/Source/tasks_sysStk.c",line 5096,column 5,is_stmt
    9045 001f1f 4A00          B $C$L313 ; |5096| 
    9046                                                      ; branch occurs ; |5096| 
    9047 001f21       $C$L313:    
    9048 001f21 4E09          AADD #9, SP
    9049                      .dwcfi  cfa_offset, 1
    9050              $C$DW$636       .dwtag  DW_TAG_TI_branch
    9051                      .dwattr $C$DW$636, DW_AT_low_pc(0x00)
    9052                      .dwattr $C$DW$636, DW_AT_TI_return
    9053 001f23 4804          RET
    9054                                                      ; return occurs
    9055                      .dwattr $C$DW$625, DW_AT_TI_end_file("../FreeRTOS/Source/tasks_sysStk.c")
    9056                      .dwattr $C$DW$625, DW_AT_TI_end_line(0x1415)
    9057                      .dwattr $C$DW$625, DW_AT_TI_end_column(0x01)
    9058                      .dwendentry
    9059                      .dwendtag $C$DW$625
    9060              
TMS320C55x Assembler PC v4.4.1 Tue Oct 02 02:33:57 2018

Tools Copyright (c) 1996-2012 Texas Instruments Incorporated
tasks_sysStk.asm                                                     PAGE  203

    9061              ;*******************************************************************************
    9062              ;* FAR STRINGS                                                                 *
    9063              ;*******************************************************************************
    9064 000000               .sect   ".const:.string"
    9065                      .align  2
    9066 000000 0049  $C$FSL1:        .string "IDLE",0
         000001 0044 
         000002 004C 
         000003 0045 
         000004 0000 
    9067              ;******************************************************************************
    9068              ;* UNDEFINED EXTERNAL REFERENCES                                              *
    9069              ;******************************************************************************
    9070                      .global _memset
    9071                      .global _vPortYield
    9072                      .global _pxPortInitialiseStack
    9073                      .global _pvPortMalloc
    9074                      .global _vPortFree
    9075                      .global _xPortStartScheduler
    9076                      .global _vPortEndScheduler
    9077                      .global _vListInitialise
    9078                      .global _vListInitialiseItem
    9079                      .global _vListInsert
    9080                      .global _vListInsertEnd
    9081                      .global _uxListRemove
    9082                      .global _vApplicationMallocFailedHook
    9083                      .global _vApplicationIdleHook
    9084                      .global _usCriticalNesting
    9085              
    9086              ;*******************************************************************************
    9087              ;* TYPE INFORMATION                                                            *
    9088              ;*******************************************************************************
    9089              
    9090              $C$DW$T$45      .dwtag  DW_TAG_enumeration_type
    9091                      .dwattr $C$DW$T$45, DW_AT_byte_size(0x01)
    9092              $C$DW$637       .dwtag  DW_TAG_enumerator, DW_AT_name("eRunning"), DW_AT_const_value(0x00)
    9093              $C$DW$638       .dwtag  DW_TAG_enumerator, DW_AT_name("eReady"), DW_AT_const_value(0x01)
    9094              $C$DW$639       .dwtag  DW_TAG_enumerator, DW_AT_name("eBlocked"), DW_AT_const_value(0x02)
    9095              $C$DW$640       .dwtag  DW_TAG_enumerator, DW_AT_name("eSuspended"), DW_AT_const_value(0x03)
    9096              $C$DW$641       .dwtag  DW_TAG_enumerator, DW_AT_name("eDeleted"), DW_AT_const_value(0x04)
    9097              $C$DW$642       .dwtag  DW_TAG_enumerator, DW_AT_name("eInvalid"), DW_AT_const_value(0x05)
    9098                      .dwendtag $C$DW$T$45
    9099              
    9100              $C$DW$T$46      .dwtag  DW_TAG_typedef, DW_AT_name("eTaskState")
    9101                      .dwattr $C$DW$T$46, DW_AT_type(*$C$DW$T$45)
    9102                      .dwattr $C$DW$T$46, DW_AT_language(DW_LANG_C)
    9103              
    9104              $C$DW$T$50      .dwtag  DW_TAG_enumeration_type
    9105                      .dwattr $C$DW$T$50, DW_AT_byte_size(0x01)
    9106              $C$DW$643       .dwtag  DW_TAG_enumerator, DW_AT_name("eNoAction"), DW_AT_const_value(0x00)
    9107              $C$DW$644       .dwtag  DW_TAG_enumerator, DW_AT_name("eSetBits"), DW_AT_const_value(0x01)
    9108              $C$DW$645       .dwtag  DW_TAG_enumerator, DW_AT_name("eIncrement"), DW_AT_const_value(0x02)
    9109              $C$DW$646       .dwtag  DW_TAG_enumerator, DW_AT_name("eSetValueWithOverwrite"), DW_AT_const_value(0x03)
    9110              $C$DW$647       .dwtag  DW_TAG_enumerator, DW_AT_name("eSetValueWithoutOverwrite"), DW_AT_const_value(0x04)
    9111                      .dwendtag $C$DW$T$50
TMS320C55x Assembler PC v4.4.1 Tue Oct 02 02:33:57 2018

Tools Copyright (c) 1996-2012 Texas Instruments Incorporated
tasks_sysStk.asm                                                     PAGE  204

    9112              
    9113              $C$DW$T$51      .dwtag  DW_TAG_typedef, DW_AT_name("eNotifyAction")
    9114                      .dwattr $C$DW$T$51, DW_AT_type(*$C$DW$T$50)
    9115                      .dwattr $C$DW$T$51, DW_AT_language(DW_LANG_C)
    9116              $C$DW$T$3       .dwtag  DW_TAG_pointer_type
    9117                      .dwattr $C$DW$T$3, DW_AT_address_class(0x17)
    9118              $C$DW$648       .dwtag  DW_TAG_TI_far_type
    9119                      .dwattr $C$DW$648, DW_AT_type(*$C$DW$T$3)
    9120              $C$DW$T$57      .dwtag  DW_TAG_const_type
    9121                      .dwattr $C$DW$T$57, DW_AT_type(*$C$DW$648)
    9122              
    9123              $C$DW$T$60      .dwtag  DW_TAG_subroutine_type
    9124                      .dwattr $C$DW$T$60, DW_AT_language(DW_LANG_C)
    9125              $C$DW$649       .dwtag  DW_TAG_formal_parameter
    9126                      .dwattr $C$DW$649, DW_AT_type(*$C$DW$T$3)
    9127                      .dwendtag $C$DW$T$60
    9128              
    9129              $C$DW$T$61      .dwtag  DW_TAG_pointer_type
    9130                      .dwattr $C$DW$T$61, DW_AT_type(*$C$DW$T$60)
    9131                      .dwattr $C$DW$T$61, DW_AT_address_class(0x20)
    9132              $C$DW$T$62      .dwtag  DW_TAG_typedef, DW_AT_name("TaskFunction_t")
    9133                      .dwattr $C$DW$T$62, DW_AT_type(*$C$DW$T$61)
    9134                      .dwattr $C$DW$T$62, DW_AT_language(DW_LANG_C)
    9135              $C$DW$T$4       .dwtag  DW_TAG_base_type
    9136                      .dwattr $C$DW$T$4, DW_AT_encoding(DW_ATE_boolean)
    9137                      .dwattr $C$DW$T$4, DW_AT_name("bool")
    9138                      .dwattr $C$DW$T$4, DW_AT_byte_size(0x01)
    9139              $C$DW$T$5       .dwtag  DW_TAG_base_type
    9140                      .dwattr $C$DW$T$5, DW_AT_encoding(DW_ATE_signed_char)
    9141                      .dwattr $C$DW$T$5, DW_AT_name("signed char")
    9142                      .dwattr $C$DW$T$5, DW_AT_byte_size(0x01)
    9143              $C$DW$T$6       .dwtag  DW_TAG_base_type
    9144                      .dwattr $C$DW$T$6, DW_AT_encoding(DW_ATE_unsigned_char)
    9145                      .dwattr $C$DW$T$6, DW_AT_name("unsigned char")
    9146                      .dwattr $C$DW$T$6, DW_AT_byte_size(0x01)
    9147              $C$DW$T$30      .dwtag  DW_TAG_typedef, DW_AT_name("uint8_t")
    9148                      .dwattr $C$DW$T$30, DW_AT_type(*$C$DW$T$6)
    9149                      .dwattr $C$DW$T$30, DW_AT_language(DW_LANG_C)
    9150              $C$DW$T$114     .dwtag  DW_TAG_pointer_type
    9151                      .dwattr $C$DW$T$114, DW_AT_type(*$C$DW$T$30)
    9152                      .dwattr $C$DW$T$114, DW_AT_address_class(0x17)
    9153              $C$DW$650       .dwtag  DW_TAG_TI_far_type
    9154                      .dwattr $C$DW$650, DW_AT_type(*$C$DW$T$30)
    9155              $C$DW$T$31      .dwtag  DW_TAG_volatile_type
    9156                      .dwattr $C$DW$T$31, DW_AT_type(*$C$DW$650)
    9157              $C$DW$651       .dwtag  DW_TAG_TI_far_type
    9158                      .dwattr $C$DW$651, DW_AT_type(*$C$DW$T$30)
    9159              $C$DW$T$115     .dwtag  DW_TAG_const_type
    9160                      .dwattr $C$DW$T$115, DW_AT_type(*$C$DW$651)
    9161              $C$DW$T$116     .dwtag  DW_TAG_pointer_type
    9162                      .dwattr $C$DW$T$116, DW_AT_type(*$C$DW$T$115)
    9163                      .dwattr $C$DW$T$116, DW_AT_address_class(0x17)
    9164              $C$DW$T$7       .dwtag  DW_TAG_base_type
    9165                      .dwattr $C$DW$T$7, DW_AT_encoding(DW_ATE_signed_char)
    9166                      .dwattr $C$DW$T$7, DW_AT_name("wchar_t")
TMS320C55x Assembler PC v4.4.1 Tue Oct 02 02:33:57 2018

Tools Copyright (c) 1996-2012 Texas Instruments Incorporated
tasks_sysStk.asm                                                     PAGE  205

    9167                      .dwattr $C$DW$T$7, DW_AT_byte_size(0x01)
    9168              $C$DW$T$8       .dwtag  DW_TAG_base_type
    9169                      .dwattr $C$DW$T$8, DW_AT_encoding(DW_ATE_signed)
    9170                      .dwattr $C$DW$T$8, DW_AT_name("short")
    9171                      .dwattr $C$DW$T$8, DW_AT_byte_size(0x01)
    9172              $C$DW$T$43      .dwtag  DW_TAG_typedef, DW_AT_name("BaseType_t")
    9173                      .dwattr $C$DW$T$43, DW_AT_type(*$C$DW$T$8)
    9174                      .dwattr $C$DW$T$43, DW_AT_language(DW_LANG_C)
    9175              $C$DW$652       .dwtag  DW_TAG_TI_far_type
    9176                      .dwattr $C$DW$652, DW_AT_type(*$C$DW$T$43)
    9177              $C$DW$T$111     .dwtag  DW_TAG_const_type
    9178                      .dwattr $C$DW$T$111, DW_AT_type(*$C$DW$652)
    9179              $C$DW$653       .dwtag  DW_TAG_TI_far_type
    9180                      .dwattr $C$DW$653, DW_AT_type(*$C$DW$T$43)
    9181              $C$DW$T$118     .dwtag  DW_TAG_volatile_type
    9182                      .dwattr $C$DW$T$118, DW_AT_type(*$C$DW$653)
    9183              $C$DW$T$109     .dwtag  DW_TAG_pointer_type
    9184                      .dwattr $C$DW$T$109, DW_AT_type(*$C$DW$T$43)
    9185                      .dwattr $C$DW$T$109, DW_AT_address_class(0x17)
    9186              $C$DW$T$9       .dwtag  DW_TAG_base_type
    9187                      .dwattr $C$DW$T$9, DW_AT_encoding(DW_ATE_unsigned)
    9188                      .dwattr $C$DW$T$9, DW_AT_name("unsigned short")
    9189                      .dwattr $C$DW$T$9, DW_AT_byte_size(0x01)
    9190              $C$DW$T$25      .dwtag  DW_TAG_typedef, DW_AT_name("UBaseType_t")
    9191                      .dwattr $C$DW$T$25, DW_AT_type(*$C$DW$T$9)
    9192                      .dwattr $C$DW$T$25, DW_AT_language(DW_LANG_C)
    9193              $C$DW$654       .dwtag  DW_TAG_TI_far_type
    9194                      .dwattr $C$DW$654, DW_AT_type(*$C$DW$T$25)
    9195              $C$DW$T$33      .dwtag  DW_TAG_volatile_type
    9196                      .dwattr $C$DW$T$33, DW_AT_type(*$C$DW$654)
    9197              $C$DW$655       .dwtag  DW_TAG_TI_far_type
    9198                      .dwattr $C$DW$655, DW_AT_type(*$C$DW$T$25)
    9199              $C$DW$T$137     .dwtag  DW_TAG_const_type
    9200                      .dwattr $C$DW$T$137, DW_AT_type(*$C$DW$655)
    9201              $C$DW$T$10      .dwtag  DW_TAG_base_type
    9202                      .dwattr $C$DW$T$10, DW_AT_encoding(DW_ATE_signed)
    9203                      .dwattr $C$DW$T$10, DW_AT_name("int")
    9204                      .dwattr $C$DW$T$10, DW_AT_byte_size(0x01)
    9205              $C$DW$T$11      .dwtag  DW_TAG_base_type
    9206                      .dwattr $C$DW$T$11, DW_AT_encoding(DW_ATE_unsigned)
    9207                      .dwattr $C$DW$T$11, DW_AT_name("unsigned int")
    9208                      .dwattr $C$DW$T$11, DW_AT_byte_size(0x01)
    9209              $C$DW$T$19      .dwtag  DW_TAG_typedef, DW_AT_name("StackType_t")
    9210                      .dwattr $C$DW$T$19, DW_AT_type(*$C$DW$T$11)
    9211                      .dwattr $C$DW$T$19, DW_AT_language(DW_LANG_C)
    9212              $C$DW$656       .dwtag  DW_TAG_TI_far_type
    9213                      .dwattr $C$DW$656, DW_AT_type(*$C$DW$T$19)
    9214              $C$DW$T$22      .dwtag  DW_TAG_volatile_type
    9215                      .dwattr $C$DW$T$22, DW_AT_type(*$C$DW$656)
    9216              $C$DW$T$23      .dwtag  DW_TAG_pointer_type
    9217                      .dwattr $C$DW$T$23, DW_AT_type(*$C$DW$T$22)
    9218                      .dwattr $C$DW$T$23, DW_AT_address_class(0x17)
    9219              $C$DW$T$20      .dwtag  DW_TAG_pointer_type
    9220                      .dwattr $C$DW$T$20, DW_AT_type(*$C$DW$T$19)
    9221                      .dwattr $C$DW$T$20, DW_AT_address_class(0x17)
TMS320C55x Assembler PC v4.4.1 Tue Oct 02 02:33:57 2018

Tools Copyright (c) 1996-2012 Texas Instruments Incorporated
tasks_sysStk.asm                                                     PAGE  206

    9222              $C$DW$657       .dwtag  DW_TAG_TI_far_type
    9223                      .dwattr $C$DW$657, DW_AT_type(*$C$DW$T$11)
    9224              $C$DW$T$143     .dwtag  DW_TAG_volatile_type
    9225                      .dwattr $C$DW$T$143, DW_AT_type(*$C$DW$657)
    9226              $C$DW$T$52      .dwtag  DW_TAG_typedef, DW_AT_name("size_t")
    9227                      .dwattr $C$DW$T$52, DW_AT_type(*$C$DW$T$11)
    9228                      .dwattr $C$DW$T$52, DW_AT_language(DW_LANG_C)
    9229              $C$DW$T$121     .dwtag  DW_TAG_typedef, DW_AT_name("uint16_t")
    9230                      .dwattr $C$DW$T$121, DW_AT_type(*$C$DW$T$11)
    9231                      .dwattr $C$DW$T$121, DW_AT_language(DW_LANG_C)
    9232              $C$DW$658       .dwtag  DW_TAG_TI_far_type
    9233                      .dwattr $C$DW$658, DW_AT_type(*$C$DW$T$121)
    9234              $C$DW$T$122     .dwtag  DW_TAG_const_type
    9235                      .dwattr $C$DW$T$122, DW_AT_type(*$C$DW$658)
    9236              $C$DW$T$12      .dwtag  DW_TAG_base_type
    9237                      .dwattr $C$DW$T$12, DW_AT_encoding(DW_ATE_signed)
    9238                      .dwattr $C$DW$T$12, DW_AT_name("long")
    9239                      .dwattr $C$DW$T$12, DW_AT_byte_size(0x02)
    9240              $C$DW$T$13      .dwtag  DW_TAG_base_type
    9241                      .dwattr $C$DW$T$13, DW_AT_encoding(DW_ATE_unsigned)
    9242                      .dwattr $C$DW$T$13, DW_AT_name("unsigned long")
    9243                      .dwattr $C$DW$T$13, DW_AT_byte_size(0x02)
    9244              $C$DW$T$37      .dwtag  DW_TAG_typedef, DW_AT_name("TickType_t")
    9245                      .dwattr $C$DW$T$37, DW_AT_type(*$C$DW$T$13)
    9246                      .dwattr $C$DW$T$37, DW_AT_language(DW_LANG_C)
    9247              $C$DW$659       .dwtag  DW_TAG_TI_far_type
    9248                      .dwattr $C$DW$659, DW_AT_type(*$C$DW$T$37)
    9249              $C$DW$T$95      .dwtag  DW_TAG_const_type
    9250                      .dwattr $C$DW$T$95, DW_AT_type(*$C$DW$659)
    9251              $C$DW$660       .dwtag  DW_TAG_TI_far_type
    9252                      .dwattr $C$DW$660, DW_AT_type(*$C$DW$T$37)
    9253              $C$DW$T$146     .dwtag  DW_TAG_volatile_type
    9254                      .dwattr $C$DW$T$146, DW_AT_type(*$C$DW$660)
    9255              $C$DW$T$93      .dwtag  DW_TAG_pointer_type
    9256                      .dwattr $C$DW$T$93, DW_AT_type(*$C$DW$T$37)
    9257                      .dwattr $C$DW$T$93, DW_AT_address_class(0x17)
    9258              $C$DW$661       .dwtag  DW_TAG_TI_far_type
    9259                      .dwattr $C$DW$661, DW_AT_type(*$C$DW$T$93)
    9260              $C$DW$T$94      .dwtag  DW_TAG_const_type
    9261                      .dwattr $C$DW$T$94, DW_AT_type(*$C$DW$661)
    9262              $C$DW$T$28      .dwtag  DW_TAG_typedef, DW_AT_name("uint32_t")
    9263                      .dwattr $C$DW$T$28, DW_AT_type(*$C$DW$T$13)
    9264                      .dwattr $C$DW$T$28, DW_AT_language(DW_LANG_C)
    9265              $C$DW$T$133     .dwtag  DW_TAG_pointer_type
    9266                      .dwattr $C$DW$T$133, DW_AT_type(*$C$DW$T$28)
    9267                      .dwattr $C$DW$T$133, DW_AT_address_class(0x17)
    9268              $C$DW$662       .dwtag  DW_TAG_TI_far_type
    9269                      .dwattr $C$DW$662, DW_AT_type(*$C$DW$T$28)
    9270              $C$DW$T$29      .dwtag  DW_TAG_volatile_type
    9271                      .dwattr $C$DW$T$29, DW_AT_type(*$C$DW$662)
    9272              $C$DW$663       .dwtag  DW_TAG_TI_far_type
    9273                      .dwattr $C$DW$663, DW_AT_type(*$C$DW$T$28)
    9274              $C$DW$T$78      .dwtag  DW_TAG_const_type
    9275                      .dwattr $C$DW$T$78, DW_AT_type(*$C$DW$663)
    9276              $C$DW$T$14      .dwtag  DW_TAG_base_type
TMS320C55x Assembler PC v4.4.1 Tue Oct 02 02:33:57 2018

Tools Copyright (c) 1996-2012 Texas Instruments Incorporated
tasks_sysStk.asm                                                     PAGE  207

    9277                      .dwattr $C$DW$T$14, DW_AT_encoding(DW_ATE_signed)
    9278                      .dwattr $C$DW$T$14, DW_AT_name("long long")
    9279                      .dwattr $C$DW$T$14, DW_AT_byte_size(0x04)
    9280                      .dwattr $C$DW$T$14, DW_AT_bit_size(0x28)
    9281                      .dwattr $C$DW$T$14, DW_AT_bit_offset(0x18)
    9282              $C$DW$T$15      .dwtag  DW_TAG_base_type
    9283                      .dwattr $C$DW$T$15, DW_AT_encoding(DW_ATE_unsigned)
    9284                      .dwattr $C$DW$T$15, DW_AT_name("unsigned long long")
    9285                      .dwattr $C$DW$T$15, DW_AT_byte_size(0x04)
    9286                      .dwattr $C$DW$T$15, DW_AT_bit_size(0x28)
    9287                      .dwattr $C$DW$T$15, DW_AT_bit_offset(0x18)
    9288              $C$DW$T$16      .dwtag  DW_TAG_base_type
    9289                      .dwattr $C$DW$T$16, DW_AT_encoding(DW_ATE_float)
    9290                      .dwattr $C$DW$T$16, DW_AT_name("float")
    9291                      .dwattr $C$DW$T$16, DW_AT_byte_size(0x02)
    9292              $C$DW$T$17      .dwtag  DW_TAG_base_type
    9293                      .dwattr $C$DW$T$17, DW_AT_encoding(DW_ATE_float)
    9294                      .dwattr $C$DW$T$17, DW_AT_name("double")
    9295                      .dwattr $C$DW$T$17, DW_AT_byte_size(0x02)
    9296              $C$DW$T$18      .dwtag  DW_TAG_base_type
    9297                      .dwattr $C$DW$T$18, DW_AT_encoding(DW_ATE_float)
    9298                      .dwattr $C$DW$T$18, DW_AT_name("long double")
    9299                      .dwattr $C$DW$T$18, DW_AT_byte_size(0x02)
    9300              $C$DW$T$26      .dwtag  DW_TAG_base_type
    9301                      .dwattr $C$DW$T$26, DW_AT_encoding(DW_ATE_signed_char)
    9302                      .dwattr $C$DW$T$26, DW_AT_name("signed char")
    9303                      .dwattr $C$DW$T$26, DW_AT_byte_size(0x01)
    9304              
    9305              $C$DW$T$27      .dwtag  DW_TAG_array_type
    9306                      .dwattr $C$DW$T$27, DW_AT_type(*$C$DW$T$26)
    9307                      .dwattr $C$DW$T$27, DW_AT_language(DW_LANG_C)
    9308                      .dwattr $C$DW$T$27, DW_AT_byte_size(0x08)
    9309              $C$DW$664       .dwtag  DW_TAG_subrange_type
    9310                      .dwattr $C$DW$664, DW_AT_upper_bound(0x07)
    9311                      .dwendtag $C$DW$T$27
    9312              
    9313              $C$DW$665       .dwtag  DW_TAG_TI_far_type
    9314                      .dwattr $C$DW$665, DW_AT_type(*$C$DW$T$26)
    9315              $C$DW$T$75      .dwtag  DW_TAG_const_type
    9316                      .dwattr $C$DW$T$75, DW_AT_type(*$C$DW$665)
    9317              $C$DW$T$76      .dwtag  DW_TAG_pointer_type
    9318                      .dwattr $C$DW$T$76, DW_AT_type(*$C$DW$T$75)
    9319                      .dwattr $C$DW$T$76, DW_AT_address_class(0x17)
    9320              $C$DW$666       .dwtag  DW_TAG_TI_far_type
    9321                      .dwattr $C$DW$666, DW_AT_type(*$C$DW$T$76)
    9322              $C$DW$T$77      .dwtag  DW_TAG_const_type
    9323                      .dwattr $C$DW$T$77, DW_AT_type(*$C$DW$666)
    9324              $C$DW$T$150     .dwtag  DW_TAG_pointer_type
    9325                      .dwattr $C$DW$T$150, DW_AT_type(*$C$DW$T$26)
    9326                      .dwattr $C$DW$T$150, DW_AT_address_class(0x17)
    9327              
    9328              $C$DW$T$21      .dwtag  DW_TAG_structure_type
    9329                      .dwattr $C$DW$T$21, DW_AT_name("tagSTACKSTRUCT")
    9330                      .dwattr $C$DW$T$21, DW_AT_byte_size(0x04)
    9331              $C$DW$667       .dwtag  DW_TAG_member
TMS320C55x Assembler PC v4.4.1 Tue Oct 02 02:33:57 2018

Tools Copyright (c) 1996-2012 Texas Instruments Incorporated
tasks_sysStk.asm                                                     PAGE  208

    9332                      .dwattr $C$DW$667, DW_AT_type(*$C$DW$T$20)
    9333                      .dwattr $C$DW$667, DW_AT_name("pxTopOfStack")
    9334                      .dwattr $C$DW$667, DW_AT_TI_symbol_name("_pxTopOfStack")
    9335                      .dwattr $C$DW$667, DW_AT_data_member_location[DW_OP_plus_uconst 0x0]
    9336                      .dwattr $C$DW$667, DW_AT_accessibility(DW_ACCESS_public)
    9337              $C$DW$668       .dwtag  DW_TAG_member
    9338                      .dwattr $C$DW$668, DW_AT_type(*$C$DW$T$20)
    9339                      .dwattr $C$DW$668, DW_AT_name("pxTopOfSysStack")
    9340                      .dwattr $C$DW$668, DW_AT_TI_symbol_name("_pxTopOfSysStack")
    9341                      .dwattr $C$DW$668, DW_AT_data_member_location[DW_OP_plus_uconst 0x2]
    9342                      .dwattr $C$DW$668, DW_AT_accessibility(DW_ACCESS_public)
    9343                      .dwendtag $C$DW$T$21
    9344              
    9345              $C$DW$T$154     .dwtag  DW_TAG_pointer_type
    9346                      .dwattr $C$DW$T$154, DW_AT_type(*$C$DW$T$21)
    9347                      .dwattr $C$DW$T$154, DW_AT_address_class(0x17)
    9348              
    9349              $C$DW$T$32      .dwtag  DW_TAG_structure_type
    9350                      .dwattr $C$DW$T$32, DW_AT_name("tskTaskControlBlock")
    9351                      .dwattr $C$DW$T$32, DW_AT_byte_size(0x32)
    9352              $C$DW$669       .dwtag  DW_TAG_member
    9353                      .dwattr $C$DW$669, DW_AT_type(*$C$DW$T$23)
    9354                      .dwattr $C$DW$669, DW_AT_name("pxTopOfStack")
    9355                      .dwattr $C$DW$669, DW_AT_TI_symbol_name("_pxTopOfStack")
    9356                      .dwattr $C$DW$669, DW_AT_data_member_location[DW_OP_plus_uconst 0x0]
    9357                      .dwattr $C$DW$669, DW_AT_accessibility(DW_ACCESS_public)
    9358              $C$DW$670       .dwtag  DW_TAG_member
    9359                      .dwattr $C$DW$670, DW_AT_type(*$C$DW$T$23)
    9360                      .dwattr $C$DW$670, DW_AT_name("pxTopOfSysStack")
    9361                      .dwattr $C$DW$670, DW_AT_TI_symbol_name("_pxTopOfSysStack")
    9362                      .dwattr $C$DW$670, DW_AT_data_member_location[DW_OP_plus_uconst 0x2]
    9363                      .dwattr $C$DW$670, DW_AT_accessibility(DW_ACCESS_public)
    9364              $C$DW$671       .dwtag  DW_TAG_member
    9365                      .dwattr $C$DW$671, DW_AT_type(*$C$DW$T$24)
    9366                      .dwattr $C$DW$671, DW_AT_name("xStateListItem")
    9367                      .dwattr $C$DW$671, DW_AT_TI_symbol_name("_xStateListItem")
    9368                      .dwattr $C$DW$671, DW_AT_data_member_location[DW_OP_plus_uconst 0x4]
    9369                      .dwattr $C$DW$671, DW_AT_accessibility(DW_ACCESS_public)
    9370              $C$DW$672       .dwtag  DW_TAG_member
    9371                      .dwattr $C$DW$672, DW_AT_type(*$C$DW$T$24)
    9372                      .dwattr $C$DW$672, DW_AT_name("xEventListItem")
    9373                      .dwattr $C$DW$672, DW_AT_TI_symbol_name("_xEventListItem")
    9374                      .dwattr $C$DW$672, DW_AT_data_member_location[DW_OP_plus_uconst 0xe]
    9375                      .dwattr $C$DW$672, DW_AT_accessibility(DW_ACCESS_public)
    9376              $C$DW$673       .dwtag  DW_TAG_member
    9377                      .dwattr $C$DW$673, DW_AT_type(*$C$DW$T$25)
    9378                      .dwattr $C$DW$673, DW_AT_name("uxPriority")
    9379                      .dwattr $C$DW$673, DW_AT_TI_symbol_name("_uxPriority")
    9380                      .dwattr $C$DW$673, DW_AT_data_member_location[DW_OP_plus_uconst 0x18]
    9381                      .dwattr $C$DW$673, DW_AT_accessibility(DW_ACCESS_public)
    9382              $C$DW$674       .dwtag  DW_TAG_member
    9383                      .dwattr $C$DW$674, DW_AT_type(*$C$DW$T$20)
    9384                      .dwattr $C$DW$674, DW_AT_name("pxStack")
    9385                      .dwattr $C$DW$674, DW_AT_TI_symbol_name("_pxStack")
    9386                      .dwattr $C$DW$674, DW_AT_data_member_location[DW_OP_plus_uconst 0x1a]
TMS320C55x Assembler PC v4.4.1 Tue Oct 02 02:33:57 2018

Tools Copyright (c) 1996-2012 Texas Instruments Incorporated
tasks_sysStk.asm                                                     PAGE  209

    9387                      .dwattr $C$DW$674, DW_AT_accessibility(DW_ACCESS_public)
    9388              $C$DW$675       .dwtag  DW_TAG_member
    9389                      .dwattr $C$DW$675, DW_AT_type(*$C$DW$T$20)
    9390                      .dwattr $C$DW$675, DW_AT_name("pxSysStack")
    9391                      .dwattr $C$DW$675, DW_AT_TI_symbol_name("_pxSysStack")
    9392                      .dwattr $C$DW$675, DW_AT_data_member_location[DW_OP_plus_uconst 0x1c]
    9393                      .dwattr $C$DW$675, DW_AT_accessibility(DW_ACCESS_public)
    9394              $C$DW$676       .dwtag  DW_TAG_member
    9395                      .dwattr $C$DW$676, DW_AT_type(*$C$DW$T$27)
    9396                      .dwattr $C$DW$676, DW_AT_name("pcTaskName")
    9397                      .dwattr $C$DW$676, DW_AT_TI_symbol_name("_pcTaskName")
    9398                      .dwattr $C$DW$676, DW_AT_data_member_location[DW_OP_plus_uconst 0x1e]
    9399                      .dwattr $C$DW$676, DW_AT_accessibility(DW_ACCESS_public)
    9400              $C$DW$677       .dwtag  DW_TAG_member
    9401                      .dwattr $C$DW$677, DW_AT_type(*$C$DW$T$20)
    9402                      .dwattr $C$DW$677, DW_AT_name("pxEndOfStack")
    9403                      .dwattr $C$DW$677, DW_AT_TI_symbol_name("_pxEndOfStack")
    9404                      .dwattr $C$DW$677, DW_AT_data_member_location[DW_OP_plus_uconst 0x26]
    9405                      .dwattr $C$DW$677, DW_AT_accessibility(DW_ACCESS_public)
    9406              $C$DW$678       .dwtag  DW_TAG_member
    9407                      .dwattr $C$DW$678, DW_AT_type(*$C$DW$T$20)
    9408                      .dwattr $C$DW$678, DW_AT_name("pxEndOfSysStack")
    9409                      .dwattr $C$DW$678, DW_AT_TI_symbol_name("_pxEndOfSysStack")
    9410                      .dwattr $C$DW$678, DW_AT_data_member_location[DW_OP_plus_uconst 0x28]
    9411                      .dwattr $C$DW$678, DW_AT_accessibility(DW_ACCESS_public)
    9412              $C$DW$679       .dwtag  DW_TAG_member
    9413                      .dwattr $C$DW$679, DW_AT_type(*$C$DW$T$25)
    9414                      .dwattr $C$DW$679, DW_AT_name("uxCriticalNesting")
    9415                      .dwattr $C$DW$679, DW_AT_TI_symbol_name("_uxCriticalNesting")
    9416                      .dwattr $C$DW$679, DW_AT_data_member_location[DW_OP_plus_uconst 0x2a]
    9417                      .dwattr $C$DW$679, DW_AT_accessibility(DW_ACCESS_public)
    9418              $C$DW$680       .dwtag  DW_TAG_member
    9419                      .dwattr $C$DW$680, DW_AT_type(*$C$DW$T$25)
    9420                      .dwattr $C$DW$680, DW_AT_name("uxBasePriority")
    9421                      .dwattr $C$DW$680, DW_AT_TI_symbol_name("_uxBasePriority")
    9422                      .dwattr $C$DW$680, DW_AT_data_member_location[DW_OP_plus_uconst 0x2b]
    9423                      .dwattr $C$DW$680, DW_AT_accessibility(DW_ACCESS_public)
    9424              $C$DW$681       .dwtag  DW_TAG_member
    9425                      .dwattr $C$DW$681, DW_AT_type(*$C$DW$T$25)
    9426                      .dwattr $C$DW$681, DW_AT_name("uxMutexesHeld")
    9427                      .dwattr $C$DW$681, DW_AT_TI_symbol_name("_uxMutexesHeld")
    9428                      .dwattr $C$DW$681, DW_AT_data_member_location[DW_OP_plus_uconst 0x2c]
    9429                      .dwattr $C$DW$681, DW_AT_accessibility(DW_ACCESS_public)
    9430              $C$DW$682       .dwtag  DW_TAG_member
    9431                      .dwattr $C$DW$682, DW_AT_type(*$C$DW$T$29)
    9432                      .dwattr $C$DW$682, DW_AT_name("ulNotifiedValue")
    9433                      .dwattr $C$DW$682, DW_AT_TI_symbol_name("_ulNotifiedValue")
    9434                      .dwattr $C$DW$682, DW_AT_data_member_location[DW_OP_plus_uconst 0x2e]
    9435                      .dwattr $C$DW$682, DW_AT_accessibility(DW_ACCESS_public)
    9436              $C$DW$683       .dwtag  DW_TAG_member
    9437                      .dwattr $C$DW$683, DW_AT_type(*$C$DW$T$31)
    9438                      .dwattr $C$DW$683, DW_AT_name("ucNotifyState")
    9439                      .dwattr $C$DW$683, DW_AT_TI_symbol_name("_ucNotifyState")
    9440                      .dwattr $C$DW$683, DW_AT_data_member_location[DW_OP_plus_uconst 0x30]
    9441                      .dwattr $C$DW$683, DW_AT_accessibility(DW_ACCESS_public)
TMS320C55x Assembler PC v4.4.1 Tue Oct 02 02:33:57 2018

Tools Copyright (c) 1996-2012 Texas Instruments Incorporated
tasks_sysStk.asm                                                     PAGE  210

    9442                      .dwendtag $C$DW$T$32
    9443              
    9444              $C$DW$T$47      .dwtag  DW_TAG_pointer_type
    9445                      .dwattr $C$DW$T$47, DW_AT_type(*$C$DW$T$32)
    9446                      .dwattr $C$DW$T$47, DW_AT_address_class(0x17)
    9447              $C$DW$T$48      .dwtag  DW_TAG_typedef, DW_AT_name("TaskHandle_t")
    9448                      .dwattr $C$DW$T$48, DW_AT_type(*$C$DW$T$47)
    9449                      .dwattr $C$DW$T$48, DW_AT_language(DW_LANG_C)
    9450              $C$DW$684       .dwtag  DW_TAG_TI_far_type
    9451                      .dwattr $C$DW$684, DW_AT_type(*$C$DW$T$48)
    9452              $C$DW$T$107     .dwtag  DW_TAG_const_type
    9453                      .dwattr $C$DW$T$107, DW_AT_type(*$C$DW$684)
    9454              $C$DW$T$79      .dwtag  DW_TAG_pointer_type
    9455                      .dwattr $C$DW$T$79, DW_AT_type(*$C$DW$T$48)
    9456                      .dwattr $C$DW$T$79, DW_AT_address_class(0x17)
    9457              $C$DW$685       .dwtag  DW_TAG_TI_far_type
    9458                      .dwattr $C$DW$685, DW_AT_type(*$C$DW$T$79)
    9459              $C$DW$T$80      .dwtag  DW_TAG_const_type
    9460                      .dwattr $C$DW$T$80, DW_AT_type(*$C$DW$685)
    9461              $C$DW$T$81      .dwtag  DW_TAG_typedef, DW_AT_name("tskTCB")
    9462                      .dwattr $C$DW$T$81, DW_AT_type(*$C$DW$T$32)
    9463                      .dwattr $C$DW$T$81, DW_AT_language(DW_LANG_C)
    9464              $C$DW$T$82      .dwtag  DW_TAG_typedef, DW_AT_name("TCB_t")
    9465                      .dwattr $C$DW$T$82, DW_AT_type(*$C$DW$T$81)
    9466                      .dwattr $C$DW$T$82, DW_AT_language(DW_LANG_C)
    9467              $C$DW$686       .dwtag  DW_TAG_TI_far_type
    9468                      .dwattr $C$DW$686, DW_AT_type(*$C$DW$T$82)
    9469              $C$DW$T$156     .dwtag  DW_TAG_const_type
    9470                      .dwattr $C$DW$T$156, DW_AT_type(*$C$DW$686)
    9471              $C$DW$T$157     .dwtag  DW_TAG_pointer_type
    9472                      .dwattr $C$DW$T$157, DW_AT_type(*$C$DW$T$156)
    9473                      .dwattr $C$DW$T$157, DW_AT_address_class(0x17)
    9474              $C$DW$687       .dwtag  DW_TAG_TI_far_type
    9475                      .dwattr $C$DW$687, DW_AT_type(*$C$DW$T$157)
    9476              $C$DW$T$158     .dwtag  DW_TAG_const_type
    9477                      .dwattr $C$DW$T$158, DW_AT_type(*$C$DW$687)
    9478              $C$DW$T$83      .dwtag  DW_TAG_pointer_type
    9479                      .dwattr $C$DW$T$83, DW_AT_type(*$C$DW$T$82)
    9480                      .dwattr $C$DW$T$83, DW_AT_address_class(0x17)
    9481              $C$DW$688       .dwtag  DW_TAG_TI_far_type
    9482                      .dwattr $C$DW$688, DW_AT_type(*$C$DW$T$83)
    9483              $C$DW$T$159     .dwtag  DW_TAG_volatile_type
    9484                      .dwattr $C$DW$T$159, DW_AT_type(*$C$DW$688)
    9485              $C$DW$689       .dwtag  DW_TAG_TI_far_type
    9486                      .dwattr $C$DW$689, DW_AT_type(*$C$DW$T$83)
    9487              $C$DW$T$160     .dwtag  DW_TAG_const_type
    9488                      .dwattr $C$DW$T$160, DW_AT_type(*$C$DW$689)
    9489              
    9490              $C$DW$T$36      .dwtag  DW_TAG_structure_type
    9491                      .dwattr $C$DW$T$36, DW_AT_name("xLIST")
    9492                      .dwattr $C$DW$T$36, DW_AT_byte_size(0x0a)
    9493              $C$DW$690       .dwtag  DW_TAG_member
    9494                      .dwattr $C$DW$690, DW_AT_type(*$C$DW$T$33)
    9495                      .dwattr $C$DW$690, DW_AT_name("uxNumberOfItems")
    9496                      .dwattr $C$DW$690, DW_AT_TI_symbol_name("_uxNumberOfItems")
TMS320C55x Assembler PC v4.4.1 Tue Oct 02 02:33:57 2018

Tools Copyright (c) 1996-2012 Texas Instruments Incorporated
tasks_sysStk.asm                                                     PAGE  211

    9497                      .dwattr $C$DW$690, DW_AT_data_member_location[DW_OP_plus_uconst 0x0]
    9498                      .dwattr $C$DW$690, DW_AT_accessibility(DW_ACCESS_public)
    9499              $C$DW$691       .dwtag  DW_TAG_member
    9500                      .dwattr $C$DW$691, DW_AT_type(*$C$DW$T$34)
    9501                      .dwattr $C$DW$691, DW_AT_name("pxIndex")
    9502                      .dwattr $C$DW$691, DW_AT_TI_symbol_name("_pxIndex")
    9503                      .dwattr $C$DW$691, DW_AT_data_member_location[DW_OP_plus_uconst 0x2]
    9504                      .dwattr $C$DW$691, DW_AT_accessibility(DW_ACCESS_public)
    9505              $C$DW$692       .dwtag  DW_TAG_member
    9506                      .dwattr $C$DW$692, DW_AT_type(*$C$DW$T$35)
    9507                      .dwattr $C$DW$692, DW_AT_name("xListEnd")
    9508                      .dwattr $C$DW$692, DW_AT_TI_symbol_name("_xListEnd")
    9509                      .dwattr $C$DW$692, DW_AT_data_member_location[DW_OP_plus_uconst 0x4]
    9510                      .dwattr $C$DW$692, DW_AT_accessibility(DW_ACCESS_public)
    9511                      .dwendtag $C$DW$T$36
    9512              
    9513              $C$DW$T$65      .dwtag  DW_TAG_typedef, DW_AT_name("List_t")
    9514                      .dwattr $C$DW$T$65, DW_AT_type(*$C$DW$T$36)
    9515                      .dwattr $C$DW$T$65, DW_AT_language(DW_LANG_C)
    9516              $C$DW$693       .dwtag  DW_TAG_TI_far_type
    9517                      .dwattr $C$DW$693, DW_AT_type(*$C$DW$T$65)
    9518              $C$DW$T$128     .dwtag  DW_TAG_const_type
    9519                      .dwattr $C$DW$T$128, DW_AT_type(*$C$DW$693)
    9520              $C$DW$T$129     .dwtag  DW_TAG_pointer_type
    9521                      .dwattr $C$DW$T$129, DW_AT_type(*$C$DW$T$128)
    9522                      .dwattr $C$DW$T$129, DW_AT_address_class(0x17)
    9523              $C$DW$694       .dwtag  DW_TAG_TI_far_type
    9524                      .dwattr $C$DW$694, DW_AT_type(*$C$DW$T$129)
    9525              $C$DW$T$130     .dwtag  DW_TAG_const_type
    9526                      .dwattr $C$DW$T$130, DW_AT_type(*$C$DW$694)
    9527              $C$DW$T$66      .dwtag  DW_TAG_pointer_type
    9528                      .dwattr $C$DW$T$66, DW_AT_type(*$C$DW$T$65)
    9529                      .dwattr $C$DW$T$66, DW_AT_address_class(0x17)
    9530              $C$DW$695       .dwtag  DW_TAG_TI_far_type
    9531                      .dwattr $C$DW$695, DW_AT_type(*$C$DW$T$66)
    9532              $C$DW$T$67      .dwtag  DW_TAG_const_type
    9533                      .dwattr $C$DW$T$67, DW_AT_type(*$C$DW$695)
    9534              $C$DW$696       .dwtag  DW_TAG_TI_far_type
    9535                      .dwattr $C$DW$696, DW_AT_type(*$C$DW$T$66)
    9536              $C$DW$T$161     .dwtag  DW_TAG_volatile_type
    9537                      .dwattr $C$DW$T$161, DW_AT_type(*$C$DW$696)
    9538              
    9539              $C$DW$T$162     .dwtag  DW_TAG_array_type
    9540                      .dwattr $C$DW$T$162, DW_AT_type(*$C$DW$T$65)
    9541                      .dwattr $C$DW$T$162, DW_AT_language(DW_LANG_C)
    9542                      .dwattr $C$DW$T$162, DW_AT_byte_size(0x32)
    9543              $C$DW$697       .dwtag  DW_TAG_subrange_type
    9544                      .dwattr $C$DW$697, DW_AT_upper_bound(0x04)
    9545                      .dwendtag $C$DW$T$162
    9546              
    9547              $C$DW$T$39      .dwtag  DW_TAG_pointer_type
    9548                      .dwattr $C$DW$T$39, DW_AT_type(*$C$DW$T$36)
    9549                      .dwattr $C$DW$T$39, DW_AT_address_class(0x17)
    9550              
    9551              $C$DW$T$40      .dwtag  DW_TAG_structure_type
TMS320C55x Assembler PC v4.4.1 Tue Oct 02 02:33:57 2018

Tools Copyright (c) 1996-2012 Texas Instruments Incorporated
tasks_sysStk.asm                                                     PAGE  212

    9552                      .dwattr $C$DW$T$40, DW_AT_name("xLIST_ITEM")
    9553                      .dwattr $C$DW$T$40, DW_AT_byte_size(0x0a)
    9554              $C$DW$698       .dwtag  DW_TAG_member
    9555                      .dwattr $C$DW$698, DW_AT_type(*$C$DW$T$37)
    9556                      .dwattr $C$DW$698, DW_AT_name("xItemValue")
    9557                      .dwattr $C$DW$698, DW_AT_TI_symbol_name("_xItemValue")
    9558                      .dwattr $C$DW$698, DW_AT_data_member_location[DW_OP_plus_uconst 0x0]
    9559                      .dwattr $C$DW$698, DW_AT_accessibility(DW_ACCESS_public)
    9560              $C$DW$699       .dwtag  DW_TAG_member
    9561                      .dwattr $C$DW$699, DW_AT_type(*$C$DW$T$38)
    9562                      .dwattr $C$DW$699, DW_AT_name("pxNext")
    9563                      .dwattr $C$DW$699, DW_AT_TI_symbol_name("_pxNext")
    9564                      .dwattr $C$DW$699, DW_AT_data_member_location[DW_OP_plus_uconst 0x2]
    9565                      .dwattr $C$DW$699, DW_AT_accessibility(DW_ACCESS_public)
    9566              $C$DW$700       .dwtag  DW_TAG_member
    9567                      .dwattr $C$DW$700, DW_AT_type(*$C$DW$T$38)
    9568                      .dwattr $C$DW$700, DW_AT_name("pxPrevious")
    9569                      .dwattr $C$DW$700, DW_AT_TI_symbol_name("_pxPrevious")
    9570                      .dwattr $C$DW$700, DW_AT_data_member_location[DW_OP_plus_uconst 0x4]
    9571                      .dwattr $C$DW$700, DW_AT_accessibility(DW_ACCESS_public)
    9572              $C$DW$701       .dwtag  DW_TAG_member
    9573                      .dwattr $C$DW$701, DW_AT_type(*$C$DW$T$3)
    9574                      .dwattr $C$DW$701, DW_AT_name("pvOwner")
    9575                      .dwattr $C$DW$701, DW_AT_TI_symbol_name("_pvOwner")
    9576                      .dwattr $C$DW$701, DW_AT_data_member_location[DW_OP_plus_uconst 0x6]
    9577                      .dwattr $C$DW$701, DW_AT_accessibility(DW_ACCESS_public)
    9578              $C$DW$702       .dwtag  DW_TAG_member
    9579                      .dwattr $C$DW$702, DW_AT_type(*$C$DW$T$39)
    9580                      .dwattr $C$DW$702, DW_AT_name("pvContainer")
    9581                      .dwattr $C$DW$702, DW_AT_TI_symbol_name("_pvContainer")
    9582                      .dwattr $C$DW$702, DW_AT_data_member_location[DW_OP_plus_uconst 0x8]
    9583                      .dwattr $C$DW$702, DW_AT_accessibility(DW_ACCESS_public)
    9584                      .dwendtag $C$DW$T$40
    9585              
    9586              $C$DW$T$24      .dwtag  DW_TAG_typedef, DW_AT_name("ListItem_t")
    9587                      .dwattr $C$DW$T$24, DW_AT_type(*$C$DW$T$40)
    9588                      .dwattr $C$DW$T$24, DW_AT_language(DW_LANG_C)
    9589              $C$DW$T$34      .dwtag  DW_TAG_pointer_type
    9590                      .dwattr $C$DW$T$34, DW_AT_type(*$C$DW$T$24)
    9591                      .dwattr $C$DW$T$34, DW_AT_address_class(0x17)
    9592              $C$DW$703       .dwtag  DW_TAG_TI_far_type
    9593                      .dwattr $C$DW$703, DW_AT_type(*$C$DW$T$34)
    9594              $C$DW$T$70      .dwtag  DW_TAG_const_type
    9595                      .dwattr $C$DW$T$70, DW_AT_type(*$C$DW$703)
    9596              $C$DW$T$38      .dwtag  DW_TAG_pointer_type
    9597                      .dwattr $C$DW$T$38, DW_AT_type(*$C$DW$T$40)
    9598                      .dwattr $C$DW$T$38, DW_AT_address_class(0x17)
    9599              
    9600              $C$DW$T$41      .dwtag  DW_TAG_structure_type
    9601                      .dwattr $C$DW$T$41, DW_AT_name("xMEMORY_REGION")
    9602                      .dwattr $C$DW$T$41, DW_AT_byte_size(0x06)
    9603              $C$DW$704       .dwtag  DW_TAG_member
    9604                      .dwattr $C$DW$704, DW_AT_type(*$C$DW$T$3)
    9605                      .dwattr $C$DW$704, DW_AT_name("pvBaseAddress")
    9606                      .dwattr $C$DW$704, DW_AT_TI_symbol_name("_pvBaseAddress")
TMS320C55x Assembler PC v4.4.1 Tue Oct 02 02:33:57 2018

Tools Copyright (c) 1996-2012 Texas Instruments Incorporated
tasks_sysStk.asm                                                     PAGE  213

    9607                      .dwattr $C$DW$704, DW_AT_data_member_location[DW_OP_plus_uconst 0x0]
    9608                      .dwattr $C$DW$704, DW_AT_accessibility(DW_ACCESS_public)
    9609              $C$DW$705       .dwtag  DW_TAG_member
    9610                      .dwattr $C$DW$705, DW_AT_type(*$C$DW$T$28)
    9611                      .dwattr $C$DW$705, DW_AT_name("ulLengthInBytes")
    9612                      .dwattr $C$DW$705, DW_AT_TI_symbol_name("_ulLengthInBytes")
    9613                      .dwattr $C$DW$705, DW_AT_data_member_location[DW_OP_plus_uconst 0x2]
    9614                      .dwattr $C$DW$705, DW_AT_accessibility(DW_ACCESS_public)
    9615              $C$DW$706       .dwtag  DW_TAG_member
    9616                      .dwattr $C$DW$706, DW_AT_type(*$C$DW$T$28)
    9617                      .dwattr $C$DW$706, DW_AT_name("ulParameters")
    9618                      .dwattr $C$DW$706, DW_AT_TI_symbol_name("_ulParameters")
    9619                      .dwattr $C$DW$706, DW_AT_data_member_location[DW_OP_plus_uconst 0x4]
    9620                      .dwattr $C$DW$706, DW_AT_accessibility(DW_ACCESS_public)
    9621                      .dwendtag $C$DW$T$41
    9622              
    9623              $C$DW$T$84      .dwtag  DW_TAG_typedef, DW_AT_name("MemoryRegion_t")
    9624                      .dwattr $C$DW$T$84, DW_AT_type(*$C$DW$T$41)
    9625                      .dwattr $C$DW$T$84, DW_AT_language(DW_LANG_C)
    9626              $C$DW$707       .dwtag  DW_TAG_TI_far_type
    9627                      .dwattr $C$DW$707, DW_AT_type(*$C$DW$T$84)
    9628              $C$DW$T$85      .dwtag  DW_TAG_const_type
    9629                      .dwattr $C$DW$T$85, DW_AT_type(*$C$DW$707)
    9630              $C$DW$T$86      .dwtag  DW_TAG_pointer_type
    9631                      .dwattr $C$DW$T$86, DW_AT_type(*$C$DW$T$85)
    9632                      .dwattr $C$DW$T$86, DW_AT_address_class(0x17)
    9633              $C$DW$708       .dwtag  DW_TAG_TI_far_type
    9634                      .dwattr $C$DW$708, DW_AT_type(*$C$DW$T$86)
    9635              $C$DW$T$87      .dwtag  DW_TAG_const_type
    9636                      .dwattr $C$DW$T$87, DW_AT_type(*$C$DW$708)
    9637              
    9638              $C$DW$T$42      .dwtag  DW_TAG_structure_type
    9639                      .dwattr $C$DW$T$42, DW_AT_name("xMINI_LIST_ITEM")
    9640                      .dwattr $C$DW$T$42, DW_AT_byte_size(0x06)
    9641              $C$DW$709       .dwtag  DW_TAG_member
    9642                      .dwattr $C$DW$709, DW_AT_type(*$C$DW$T$37)
    9643                      .dwattr $C$DW$709, DW_AT_name("xItemValue")
    9644                      .dwattr $C$DW$709, DW_AT_TI_symbol_name("_xItemValue")
    9645                      .dwattr $C$DW$709, DW_AT_data_member_location[DW_OP_plus_uconst 0x0]
    9646                      .dwattr $C$DW$709, DW_AT_accessibility(DW_ACCESS_public)
    9647              $C$DW$710       .dwtag  DW_TAG_member
    9648                      .dwattr $C$DW$710, DW_AT_type(*$C$DW$T$38)
    9649                      .dwattr $C$DW$710, DW_AT_name("pxNext")
    9650                      .dwattr $C$DW$710, DW_AT_TI_symbol_name("_pxNext")
    9651                      .dwattr $C$DW$710, DW_AT_data_member_location[DW_OP_plus_uconst 0x2]
    9652                      .dwattr $C$DW$710, DW_AT_accessibility(DW_ACCESS_public)
    9653              $C$DW$711       .dwtag  DW_TAG_member
    9654                      .dwattr $C$DW$711, DW_AT_type(*$C$DW$T$38)
    9655                      .dwattr $C$DW$711, DW_AT_name("pxPrevious")
    9656                      .dwattr $C$DW$711, DW_AT_TI_symbol_name("_pxPrevious")
    9657                      .dwattr $C$DW$711, DW_AT_data_member_location[DW_OP_plus_uconst 0x4]
    9658                      .dwattr $C$DW$711, DW_AT_accessibility(DW_ACCESS_public)
    9659                      .dwendtag $C$DW$T$42
    9660              
    9661              $C$DW$T$35      .dwtag  DW_TAG_typedef, DW_AT_name("MiniListItem_t")
TMS320C55x Assembler PC v4.4.1 Tue Oct 02 02:33:57 2018

Tools Copyright (c) 1996-2012 Texas Instruments Incorporated
tasks_sysStk.asm                                                     PAGE  214

    9662                      .dwattr $C$DW$T$35, DW_AT_type(*$C$DW$T$42)
    9663                      .dwattr $C$DW$T$35, DW_AT_language(DW_LANG_C)
    9664              
    9665              $C$DW$T$44      .dwtag  DW_TAG_structure_type
    9666                      .dwattr $C$DW$T$44, DW_AT_name("xTIME_OUT")
    9667                      .dwattr $C$DW$T$44, DW_AT_byte_size(0x04)
    9668              $C$DW$712       .dwtag  DW_TAG_member
    9669                      .dwattr $C$DW$712, DW_AT_type(*$C$DW$T$43)
    9670                      .dwattr $C$DW$712, DW_AT_name("xOverflowCount")
    9671                      .dwattr $C$DW$712, DW_AT_TI_symbol_name("_xOverflowCount")
    9672                      .dwattr $C$DW$712, DW_AT_data_member_location[DW_OP_plus_uconst 0x0]
    9673                      .dwattr $C$DW$712, DW_AT_accessibility(DW_ACCESS_public)
    9674              $C$DW$713       .dwtag  DW_TAG_member
    9675                      .dwattr $C$DW$713, DW_AT_type(*$C$DW$T$37)
    9676                      .dwattr $C$DW$713, DW_AT_name("xTimeOnEntering")
    9677                      .dwattr $C$DW$713, DW_AT_TI_symbol_name("_xTimeOnEntering")
    9678                      .dwattr $C$DW$713, DW_AT_data_member_location[DW_OP_plus_uconst 0x2]
    9679                      .dwattr $C$DW$713, DW_AT_accessibility(DW_ACCESS_public)
    9680                      .dwendtag $C$DW$T$44
    9681              
    9682              $C$DW$T$102     .dwtag  DW_TAG_typedef, DW_AT_name("TimeOut_t")
    9683                      .dwattr $C$DW$T$102, DW_AT_type(*$C$DW$T$44)
    9684                      .dwattr $C$DW$T$102, DW_AT_language(DW_LANG_C)
    9685              $C$DW$T$103     .dwtag  DW_TAG_pointer_type
    9686                      .dwattr $C$DW$T$103, DW_AT_type(*$C$DW$T$102)
    9687                      .dwattr $C$DW$T$103, DW_AT_address_class(0x17)
    9688              $C$DW$714       .dwtag  DW_TAG_TI_far_type
    9689                      .dwattr $C$DW$714, DW_AT_type(*$C$DW$T$103)
    9690              $C$DW$T$104     .dwtag  DW_TAG_const_type
    9691                      .dwattr $C$DW$T$104, DW_AT_type(*$C$DW$714)
    9692                      .dwattr $C$DW$CU, DW_AT_language(DW_LANG_C)
    9693              
    9694              ;***************************************************************
    9695              ;* DWARF CIE ENTRIES                                           *
    9696              ;***************************************************************
    9697              
    9698              $C$DW$CIE       .dwcie 91
    9699                      .dwcfi  cfa_register, 36
    9700                      .dwcfi  cfa_offset, 0
    9701                      .dwcfi  undefined, 0
    9702                      .dwcfi  undefined, 1
    9703                      .dwcfi  undefined, 2
    9704                      .dwcfi  undefined, 3
    9705                      .dwcfi  undefined, 4
    9706                      .dwcfi  undefined, 5
    9707                      .dwcfi  undefined, 6
    9708                      .dwcfi  undefined, 7
    9709                      .dwcfi  undefined, 8
    9710                      .dwcfi  undefined, 9
    9711                      .dwcfi  undefined, 10
    9712                      .dwcfi  undefined, 11
    9713                      .dwcfi  undefined, 12
    9714                      .dwcfi  undefined, 13
    9715                      .dwcfi  same_value, 14
    9716                      .dwcfi  same_value, 15
TMS320C55x Assembler PC v4.4.1 Tue Oct 02 02:33:57 2018

Tools Copyright (c) 1996-2012 Texas Instruments Incorporated
tasks_sysStk.asm                                                     PAGE  215

    9717                      .dwcfi  undefined, 16
    9718                      .dwcfi  undefined, 17
    9719                      .dwcfi  undefined, 18
    9720                      .dwcfi  undefined, 19
    9721                      .dwcfi  undefined, 20
    9722                      .dwcfi  undefined, 21
    9723                      .dwcfi  undefined, 22
    9724                      .dwcfi  undefined, 23
    9725                      .dwcfi  undefined, 24
    9726                      .dwcfi  undefined, 25
    9727                      .dwcfi  same_value, 26
    9728                      .dwcfi  same_value, 27
    9729                      .dwcfi  same_value, 28
    9730                      .dwcfi  same_value, 29
    9731                      .dwcfi  same_value, 30
    9732                      .dwcfi  same_value, 31
    9733                      .dwcfi  undefined, 32
    9734                      .dwcfi  undefined, 33
    9735                      .dwcfi  undefined, 34
    9736                      .dwcfi  undefined, 35
    9737                      .dwcfi  undefined, 36
    9738                      .dwcfi  undefined, 37
    9739                      .dwcfi  undefined, 38
    9740                      .dwcfi  undefined, 39
    9741                      .dwcfi  undefined, 40
    9742                      .dwcfi  undefined, 41
    9743                      .dwcfi  undefined, 42
    9744                      .dwcfi  undefined, 43
    9745                      .dwcfi  undefined, 44
    9746                      .dwcfi  undefined, 45
    9747                      .dwcfi  undefined, 46
    9748                      .dwcfi  undefined, 47
    9749                      .dwcfi  undefined, 48
    9750                      .dwcfi  undefined, 49
    9751                      .dwcfi  undefined, 50
    9752                      .dwcfi  undefined, 51
    9753                      .dwcfi  undefined, 52
    9754                      .dwcfi  undefined, 53
    9755                      .dwcfi  undefined, 54
    9756                      .dwcfi  undefined, 55
    9757                      .dwcfi  undefined, 56
    9758                      .dwcfi  undefined, 57
    9759                      .dwcfi  undefined, 58
    9760                      .dwcfi  undefined, 59
    9761                      .dwcfi  undefined, 60
    9762                      .dwcfi  undefined, 61
    9763                      .dwcfi  undefined, 62
    9764                      .dwcfi  undefined, 63
    9765                      .dwcfi  undefined, 64
    9766                      .dwcfi  undefined, 65
    9767                      .dwcfi  undefined, 66
    9768                      .dwcfi  undefined, 67
    9769                      .dwcfi  undefined, 68
    9770                      .dwcfi  undefined, 69
    9771                      .dwcfi  undefined, 70
TMS320C55x Assembler PC v4.4.1 Tue Oct 02 02:33:57 2018

Tools Copyright (c) 1996-2012 Texas Instruments Incorporated
tasks_sysStk.asm                                                     PAGE  216

    9772                      .dwcfi  undefined, 71
    9773                      .dwcfi  undefined, 72
    9774                      .dwcfi  undefined, 73
    9775                      .dwcfi  undefined, 74
    9776                      .dwcfi  undefined, 75
    9777                      .dwcfi  undefined, 76
    9778                      .dwcfi  undefined, 77
    9779                      .dwcfi  undefined, 78
    9780                      .dwcfi  undefined, 79
    9781                      .dwcfi  undefined, 80
    9782                      .dwcfi  undefined, 81
    9783                      .dwcfi  undefined, 82
    9784                      .dwcfi  undefined, 83
    9785                      .dwcfi  undefined, 84
    9786                      .dwcfi  undefined, 85
    9787                      .dwcfi  undefined, 86
    9788                      .dwcfi  undefined, 87
    9789                      .dwcfi  undefined, 88
    9790                      .dwcfi  undefined, 89
    9791                      .dwcfi  undefined, 90
    9792                      .dwcfi  undefined, 91
    9793                      .dwendentry
    9794              
    9795              ;***************************************************************
    9796              ;* DWARF REGISTER MAP                                          *
    9797              ;***************************************************************
    9798              
    9799              $C$DW$715       .dwtag  DW_TAG_TI_assign_register, DW_AT_name("AC0")
    9800                      .dwattr $C$DW$715, DW_AT_location[DW_OP_reg0]
    9801              $C$DW$716       .dwtag  DW_TAG_TI_assign_register, DW_AT_name("AC0")
    9802                      .dwattr $C$DW$716, DW_AT_location[DW_OP_reg1]
    9803              $C$DW$717       .dwtag  DW_TAG_TI_assign_register, DW_AT_name("AC0_G")
    9804                      .dwattr $C$DW$717, DW_AT_location[DW_OP_reg2]
    9805              $C$DW$718       .dwtag  DW_TAG_TI_assign_register, DW_AT_name("AC1")
    9806                      .dwattr $C$DW$718, DW_AT_location[DW_OP_reg3]
    9807              $C$DW$719       .dwtag  DW_TAG_TI_assign_register, DW_AT_name("AC1")
    9808                      .dwattr $C$DW$719, DW_AT_location[DW_OP_reg4]
    9809              $C$DW$720       .dwtag  DW_TAG_TI_assign_register, DW_AT_name("AC1_G")
    9810                      .dwattr $C$DW$720, DW_AT_location[DW_OP_reg5]
    9811              $C$DW$721       .dwtag  DW_TAG_TI_assign_register, DW_AT_name("AC2")
    9812                      .dwattr $C$DW$721, DW_AT_location[DW_OP_reg6]
    9813              $C$DW$722       .dwtag  DW_TAG_TI_assign_register, DW_AT_name("AC2")
    9814                      .dwattr $C$DW$722, DW_AT_location[DW_OP_reg7]
    9815              $C$DW$723       .dwtag  DW_TAG_TI_assign_register, DW_AT_name("AC2_G")
    9816                      .dwattr $C$DW$723, DW_AT_location[DW_OP_reg8]
    9817              $C$DW$724       .dwtag  DW_TAG_TI_assign_register, DW_AT_name("AC3")
    9818                      .dwattr $C$DW$724, DW_AT_location[DW_OP_reg9]
    9819              $C$DW$725       .dwtag  DW_TAG_TI_assign_register, DW_AT_name("AC3")
    9820                      .dwattr $C$DW$725, DW_AT_location[DW_OP_reg10]
    9821              $C$DW$726       .dwtag  DW_TAG_TI_assign_register, DW_AT_name("AC3_G")
    9822                      .dwattr $C$DW$726, DW_AT_location[DW_OP_reg11]
    9823              $C$DW$727       .dwtag  DW_TAG_TI_assign_register, DW_AT_name("T0")
    9824                      .dwattr $C$DW$727, DW_AT_location[DW_OP_reg12]
    9825              $C$DW$728       .dwtag  DW_TAG_TI_assign_register, DW_AT_name("T1")
    9826                      .dwattr $C$DW$728, DW_AT_location[DW_OP_reg13]
TMS320C55x Assembler PC v4.4.1 Tue Oct 02 02:33:57 2018

Tools Copyright (c) 1996-2012 Texas Instruments Incorporated
tasks_sysStk.asm                                                     PAGE  217

    9827              $C$DW$729       .dwtag  DW_TAG_TI_assign_register, DW_AT_name("T2")
    9828                      .dwattr $C$DW$729, DW_AT_location[DW_OP_reg14]
    9829              $C$DW$730       .dwtag  DW_TAG_TI_assign_register, DW_AT_name("T3")
    9830                      .dwattr $C$DW$730, DW_AT_location[DW_OP_reg15]
    9831              $C$DW$731       .dwtag  DW_TAG_TI_assign_register, DW_AT_name("AR0")
    9832                      .dwattr $C$DW$731, DW_AT_location[DW_OP_reg16]
    9833              $C$DW$732       .dwtag  DW_TAG_TI_assign_register, DW_AT_name("XAR0")
    9834                      .dwattr $C$DW$732, DW_AT_location[DW_OP_reg17]
    9835              $C$DW$733       .dwtag  DW_TAG_TI_assign_register, DW_AT_name("AR1")
    9836                      .dwattr $C$DW$733, DW_AT_location[DW_OP_reg18]
    9837              $C$DW$734       .dwtag  DW_TAG_TI_assign_register, DW_AT_name("XAR1")
    9838                      .dwattr $C$DW$734, DW_AT_location[DW_OP_reg19]
    9839              $C$DW$735       .dwtag  DW_TAG_TI_assign_register, DW_AT_name("AR2")
    9840                      .dwattr $C$DW$735, DW_AT_location[DW_OP_reg20]
    9841              $C$DW$736       .dwtag  DW_TAG_TI_assign_register, DW_AT_name("XAR2")
    9842                      .dwattr $C$DW$736, DW_AT_location[DW_OP_reg21]
    9843              $C$DW$737       .dwtag  DW_TAG_TI_assign_register, DW_AT_name("AR3")
    9844                      .dwattr $C$DW$737, DW_AT_location[DW_OP_reg22]
    9845              $C$DW$738       .dwtag  DW_TAG_TI_assign_register, DW_AT_name("XAR3")
    9846                      .dwattr $C$DW$738, DW_AT_location[DW_OP_reg23]
    9847              $C$DW$739       .dwtag  DW_TAG_TI_assign_register, DW_AT_name("AR4")
    9848                      .dwattr $C$DW$739, DW_AT_location[DW_OP_reg24]
    9849              $C$DW$740       .dwtag  DW_TAG_TI_assign_register, DW_AT_name("XAR4")
    9850                      .dwattr $C$DW$740, DW_AT_location[DW_OP_reg25]
    9851              $C$DW$741       .dwtag  DW_TAG_TI_assign_register, DW_AT_name("AR5")
    9852                      .dwattr $C$DW$741, DW_AT_location[DW_OP_reg26]
    9853              $C$DW$742       .dwtag  DW_TAG_TI_assign_register, DW_AT_name("XAR5")
    9854                      .dwattr $C$DW$742, DW_AT_location[DW_OP_reg27]
    9855              $C$DW$743       .dwtag  DW_TAG_TI_assign_register, DW_AT_name("AR6")
    9856                      .dwattr $C$DW$743, DW_AT_location[DW_OP_reg28]
    9857              $C$DW$744       .dwtag  DW_TAG_TI_assign_register, DW_AT_name("XAR6")
    9858                      .dwattr $C$DW$744, DW_AT_location[DW_OP_reg29]
    9859              $C$DW$745       .dwtag  DW_TAG_TI_assign_register, DW_AT_name("AR7")
    9860                      .dwattr $C$DW$745, DW_AT_location[DW_OP_reg30]
    9861              $C$DW$746       .dwtag  DW_TAG_TI_assign_register, DW_AT_name("XAR7")
    9862                      .dwattr $C$DW$746, DW_AT_location[DW_OP_reg31]
    9863              $C$DW$747       .dwtag  DW_TAG_TI_assign_register, DW_AT_name("FP")
    9864                      .dwattr $C$DW$747, DW_AT_location[DW_OP_regx 0x20]
    9865              $C$DW$748       .dwtag  DW_TAG_TI_assign_register, DW_AT_name("XFP")
    9866                      .dwattr $C$DW$748, DW_AT_location[DW_OP_regx 0x21]
    9867              $C$DW$749       .dwtag  DW_TAG_TI_assign_register, DW_AT_name("PC")
    9868                      .dwattr $C$DW$749, DW_AT_location[DW_OP_regx 0x22]
    9869              $C$DW$750       .dwtag  DW_TAG_TI_assign_register, DW_AT_name("SP")
    9870                      .dwattr $C$DW$750, DW_AT_location[DW_OP_regx 0x23]
    9871              $C$DW$751       .dwtag  DW_TAG_TI_assign_register, DW_AT_name("XSP")
    9872                      .dwattr $C$DW$751, DW_AT_location[DW_OP_regx 0x24]
    9873              $C$DW$752       .dwtag  DW_TAG_TI_assign_register, DW_AT_name("BKC")
    9874                      .dwattr $C$DW$752, DW_AT_location[DW_OP_regx 0x25]
    9875              $C$DW$753       .dwtag  DW_TAG_TI_assign_register, DW_AT_name("BK03")
    9876                      .dwattr $C$DW$753, DW_AT_location[DW_OP_regx 0x26]
    9877              $C$DW$754       .dwtag  DW_TAG_TI_assign_register, DW_AT_name("BK47")
    9878                      .dwattr $C$DW$754, DW_AT_location[DW_OP_regx 0x27]
    9879              $C$DW$755       .dwtag  DW_TAG_TI_assign_register, DW_AT_name("ST0")
    9880                      .dwattr $C$DW$755, DW_AT_location[DW_OP_regx 0x28]
    9881              $C$DW$756       .dwtag  DW_TAG_TI_assign_register, DW_AT_name("ST1")
TMS320C55x Assembler PC v4.4.1 Tue Oct 02 02:33:57 2018

Tools Copyright (c) 1996-2012 Texas Instruments Incorporated
tasks_sysStk.asm                                                     PAGE  218

    9882                      .dwattr $C$DW$756, DW_AT_location[DW_OP_regx 0x29]
    9883              $C$DW$757       .dwtag  DW_TAG_TI_assign_register, DW_AT_name("ST2")
    9884                      .dwattr $C$DW$757, DW_AT_location[DW_OP_regx 0x2a]
    9885              $C$DW$758       .dwtag  DW_TAG_TI_assign_register, DW_AT_name("ST3")
    9886                      .dwattr $C$DW$758, DW_AT_location[DW_OP_regx 0x2b]
    9887              $C$DW$759       .dwtag  DW_TAG_TI_assign_register, DW_AT_name("MDP")
    9888                      .dwattr $C$DW$759, DW_AT_location[DW_OP_regx 0x2c]
    9889              $C$DW$760       .dwtag  DW_TAG_TI_assign_register, DW_AT_name("MDP05")
    9890                      .dwattr $C$DW$760, DW_AT_location[DW_OP_regx 0x2d]
    9891              $C$DW$761       .dwtag  DW_TAG_TI_assign_register, DW_AT_name("MDP67")
    9892                      .dwattr $C$DW$761, DW_AT_location[DW_OP_regx 0x2e]
    9893              $C$DW$762       .dwtag  DW_TAG_TI_assign_register, DW_AT_name("BRC0")
    9894                      .dwattr $C$DW$762, DW_AT_location[DW_OP_regx 0x2f]
    9895              $C$DW$763       .dwtag  DW_TAG_TI_assign_register, DW_AT_name("RSA0")
    9896                      .dwattr $C$DW$763, DW_AT_location[DW_OP_regx 0x30]
    9897              $C$DW$764       .dwtag  DW_TAG_TI_assign_register, DW_AT_name("RSA0_H")
    9898                      .dwattr $C$DW$764, DW_AT_location[DW_OP_regx 0x31]
    9899              $C$DW$765       .dwtag  DW_TAG_TI_assign_register, DW_AT_name("REA0")
    9900                      .dwattr $C$DW$765, DW_AT_location[DW_OP_regx 0x32]
    9901              $C$DW$766       .dwtag  DW_TAG_TI_assign_register, DW_AT_name("REA0_H")
    9902                      .dwattr $C$DW$766, DW_AT_location[DW_OP_regx 0x33]
    9903              $C$DW$767       .dwtag  DW_TAG_TI_assign_register, DW_AT_name("BRS1")
    9904                      .dwattr $C$DW$767, DW_AT_location[DW_OP_regx 0x34]
    9905              $C$DW$768       .dwtag  DW_TAG_TI_assign_register, DW_AT_name("BRC1")
    9906                      .dwattr $C$DW$768, DW_AT_location[DW_OP_regx 0x35]
    9907              $C$DW$769       .dwtag  DW_TAG_TI_assign_register, DW_AT_name("RSA1")
    9908                      .dwattr $C$DW$769, DW_AT_location[DW_OP_regx 0x36]
    9909              $C$DW$770       .dwtag  DW_TAG_TI_assign_register, DW_AT_name("RSA1_H")
    9910                      .dwattr $C$DW$770, DW_AT_location[DW_OP_regx 0x37]
    9911              $C$DW$771       .dwtag  DW_TAG_TI_assign_register, DW_AT_name("REA1")
    9912                      .dwattr $C$DW$771, DW_AT_location[DW_OP_regx 0x38]
    9913              $C$DW$772       .dwtag  DW_TAG_TI_assign_register, DW_AT_name("REA1_H")
    9914                      .dwattr $C$DW$772, DW_AT_location[DW_OP_regx 0x39]
    9915              $C$DW$773       .dwtag  DW_TAG_TI_assign_register, DW_AT_name("CSR")
    9916                      .dwattr $C$DW$773, DW_AT_location[DW_OP_regx 0x3a]
    9917              $C$DW$774       .dwtag  DW_TAG_TI_assign_register, DW_AT_name("RPTC")
    9918                      .dwattr $C$DW$774, DW_AT_location[DW_OP_regx 0x3b]
    9919              $C$DW$775       .dwtag  DW_TAG_TI_assign_register, DW_AT_name("CDP")
    9920                      .dwattr $C$DW$775, DW_AT_location[DW_OP_regx 0x3c]
    9921              $C$DW$776       .dwtag  DW_TAG_TI_assign_register, DW_AT_name("XCDP")
    9922                      .dwattr $C$DW$776, DW_AT_location[DW_OP_regx 0x3d]
    9923              $C$DW$777       .dwtag  DW_TAG_TI_assign_register, DW_AT_name("TRN0")
    9924                      .dwattr $C$DW$777, DW_AT_location[DW_OP_regx 0x3e]
    9925              $C$DW$778       .dwtag  DW_TAG_TI_assign_register, DW_AT_name("TRN1")
    9926                      .dwattr $C$DW$778, DW_AT_location[DW_OP_regx 0x3f]
    9927              $C$DW$779       .dwtag  DW_TAG_TI_assign_register, DW_AT_name("BSA01")
    9928                      .dwattr $C$DW$779, DW_AT_location[DW_OP_regx 0x40]
    9929              $C$DW$780       .dwtag  DW_TAG_TI_assign_register, DW_AT_name("BSA23")
    9930                      .dwattr $C$DW$780, DW_AT_location[DW_OP_regx 0x41]
    9931              $C$DW$781       .dwtag  DW_TAG_TI_assign_register, DW_AT_name("BSA45")
    9932                      .dwattr $C$DW$781, DW_AT_location[DW_OP_regx 0x42]
    9933              $C$DW$782       .dwtag  DW_TAG_TI_assign_register, DW_AT_name("BSA67")
    9934                      .dwattr $C$DW$782, DW_AT_location[DW_OP_regx 0x43]
    9935              $C$DW$783       .dwtag  DW_TAG_TI_assign_register, DW_AT_name("BSAC")
    9936                      .dwattr $C$DW$783, DW_AT_location[DW_OP_regx 0x44]
TMS320C55x Assembler PC v4.4.1 Tue Oct 02 02:33:57 2018

Tools Copyright (c) 1996-2012 Texas Instruments Incorporated
tasks_sysStk.asm                                                     PAGE  219

    9937              $C$DW$784       .dwtag  DW_TAG_TI_assign_register, DW_AT_name("CARRY")
    9938                      .dwattr $C$DW$784, DW_AT_location[DW_OP_regx 0x45]
    9939              $C$DW$785       .dwtag  DW_TAG_TI_assign_register, DW_AT_name("TC1")
    9940                      .dwattr $C$DW$785, DW_AT_location[DW_OP_regx 0x46]
    9941              $C$DW$786       .dwtag  DW_TAG_TI_assign_register, DW_AT_name("TC2")
    9942                      .dwattr $C$DW$786, DW_AT_location[DW_OP_regx 0x47]
    9943              $C$DW$787       .dwtag  DW_TAG_TI_assign_register, DW_AT_name("M40")
    9944                      .dwattr $C$DW$787, DW_AT_location[DW_OP_regx 0x48]
    9945              $C$DW$788       .dwtag  DW_TAG_TI_assign_register, DW_AT_name("SXMD")
    9946                      .dwattr $C$DW$788, DW_AT_location[DW_OP_regx 0x49]
    9947              $C$DW$789       .dwtag  DW_TAG_TI_assign_register, DW_AT_name("ARMS")
    9948                      .dwattr $C$DW$789, DW_AT_location[DW_OP_regx 0x4a]
    9949              $C$DW$790       .dwtag  DW_TAG_TI_assign_register, DW_AT_name("C54CM")
    9950                      .dwattr $C$DW$790, DW_AT_location[DW_OP_regx 0x4b]
    9951              $C$DW$791       .dwtag  DW_TAG_TI_assign_register, DW_AT_name("SATA")
    9952                      .dwattr $C$DW$791, DW_AT_location[DW_OP_regx 0x4c]
    9953              $C$DW$792       .dwtag  DW_TAG_TI_assign_register, DW_AT_name("SATD")
    9954                      .dwattr $C$DW$792, DW_AT_location[DW_OP_regx 0x4d]
    9955              $C$DW$793       .dwtag  DW_TAG_TI_assign_register, DW_AT_name("RDM")
    9956                      .dwattr $C$DW$793, DW_AT_location[DW_OP_regx 0x4e]
    9957              $C$DW$794       .dwtag  DW_TAG_TI_assign_register, DW_AT_name("FRCT")
    9958                      .dwattr $C$DW$794, DW_AT_location[DW_OP_regx 0x4f]
    9959              $C$DW$795       .dwtag  DW_TAG_TI_assign_register, DW_AT_name("SMUL")
    9960                      .dwattr $C$DW$795, DW_AT_location[DW_OP_regx 0x50]
    9961              $C$DW$796       .dwtag  DW_TAG_TI_assign_register, DW_AT_name("INTM")
    9962                      .dwattr $C$DW$796, DW_AT_location[DW_OP_regx 0x51]
    9963              $C$DW$797       .dwtag  DW_TAG_TI_assign_register, DW_AT_name("AR0LC")
    9964                      .dwattr $C$DW$797, DW_AT_location[DW_OP_regx 0x52]
    9965              $C$DW$798       .dwtag  DW_TAG_TI_assign_register, DW_AT_name("AR1LC")
    9966                      .dwattr $C$DW$798, DW_AT_location[DW_OP_regx 0x53]
    9967              $C$DW$799       .dwtag  DW_TAG_TI_assign_register, DW_AT_name("AR2LC")
    9968                      .dwattr $C$DW$799, DW_AT_location[DW_OP_regx 0x54]
    9969              $C$DW$800       .dwtag  DW_TAG_TI_assign_register, DW_AT_name("AR3LC")
    9970                      .dwattr $C$DW$800, DW_AT_location[DW_OP_regx 0x55]
    9971              $C$DW$801       .dwtag  DW_TAG_TI_assign_register, DW_AT_name("AR4LC")
    9972                      .dwattr $C$DW$801, DW_AT_location[DW_OP_regx 0x56]
    9973              $C$DW$802       .dwtag  DW_TAG_TI_assign_register, DW_AT_name("AR5LC")
    9974                      .dwattr $C$DW$802, DW_AT_location[DW_OP_regx 0x57]
    9975              $C$DW$803       .dwtag  DW_TAG_TI_assign_register, DW_AT_name("AR6LC")
    9976                      .dwattr $C$DW$803, DW_AT_location[DW_OP_regx 0x58]
    9977              $C$DW$804       .dwtag  DW_TAG_TI_assign_register, DW_AT_name("AR7LC")
    9978                      .dwattr $C$DW$804, DW_AT_location[DW_OP_regx 0x59]
    9979              $C$DW$805       .dwtag  DW_TAG_TI_assign_register, DW_AT_name("CDPLC")
    9980                      .dwattr $C$DW$805, DW_AT_location[DW_OP_regx 0x5a]
    9981              $C$DW$806       .dwtag  DW_TAG_TI_assign_register, DW_AT_name("CIE_RETA")
    9982                      .dwattr $C$DW$806, DW_AT_location[DW_OP_regx 0x5b]
    9983                      .dwendtag $C$DW$CU
    9984              
    9984              
    9984              

No Assembly Errors, No Assembly Warnings
