TMS320C55x Assembler PC v4.4.1 Tue Oct 02 02:33:57 2018

Tools Copyright (c) 1996-2012 Texas Instruments Incorporated
tasks_sysStk.asm                                                     PAGE    1

    9984              ; Temporary Registers Used: None
       1              ;*******************************************************************************
       2              ;* TMS320C55x C/C++ Codegen                                          PC v4.4.1 *
       3              ;* Date/Time created: Tue Oct 02 02:33:54 2018                                 *
       4              ;*******************************************************************************
       5                      .compiler_opts --hll_source=on --mem_model:code=flat --mem_model:data=large --object_format=coff --si
       6                      .mmregs
       7                      .cpl_on
       8                      .arms_on
       9                      .c54cm_off
      10                      .asg AR6, FP
      11                      .asg XAR6, XFP
      12                      .asg DPH, MDP
      13                      .model call=c55_std
      14                      .model mem=large
      15                      .noremark 5002  ; code respects overwrite rules
      16              ;*******************************************************************************
      17              ;* GLOBAL FILE PARAMETERS                                                      *
      18              ;*                                                                             *
      19              ;*   Architecture       : TMS320C55x                                           *
      20              ;*   Optimizing for     : Speed                                                *
      21              ;*   Memory             : Large Model (23-Bit Data Pointers)                   *
      22              ;*   Calls              : Normal Library ASM calls                             *
      23              ;*   Debug Info         : Standard TI Debug Information                        *
      24              ;*******************************************************************************
      25              
      26              $C$DW$CU        .dwtag  DW_TAG_compile_unit
      27                      .dwattr $C$DW$CU, DW_AT_name("../FreeRTOS/Source/tasks_sysStk.c")
      28                      .dwattr $C$DW$CU, DW_AT_producer("TMS320C55x C/C++ Codegen PC v4.4.1 Copyright (c) 1996-2012 Texas In
      29                      .dwattr $C$DW$CU, DW_AT_TI_version(0x01)
      30                      .dwattr $C$DW$CU, DW_AT_comp_dir("F:\eZdsp-DBG-sim\tmp1\c55x-sim2\foo\Debug")
      31              ;******************************************************************************
      32              ;* CINIT RECORDS                                                              *
      33              ;******************************************************************************
      34 000000               .sect   ".cinit"
      35                      .align  1
      36 000000 0002          .field          2,16
      37 000001 0000-         .field          _wall_clk_ctr+0,24
         000002 0000 
      38 000002 0000          .field          0,8
      39 000003 0000          .field  0,32                    ; _wall_clk_ctr @ 0
         000004 0000 
      40              
      41 000005               .sect   ".cinit"
      42                      .align  1
      43 000005 0002          .field          2,16
      44 000006 0000-         .field          _pxCurrentTCB+0,24
         000007 0400 
      45 000007 0400          .field          0,8
      46 000008 0000          .field  0,32                    ; _pxCurrentTCB @ 0
         000009 0000 
      47              
      48 00000a               .sect   ".cinit"
      49                      .align  1
      50 00000a 0001          .field          1,16
TMS320C55x Assembler PC v4.4.1 Tue Oct 02 02:33:57 2018

Tools Copyright (c) 1996-2012 Texas Instruments Incorporated
tasks_sysStk.asm                                                     PAGE    2

      51 00000b 0000-         .field          _uxDeletedTasksWaitingCleanUp+0,24
         00000c 6400 
      52 00000c 6400          .field          0,8
      53 00000d 0000          .field  0,16                    ; _uxDeletedTasksWaitingCleanUp @ 0
      54              
      55 00000e               .sect   ".cinit"
      56                      .align  1
      57 00000e 0001          .field          1,16
      58 00000f 0000-         .field          _uxCurrentNumberOfTasks+0,24
         000010 6500 
      59 000010 6500          .field          0,8
      60 000011 0000          .field  0,16                    ; _uxCurrentNumberOfTasks @ 0
      61              
      62 000012               .sect   ".cinit"
      63                      .align  1
      64 000012 0002          .field          2,16
      65 000013 0000-         .field          _xTickCount+0,24
         000014 7000 
      66 000014 7000          .field          0,8
      67 000015 0000          .field  0,32                    ; _xTickCount @ 0
         000016 0000 
      68              
      69 000017               .sect   ".cinit"
      70                      .align  1
      71 000017 0001          .field          1,16
      72 000018 0000-         .field          _uxTopReadyPriority+0,24
         000019 7200 
      73 000019 7200          .field          0,8
      74 00001a 0000          .field  0,16                    ; _uxTopReadyPriority @ 0
      75              
      76 00001b               .sect   ".cinit"
      77                      .align  1
      78 00001b 0001          .field          1,16
      79 00001c 0000-         .field          _xSchedulerRunning+0,24
         00001d 7300 
      80 00001d 7300          .field          0,8
      81 00001e 0000          .field  0,16                    ; _xSchedulerRunning @ 0
      82              
      83 00001f               .sect   ".cinit"
      84                      .align  1
      85 00001f 0001          .field          1,16
      86 000020 0000-         .field          _uxPendedTicks+0,24
         000021 7400 
      87 000021 7400          .field          0,8
      88 000022 0000          .field  0,16                    ; _uxPendedTicks @ 0
      89              
      90 000023               .sect   ".cinit"
      91                      .align  1
      92 000023 0001          .field          1,16
      93 000024 0000-         .field          _xYieldPending+0,24
         000025 7500 
      94 000025 7500          .field          0,8
      95 000026 0000          .field  0,16                    ; _xYieldPending @ 0
      96              
      97 000027               .sect   ".cinit"
TMS320C55x Assembler PC v4.4.1 Tue Oct 02 02:33:57 2018

Tools Copyright (c) 1996-2012 Texas Instruments Incorporated
tasks_sysStk.asm                                                     PAGE    3

      98                      .align  1
      99 000027 0001          .field          1,16
     100 000028 0000-         .field          _xNumOfOverflows+0,24
         000029 7600 
     101 000029 7600          .field          0,8
     102 00002a 0000          .field  0,16                    ; _xNumOfOverflows @ 0
     103              
     104 00002b               .sect   ".cinit"
     105                      .align  1
     106 00002b 0001          .field          1,16
     107 00002c 0000-         .field          _uxTaskNumber+0,24
         00002d 7700 
     108 00002d 7700          .field          0,8
     109 00002e 0000          .field  0,16                    ; _uxTaskNumber @ 0
     110              
     111 00002f               .sect   ".cinit"
     112                      .align  1
     113 00002f 0002          .field          2,16
     114 000030 0000-         .field          _xNextTaskUnblockTime+0,24
         000031 7800 
     115 000031 7800          .field          0,8
     116 000032 0000          .field  0,32                    ; _xNextTaskUnblockTime @ 0
         000033 0000 
     117              
     118 000034               .sect   ".cinit"
     119                      .align  1
     120 000034 0002          .field          2,16
     121 000035 0000-         .field          _xIdleTaskHandle+0,24
         000036 7A00 
     122 000036 7A00          .field          0,8
     123 000037 0000          .field  0,32                    ; _xIdleTaskHandle @ 0
         000038 0000 
     124              
     125 000039               .sect   ".cinit"
     126                      .align  1
     127 000039 0001          .field          1,16
     128 00003a 0000-         .field          _uxSchedulerSuspended+0,24
         00003b 7C00 
     129 00003b 7C00          .field          0,8
     130 00003c 0000          .field  0,16                    ; _uxSchedulerSuspended @ 0
     131              
     132              
     133              $C$DW$1 .dwtag  DW_TAG_subprogram, DW_AT_name("memset")
     134                      .dwattr $C$DW$1, DW_AT_TI_symbol_name("_memset")
     135                      .dwattr $C$DW$1, DW_AT_type(*$C$DW$T$3)
     136                      .dwattr $C$DW$1, DW_AT_declaration
     137                      .dwattr $C$DW$1, DW_AT_external
     138              $C$DW$2 .dwtag  DW_TAG_formal_parameter
     139                      .dwattr $C$DW$2, DW_AT_type(*$C$DW$T$3)
     140              $C$DW$3 .dwtag  DW_TAG_formal_parameter
     141                      .dwattr $C$DW$3, DW_AT_type(*$C$DW$T$10)
     142              $C$DW$4 .dwtag  DW_TAG_formal_parameter
     143                      .dwattr $C$DW$4, DW_AT_type(*$C$DW$T$52)
     144                      .dwendtag $C$DW$1
     145              
TMS320C55x Assembler PC v4.4.1 Tue Oct 02 02:33:57 2018

Tools Copyright (c) 1996-2012 Texas Instruments Incorporated
tasks_sysStk.asm                                                     PAGE    4

     146              
     147              $C$DW$5 .dwtag  DW_TAG_subprogram, DW_AT_name("vPortYield")
     148                      .dwattr $C$DW$5, DW_AT_TI_symbol_name("_vPortYield")
     149                      .dwattr $C$DW$5, DW_AT_declaration
     150                      .dwattr $C$DW$5, DW_AT_external
     151              
     152              $C$DW$6 .dwtag  DW_TAG_subprogram, DW_AT_name("pxPortInitialiseStack")
     153                      .dwattr $C$DW$6, DW_AT_TI_symbol_name("_pxPortInitialiseStack")
     154                      .dwattr $C$DW$6, DW_AT_declaration
     155                      .dwattr $C$DW$6, DW_AT_external
     156              $C$DW$7 .dwtag  DW_TAG_formal_parameter
     157                      .dwattr $C$DW$7, DW_AT_type(*$C$DW$T$20)
     158              $C$DW$8 .dwtag  DW_TAG_formal_parameter
     159                      .dwattr $C$DW$8, DW_AT_type(*$C$DW$T$20)
     160              $C$DW$9 .dwtag  DW_TAG_formal_parameter
     161                      .dwattr $C$DW$9, DW_AT_type(*$C$DW$T$62)
     162              $C$DW$10        .dwtag  DW_TAG_formal_parameter
     163                      .dwattr $C$DW$10, DW_AT_type(*$C$DW$T$3)
     164                      .dwendtag $C$DW$6
     165              
     166              
     167              $C$DW$11        .dwtag  DW_TAG_subprogram, DW_AT_name("pvPortMalloc")
     168                      .dwattr $C$DW$11, DW_AT_TI_symbol_name("_pvPortMalloc")
     169                      .dwattr $C$DW$11, DW_AT_type(*$C$DW$T$3)
     170                      .dwattr $C$DW$11, DW_AT_declaration
     171                      .dwattr $C$DW$11, DW_AT_external
     172              $C$DW$12        .dwtag  DW_TAG_formal_parameter
     173                      .dwattr $C$DW$12, DW_AT_type(*$C$DW$T$52)
     174                      .dwendtag $C$DW$11
     175              
     176              
     177              $C$DW$13        .dwtag  DW_TAG_subprogram, DW_AT_name("vPortFree")
     178                      .dwattr $C$DW$13, DW_AT_TI_symbol_name("_vPortFree")
     179                      .dwattr $C$DW$13, DW_AT_declaration
     180                      .dwattr $C$DW$13, DW_AT_external
     181              $C$DW$14        .dwtag  DW_TAG_formal_parameter
     182                      .dwattr $C$DW$14, DW_AT_type(*$C$DW$T$3)
     183                      .dwendtag $C$DW$13
     184              
     185              
     186              $C$DW$15        .dwtag  DW_TAG_subprogram, DW_AT_name("xPortStartScheduler")
     187                      .dwattr $C$DW$15, DW_AT_TI_symbol_name("_xPortStartScheduler")
     188                      .dwattr $C$DW$15, DW_AT_type(*$C$DW$T$43)
     189                      .dwattr $C$DW$15, DW_AT_declaration
     190                      .dwattr $C$DW$15, DW_AT_external
     191              
     192              $C$DW$16        .dwtag  DW_TAG_subprogram, DW_AT_name("vPortEndScheduler")
     193                      .dwattr $C$DW$16, DW_AT_TI_symbol_name("_vPortEndScheduler")
     194                      .dwattr $C$DW$16, DW_AT_declaration
     195                      .dwattr $C$DW$16, DW_AT_external
     196              
     197              $C$DW$17        .dwtag  DW_TAG_subprogram, DW_AT_name("vListInitialise")
     198                      .dwattr $C$DW$17, DW_AT_TI_symbol_name("_vListInitialise")
     199                      .dwattr $C$DW$17, DW_AT_declaration
     200                      .dwattr $C$DW$17, DW_AT_external
TMS320C55x Assembler PC v4.4.1 Tue Oct 02 02:33:57 2018

Tools Copyright (c) 1996-2012 Texas Instruments Incorporated
tasks_sysStk.asm                                                     PAGE    5

     201              $C$DW$18        .dwtag  DW_TAG_formal_parameter
     202                      .dwattr $C$DW$18, DW_AT_type(*$C$DW$T$67)
     203                      .dwendtag $C$DW$17
     204              
     205              
     206              $C$DW$19        .dwtag  DW_TAG_subprogram, DW_AT_name("vListInitialiseItem")
     207                      .dwattr $C$DW$19, DW_AT_TI_symbol_name("_vListInitialiseItem")
     208                      .dwattr $C$DW$19, DW_AT_declaration
     209                      .dwattr $C$DW$19, DW_AT_external
     210              $C$DW$20        .dwtag  DW_TAG_formal_parameter
     211                      .dwattr $C$DW$20, DW_AT_type(*$C$DW$T$70)
     212                      .dwendtag $C$DW$19
     213              
     214              
     215              $C$DW$21        .dwtag  DW_TAG_subprogram, DW_AT_name("vListInsert")
     216                      .dwattr $C$DW$21, DW_AT_TI_symbol_name("_vListInsert")
     217                      .dwattr $C$DW$21, DW_AT_declaration
     218                      .dwattr $C$DW$21, DW_AT_external
     219              $C$DW$22        .dwtag  DW_TAG_formal_parameter
     220                      .dwattr $C$DW$22, DW_AT_type(*$C$DW$T$67)
     221              $C$DW$23        .dwtag  DW_TAG_formal_parameter
     222                      .dwattr $C$DW$23, DW_AT_type(*$C$DW$T$70)
     223                      .dwendtag $C$DW$21
     224              
     225              
     226              $C$DW$24        .dwtag  DW_TAG_subprogram, DW_AT_name("vListInsertEnd")
     227                      .dwattr $C$DW$24, DW_AT_TI_symbol_name("_vListInsertEnd")
     228                      .dwattr $C$DW$24, DW_AT_declaration
     229                      .dwattr $C$DW$24, DW_AT_external
     230              $C$DW$25        .dwtag  DW_TAG_formal_parameter
     231                      .dwattr $C$DW$25, DW_AT_type(*$C$DW$T$67)
     232              $C$DW$26        .dwtag  DW_TAG_formal_parameter
     233                      .dwattr $C$DW$26, DW_AT_type(*$C$DW$T$70)
     234                      .dwendtag $C$DW$24
     235              
     236              
     237              $C$DW$27        .dwtag  DW_TAG_subprogram, DW_AT_name("uxListRemove")
     238                      .dwattr $C$DW$27, DW_AT_TI_symbol_name("_uxListRemove")
     239                      .dwattr $C$DW$27, DW_AT_type(*$C$DW$T$25)
     240                      .dwattr $C$DW$27, DW_AT_declaration
     241                      .dwattr $C$DW$27, DW_AT_external
     242              $C$DW$28        .dwtag  DW_TAG_formal_parameter
     243                      .dwattr $C$DW$28, DW_AT_type(*$C$DW$T$70)
     244                      .dwendtag $C$DW$27
     245              
     246              
     247              $C$DW$29        .dwtag  DW_TAG_subprogram, DW_AT_name("vApplicationMallocFailedHook")
     248                      .dwattr $C$DW$29, DW_AT_TI_symbol_name("_vApplicationMallocFailedHook")
     249                      .dwattr $C$DW$29, DW_AT_declaration
     250                      .dwattr $C$DW$29, DW_AT_external
     251              
     252              $C$DW$30        .dwtag  DW_TAG_subprogram, DW_AT_name("vApplicationIdleHook")
     253                      .dwattr $C$DW$30, DW_AT_TI_symbol_name("_vApplicationIdleHook")
     254                      .dwattr $C$DW$30, DW_AT_declaration
     255                      .dwattr $C$DW$30, DW_AT_external
TMS320C55x Assembler PC v4.4.1 Tue Oct 02 02:33:57 2018

Tools Copyright (c) 1996-2012 Texas Instruments Incorporated
tasks_sysStk.asm                                                     PAGE    6

     256                      .global _wall_clk_ctr
     257 000000               .bss    _wall_clk_ctr,2,0,2
     258              $C$DW$31        .dwtag  DW_TAG_variable, DW_AT_name("wall_clk_ctr")
     259                      .dwattr $C$DW$31, DW_AT_TI_symbol_name("_wall_clk_ctr")
     260                      .dwattr $C$DW$31, DW_AT_location[DW_OP_addr _wall_clk_ctr]
     261                      .dwattr $C$DW$31, DW_AT_type(*$C$DW$T$13)
     262                      .dwattr $C$DW$31, DW_AT_external
     263                      .global _stackStruct
     264 000002               .bss    _stackStruct,2,0,2
     265              $C$DW$32        .dwtag  DW_TAG_variable, DW_AT_name("stackStruct")
     266                      .dwattr $C$DW$32, DW_AT_TI_symbol_name("_stackStruct")
     267                      .dwattr $C$DW$32, DW_AT_location[DW_OP_addr _stackStruct]
     268                      .dwattr $C$DW$32, DW_AT_type(*$C$DW$T$154)
     269                      .dwattr $C$DW$32, DW_AT_external
     270                      .global _pxCurrentTCB
     271 000004               .bss    _pxCurrentTCB,2,0,2
     272              $C$DW$33        .dwtag  DW_TAG_variable, DW_AT_name("pxCurrentTCB")
     273                      .dwattr $C$DW$33, DW_AT_TI_symbol_name("_pxCurrentTCB")
     274                      .dwattr $C$DW$33, DW_AT_location[DW_OP_addr _pxCurrentTCB]
     275                      .dwattr $C$DW$33, DW_AT_type(*$C$DW$T$159)
     276                      .dwattr $C$DW$33, DW_AT_external
     277 000006               .bss    _pxReadyTasksLists,50,0,2
     278              $C$DW$34        .dwtag  DW_TAG_variable, DW_AT_name("pxReadyTasksLists")
     279                      .dwattr $C$DW$34, DW_AT_TI_symbol_name("_pxReadyTasksLists")
     280                      .dwattr $C$DW$34, DW_AT_type(*$C$DW$T$162)
     281                      .dwattr $C$DW$34, DW_AT_location[DW_OP_addr _pxReadyTasksLists]
     282 000038               .bss    _xDelayedTaskList1,10,0,2
     283              $C$DW$35        .dwtag  DW_TAG_variable, DW_AT_name("xDelayedTaskList1")
     284                      .dwattr $C$DW$35, DW_AT_TI_symbol_name("_xDelayedTaskList1")
     285                      .dwattr $C$DW$35, DW_AT_type(*$C$DW$T$65)
     286                      .dwattr $C$DW$35, DW_AT_location[DW_OP_addr _xDelayedTaskList1]
     287 000042               .bss    _xDelayedTaskList2,10,0,2
     288              $C$DW$36        .dwtag  DW_TAG_variable, DW_AT_name("xDelayedTaskList2")
     289                      .dwattr $C$DW$36, DW_AT_TI_symbol_name("_xDelayedTaskList2")
     290                      .dwattr $C$DW$36, DW_AT_type(*$C$DW$T$65)
     291                      .dwattr $C$DW$36, DW_AT_location[DW_OP_addr _xDelayedTaskList2]
     292 00004c               .bss    _pxDelayedTaskList,2,0,2
     293              $C$DW$37        .dwtag  DW_TAG_variable, DW_AT_name("pxDelayedTaskList")
     294                      .dwattr $C$DW$37, DW_AT_TI_symbol_name("_pxDelayedTaskList")
     295                      .dwattr $C$DW$37, DW_AT_type(*$C$DW$T$161)
     296                      .dwattr $C$DW$37, DW_AT_location[DW_OP_addr _pxDelayedTaskList]
     297 00004e               .bss    _pxOverflowDelayedTaskList,2,0,2
     298              $C$DW$38        .dwtag  DW_TAG_variable, DW_AT_name("pxOverflowDelayedTaskList")
     299                      .dwattr $C$DW$38, DW_AT_TI_symbol_name("_pxOverflowDelayedTaskList")
     300                      .dwattr $C$DW$38, DW_AT_type(*$C$DW$T$161)
     301                      .dwattr $C$DW$38, DW_AT_location[DW_OP_addr _pxOverflowDelayedTaskList]
     302 000050               .bss    _xPendingReadyList,10,0,2
     303              $C$DW$39        .dwtag  DW_TAG_variable, DW_AT_name("xPendingReadyList")
     304                      .dwattr $C$DW$39, DW_AT_TI_symbol_name("_xPendingReadyList")
     305                      .dwattr $C$DW$39, DW_AT_type(*$C$DW$T$65)
     306                      .dwattr $C$DW$39, DW_AT_location[DW_OP_addr _xPendingReadyList]
     307 00005a               .bss    _xTasksWaitingTermination,10,0,2
     308              $C$DW$40        .dwtag  DW_TAG_variable, DW_AT_name("xTasksWaitingTermination")
     309                      .dwattr $C$DW$40, DW_AT_TI_symbol_name("_xTasksWaitingTermination")
     310                      .dwattr $C$DW$40, DW_AT_type(*$C$DW$T$65)
TMS320C55x Assembler PC v4.4.1 Tue Oct 02 02:33:57 2018

Tools Copyright (c) 1996-2012 Texas Instruments Incorporated
tasks_sysStk.asm                                                     PAGE    7

     311                      .dwattr $C$DW$40, DW_AT_location[DW_OP_addr _xTasksWaitingTermination]
     312 000064               .bss    _uxDeletedTasksWaitingCleanUp,1,0,0
     313              $C$DW$41        .dwtag  DW_TAG_variable, DW_AT_name("uxDeletedTasksWaitingCleanUp")
     314                      .dwattr $C$DW$41, DW_AT_TI_symbol_name("_uxDeletedTasksWaitingCleanUp")
     315                      .dwattr $C$DW$41, DW_AT_type(*$C$DW$T$33)
     316                      .dwattr $C$DW$41, DW_AT_location[DW_OP_addr _uxDeletedTasksWaitingCleanUp]
     317 000066               .bss    _xSuspendedTaskList,10,0,2
     318              $C$DW$42        .dwtag  DW_TAG_variable, DW_AT_name("xSuspendedTaskList")
     319                      .dwattr $C$DW$42, DW_AT_TI_symbol_name("_xSuspendedTaskList")
     320                      .dwattr $C$DW$42, DW_AT_type(*$C$DW$T$65)
     321                      .dwattr $C$DW$42, DW_AT_location[DW_OP_addr _xSuspendedTaskList]
     322 000065               .bss    _uxCurrentNumberOfTasks,1,0,0
     323              $C$DW$43        .dwtag  DW_TAG_variable, DW_AT_name("uxCurrentNumberOfTasks")
     324                      .dwattr $C$DW$43, DW_AT_TI_symbol_name("_uxCurrentNumberOfTasks")
     325                      .dwattr $C$DW$43, DW_AT_type(*$C$DW$T$33)
     326                      .dwattr $C$DW$43, DW_AT_location[DW_OP_addr _uxCurrentNumberOfTasks]
     327 000070               .bss    _xTickCount,2,0,2
     328              $C$DW$44        .dwtag  DW_TAG_variable, DW_AT_name("xTickCount")
     329                      .dwattr $C$DW$44, DW_AT_TI_symbol_name("_xTickCount")
     330                      .dwattr $C$DW$44, DW_AT_type(*$C$DW$T$146)
     331                      .dwattr $C$DW$44, DW_AT_location[DW_OP_addr _xTickCount]
     332 000072               .bss    _uxTopReadyPriority,1,0,0
     333              $C$DW$45        .dwtag  DW_TAG_variable, DW_AT_name("uxTopReadyPriority")
     334                      .dwattr $C$DW$45, DW_AT_TI_symbol_name("_uxTopReadyPriority")
     335                      .dwattr $C$DW$45, DW_AT_type(*$C$DW$T$33)
     336                      .dwattr $C$DW$45, DW_AT_location[DW_OP_addr _uxTopReadyPriority]
     337 000073               .bss    _xSchedulerRunning,1,0,0
     338              $C$DW$46        .dwtag  DW_TAG_variable, DW_AT_name("xSchedulerRunning")
     339                      .dwattr $C$DW$46, DW_AT_TI_symbol_name("_xSchedulerRunning")
     340                      .dwattr $C$DW$46, DW_AT_type(*$C$DW$T$118)
     341                      .dwattr $C$DW$46, DW_AT_location[DW_OP_addr _xSchedulerRunning]
     342 000074               .bss    _uxPendedTicks,1,0,0
     343              $C$DW$47        .dwtag  DW_TAG_variable, DW_AT_name("uxPendedTicks")
     344                      .dwattr $C$DW$47, DW_AT_TI_symbol_name("_uxPendedTicks")
     345                      .dwattr $C$DW$47, DW_AT_type(*$C$DW$T$33)
     346                      .dwattr $C$DW$47, DW_AT_location[DW_OP_addr _uxPendedTicks]
     347 000075               .bss    _xYieldPending,1,0,0
     348              $C$DW$48        .dwtag  DW_TAG_variable, DW_AT_name("xYieldPending")
     349                      .dwattr $C$DW$48, DW_AT_TI_symbol_name("_xYieldPending")
     350                      .dwattr $C$DW$48, DW_AT_type(*$C$DW$T$118)
     351                      .dwattr $C$DW$48, DW_AT_location[DW_OP_addr _xYieldPending]
     352 000076               .bss    _xNumOfOverflows,1,0,0
     353              $C$DW$49        .dwtag  DW_TAG_variable, DW_AT_name("xNumOfOverflows")
     354                      .dwattr $C$DW$49, DW_AT_TI_symbol_name("_xNumOfOverflows")
     355                      .dwattr $C$DW$49, DW_AT_type(*$C$DW$T$118)
     356                      .dwattr $C$DW$49, DW_AT_location[DW_OP_addr _xNumOfOverflows]
     357 000077               .bss    _uxTaskNumber,1,0,0
     358              $C$DW$50        .dwtag  DW_TAG_variable, DW_AT_name("uxTaskNumber")
     359                      .dwattr $C$DW$50, DW_AT_TI_symbol_name("_uxTaskNumber")
     360                      .dwattr $C$DW$50, DW_AT_type(*$C$DW$T$25)
     361                      .dwattr $C$DW$50, DW_AT_location[DW_OP_addr _uxTaskNumber]
     362 000078               .bss    _xNextTaskUnblockTime,2,0,2
     363              $C$DW$51        .dwtag  DW_TAG_variable, DW_AT_name("xNextTaskUnblockTime")
     364                      .dwattr $C$DW$51, DW_AT_TI_symbol_name("_xNextTaskUnblockTime")
     365                      .dwattr $C$DW$51, DW_AT_type(*$C$DW$T$146)
TMS320C55x Assembler PC v4.4.1 Tue Oct 02 02:33:57 2018

Tools Copyright (c) 1996-2012 Texas Instruments Incorporated
tasks_sysStk.asm                                                     PAGE    8

     366                      .dwattr $C$DW$51, DW_AT_location[DW_OP_addr _xNextTaskUnblockTime]
     367 00007a               .bss    _xIdleTaskHandle,2,0,2
     368              $C$DW$52        .dwtag  DW_TAG_variable, DW_AT_name("xIdleTaskHandle")
     369                      .dwattr $C$DW$52, DW_AT_TI_symbol_name("_xIdleTaskHandle")
     370                      .dwattr $C$DW$52, DW_AT_type(*$C$DW$T$48)
     371                      .dwattr $C$DW$52, DW_AT_location[DW_OP_addr _xIdleTaskHandle]
     372 00007c               .bss    _uxSchedulerSuspended,1,0,0
     373              $C$DW$53        .dwtag  DW_TAG_variable, DW_AT_name("uxSchedulerSuspended")
     374                      .dwattr $C$DW$53, DW_AT_TI_symbol_name("_uxSchedulerSuspended")
     375                      .dwattr $C$DW$53, DW_AT_type(*$C$DW$T$33)
     376                      .dwattr $C$DW$53, DW_AT_location[DW_OP_addr _uxSchedulerSuspended]
     377              $C$DW$54        .dwtag  DW_TAG_variable, DW_AT_name("usCriticalNesting")
     378                      .dwattr $C$DW$54, DW_AT_TI_symbol_name("_usCriticalNesting")
     379                      .dwattr $C$DW$54, DW_AT_type(*$C$DW$T$143)
     380                      .dwattr $C$DW$54, DW_AT_declaration
     381                      .dwattr $C$DW$54, DW_AT_external
     382              ;       F:\t\cc5p5\ccsv5\tools\compiler\c5500_4.4.1\bin\acp55.exe -@f:\\AppData\\Local\\Temp\\1477612 
     383 000000               .sect   ".text"
     384                      .align 4
     385                      .global _xTaskCreate
     386              
     387              $C$DW$55        .dwtag  DW_TAG_subprogram, DW_AT_name("xTaskCreate")
     388                      .dwattr $C$DW$55, DW_AT_low_pc(_xTaskCreate)
     389                      .dwattr $C$DW$55, DW_AT_high_pc(0x00)
     390                      .dwattr $C$DW$55, DW_AT_TI_symbol_name("_xTaskCreate")
     391                      .dwattr $C$DW$55, DW_AT_external
     392                      .dwattr $C$DW$55, DW_AT_type(*$C$DW$T$43)
     393                      .dwattr $C$DW$55, DW_AT_TI_begin_file("../FreeRTOS/Source/tasks_sysStk.c")
     394                      .dwattr $C$DW$55, DW_AT_TI_begin_line(0x2f3)
     395                      .dwattr $C$DW$55, DW_AT_TI_begin_column(0x0d)
     396                      .dwattr $C$DW$55, DW_AT_TI_max_frame_size(0x16)
     397                      .dwpsn  file "../FreeRTOS/Source/tasks_sysStk.c",line 761,column 2,is_stmt,address _xTaskCreate
     398              
     399                      .dwfde $C$DW$CIE, _xTaskCreate
     400              $C$DW$56        .dwtag  DW_TAG_formal_parameter, DW_AT_name("pxTaskCode")
     401                      .dwattr $C$DW$56, DW_AT_TI_symbol_name("_pxTaskCode")
     402                      .dwattr $C$DW$56, DW_AT_type(*$C$DW$T$62)
     403                      .dwattr $C$DW$56, DW_AT_location[DW_OP_reg1]
     404              $C$DW$57        .dwtag  DW_TAG_formal_parameter, DW_AT_name("pcName")
     405                      .dwattr $C$DW$57, DW_AT_TI_symbol_name("_pcName")
     406                      .dwattr $C$DW$57, DW_AT_type(*$C$DW$T$77)
     407                      .dwattr $C$DW$57, DW_AT_location[DW_OP_reg17]
     408              $C$DW$58        .dwtag  DW_TAG_formal_parameter, DW_AT_name("usStackDepth")
     409                      .dwattr $C$DW$58, DW_AT_TI_symbol_name("_usStackDepth")
     410                      .dwattr $C$DW$58, DW_AT_type(*$C$DW$T$122)
     411                      .dwattr $C$DW$58, DW_AT_location[DW_OP_reg12]
     412              $C$DW$59        .dwtag  DW_TAG_formal_parameter, DW_AT_name("pvParameters")
     413                      .dwattr $C$DW$59, DW_AT_TI_symbol_name("_pvParameters")
     414                      .dwattr $C$DW$59, DW_AT_type(*$C$DW$T$57)
     415                      .dwattr $C$DW$59, DW_AT_location[DW_OP_reg19]
     416              $C$DW$60        .dwtag  DW_TAG_formal_parameter, DW_AT_name("uxPriority")
     417                      .dwattr $C$DW$60, DW_AT_TI_symbol_name("_uxPriority")
     418                      .dwattr $C$DW$60, DW_AT_type(*$C$DW$T$25)
     419                      .dwattr $C$DW$60, DW_AT_location[DW_OP_reg13]
     420              $C$DW$61        .dwtag  DW_TAG_formal_parameter, DW_AT_name("pxCreatedTask")
TMS320C55x Assembler PC v4.4.1 Tue Oct 02 02:33:57 2018

Tools Copyright (c) 1996-2012 Texas Instruments Incorporated
tasks_sysStk.asm                                                     PAGE    9

     421                      .dwattr $C$DW$61, DW_AT_TI_symbol_name("_pxCreatedTask")
     422                      .dwattr $C$DW$61, DW_AT_type(*$C$DW$T$80)
     423                      .dwattr $C$DW$61, DW_AT_location[DW_OP_reg21]
     424              ;*******************************************************************************
     425              ;* FUNCTION NAME: xTaskCreate                                                  *
     426              ;*                                                                             *
     427              ;*   Function Uses Regs : AC0,AC0,AC1,AC1,T0,T1,AR0,XAR0,AR1,XAR1,AR2,XAR2,AR3,*
     428              ;*                        XAR3,AR4,XAR4,SP,M40,SATA,SATD,RDM,FRCT,SMUL         *
     429              ;*   Stack Frame        : Compact (No Frame Pointer, w/ debug)                 *
     430              ;*   Total Frame Size   : 22 words                                             *
     431              ;*                        (2 return address/alignment)                         *
     432              ;*                        (20 local values)                                    *
     433              ;*   Min System Stack   : 1 word                                               *
     434              ;*******************************************************************************
     435 000000       _xTaskCreate:
     436                      .dwcfi  cfa_offset, 1
     437                      .dwcfi  save_reg_to_mem, 91, -1
     438 000000 4EEB          AADD #-21, SP
     439                      .dwcfi  cfa_offset, 22
     440              $C$DW$62        .dwtag  DW_TAG_variable, DW_AT_name("pxTaskCode")
     441                      .dwattr $C$DW$62, DW_AT_TI_symbol_name("_pxTaskCode")
     442                      .dwattr $C$DW$62, DW_AT_type(*$C$DW$T$62)
     443                      .dwattr $C$DW$62, DW_AT_location[DW_OP_bregx 0x24 0]
     444              $C$DW$63        .dwtag  DW_TAG_variable, DW_AT_name("pcName")
     445                      .dwattr $C$DW$63, DW_AT_TI_symbol_name("_pcName")
     446                      .dwattr $C$DW$63, DW_AT_type(*$C$DW$T$77)
     447                      .dwattr $C$DW$63, DW_AT_location[DW_OP_bregx 0x24 2]
     448              $C$DW$64        .dwtag  DW_TAG_variable, DW_AT_name("usStackDepth")
     449                      .dwattr $C$DW$64, DW_AT_TI_symbol_name("_usStackDepth")
     450                      .dwattr $C$DW$64, DW_AT_type(*$C$DW$T$122)
     451                      .dwattr $C$DW$64, DW_AT_location[DW_OP_bregx 0x24 4]
     452              $C$DW$65        .dwtag  DW_TAG_variable, DW_AT_name("pvParameters")
     453                      .dwattr $C$DW$65, DW_AT_TI_symbol_name("_pvParameters")
     454                      .dwattr $C$DW$65, DW_AT_type(*$C$DW$T$57)
     455                      .dwattr $C$DW$65, DW_AT_location[DW_OP_bregx 0x24 6]
     456              $C$DW$66        .dwtag  DW_TAG_variable, DW_AT_name("uxPriority")
     457                      .dwattr $C$DW$66, DW_AT_TI_symbol_name("_uxPriority")
     458                      .dwattr $C$DW$66, DW_AT_type(*$C$DW$T$25)
     459                      .dwattr $C$DW$66, DW_AT_location[DW_OP_bregx 0x24 8]
     460              $C$DW$67        .dwtag  DW_TAG_variable, DW_AT_name("pxCreatedTask")
     461                      .dwattr $C$DW$67, DW_AT_TI_symbol_name("_pxCreatedTask")
     462                      .dwattr $C$DW$67, DW_AT_type(*$C$DW$T$80)
     463                      .dwattr $C$DW$67, DW_AT_location[DW_OP_bregx 0x24 10]
     464              $C$DW$68        .dwtag  DW_TAG_variable, DW_AT_name("pxNewTCB")
     465                      .dwattr $C$DW$68, DW_AT_TI_symbol_name("_pxNewTCB")
     466                      .dwattr $C$DW$68, DW_AT_type(*$C$DW$T$83)
     467                      .dwattr $C$DW$68, DW_AT_location[DW_OP_bregx 0x24 12]
     468              $C$DW$69        .dwtag  DW_TAG_variable, DW_AT_name("xReturn")
     469                      .dwattr $C$DW$69, DW_AT_TI_symbol_name("_xReturn")
     470                      .dwattr $C$DW$69, DW_AT_type(*$C$DW$T$43)
     471                      .dwattr $C$DW$69, DW_AT_location[DW_OP_bregx 0x24 14]
     472              $C$DW$70        .dwtag  DW_TAG_variable, DW_AT_name("pxStack")
     473                      .dwattr $C$DW$70, DW_AT_TI_symbol_name("_pxStack")
     474                      .dwattr $C$DW$70, DW_AT_type(*$C$DW$T$20)
     475                      .dwattr $C$DW$70, DW_AT_location[DW_OP_bregx 0x24 16]
TMS320C55x Assembler PC v4.4.1 Tue Oct 02 02:33:57 2018

Tools Copyright (c) 1996-2012 Texas Instruments Incorporated
tasks_sysStk.asm                                                     PAGE   10

     476              $C$DW$71        .dwtag  DW_TAG_variable, DW_AT_name("pxSysStack")
     477                      .dwattr $C$DW$71, DW_AT_TI_symbol_name("_pxSysStack")
     478                      .dwattr $C$DW$71, DW_AT_type(*$C$DW$T$20)
     479                      .dwattr $C$DW$71, DW_AT_location[DW_OP_bregx 0x24 18]
     480 000002 EB14          MOV XAR2, dbl(*SP(#10))
         000004 A5   
     481 000005 C510          MOV T1, *SP(#8) ; |761| 
     482 000007 EB0C          MOV XAR1, dbl(*SP(#6))
         000009 95   
     483 00000a C408          MOV T0, *SP(#4) ; |761| 
     484 00000c EB04          MOV XAR0, dbl(*SP(#2))
         00000e 85   
     485 00000f EB00          MOV AC0, dbl(*SP(#0)) ; |761| 
         000011 08   
     486                      .dwpsn  file "../FreeRTOS/Source/tasks_sysStk.c",line 799,column 4,is_stmt
     487 000012 A408          MOV *SP(#4), T0 ; |799| 
     488              $C$DW$72        .dwtag  DW_TAG_TI_branch
     489                      .dwattr $C$DW$72, DW_AT_low_pc(0x00)
     490                      .dwattr $C$DW$72, DW_AT_name("_pvPortMalloc")
     491                      .dwattr $C$DW$72, DW_AT_TI_call
     492 000014 6C00          CALL #_pvPortMalloc ; |799| 
         000016 0000!
     493                                                      ; call occurs [#_pvPortMalloc] ; |799| 
     494 000018 EB20          MOV XAR0, dbl(*SP(#16))
         00001a 85   
     495                      .dwpsn  file "../FreeRTOS/Source/tasks_sysStk.c",line 800,column 4,is_stmt
     496 00001b A408          MOV *SP(#4), T0 ; |800| 
     497              $C$DW$73        .dwtag  DW_TAG_TI_branch
     498                      .dwattr $C$DW$73, DW_AT_low_pc(0x00)
     499                      .dwattr $C$DW$73, DW_AT_name("_pvPortMalloc")
     500                      .dwattr $C$DW$73, DW_AT_TI_call
     501 00001d 6C00          CALL #_pvPortMalloc ; |800| 
         00001f 0000!
     502                                                      ; call occurs [#_pvPortMalloc] ; |800| 
     503 000021 EB24          MOV XAR0, dbl(*SP(#18))
         000023 85   
     504                      .dwpsn  file "../FreeRTOS/Source/tasks_sysStk.c",line 802,column 4,is_stmt
     505 000024 ED20          MOV dbl(*SP(#16)), XAR3
         000026 BF   
     506 000027 90B0          MOV XAR3, AC0
     507 000029 0400          BCC $C$L2,AC0 == #0 ; |802| 
         00002b 43   
     508                                                      ; branchcc occurs ; |802| 
     509 00002c ED24          MOV dbl(*SP(#18)), XAR3
         00002e BF   
     510 00002f 90B0          MOV XAR3, AC0
     511 000031 0400          BCC $C$L2,AC0 == #0 ; |802| 
         000033 3B   
     512                                                      ; branchcc occurs ; |802| 
     513                      .dwpsn  file "../FreeRTOS/Source/tasks_sysStk.c",line 805,column 5,is_stmt
     514 000034 7600          MOV #50, T0 ; |805| 
         000036 3248 
     515              $C$DW$74        .dwtag  DW_TAG_TI_branch
     516                      .dwattr $C$DW$74, DW_AT_low_pc(0x00)
     517                      .dwattr $C$DW$74, DW_AT_name("_pvPortMalloc")
TMS320C55x Assembler PC v4.4.1 Tue Oct 02 02:33:57 2018

Tools Copyright (c) 1996-2012 Texas Instruments Incorporated
tasks_sysStk.asm                                                     PAGE   11

     518                      .dwattr $C$DW$74, DW_AT_TI_call
     519 000038 6C00          CALL #_pvPortMalloc ; |805| 
         00003a 0000!
     520                                                      ; call occurs [#_pvPortMalloc] ; |805| 
     521 00003c EB18          MOV XAR0, dbl(*SP(#12))
         00003e 85   
     522                      .dwpsn  file "../FreeRTOS/Source/tasks_sysStk.c",line 807,column 5,is_stmt
     523 00003f ED18          MOV dbl(*SP(#12)), XAR3
         000041 BF   
     524 000042 90B0          MOV XAR3, AC0
     525 000044 0400          BCC $C$L1,AC0 == #0 ; |807| 
         000046 18   
     526                                                      ; branchcc occurs ; |807| 
     527                      .dwpsn  file "../FreeRTOS/Source/tasks_sysStk.c",line 810,column 6,is_stmt
     528 000047 ED18          MOV dbl(*SP(#12)), XAR2
         000049 AF   
     529 00004a ED20          MOV dbl(*SP(#16)), XAR3
         00004c BF   
     530 00004d EB4D          MOV XAR3, dbl(*AR2(#26))
         00004f B500 
         000051 1A   
     531                      .dwpsn  file "../FreeRTOS/Source/tasks_sysStk.c",line 811,column 6,is_stmt
     532 000052 ED18          MOV dbl(*SP(#12)), XAR2
         000054 AF   
     533 000055 ED24          MOV dbl(*SP(#18)), XAR3
         000057 BF   
     534 000058 EB4D          MOV XAR3, dbl(*AR2(#28))
         00005a B500 
         00005c 1C   
     535                      .dwpsn  file "../FreeRTOS/Source/tasks_sysStk.c",line 812,column 5,is_stmt
     536 00005d 4A15          B $C$L3   ; |812| 
     537                                                      ; branch occurs ; |812| 
     538 00005f       $C$L1:    
     539                      .dwpsn  file "../FreeRTOS/Source/tasks_sysStk.c",line 817,column 6,is_stmt
     540 00005f ED20          MOV dbl(*SP(#16)), XAR0
         000061 8F   
     541              $C$DW$75        .dwtag  DW_TAG_TI_branch
     542                      .dwattr $C$DW$75, DW_AT_low_pc(0x00)
     543                      .dwattr $C$DW$75, DW_AT_name("_vPortFree")
     544                      .dwattr $C$DW$75, DW_AT_TI_call
     545 000062 6C00          CALL #_vPortFree ; |817| 
         000064 0000!
     546                                                      ; call occurs [#_vPortFree] ; |817| 
     547                      .dwpsn  file "../FreeRTOS/Source/tasks_sysStk.c",line 818,column 6,is_stmt
     548 000066 ED24          MOV dbl(*SP(#18)), XAR0
         000068 8F   
     549              $C$DW$76        .dwtag  DW_TAG_TI_branch
     550                      .dwattr $C$DW$76, DW_AT_low_pc(0x00)
     551                      .dwattr $C$DW$76, DW_AT_name("_vPortFree")
     552                      .dwattr $C$DW$76, DW_AT_TI_call
     553 000069 6C00          CALL #_vPortFree ; |818| 
         00006b 0000!
     554                                                      ; call occurs [#_vPortFree] ; |818| 
     555                      .dwpsn  file "../FreeRTOS/Source/tasks_sysStk.c",line 820,column 4,is_stmt
     556 00006d 4A05          B $C$L3   ; |820| 
TMS320C55x Assembler PC v4.4.1 Tue Oct 02 02:33:57 2018

Tools Copyright (c) 1996-2012 Texas Instruments Incorporated
tasks_sysStk.asm                                                     PAGE   12

     557                                                      ; branch occurs ; |820| 
     558 00006f       $C$L2:    
     559                      .dwpsn  file "../FreeRTOS/Source/tasks_sysStk.c",line 823,column 5,is_stmt
     560 00006f 3C00          MOV #0, AC0 ; |823| 
     561 000071 EB18          MOV AC0, dbl(*SP(#12))
         000073 08   
     562 000074       $C$L3:    
     563                      .dwpsn  file "../FreeRTOS/Source/tasks_sysStk.c",line 828,column 3,is_stmt
     564 000074 ED18          MOV dbl(*SP(#12)), XAR3
         000076 BF   
     565 000077 90B0          MOV XAR3, AC0
     566 000079 0400          BCC $C$L4,AC0 == #0 ; |828| 
         00007b 25   
     567                                                      ; branchcc occurs ; |828| 
     568                      .dwpsn  file "../FreeRTOS/Source/tasks_sysStk.c",line 838,column 4,is_stmt
     569 00007c DF08          MOV uns(*SP(#4)), AC1 ; |838| 
         00007e 15   
     570 00007f ED00          MOV dbl(*SP(#0)), AC0 ; |838| 
         000081 08   
     571 000082 ED04          MOV dbl(*SP(#2)), XAR0
         000084 8F   
     572 000085 ED0C          MOV dbl(*SP(#6)), XAR1
         000087 9F   
     573 000088 A410          MOV *SP(#8), T0 ; |838| 
     574 00008a ED14          MOV dbl(*SP(#10)), XAR2
         00008c AF   
     575 00008d EC31          AMOV #0, XAR4 ; |838| 
         00008f CE00 
         000091 0000 
     576              $C$DW$77        .dwtag  DW_TAG_TI_branch
     577                      .dwattr $C$DW$77, DW_AT_low_pc(0x00)
     578                      .dwattr $C$DW$77, DW_AT_name("_prvInitialiseNewTask")
     579                      .dwattr $C$DW$77, DW_AT_TI_call
     580 000093 0800          CALL #_prvInitialiseNewTask ; |838| 
         000095 16   
     581                                                      ; call occurs [#_prvInitialiseNewTask] ; |838| 
     582                      .dwpsn  file "../FreeRTOS/Source/tasks_sysStk.c",line 839,column 4,is_stmt
     583 000096 ED18          MOV dbl(*SP(#12)), XAR0
         000098 8F   
     584              $C$DW$78        .dwtag  DW_TAG_TI_branch
     585                      .dwattr $C$DW$78, DW_AT_low_pc(0x00)
     586                      .dwattr $C$DW$78, DW_AT_name("_prvAddNewTaskToReadyList")
     587                      .dwattr $C$DW$78, DW_AT_TI_call
     588 000099 0802          CALL #_prvAddNewTaskToReadyList ; |839| 
         00009b 08   
     589                                                      ; call occurs [#_prvAddNewTaskToReadyList] ; |839| 
     590                      .dwpsn  file "../FreeRTOS/Source/tasks_sysStk.c",line 840,column 4,is_stmt
     591 00009c E61C          MOV #1, *SP(#14) ; |840| 
         00009e 01   
     592                      .dwpsn  file "../FreeRTOS/Source/tasks_sysStk.c",line 841,column 3,is_stmt
     593 00009f 4A03          B $C$L5   ; |841| 
     594                                                      ; branch occurs ; |841| 
     595 0000a1       $C$L4:    
     596                      .dwpsn  file "../FreeRTOS/Source/tasks_sysStk.c",line 844,column 4,is_stmt
     597 0000a1 E61C          MOV #-1, *SP(#14) ; |844| 
TMS320C55x Assembler PC v4.4.1 Tue Oct 02 02:33:57 2018

Tools Copyright (c) 1996-2012 Texas Instruments Incorporated
tasks_sysStk.asm                                                     PAGE   13

         0000a3 FF   
     598 0000a4       $C$L5:    
     599                      .dwpsn  file "../FreeRTOS/Source/tasks_sysStk.c",line 847,column 3,is_stmt
     600 0000a4 A41C          MOV *SP(#14), T0 ; |847| 
     601                      .dwpsn  file "../FreeRTOS/Source/tasks_sysStk.c",line 848,column 2,is_stmt
     602 0000a6 4E15          AADD #21, SP
     603                      .dwcfi  cfa_offset, 1
     604              $C$DW$79        .dwtag  DW_TAG_TI_branch
     605                      .dwattr $C$DW$79, DW_AT_low_pc(0x00)
     606                      .dwattr $C$DW$79, DW_AT_TI_return
     607 0000a8 4804          RET
     608                                                      ; return occurs
     609                      .dwattr $C$DW$55, DW_AT_TI_end_file("../FreeRTOS/Source/tasks_sysStk.c")
     610                      .dwattr $C$DW$55, DW_AT_TI_end_line(0x350)
     611                      .dwattr $C$DW$55, DW_AT_TI_end_column(0x02)
     612                      .dwendentry
     613                      .dwendtag $C$DW$55
     614              
     615 0000aa               .sect   ".text"
     616                      .align 4
     617              
     618              $C$DW$80        .dwtag  DW_TAG_subprogram, DW_AT_name("prvInitialiseNewTask")
     619                      .dwattr $C$DW$80, DW_AT_low_pc(_prvInitialiseNewTask)
     620                      .dwattr $C$DW$80, DW_AT_high_pc(0x00)
     621                      .dwattr $C$DW$80, DW_AT_TI_symbol_name("_prvInitialiseNewTask")
     622                      .dwattr $C$DW$80, DW_AT_TI_begin_file("../FreeRTOS/Source/tasks_sysStk.c")
     623                      .dwattr $C$DW$80, DW_AT_TI_begin_line(0x355)
     624                      .dwattr $C$DW$80, DW_AT_TI_begin_column(0x0d)
     625                      .dwattr $C$DW$80, DW_AT_TI_max_frame_size(0x16)
     626                      .dwpsn  file "../FreeRTOS/Source/tasks_sysStk.c",line 861,column 1,is_stmt,address _prvInitialiseNewT
     627              
     628                      .dwfde $C$DW$CIE, _prvInitialiseNewTask
     629              $C$DW$81        .dwtag  DW_TAG_formal_parameter, DW_AT_name("pxTaskCode")
     630                      .dwattr $C$DW$81, DW_AT_TI_symbol_name("_pxTaskCode")
     631                      .dwattr $C$DW$81, DW_AT_type(*$C$DW$T$62)
     632                      .dwattr $C$DW$81, DW_AT_location[DW_OP_reg1]
     633              $C$DW$82        .dwtag  DW_TAG_formal_parameter, DW_AT_name("pcName")
     634                      .dwattr $C$DW$82, DW_AT_TI_symbol_name("_pcName")
     635                      .dwattr $C$DW$82, DW_AT_type(*$C$DW$T$77)
     636                      .dwattr $C$DW$82, DW_AT_location[DW_OP_reg17]
     637              $C$DW$83        .dwtag  DW_TAG_formal_parameter, DW_AT_name("ulStackDepth")
     638                      .dwattr $C$DW$83, DW_AT_TI_symbol_name("_ulStackDepth")
     639                      .dwattr $C$DW$83, DW_AT_type(*$C$DW$T$78)
     640                      .dwattr $C$DW$83, DW_AT_location[DW_OP_reg3]
     641              $C$DW$84        .dwtag  DW_TAG_formal_parameter, DW_AT_name("pvParameters")
     642                      .dwattr $C$DW$84, DW_AT_TI_symbol_name("_pvParameters")
     643                      .dwattr $C$DW$84, DW_AT_type(*$C$DW$T$57)
     644                      .dwattr $C$DW$84, DW_AT_location[DW_OP_reg19]
     645              $C$DW$85        .dwtag  DW_TAG_formal_parameter, DW_AT_name("uxPriority")
     646                      .dwattr $C$DW$85, DW_AT_TI_symbol_name("_uxPriority")
     647                      .dwattr $C$DW$85, DW_AT_type(*$C$DW$T$25)
     648                      .dwattr $C$DW$85, DW_AT_location[DW_OP_reg12]
     649              $C$DW$86        .dwtag  DW_TAG_formal_parameter, DW_AT_name("pxCreatedTask")
     650                      .dwattr $C$DW$86, DW_AT_TI_symbol_name("_pxCreatedTask")
     651                      .dwattr $C$DW$86, DW_AT_type(*$C$DW$T$80)
TMS320C55x Assembler PC v4.4.1 Tue Oct 02 02:33:57 2018

Tools Copyright (c) 1996-2012 Texas Instruments Incorporated
tasks_sysStk.asm                                                     PAGE   14

     652                      .dwattr $C$DW$86, DW_AT_location[DW_OP_reg21]
     653              $C$DW$87        .dwtag  DW_TAG_formal_parameter, DW_AT_name("pxNewTCB")
     654                      .dwattr $C$DW$87, DW_AT_TI_symbol_name("_pxNewTCB")
     655                      .dwattr $C$DW$87, DW_AT_type(*$C$DW$T$83)
     656                      .dwattr $C$DW$87, DW_AT_location[DW_OP_reg23]
     657              $C$DW$88        .dwtag  DW_TAG_formal_parameter, DW_AT_name("xRegions")
     658                      .dwattr $C$DW$88, DW_AT_TI_symbol_name("_xRegions")
     659                      .dwattr $C$DW$88, DW_AT_type(*$C$DW$T$87)
     660                      .dwattr $C$DW$88, DW_AT_location[DW_OP_reg25]
     661              ;*******************************************************************************
     662              ;* FUNCTION NAME: prvInitialiseNewTask                                         *
     663              ;*                                                                             *
     664              ;*   Function Uses Regs : AC0,AC0,AC1,AC1,T0,T1,AR0,XAR0,AR1,XAR1,AR2,XAR2,AR3,*
     665              ;*                        XAR3,AR4,XAR4,SP,CARRY,TC1,M40,SATA,SATD,RDM,FRCT,   *
     666              ;*                        SMUL                                                 *
     667              ;*   Stack Frame        : Compact (No Frame Pointer, w/ debug)                 *
     668              ;*   Total Frame Size   : 22 words                                             *
     669              ;*                        (1 return address/alignment)                         *
     670              ;*                        (21 local values)                                    *
     671              ;*   Min System Stack   : 1 word                                               *
     672              ;*******************************************************************************
     673 0000ac       _prvInitialiseNewTask:
     674                      .dwcfi  cfa_offset, 1
     675                      .dwcfi  save_reg_to_mem, 91, -1
     676 0000ac 4EEB          AADD #-21, SP
     677                      .dwcfi  cfa_offset, 22
     678              $C$DW$89        .dwtag  DW_TAG_variable, DW_AT_name("pxTaskCode")
     679                      .dwattr $C$DW$89, DW_AT_TI_symbol_name("_pxTaskCode")
     680                      .dwattr $C$DW$89, DW_AT_type(*$C$DW$T$62)
     681                      .dwattr $C$DW$89, DW_AT_location[DW_OP_bregx 0x24 0]
     682              $C$DW$90        .dwtag  DW_TAG_variable, DW_AT_name("pcName")
     683                      .dwattr $C$DW$90, DW_AT_TI_symbol_name("_pcName")
     684                      .dwattr $C$DW$90, DW_AT_type(*$C$DW$T$77)
     685                      .dwattr $C$DW$90, DW_AT_location[DW_OP_bregx 0x24 2]
     686              $C$DW$91        .dwtag  DW_TAG_variable, DW_AT_name("ulStackDepth")
     687                      .dwattr $C$DW$91, DW_AT_TI_symbol_name("_ulStackDepth")
     688                      .dwattr $C$DW$91, DW_AT_type(*$C$DW$T$78)
     689                      .dwattr $C$DW$91, DW_AT_location[DW_OP_bregx 0x24 4]
     690              $C$DW$92        .dwtag  DW_TAG_variable, DW_AT_name("pvParameters")
     691                      .dwattr $C$DW$92, DW_AT_TI_symbol_name("_pvParameters")
     692                      .dwattr $C$DW$92, DW_AT_type(*$C$DW$T$57)
     693                      .dwattr $C$DW$92, DW_AT_location[DW_OP_bregx 0x24 6]
     694              $C$DW$93        .dwtag  DW_TAG_variable, DW_AT_name("uxPriority")
     695                      .dwattr $C$DW$93, DW_AT_TI_symbol_name("_uxPriority")
     696                      .dwattr $C$DW$93, DW_AT_type(*$C$DW$T$25)
     697                      .dwattr $C$DW$93, DW_AT_location[DW_OP_bregx 0x24 8]
     698              $C$DW$94        .dwtag  DW_TAG_variable, DW_AT_name("pxCreatedTask")
     699                      .dwattr $C$DW$94, DW_AT_TI_symbol_name("_pxCreatedTask")
     700                      .dwattr $C$DW$94, DW_AT_type(*$C$DW$T$80)
     701                      .dwattr $C$DW$94, DW_AT_location[DW_OP_bregx 0x24 10]
     702              $C$DW$95        .dwtag  DW_TAG_variable, DW_AT_name("pxNewTCB")
     703                      .dwattr $C$DW$95, DW_AT_TI_symbol_name("_pxNewTCB")
     704                      .dwattr $C$DW$95, DW_AT_type(*$C$DW$T$83)
     705                      .dwattr $C$DW$95, DW_AT_location[DW_OP_bregx 0x24 12]
     706              $C$DW$96        .dwtag  DW_TAG_variable, DW_AT_name("xRegions")
TMS320C55x Assembler PC v4.4.1 Tue Oct 02 02:33:57 2018

Tools Copyright (c) 1996-2012 Texas Instruments Incorporated
tasks_sysStk.asm                                                     PAGE   15

     707                      .dwattr $C$DW$96, DW_AT_TI_symbol_name("_xRegions")
     708                      .dwattr $C$DW$96, DW_AT_type(*$C$DW$T$87)
     709                      .dwattr $C$DW$96, DW_AT_location[DW_OP_bregx 0x24 14]
     710              $C$DW$97        .dwtag  DW_TAG_variable, DW_AT_name("pxTopOfStack")
     711                      .dwattr $C$DW$97, DW_AT_TI_symbol_name("_pxTopOfStack")
     712                      .dwattr $C$DW$97, DW_AT_type(*$C$DW$T$20)
     713                      .dwattr $C$DW$97, DW_AT_location[DW_OP_bregx 0x24 16]
     714              $C$DW$98        .dwtag  DW_TAG_variable, DW_AT_name("pxTopOfSysStack")
     715                      .dwattr $C$DW$98, DW_AT_TI_symbol_name("_pxTopOfSysStack")
     716                      .dwattr $C$DW$98, DW_AT_type(*$C$DW$T$20)
     717                      .dwattr $C$DW$98, DW_AT_location[DW_OP_bregx 0x24 18]
     718              $C$DW$99        .dwtag  DW_TAG_variable, DW_AT_name("x")
     719                      .dwattr $C$DW$99, DW_AT_TI_symbol_name("_x")
     720                      .dwattr $C$DW$99, DW_AT_type(*$C$DW$T$25)
     721                      .dwattr $C$DW$99, DW_AT_location[DW_OP_bregx 0x24 20]
     722 0000ae EB1C          MOV XAR4, dbl(*SP(#14))
         0000b0 C5   
     723 0000b1 EB18          MOV XAR3, dbl(*SP(#12))
         0000b3 B5   
     724 0000b4 EB14          MOV XAR2, dbl(*SP(#10))
         0000b6 A5   
     725 0000b7 C410          MOV T0, *SP(#8) ; |861| 
     726 0000b9 EB0C          MOV XAR1, dbl(*SP(#6))
         0000bb 95   
     727 0000bc EB08          MOV AC1, dbl(*SP(#4)) ; |861| 
         0000be 18   
     728 0000bf EB04          MOV XAR0, dbl(*SP(#2))
         0000c1 85   
     729 0000c2 EB00          MOV AC0, dbl(*SP(#0)) ; |861| 
         0000c4 08   
     730                      .dwpsn  file "../FreeRTOS/Source/tasks_sysStk.c",line 866,column 2,is_stmt
     731              $C$DW$100       .dwtag  DW_TAG_TI_branch
     732                      .dwattr $C$DW$100, DW_AT_low_pc(0x00)
     733                      .dwattr $C$DW$100, DW_AT_name("_pvPortMalloc")
     734                      .dwattr $C$DW$100, DW_AT_TI_call
     735              
     736 0000c5 6C00          CALL #_pvPortMalloc ; |866| 
         0000c7 0000!
     737 0000c9 3D44  ||      MOV #4, T0
     738              
     739                                                      ; call occurs [#_pvPortMalloc] ; |866| 
     740 0000cb EB31          MOV XAR0, dbl(*(#_stackStruct))
         0000cd 8500 
         0000cf 0002-
     741                      .dwpsn  file "../FreeRTOS/Source/tasks_sysStk.c",line 868,column 2,is_stmt
     742 0000d1 ED31          MOV dbl(*(#_stackStruct)), XAR3
         0000d3 BF00 
         0000d5 0002-
     743 0000d7 90B0          MOV XAR3, AC0
     744 0000d9 6310          BCC $C$L7,AC0 != #0 ; |868| 
     745                                                      ; branchcc occurs ; |868| 
     746                      .dwpsn  file "../FreeRTOS/Source/tasks_sysStk.c",line 870,column 2,is_stmt
     747                      .dwpsn  file "../FreeRTOS/Source/tasks_sysStk.c",line 871,column 3,is_stmt
     748              $C$DW$101       .dwtag  DW_TAG_TI_branch
     749                      .dwattr $C$DW$101, DW_AT_low_pc(0x00)
TMS320C55x Assembler PC v4.4.1 Tue Oct 02 02:33:57 2018

Tools Copyright (c) 1996-2012 Texas Instruments Incorporated
tasks_sysStk.asm                                                     PAGE   16

     750                      .dwattr $C$DW$101, DW_AT_name("_vApplicationMallocFailedHook")
     751                      .dwattr $C$DW$101, DW_AT_TI_call
     752 0000db 6C00          CALL #_vApplicationMallocFailedHook ; |871| 
         0000dd 0000!
     753                                                      ; call occurs [#_vApplicationMallocFailedHook] ; |871| 
     754                      .dwpsn  file "../FreeRTOS/Source/tasks_sysStk.c",line 872,column 9,is_stmt
     755 0000df       $C$L6:    
     756 0000df       $C$DW$L$_prvInitialiseNewTask$3$B:
     757 0000df 4A7E          B $C$L6   ; |872| 
     758                                                      ; branch occurs ; |872| 
     759 0000e1       $C$DW$L$_prvInitialiseNewTask$3$E:
     760 0000e1       $C$L7:    
     761                      .dwpsn  file "../FreeRTOS/Source/tasks_sysStk.c",line 890,column 2,is_stmt
     762 0000e1 ED04          MOV dbl(*SP(#2)), XAR3
         0000e3 BF   
     763 0000e4 90B0          MOV XAR3, AC0
     764 0000e6 6290          BCC $C$L9,AC0 != #0 ; |890| 
     765                                                      ; branchcc occurs ; |890| 
     766 0000e8 20     nop
     767 0000e9 46B3   bset INTM
     768 0000eb       $C$L8:    
     769 0000eb       $C$DW$L$_prvInitialiseNewTask$6$B:
     770 0000eb 4A7E          B $C$L8   ; |890| 
     771                                                      ; branch occurs ; |890| 
     772 0000ed       $C$DW$L$_prvInitialiseNewTask$6$E:
     773 0000ed       $C$L9:    
     774                      .dwpsn  file "../FreeRTOS/Source/tasks_sysStk.c",line 896,column 3,is_stmt
     775 0000ed ED18          MOV dbl(*SP(#12)), XAR3
         0000ef BF   
     776 0000f0 A50A          MOV *SP(#5), T1 ; |896| 
     777 0000f2 76A5          MOV #-23131, T0 ; |896| 
         0000f4 A548 
     778 0000f6 ED6D          MOV dbl(*AR3(#26)), XAR0
         0000f8 8F00 
         0000fa 1A   
     779              $C$DW$102       .dwtag  DW_TAG_TI_branch
     780                      .dwattr $C$DW$102, DW_AT_low_pc(0x00)
     781                      .dwattr $C$DW$102, DW_AT_name("_memset")
     782                      .dwattr $C$DW$102, DW_AT_TI_call
     783 0000fb 6C00          CALL #_memset ; |896| 
         0000fd 0000!
     784                                                      ; call occurs [#_memset] ; |896| 
     785                      .dwpsn  file "../FreeRTOS/Source/tasks_sysStk.c",line 897,column 3,is_stmt
     786 0000ff ED18          MOV dbl(*SP(#12)), XAR3
         000101 BF   
     787 000102 76A5          MOV #-23131, T0 ; |897| 
         000104 A548 
     788 000106 A50A          MOV *SP(#5), T1 ; |897| 
     789 000108 ED6D          MOV dbl(*AR3(#28)), XAR0
         00010a 8F00 
         00010c 1C   
     790              $C$DW$103       .dwtag  DW_TAG_TI_branch
     791                      .dwattr $C$DW$103, DW_AT_low_pc(0x00)
     792                      .dwattr $C$DW$103, DW_AT_name("_memset")
     793                      .dwattr $C$DW$103, DW_AT_TI_call
TMS320C55x Assembler PC v4.4.1 Tue Oct 02 02:33:57 2018

Tools Copyright (c) 1996-2012 Texas Instruments Incorporated
tasks_sysStk.asm                                                     PAGE   17

     794 00010d 6C00          CALL #_memset ; |897| 
         00010f 0000!
     795                                                      ; call occurs [#_memset] ; |897| 
     796                      .dwpsn  file "../FreeRTOS/Source/tasks_sysStk.c",line 907,column 3,is_stmt
     797 000111 ED18          MOV dbl(*SP(#12)), XAR3
         000113 BF   
     798 000114 ED6D          MOV dbl(*AR3(#26)), XAR3
         000116 BF00 
         000118 1A   
     799 000119 ED08          MOV dbl(*SP(#4)), AC0 ; |907| 
         00011b 08   
     800 00011c 4210          SUB #1, AC0 ; |907| 
     801 00011e 900A          MOV AC0, XAR2
     802              
     803 000120 8E20          MOV XAR3, dbl(*SP(#16))
         000122 BB10 
         000124 B5A1 
     804              ||      AADD XAR2, XAR3 ; |907| 
     805              
     806                      .dwpsn  file "../FreeRTOS/Source/tasks_sysStk.c",line 908,column 3,is_stmt
     807 000126 7AFF          MOV #-1 << #16, AC1 ; |908| 
         000128 FF1A 
     808 00012a 90B0          MOV XAR3, AC0
     809 00012c 7EFF          OR #0xfffc, AC1, AC1 ; |908| 
         00012e FC11 
     810 000130 2801          AND AC0, AC1 ; |908| 
     811 000132 EB20          MOV AC1, dbl(*SP(#16))
         000134 18   
     812                      .dwpsn  file "../FreeRTOS/Source/tasks_sysStk.c",line 909,column 3,is_stmt
     813 000135 ED18          MOV dbl(*SP(#12)), XAR3
         000137 BF   
     814 000138 ED6D          MOV dbl(*AR3(#28)), XAR3
         00013a BF00 
         00013c 1C   
     815 00013d ED08          MOV dbl(*SP(#4)), AC0 ; |909| 
         00013f 08   
     816 000140 4210          SUB #1, AC0 ; |909| 
     817 000142 900A          MOV AC0, XAR2
     818              
     819 000144 8E24          MOV XAR3, dbl(*SP(#18))
         000146 BB10 
         000148 B5A1 
     820              ||      AADD XAR2, XAR3 ; |909| 
     821              
     822                      .dwpsn  file "../FreeRTOS/Source/tasks_sysStk.c",line 910,column 3,is_stmt
     823 00014a 7AFF          MOV #-1 << #16, AC1 ; |910| 
         00014c FF1A 
     824 00014e 90B0          MOV XAR3, AC0
     825 000150 7EFF          OR #0xfffc, AC1, AC1 ; |910| 
         000152 FC11 
     826 000154 2801          AND AC0, AC1 ; |910| 
     827 000156 EB24          MOV AC1, dbl(*SP(#18))
         000158 18   
     828                      .dwpsn  file "../FreeRTOS/Source/tasks_sysStk.c",line 912,column 3,is_stmt
     829 000159 ED20          MOV dbl(*SP(#16)), XAR3
TMS320C55x Assembler PC v4.4.1 Tue Oct 02 02:33:57 2018

Tools Copyright (c) 1996-2012 Texas Instruments Incorporated
tasks_sysStk.asm                                                     PAGE   18

         00015b BF   
     830 00015c 90B0          MOV XAR3, AC0
     831 00015e 1803          AND #0x0003, AC0, AC0 ; |912| 
         000160 00   
     832 000161 3C09          MOV #0, AR1
     833 000163 6110          BCC $C$L10,AC0 != #0 ; |912| 
     834                                                      ; branchcc occurs ; |912| 
     835 000165 3C19          MOV #1, AR1
     836 000167       $C$L10:    
     837 000167 6299          BCC $C$L12,AR1 != #0 ; |912| 
     838                                                      ; branchcc occurs ; |912| 
     839 000169 20     nop
     840 00016a 46B3   bset INTM
     841 00016c       $C$L11:    
     842 00016c       $C$DW$L$_prvInitialiseNewTask$11$B:
     843 00016c 4A7E          B $C$L11  ; |912| 
     844                                                      ; branch occurs ; |912| 
     845 00016e       $C$DW$L$_prvInitialiseNewTask$11$E:
     846 00016e       $C$L12:    
     847                      .dwpsn  file "../FreeRTOS/Source/tasks_sysStk.c",line 913,column 3,is_stmt
     848 00016e ED24          MOV dbl(*SP(#18)), XAR3
         000170 BF   
     849 000171 90B0          MOV XAR3, AC0
     850 000173 1803          AND #0x0003, AC0, AC0 ; |913| 
         000175 00   
     851 000176 3C09          MOV #0, AR1
     852 000178 6110          BCC $C$L13,AC0 != #0 ; |913| 
     853                                                      ; branchcc occurs ; |913| 
     854 00017a 3C19          MOV #1, AR1
     855 00017c       $C$L13:    
     856 00017c 6299          BCC $C$L15,AR1 != #0 ; |913| 
     857                                                      ; branchcc occurs ; |913| 
     858 00017e 20     nop
     859 00017f 46B3   bset INTM
     860 000181       $C$L14:    
     861 000181       $C$DW$L$_prvInitialiseNewTask$16$B:
     862 000181 4A7E          B $C$L14  ; |913| 
     863                                                      ; branch occurs ; |913| 
     864 000183       $C$DW$L$_prvInitialiseNewTask$16$E:
     865 000183       $C$L15:    
     866                      .dwpsn  file "../FreeRTOS/Source/tasks_sysStk.c",line 919,column 4,is_stmt
     867 000183 ED18          MOV dbl(*SP(#12)), XAR2
         000185 AF   
     868 000186 ED20          MOV dbl(*SP(#16)), XAR3
         000188 BF   
     869 000189 EB4D          MOV XAR3, dbl(*AR2(#38))
         00018b B500 
         00018d 26   
     870                      .dwpsn  file "../FreeRTOS/Source/tasks_sysStk.c",line 920,column 4,is_stmt
     871 00018e ED18          MOV dbl(*SP(#12)), XAR2
         000190 AF   
     872 000191 ED24          MOV dbl(*SP(#18)), XAR3
         000193 BF   
     873 000194 EB4D          MOV XAR3, dbl(*AR2(#40))
         000196 B500 
TMS320C55x Assembler PC v4.4.1 Tue Oct 02 02:33:57 2018

Tools Copyright (c) 1996-2012 Texas Instruments Incorporated
tasks_sysStk.asm                                                     PAGE   19

         000198 28   
     874                      .dwpsn  file "../FreeRTOS/Source/tasks_sysStk.c",line 941,column 7,is_stmt
     875 000199 E628          MOV #0, *SP(#20) ; |941| 
         00019b 00   
     876                      .dwpsn  file "../FreeRTOS/Source/tasks_sysStk.c",line 941,column 30,is_stmt
     877              
     878 00019c A928          MOV *SP(#20), AR1 ; |941| 
     879 00019e 3D8A  ||      MOV #8, AR2
     880              
     881 0001a0 1298          CMPU AR1 >= AR2, TC1 ; |941| 
         0001a2 A4   
     882 0001a3 0464          BCC $C$L18,TC1 ; |941| 
         0001a5 3B   
     883                                                      ; branchcc occurs ; |941| 
     884 0001a6       $C$L16:    
     885 0001a6       $C$DW$L$_prvInitialiseNewTask$18$B:
     886                      .dwpsn  file "../FreeRTOS/Source/tasks_sysStk.c",line 943,column 3,is_stmt
     887 0001a6 ED04          MOV dbl(*SP(#2)), XAR3
         0001a8 BF   
     888 0001a9 DF28          MOV uns(*SP(#20)), AC0 ; |943| 
         0001ab 05   
     889 0001ac 900A          MOV AC0, XAR2
     890 0001ae 14A1          AADD XAR2, XAR3 ; |943| 
         0001b0 B0   
     891 0001b1 A961          MOV *AR3, AR1 ; |943| 
     892 0001b3 ED18          MOV dbl(*SP(#12)), XAR3
         0001b5 BF   
     893 0001b6 DF28          MOV uns(*SP(#20)), AC0 ; |943| 
         0001b8 05   
     894 0001b9 900A          MOV AC0, XAR2
     895 0001bb 14A1          AADD XAR2, XAR3 ; |943| 
         0001bd B0   
     896 0001be C96D          MOV AR1, *AR3(#30) ; |943| 
         0001c0 001E 
     897                      .dwpsn  file "../FreeRTOS/Source/tasks_sysStk.c",line 948,column 3,is_stmt
     898 0001c2 ED04          MOV dbl(*SP(#2)), XAR3
         0001c4 BF   
     899 0001c5 DF28          MOV uns(*SP(#20)), AC0 ; |948| 
         0001c7 05   
     900 0001c8 900A          MOV AC0, XAR2
     901 0001ca 14A1          AADD XAR2, XAR3 ; |948| 
         0001cc B0   
     902 0001cd A961          MOV *AR3, AR1 ; |948| 
     903 0001cf 6119          BCC $C$L17,AR1 != #0 ; |948| 
     904                                                      ; branchcc occurs ; |948| 
     905 0001d1       $C$DW$L$_prvInitialiseNewTask$18$E:
     906                      .dwpsn  file "../FreeRTOS/Source/tasks_sysStk.c",line 950,column 4,is_stmt
     907 0001d1 4A0E          B $C$L18  ; |950| 
     908                                                      ; branch occurs ; |950| 
     909 0001d3       $C$L17:    
     910 0001d3       $C$DW$L$_prvInitialiseNewTask$21$B:
     911                      .dwpsn  file "../FreeRTOS/Source/tasks_sysStk.c",line 941,column 75,is_stmt
     912 0001d3 F728          ADD #1, *SP(#20) ; |941| 
         0001d5 0001 
     913                      .dwpsn  file "../FreeRTOS/Source/tasks_sysStk.c",line 941,column 30,is_stmt
TMS320C55x Assembler PC v4.4.1 Tue Oct 02 02:33:57 2018

Tools Copyright (c) 1996-2012 Texas Instruments Incorporated
tasks_sysStk.asm                                                     PAGE   20

     914              
     915 0001d7 A928          MOV *SP(#20), AR1 ; |941| 
     916 0001d9 3D8A  ||      MOV #8, AR2
     917              
     918 0001db 1294          CMPU AR1 < AR2, TC1 ; |941| 
         0001dd A4   
     919 0001de 0464          BCC $C$L16,TC1 ; |941| 
         0001e0 C5   
     920                                                      ; branchcc occurs ; |941| 
     921 0001e1       $C$DW$L$_prvInitialiseNewTask$21$E:
     922 0001e1       $C$L18:    
     923                      .dwpsn  file "../FreeRTOS/Source/tasks_sysStk.c",line 960,column 2,is_stmt
     924 0001e1 ED18          MOV dbl(*SP(#12)), XAR3
         0001e3 BF   
     925 0001e4 E66D          MOV #0, *AR3(#37) ; |960| 
         0001e6 0000 
         0001e8 25   
     926                      .dwpsn  file "../FreeRTOS/Source/tasks_sysStk.c",line 964,column 2,is_stmt
     927              
     928 0001e9 A910          MOV *SP(#8), AR1 ; |964| 
     929 0001eb 3D5A  ||      MOV #5, AR2
     930              
     931 0001ed 1294          CMPU AR1 < AR2, TC1 ; |964| 
         0001ef A4   
     932 0001f0 61E4          BCC $C$L19,TC1 ; |964| 
     933                                                      ; branchcc occurs ; |964| 
     934                      .dwpsn  file "../FreeRTOS/Source/tasks_sysStk.c",line 966,column 3,is_stmt
     935 0001f2 E610          MOV #4, *SP(#8) ; |966| 
         0001f4 04   
     936                      .dwpsn  file "../FreeRTOS/Source/tasks_sysStk.c",line 967,column 2,is_stmt
     937 0001f5       $C$L19:    
     938                      .dwpsn  file "../FreeRTOS/Source/tasks_sysStk.c",line 973,column 2,is_stmt
     939 0001f5 ED18          MOV dbl(*SP(#12)), XAR3
         0001f7 BF   
     940 0001f8 A910          MOV *SP(#8), AR1 ; |973| 
     941 0001fa C96D          MOV AR1, *AR3(#24) ; |973| 
         0001fc 0018 
     942                      .dwpsn  file "../FreeRTOS/Source/tasks_sysStk.c",line 976,column 3,is_stmt
     943 0001fe ED18          MOV dbl(*SP(#12)), XAR3
         000200 BF   
     944 000201 A910          MOV *SP(#8), AR1 ; |976| 
     945 000203 C96D          MOV AR1, *AR3(#43) ; |976| 
         000205 002B 
     946                      .dwpsn  file "../FreeRTOS/Source/tasks_sysStk.c",line 977,column 3,is_stmt
     947 000207 ED18          MOV dbl(*SP(#12)), XAR3
         000209 BF   
     948 00020a E66D          MOV #0, *AR3(#44) ; |977| 
         00020c 0000 
         00020e 2C   
     949                      .dwpsn  file "../FreeRTOS/Source/tasks_sysStk.c",line 981,column 2,is_stmt
     950 00020f ED18          MOV dbl(*SP(#12)), XAR0
         000211 8F   
     951 000212 1404          AADD #4, AR0 ; |981| 
         000214 84   
     952              $C$DW$104       .dwtag  DW_TAG_TI_branch
TMS320C55x Assembler PC v4.4.1 Tue Oct 02 02:33:57 2018

Tools Copyright (c) 1996-2012 Texas Instruments Incorporated
tasks_sysStk.asm                                                     PAGE   21

     953                      .dwattr $C$DW$104, DW_AT_low_pc(0x00)
     954                      .dwattr $C$DW$104, DW_AT_name("_vListInitialiseItem")
     955                      .dwattr $C$DW$104, DW_AT_TI_call
     956 000215 6C00          CALL #_vListInitialiseItem ; |981| 
         000217 0000!
     957                                                      ; call occurs [#_vListInitialiseItem] ; |981| 
     958                      .dwpsn  file "../FreeRTOS/Source/tasks_sysStk.c",line 982,column 2,is_stmt
     959 000219 ED18          MOV dbl(*SP(#12)), XAR0
         00021b 8F   
     960 00021c 140E          AADD #14, AR0 ; |982| 
         00021e 84   
     961              $C$DW$105       .dwtag  DW_TAG_TI_branch
     962                      .dwattr $C$DW$105, DW_AT_low_pc(0x00)
     963                      .dwattr $C$DW$105, DW_AT_name("_vListInitialiseItem")
     964                      .dwattr $C$DW$105, DW_AT_TI_call
     965 00021f 6C00          CALL #_vListInitialiseItem ; |982| 
         000221 0000!
     966                                                      ; call occurs [#_vListInitialiseItem] ; |982| 
     967                      .dwpsn  file "../FreeRTOS/Source/tasks_sysStk.c",line 986,column 2,is_stmt
     968 000223 ED18          MOV dbl(*SP(#12)), XAR2
         000225 AF   
     969 000226 ED18          MOV dbl(*SP(#12)), XAR3
         000228 BF   
     970 000229 EB4D          MOV XAR3, dbl(*AR2(#10))
         00022b B500 
         00022d 0A   
     971                      .dwpsn  file "../FreeRTOS/Source/tasks_sysStk.c",line 989,column 2,is_stmt
     972 00022e ED18          MOV dbl(*SP(#12)), XAR3
         000230 BF   
     973 000231 3C50          MOV #5, AC0 ; |989| 
     974 000233 DF10          SUB uns(*SP(#8)), AC0, AC0 ; |989| 
         000235 0F   
     975 000236 EB6D          MOV AC0, dbl(*AR3(#14)) ; |989| 
         000238 0800 
         00023a 0E   
     976                      .dwpsn  file "../FreeRTOS/Source/tasks_sysStk.c",line 990,column 2,is_stmt
     977 00023b ED18          MOV dbl(*SP(#12)), XAR2
         00023d AF   
     978 00023e ED18          MOV dbl(*SP(#12)), XAR3
         000240 BF   
     979 000241 EB4D          MOV XAR3, dbl(*AR2(#20))
         000243 B500 
         000245 14   
     980                      .dwpsn  file "../FreeRTOS/Source/tasks_sysStk.c",line 994,column 3,is_stmt
     981 000246 ED18          MOV dbl(*SP(#12)), XAR3
         000248 BF   
     982 000249 E66D          MOV #0, *AR3(#42) ; |994| 
         00024b 0000 
         00024d 2A   
     983                      .dwpsn  file "../FreeRTOS/Source/tasks_sysStk.c",line 1017,column 3,is_stmt
     984                      .dwpsn  file "../FreeRTOS/Source/tasks_sysStk.c",line 1032,column 3,is_stmt
     985 00024e ED18          MOV dbl(*SP(#12)), XAR3
         000250 BF   
     986 000251 3C00          MOV #0, AC0 ; |1032| 
     987 000253 EB6D          MOV AC0, dbl(*AR3(#46)) ; |1032| 
TMS320C55x Assembler PC v4.4.1 Tue Oct 02 02:33:57 2018

Tools Copyright (c) 1996-2012 Texas Instruments Incorporated
tasks_sysStk.asm                                                     PAGE   22

         000255 0800 
         000257 2E   
     988                      .dwpsn  file "../FreeRTOS/Source/tasks_sysStk.c",line 1033,column 3,is_stmt
     989 000258 ED18          MOV dbl(*SP(#12)), XAR3
         00025a BF   
     990 00025b E66D          MOV #0, *AR3(#48) ; |1033| 
         00025d 0000 
         00025f 30   
     991                      .dwpsn  file "../FreeRTOS/Source/tasks_sysStk.c",line 1060,column 3,is_stmt
     992 000260 ED00          MOV dbl(*SP(#0)), AC0 ; |1060| 
         000262 08   
     993 000263 ED0C          MOV dbl(*SP(#6)), XAR2
         000265 AF   
     994 000266 ED20          MOV dbl(*SP(#16)), XAR0
         000268 8F   
     995 000269 ED24          MOV dbl(*SP(#18)), XAR1
         00026b 9F   
     996              $C$DW$106       .dwtag  DW_TAG_TI_branch
     997                      .dwattr $C$DW$106, DW_AT_low_pc(0x00)
     998                      .dwattr $C$DW$106, DW_AT_name("_pxPortInitialiseStack")
     999                      .dwattr $C$DW$106, DW_AT_TI_call
    1000 00026c 6C00          CALL #_pxPortInitialiseStack ; |1060| 
         00026e 0000!
    1001                                                      ; call occurs [#_pxPortInitialiseStack] ; |1060| 
    1002                      .dwpsn  file "../FreeRTOS/Source/tasks_sysStk.c",line 1061,column 3,is_stmt
    1003 000270 ED31          MOV dbl(*(#_stackStruct)), XAR3
         000272 BF00 
         000274 0002-
    1004 000276 ED18          MOV dbl(*SP(#12)), XAR2
         000278 AF   
    1005 000279 8061          MOV dbl(*AR3), dbl(*AR2)
         00027b 00   
    1006                      .dwpsn  file "../FreeRTOS/Source/tasks_sysStk.c",line 1062,column 3,is_stmt
    1007 00027c ED31          MOV dbl(*(#_stackStruct)), XAR3
         00027e BF00 
         000280 0002-
    1008 000282 ED75          MOV dbl(*AR3(short(#2))), XAR2
         000284 AF   
    1009 000285 ED18          MOV dbl(*SP(#12)), XAR3
         000287 BF   
    1010 000288 EB75          MOV XAR2, dbl(*AR3(short(#2)))
         00028a A5   
    1011                      .dwpsn  file "../FreeRTOS/Source/tasks_sysStk.c",line 1066,column 2,is_stmt
    1012 00028b ED14          MOV dbl(*SP(#10)), XAR3
         00028d BF   
    1013 00028e 90B0          MOV XAR3, AC0
    1014 000290 6580          BCC $C$L20,AC0 == #0 ; |1066| 
    1015                                                      ; branchcc occurs ; |1066| 
    1016                      .dwpsn  file "../FreeRTOS/Source/tasks_sysStk.c",line 1070,column 3,is_stmt
    1017 000292 ED14          MOV dbl(*SP(#10)), XAR2
         000294 AF   
    1018 000295 ED18          MOV dbl(*SP(#12)), XAR3
         000297 BF   
    1019 000298 EB41          MOV XAR3, dbl(*AR2)
         00029a B5   
TMS320C55x Assembler PC v4.4.1 Tue Oct 02 02:33:57 2018

Tools Copyright (c) 1996-2012 Texas Instruments Incorporated
tasks_sysStk.asm                                                     PAGE   23

    1020                      .dwpsn  file "../FreeRTOS/Source/tasks_sysStk.c",line 1071,column 2,is_stmt
    1021 00029b 4A00          B $C$L20  ; |1071| 
    1022                                                      ; branch occurs ; |1071| 
    1023 00029d       $C$L20:    
    1024 00029d 4E15          AADD #21, SP
    1025                      .dwcfi  cfa_offset, 1
    1026              $C$DW$107       .dwtag  DW_TAG_TI_branch
    1027                      .dwattr $C$DW$107, DW_AT_low_pc(0x00)
    1028                      .dwattr $C$DW$107, DW_AT_TI_return
    1029 00029f 4804          RET
    1030                                                      ; return occurs
    1031              
    1032              $C$DW$108       .dwtag  DW_TAG_TI_loop
    1033                      .dwattr $C$DW$108, DW_AT_name("F:\eZdsp-DBG-sim\tmp1\c55x-sim2\foo\Debug\tasks_sysStk.asm:$C$L16:1:15
    1034                      .dwattr $C$DW$108, DW_AT_TI_begin_file("../FreeRTOS/Source/tasks_sysStk.c")
    1035                      .dwattr $C$DW$108, DW_AT_TI_begin_line(0x3ad)
    1036                      .dwattr $C$DW$108, DW_AT_TI_end_line(0x3bc)
    1037              $C$DW$109       .dwtag  DW_TAG_TI_loop_range
    1038                      .dwattr $C$DW$109, DW_AT_low_pc($C$DW$L$_prvInitialiseNewTask$18$B)
    1039                      .dwattr $C$DW$109, DW_AT_high_pc($C$DW$L$_prvInitialiseNewTask$18$E)
    1040              $C$DW$110       .dwtag  DW_TAG_TI_loop_range
    1041                      .dwattr $C$DW$110, DW_AT_low_pc($C$DW$L$_prvInitialiseNewTask$21$B)
    1042                      .dwattr $C$DW$110, DW_AT_high_pc($C$DW$L$_prvInitialiseNewTask$21$E)
    1043                      .dwendtag $C$DW$108
    1044              
    1045              
    1046              $C$DW$111       .dwtag  DW_TAG_TI_loop
    1047                      .dwattr $C$DW$111, DW_AT_name("F:\eZdsp-DBG-sim\tmp1\c55x-sim2\foo\Debug\tasks_sysStk.asm:$C$L14:1:15
    1048                      .dwattr $C$DW$111, DW_AT_TI_begin_file("../FreeRTOS/Source/tasks_sysStk.c")
    1049                      .dwattr $C$DW$111, DW_AT_TI_begin_line(0x391)
    1050                      .dwattr $C$DW$111, DW_AT_TI_end_line(0x391)
    1051              $C$DW$112       .dwtag  DW_TAG_TI_loop_range
    1052                      .dwattr $C$DW$112, DW_AT_low_pc($C$DW$L$_prvInitialiseNewTask$16$B)
    1053                      .dwattr $C$DW$112, DW_AT_high_pc($C$DW$L$_prvInitialiseNewTask$16$E)
    1054                      .dwendtag $C$DW$111
    1055              
    1056              
    1057              $C$DW$113       .dwtag  DW_TAG_TI_loop
    1058                      .dwattr $C$DW$113, DW_AT_name("F:\eZdsp-DBG-sim\tmp1\c55x-sim2\foo\Debug\tasks_sysStk.asm:$C$L11:1:15
    1059                      .dwattr $C$DW$113, DW_AT_TI_begin_file("../FreeRTOS/Source/tasks_sysStk.c")
    1060                      .dwattr $C$DW$113, DW_AT_TI_begin_line(0x390)
    1061                      .dwattr $C$DW$113, DW_AT_TI_end_line(0x390)
    1062              $C$DW$114       .dwtag  DW_TAG_TI_loop_range
    1063                      .dwattr $C$DW$114, DW_AT_low_pc($C$DW$L$_prvInitialiseNewTask$11$B)
    1064                      .dwattr $C$DW$114, DW_AT_high_pc($C$DW$L$_prvInitialiseNewTask$11$E)
    1065                      .dwendtag $C$DW$113
    1066              
    1067              
    1068              $C$DW$115       .dwtag  DW_TAG_TI_loop
    1069                      .dwattr $C$DW$115, DW_AT_name("F:\eZdsp-DBG-sim\tmp1\c55x-sim2\foo\Debug\tasks_sysStk.asm:$C$L8:1:153
    1070                      .dwattr $C$DW$115, DW_AT_TI_begin_file("../FreeRTOS/Source/tasks_sysStk.c")
    1071                      .dwattr $C$DW$115, DW_AT_TI_begin_line(0x37a)
    1072                      .dwattr $C$DW$115, DW_AT_TI_end_line(0x37a)
    1073              $C$DW$116       .dwtag  DW_TAG_TI_loop_range
    1074                      .dwattr $C$DW$116, DW_AT_low_pc($C$DW$L$_prvInitialiseNewTask$6$B)
TMS320C55x Assembler PC v4.4.1 Tue Oct 02 02:33:57 2018

Tools Copyright (c) 1996-2012 Texas Instruments Incorporated
tasks_sysStk.asm                                                     PAGE   24

    1075                      .dwattr $C$DW$116, DW_AT_high_pc($C$DW$L$_prvInitialiseNewTask$6$E)
    1076                      .dwendtag $C$DW$115
    1077              
    1078              
    1079              $C$DW$117       .dwtag  DW_TAG_TI_loop
    1080                      .dwattr $C$DW$117, DW_AT_name("F:\eZdsp-DBG-sim\tmp1\c55x-sim2\foo\Debug\tasks_sysStk.asm:$C$L6:1:153
    1081                      .dwattr $C$DW$117, DW_AT_TI_begin_file("../FreeRTOS/Source/tasks_sysStk.c")
    1082                      .dwattr $C$DW$117, DW_AT_TI_begin_line(0x368)
    1083                      .dwattr $C$DW$117, DW_AT_TI_end_line(0x368)
    1084              $C$DW$118       .dwtag  DW_TAG_TI_loop_range
    1085                      .dwattr $C$DW$118, DW_AT_low_pc($C$DW$L$_prvInitialiseNewTask$3$B)
    1086                      .dwattr $C$DW$118, DW_AT_high_pc($C$DW$L$_prvInitialiseNewTask$3$E)
    1087                      .dwendtag $C$DW$117
    1088              
    1089                      .dwattr $C$DW$80, DW_AT_TI_end_file("../FreeRTOS/Source/tasks_sysStk.c")
    1090                      .dwattr $C$DW$80, DW_AT_TI_end_line(0x434)
    1091                      .dwattr $C$DW$80, DW_AT_TI_end_column(0x01)
    1092                      .dwendentry
    1093                      .dwendtag $C$DW$80
    1094              
    1095 0002a1               .sect   ".text"
    1096                      .align 4
    1097              
    1098              $C$DW$119       .dwtag  DW_TAG_subprogram, DW_AT_name("prvAddNewTaskToReadyList")
    1099                      .dwattr $C$DW$119, DW_AT_low_pc(_prvAddNewTaskToReadyList)
    1100                      .dwattr $C$DW$119, DW_AT_high_pc(0x00)
    1101                      .dwattr $C$DW$119, DW_AT_TI_symbol_name("_prvAddNewTaskToReadyList")
    1102                      .dwattr $C$DW$119, DW_AT_TI_begin_file("../FreeRTOS/Source/tasks_sysStk.c")
    1103                      .dwattr $C$DW$119, DW_AT_TI_begin_line(0x437)
    1104                      .dwattr $C$DW$119, DW_AT_TI_begin_column(0x0d)
    1105                      .dwattr $C$DW$119, DW_AT_TI_max_frame_size(0x04)
    1106                      .dwpsn  file "../FreeRTOS/Source/tasks_sysStk.c",line 1080,column 1,is_stmt,address _prvAddNewTaskToR
    1107              
    1108                      .dwfde $C$DW$CIE, _prvAddNewTaskToReadyList
    1109              $C$DW$120       .dwtag  DW_TAG_formal_parameter, DW_AT_name("pxNewTCB")
    1110                      .dwattr $C$DW$120, DW_AT_TI_symbol_name("_pxNewTCB")
    1111                      .dwattr $C$DW$120, DW_AT_type(*$C$DW$T$83)
    1112                      .dwattr $C$DW$120, DW_AT_location[DW_OP_reg17]
    1113              ;*******************************************************************************
    1114              ;* FUNCTION NAME: prvAddNewTaskToReadyList                                     *
    1115              ;*                                                                             *
    1116              ;*   Function Uses Regs : AC0,AC0,AC1,AC1,AR0,XAR0,AR1,XAR1,AR2,AR3,XAR3,SP,   *
    1117              ;*                        CARRY,TC1,M40,SATA,SATD,RDM,FRCT,SMUL                *
    1118              ;*   Stack Frame        : Compact (No Frame Pointer, w/ debug)                 *
    1119              ;*   Total Frame Size   : 4 words                                              *
    1120              ;*                        (2 return address/alignment)                         *
    1121              ;*                        (2 local values)                                     *
    1122              ;*   Min System Stack   : 1 word                                               *
    1123              ;*******************************************************************************
    1124 0002a4       _prvAddNewTaskToReadyList:
    1125                      .dwcfi  cfa_offset, 1
    1126                      .dwcfi  save_reg_to_mem, 91, -1
    1127 0002a4 4EFD          AADD #-3, SP
    1128                      .dwcfi  cfa_offset, 4
    1129              $C$DW$121       .dwtag  DW_TAG_variable, DW_AT_name("pxNewTCB")
TMS320C55x Assembler PC v4.4.1 Tue Oct 02 02:33:57 2018

Tools Copyright (c) 1996-2012 Texas Instruments Incorporated
tasks_sysStk.asm                                                     PAGE   25

    1130                      .dwattr $C$DW$121, DW_AT_TI_symbol_name("_pxNewTCB")
    1131                      .dwattr $C$DW$121, DW_AT_type(*$C$DW$T$83)
    1132                      .dwattr $C$DW$121, DW_AT_location[DW_OP_bregx 0x24 0]
    1133 0002a6 EB00          MOV XAR0, dbl(*SP(#0))
         0002a8 85   
    1134                      .dwpsn  file "../FreeRTOS/Source/tasks_sysStk.c",line 1083,column 2,is_stmt
    1135 0002a9 20     nop
    1136 0002aa 46B3   bset INTM
    1137 0002ac F731          ADD #1, *(#_usCriticalNesting) ; |1083| 
         0002ae 0001 
         0002b0 0000 
         0002b2 00!  
    1138                      .dwpsn  file "../FreeRTOS/Source/tasks_sysStk.c",line 1085,column 3,is_stmt
    1139 0002b3 F731          ADD #1, *(#_uxCurrentNumberOfTasks) ; |1085| 
         0002b5 0001 
         0002b7 0000 
         0002b9 65-  
    1140 0002ba 20            NOP
    1141 0002bb 20            NOP
    1142 0002bc 20            NOP
    1143                      .dwpsn  file "../FreeRTOS/Source/tasks_sysStk.c",line 1086,column 3,is_stmt
    1144 0002bd ED31          MOV dbl(*(#_pxCurrentTCB)), XAR3
         0002bf BF00 
         0002c1 0004-
    1145 0002c3 90B0          MOV XAR3, AC0
    1146 0002c5 0410          BCC $C$L21,AC0 != #0 ; |1086| 
         0002c7 1B   
    1147                                                      ; branchcc occurs ; |1086| 
    1148                      .dwpsn  file "../FreeRTOS/Source/tasks_sysStk.c",line 1090,column 4,is_stmt
    1149 0002c8 ED00          MOV dbl(*SP(#0)), XAR3
         0002ca BF   
    1150 0002cb EB31          MOV XAR3, dbl(*(#_pxCurrentTCB))
         0002cd B500 
         0002cf 0004-
    1151 0002d1 20            NOP
    1152 0002d2 20            NOP
    1153 0002d3 20            NOP
    1154                      .dwpsn  file "../FreeRTOS/Source/tasks_sysStk.c",line 1092,column 4,is_stmt
    1155 0002d4 F031          CMP *(#_uxCurrentNumberOfTasks) == #1, TC1 ; |1092| 
         0002d6 0001 
         0002d8 0000 
         0002da 65-  
    1156 0002db 0474          BCC $C$L22,!TC1 ; |1092| 
         0002dd 2E   
    1157                                                      ; branchcc occurs ; |1092| 
    1158                      .dwpsn  file "../FreeRTOS/Source/tasks_sysStk.c",line 1097,column 5,is_stmt
    1159              $C$DW$122       .dwtag  DW_TAG_TI_branch
    1160                      .dwattr $C$DW$122, DW_AT_low_pc(0x00)
    1161                      .dwattr $C$DW$122, DW_AT_name("_prvInitialiseTaskLists")
    1162                      .dwattr $C$DW$122, DW_AT_TI_call
    1163 0002de 080F          CALL #_prvInitialiseTaskLists ; |1097| 
         0002e0 CF   
    1164                                                      ; call occurs [#_prvInitialiseTaskLists] ; |1097| 
    1165                      .dwpsn  file "../FreeRTOS/Source/tasks_sysStk.c",line 1098,column 4,is_stmt
    1166 0002e1 4A29          B $C$L22  ; |1098| 
TMS320C55x Assembler PC v4.4.1 Tue Oct 02 02:33:57 2018

Tools Copyright (c) 1996-2012 Texas Instruments Incorporated
tasks_sysStk.asm                                                     PAGE   26

    1167                                                      ; branch occurs ; |1098| 
    1168 0002e3       $C$L21:    
    1169                      .dwpsn  file "../FreeRTOS/Source/tasks_sysStk.c",line 1109,column 4,is_stmt
    1170 0002e3 A931          MOV *(#_xSchedulerRunning), AR1 ; |1109| 
         0002e5 0000 
         0002e7 73-  
    1171 0002e8 0419          BCC $C$L22,AR1 != #0 ; |1109| 
         0002ea 21   
    1172                                                      ; branchcc occurs ; |1109| 
    1173                      .dwpsn  file "../FreeRTOS/Source/tasks_sysStk.c",line 1111,column 5,is_stmt
    1174 0002eb ED00          MOV dbl(*SP(#0)), XAR3
         0002ed BF   
    1175 0002ee A96D          MOV *AR3(#24), AR1 ; |1111| 
         0002f0 0018 
    1176 0002f2 ED31          MOV dbl(*(#_pxCurrentTCB)), XAR3
         0002f4 BF00 
         0002f6 0004-
    1177 0002f8 AA6D          MOV *AR3(#24), AR2 ; |1111| 
         0002fa 0018 
    1178 0002fc 1294          CMPU AR2 > AR1, TC1 ; |1111| 
         0002fe A4   
    1179 0002ff 65E4          BCC $C$L22,TC1 ; |1111| 
    1180                                                      ; branchcc occurs ; |1111| 
    1181                      .dwpsn  file "../FreeRTOS/Source/tasks_sysStk.c",line 1113,column 6,is_stmt
    1182 000301 ED00          MOV dbl(*SP(#0)), XAR3
         000303 BF   
    1183 000304 EB31          MOV XAR3, dbl(*(#_pxCurrentTCB))
         000306 B500 
         000308 0004-
    1184                      .dwpsn  file "../FreeRTOS/Source/tasks_sysStk.c",line 1114,column 5,is_stmt
    1185 00030a 4A00          B $C$L22  ; |1114| 
    1186                                                      ; branch occurs ; |1114| 
    1187 00030c       $C$L22:    
    1188                      .dwpsn  file "../FreeRTOS/Source/tasks_sysStk.c",line 1126,column 3,is_stmt
    1189 00030c F731          ADD #1, *(#_uxTaskNumber) ; |1126| 
         00030e 0001 
         000310 0000 
         000312 77-  
    1190                      .dwpsn  file "../FreeRTOS/Source/tasks_sysStk.c",line 1136,column 3,is_stmt
    1191 000313 ED00          MOV dbl(*SP(#0)), XAR3
         000315 BF   
    1192 000316 A931          MOV *(#_uxTopReadyPriority), AR1 ; |1136| 
         000318 0000 
         00031a 72-  
    1193 00031b AA6D          MOV *AR3(#24), AR2 ; |1136| 
         00031d 0018 
    1194 00031f 1298          CMPU AR2 <= AR1, TC1 ; |1136| 
         000321 A4   
    1195 000322 64E4          BCC $C$L23,TC1 ; |1136| 
    1196                                                      ; branchcc occurs ; |1136| 
    1197 000324 A96D          MOV *AR3(#24), AR1 ; |1136| 
         000326 0018 
    1198 000328 C931          MOV AR1, *(#_uxTopReadyPriority) ; |1136| 
         00032a 0000 
         00032c 72-  
TMS320C55x Assembler PC v4.4.1 Tue Oct 02 02:33:57 2018

Tools Copyright (c) 1996-2012 Texas Instruments Incorporated
tasks_sysStk.asm                                                     PAGE   27

    1199 00032d       $C$L23:    
    1200 00032d DF6D          MOV uns(*AR3(#24)), AC1 ; |1136| 
         00032f 1500 
         000331 18   
    1201 000332 ED00          MOV dbl(*SP(#0)), XAR1
         000334 9F   
    1202 000335 1015          SFTS AC1, #1, AC0 ; |1136| 
         000337 01   
    1203 000338 1013          ADD AC1 << #3, AC0 ; |1136| 
         00033a 03   
    1204 00033b 900B          MOV AC0, XAR3
    1205 00033d EC31          AMOV #_pxReadyTasksLists, XAR0 ; |1136| 
         00033f 8E00 
         000341 0006-
    1206              
    1207 000343 14B1          AADD XAR3, XAR0 ; |1136| 
         000345 80   
    1208 000346 1504  ||      AADD #4, AR1 ; |1136| 
         000348 9C   
    1209              
    1210              $C$DW$123       .dwtag  DW_TAG_TI_branch
    1211                      .dwattr $C$DW$123, DW_AT_low_pc(0x00)
    1212                      .dwattr $C$DW$123, DW_AT_name("_vListInsertEnd")
    1213                      .dwattr $C$DW$123, DW_AT_TI_call
    1214 000349 6C00          CALL #_vListInsertEnd ; |1136| 
         00034b 0000!
    1215                                                      ; call occurs [#_vListInsertEnd] ; |1136| 
    1216                      .dwpsn  file "../FreeRTOS/Source/tasks_sysStk.c",line 1138,column 3,is_stmt
    1217                      .dwpsn  file "../FreeRTOS/Source/tasks_sysStk.c",line 1140,column 2,is_stmt
    1218 00034d A931          MOV *(#_usCriticalNesting), AR1 ; |1140| 
         00034f 0000 
         000351 00!  
    1219 000352 0409          BCC $C$L24,AR1 == #0 ; |1140| 
         000354 14   
    1220                                                      ; branchcc occurs ; |1140| 
    1221 000355 F731          SUB #1, *(#_usCriticalNesting) ; |1140| 
         000357 FFFF 
         000359 0000 
         00035b 00!  
    1222 00035c 20            NOP
    1223 00035d 20            NOP
    1224 00035e 20            NOP
    1225 00035f A931          MOV *(#_usCriticalNesting), AR1 ; |1140| 
         000361 0000 
         000363 00!  
    1226 000364 6199          BCC $C$L24,AR1 != #0 ; |1140| 
    1227                                                      ; branchcc occurs ; |1140| 
    1228 000366 20     nop
    1229 000367 46B2   bclr INTM
    1230 000369       $C$L24:    
    1231                      .dwpsn  file "../FreeRTOS/Source/tasks_sysStk.c",line 1142,column 2,is_stmt
    1232 000369 A931          MOV *(#_xSchedulerRunning), AR1 ; |1142| 
         00036b 0000 
         00036d 73-  
    1233 00036e 0409          BCC $C$L25,AR1 == #0 ; |1142| 
TMS320C55x Assembler PC v4.4.1 Tue Oct 02 02:33:57 2018

Tools Copyright (c) 1996-2012 Texas Instruments Incorporated
tasks_sysStk.asm                                                     PAGE   28

         000370 1C   
    1234                                                      ; branchcc occurs ; |1142| 
    1235                      .dwpsn  file "../FreeRTOS/Source/tasks_sysStk.c",line 1146,column 3,is_stmt
    1236 000371 ED00          MOV dbl(*SP(#0)), XAR3
         000373 BF   
    1237 000374 A96D          MOV *AR3(#24), AR1 ; |1146| 
         000376 0018 
    1238 000378 ED31          MOV dbl(*(#_pxCurrentTCB)), XAR3
         00037a BF00 
         00037c 0004-
    1239 00037e AA6D          MOV *AR3(#24), AR2 ; |1146| 
         000380 0018 
    1240 000382 12A8          CMPU AR2 >= AR1, TC1 ; |1146| 
         000384 94   
    1241 000385 6364          BCC $C$L25,TC1 ; |1146| 
    1242                                                      ; branchcc occurs ; |1146| 
    1243                      .dwpsn  file "../FreeRTOS/Source/tasks_sysStk.c",line 1148,column 4,is_stmt
    1244              $C$DW$124       .dwtag  DW_TAG_TI_branch
    1245                      .dwattr $C$DW$124, DW_AT_low_pc(0x00)
    1246                      .dwattr $C$DW$124, DW_AT_name("_vPortYield")
    1247                      .dwattr $C$DW$124, DW_AT_TI_call
    1248 000387 6C00          CALL #_vPortYield ; |1148| 
         000389 0000!
    1249                                                      ; call occurs [#_vPortYield] ; |1148| 
    1250                      .dwpsn  file "../FreeRTOS/Source/tasks_sysStk.c",line 1149,column 3,is_stmt
    1251 00038b 4A00          B $C$L25  ; |1149| 
    1252                                                      ; branch occurs ; |1149| 
    1253 00038d       $C$L25:    
    1254 00038d 4E03          AADD #3, SP
    1255                      .dwcfi  cfa_offset, 1
    1256              $C$DW$125       .dwtag  DW_TAG_TI_branch
    1257                      .dwattr $C$DW$125, DW_AT_low_pc(0x00)
    1258                      .dwattr $C$DW$125, DW_AT_TI_return
    1259 00038f 4804          RET
    1260                                                      ; return occurs
    1261                      .dwattr $C$DW$119, DW_AT_TI_end_file("../FreeRTOS/Source/tasks_sysStk.c")
    1262                      .dwattr $C$DW$119, DW_AT_TI_end_line(0x487)
    1263                      .dwattr $C$DW$119, DW_AT_TI_end_column(0x01)
    1264                      .dwendentry
    1265                      .dwendtag $C$DW$119
    1266              
    1267 000391               .sect   ".text"
    1268                      .align 4
    1269                      .global _vTaskDelete
    1270              
    1271              $C$DW$126       .dwtag  DW_TAG_subprogram, DW_AT_name("vTaskDelete")
    1272                      .dwattr $C$DW$126, DW_AT_low_pc(_vTaskDelete)
    1273                      .dwattr $C$DW$126, DW_AT_high_pc(0x00)
    1274                      .dwattr $C$DW$126, DW_AT_TI_symbol_name("_vTaskDelete")
    1275                      .dwattr $C$DW$126, DW_AT_external
    1276                      .dwattr $C$DW$126, DW_AT_TI_begin_file("../FreeRTOS/Source/tasks_sysStk.c")
    1277                      .dwattr $C$DW$126, DW_AT_TI_begin_line(0x48c)
    1278                      .dwattr $C$DW$126, DW_AT_TI_begin_column(0x07)
    1279                      .dwattr $C$DW$126, DW_AT_TI_max_frame_size(0x06)
    1280                      .dwpsn  file "../FreeRTOS/Source/tasks_sysStk.c",line 1165,column 2,is_stmt,address _vTaskDelete
TMS320C55x Assembler PC v4.4.1 Tue Oct 02 02:33:57 2018

Tools Copyright (c) 1996-2012 Texas Instruments Incorporated
tasks_sysStk.asm                                                     PAGE   29

    1281              
    1282                      .dwfde $C$DW$CIE, _vTaskDelete
    1283              $C$DW$127       .dwtag  DW_TAG_formal_parameter, DW_AT_name("xTaskToDelete")
    1284                      .dwattr $C$DW$127, DW_AT_TI_symbol_name("_xTaskToDelete")
    1285                      .dwattr $C$DW$127, DW_AT_type(*$C$DW$T$48)
    1286                      .dwattr $C$DW$127, DW_AT_location[DW_OP_reg17]
    1287              ;*******************************************************************************
    1288              ;* FUNCTION NAME: vTaskDelete                                                  *
    1289              ;*                                                                             *
    1290              ;*   Function Uses Regs : AC0,AC0,AC1,AC1,T0,AR0,XAR0,AR1,XAR1,AR2,AR3,XAR3,SP,*
    1291              ;*                        CARRY,TC1,M40,SATA,SATD,RDM,FRCT,SMUL                *
    1292              ;*   Stack Frame        : Compact (No Frame Pointer, w/ debug)                 *
    1293              ;*   Total Frame Size   : 6 words                                              *
    1294              ;*                        (2 return address/alignment)                         *
    1295              ;*                        (4 local values)                                     *
    1296              ;*   Min System Stack   : 1 word                                               *
    1297              ;*******************************************************************************
    1298 000394       _vTaskDelete:
    1299                      .dwcfi  cfa_offset, 1
    1300                      .dwcfi  save_reg_to_mem, 91, -1
    1301 000394 4EFB          AADD #-5, SP
    1302                      .dwcfi  cfa_offset, 6
    1303              $C$DW$128       .dwtag  DW_TAG_variable, DW_AT_name("xTaskToDelete")
    1304                      .dwattr $C$DW$128, DW_AT_TI_symbol_name("_xTaskToDelete")
    1305                      .dwattr $C$DW$128, DW_AT_type(*$C$DW$T$48)
    1306                      .dwattr $C$DW$128, DW_AT_location[DW_OP_bregx 0x24 0]
    1307              $C$DW$129       .dwtag  DW_TAG_variable, DW_AT_name("pxTCB")
    1308                      .dwattr $C$DW$129, DW_AT_TI_symbol_name("_pxTCB")
    1309                      .dwattr $C$DW$129, DW_AT_type(*$C$DW$T$83)
    1310                      .dwattr $C$DW$129, DW_AT_location[DW_OP_bregx 0x24 2]
    1311 000396 EB00          MOV XAR0, dbl(*SP(#0))
         000398 85   
    1312                      .dwpsn  file "../FreeRTOS/Source/tasks_sysStk.c",line 1168,column 3,is_stmt
    1313 000399 20     nop
    1314 00039a 46B3   bset INTM
    1315 00039c F731          ADD #1, *(#_usCriticalNesting) ; |1168| 
         00039e 0001 
         0003a0 0000 
         0003a2 00!  
    1316                      .dwpsn  file "../FreeRTOS/Source/tasks_sysStk.c",line 1172,column 4,is_stmt
    1317 0003a3 ED00          MOV dbl(*SP(#0)), XAR3
         0003a5 BF   
    1318 0003a6 90B0          MOV XAR3, AC0
    1319 0003a8 6310          BCC $C$L26,AC0 != #0 ; |1172| 
    1320                                                      ; branchcc occurs ; |1172| 
    1321 0003aa ED31          MOV dbl(*(#_pxCurrentTCB)), XAR3
         0003ac BF00 
         0003ae 0004-
    1322 0003b0       $C$L26:    
    1323 0003b0 EB04          MOV XAR3, dbl(*SP(#2))
         0003b2 B5   
    1324                      .dwpsn  file "../FreeRTOS/Source/tasks_sysStk.c",line 1175,column 4,is_stmt
    1325 0003b3 ED04          MOV dbl(*SP(#2)), XAR0
         0003b5 8F   
    1326 0003b6 1404          AADD #4, AR0 ; |1175| 
TMS320C55x Assembler PC v4.4.1 Tue Oct 02 02:33:57 2018

Tools Copyright (c) 1996-2012 Texas Instruments Incorporated
tasks_sysStk.asm                                                     PAGE   30

         0003b8 84   
    1327              $C$DW$130       .dwtag  DW_TAG_TI_branch
    1328                      .dwattr $C$DW$130, DW_AT_low_pc(0x00)
    1329                      .dwattr $C$DW$130, DW_AT_name("_uxListRemove")
    1330                      .dwattr $C$DW$130, DW_AT_TI_call
    1331 0003b9 6C00          CALL #_uxListRemove ; |1175| 
         0003bb 0000!
    1332                                                      ; call occurs [#_uxListRemove] ; |1175| 
    1333 0003bd 6004          BCC $C$L27,T0 == #0 ; |1175| 
    1334                                                      ; branchcc occurs ; |1175| 
    1335                      .dwpsn  file "../FreeRTOS/Source/tasks_sysStk.c",line 1178,column 4,is_stmt
    1336 0003bf       $C$L27:    
    1337                      .dwpsn  file "../FreeRTOS/Source/tasks_sysStk.c",line 1185,column 4,is_stmt
    1338 0003bf ED04          MOV dbl(*SP(#2)), XAR3
         0003c1 BF   
    1339 0003c2 ED6D          MOV dbl(*AR3(#22)), XAR3
         0003c4 BF00 
         0003c6 16   
    1340 0003c7 90B0          MOV XAR3, AC0
    1341 0003c9 6500          BCC $C$L28,AC0 == #0 ; |1185| 
    1342                                                      ; branchcc occurs ; |1185| 
    1343                      .dwpsn  file "../FreeRTOS/Source/tasks_sysStk.c",line 1187,column 5,is_stmt
    1344 0003cb ED04          MOV dbl(*SP(#2)), XAR0
         0003cd 8F   
    1345 0003ce 140E          AADD #14, AR0 ; |1187| 
         0003d0 84   
    1346              $C$DW$131       .dwtag  DW_TAG_TI_branch
    1347                      .dwattr $C$DW$131, DW_AT_low_pc(0x00)
    1348                      .dwattr $C$DW$131, DW_AT_name("_uxListRemove")
    1349                      .dwattr $C$DW$131, DW_AT_TI_call
    1350 0003d1 6C00          CALL #_uxListRemove ; |1187| 
         0003d3 0000!
    1351                                                      ; call occurs [#_uxListRemove] ; |1187| 
    1352                      .dwpsn  file "../FreeRTOS/Source/tasks_sysStk.c",line 1188,column 4,is_stmt
    1353 0003d5       $C$L28:    
    1354                      .dwpsn  file "../FreeRTOS/Source/tasks_sysStk.c",line 1198,column 4,is_stmt
    1355 0003d5 F731          ADD #1, *(#_uxTaskNumber) ; |1198| 
         0003d7 0001 
         0003d9 0000 
         0003db 77-  
    1356                      .dwpsn  file "../FreeRTOS/Source/tasks_sysStk.c",line 1200,column 4,is_stmt
    1357 0003dc ED31          MOV dbl(*(#_pxCurrentTCB)), XAR3
         0003de BF00 
         0003e0 0004-
    1358 0003e2 90B0          MOV XAR3, AC0
    1359 0003e4 ED04          MOV dbl(*SP(#2)), XAR3
         0003e6 BF   
    1360 0003e7 90B1          MOV XAR3, AC1
    1361 0003e9 121C          CMPU AC1 != AC0, TC1 ; |1200| 
         0003eb 04   
    1362 0003ec 0464          BCC $C$L29,TC1 ; |1200| 
         0003ee 19   
    1363                                                      ; branchcc occurs ; |1200| 
    1364                      .dwpsn  file "../FreeRTOS/Source/tasks_sysStk.c",line 1207,column 5,is_stmt
    1365 0003ef ED04          MOV dbl(*SP(#2)), XAR1
TMS320C55x Assembler PC v4.4.1 Tue Oct 02 02:33:57 2018

Tools Copyright (c) 1996-2012 Texas Instruments Incorporated
tasks_sysStk.asm                                                     PAGE   31

         0003f1 9F   
    1366 0003f2 EC31          AMOV #_xTasksWaitingTermination, XAR0 ; |1207| 
         0003f4 8E00 
         0003f6 005A-
    1367 0003f8 1404          AADD #4, AR1 ; |1207| 
         0003fa 94   
    1368              $C$DW$132       .dwtag  DW_TAG_TI_branch
    1369                      .dwattr $C$DW$132, DW_AT_low_pc(0x00)
    1370                      .dwattr $C$DW$132, DW_AT_name("_vListInsertEnd")
    1371                      .dwattr $C$DW$132, DW_AT_TI_call
    1372 0003fb 6C00          CALL #_vListInsertEnd ; |1207| 
         0003fd 0000!
    1373                                                      ; call occurs [#_vListInsertEnd] ; |1207| 
    1374                      .dwpsn  file "../FreeRTOS/Source/tasks_sysStk.c",line 1212,column 5,is_stmt
    1375 0003ff F731          ADD #1, *(#_uxDeletedTasksWaitingCleanUp) ; |1212| 
         000401 0001 
         000403 0000 
         000405 64-  
    1376                      .dwpsn  file "../FreeRTOS/Source/tasks_sysStk.c",line 1220,column 4,is_stmt
    1377 000406 4A10          B $C$L30  ; |1220| 
    1378                                                      ; branch occurs ; |1220| 
    1379 000408       $C$L29:    
    1380                      .dwpsn  file "../FreeRTOS/Source/tasks_sysStk.c",line 1223,column 5,is_stmt
    1381 000408 F731          SUB #1, *(#_uxCurrentNumberOfTasks) ; |1223| 
         00040a FFFF 
         00040c 0000 
         00040e 65-  
    1382                      .dwpsn  file "../FreeRTOS/Source/tasks_sysStk.c",line 1224,column 5,is_stmt
    1383 00040f ED04          MOV dbl(*SP(#2)), XAR0
         000411 8F   
    1384              $C$DW$133       .dwtag  DW_TAG_TI_branch
    1385                      .dwattr $C$DW$133, DW_AT_low_pc(0x00)
    1386                      .dwattr $C$DW$133, DW_AT_name("_prvDeleteTCB")
    1387                      .dwattr $C$DW$133, DW_AT_TI_call
    1388 000412 080F          CALL #_prvDeleteTCB ; |1224| 
         000414 F7   
    1389                                                      ; call occurs [#_prvDeleteTCB] ; |1224| 
    1390                      .dwpsn  file "../FreeRTOS/Source/tasks_sysStk.c",line 1228,column 5,is_stmt
    1391              $C$DW$134       .dwtag  DW_TAG_TI_branch
    1392                      .dwattr $C$DW$134, DW_AT_low_pc(0x00)
    1393                      .dwattr $C$DW$134, DW_AT_name("_prvResetNextTaskUnblockTime")
    1394                      .dwattr $C$DW$134, DW_AT_TI_call
    1395 000415 0810          CALL #_prvResetNextTaskUnblockTime ; |1228| 
         000417 1C   
    1396                                                      ; call occurs [#_prvResetNextTaskUnblockTime] ; |1228| 
    1397 000418       $C$L30:    
    1398                      .dwpsn  file "../FreeRTOS/Source/tasks_sysStk.c",line 1233,column 3,is_stmt
    1399 000418 A931          MOV *(#_usCriticalNesting), AR1 ; |1233| 
         00041a 0000 
         00041c 00!  
    1400 00041d 0409          BCC $C$L31,AR1 == #0 ; |1233| 
         00041f 14   
    1401                                                      ; branchcc occurs ; |1233| 
    1402 000420 F731          SUB #1, *(#_usCriticalNesting) ; |1233| 
         000422 FFFF 
TMS320C55x Assembler PC v4.4.1 Tue Oct 02 02:33:57 2018

Tools Copyright (c) 1996-2012 Texas Instruments Incorporated
tasks_sysStk.asm                                                     PAGE   32

         000424 0000 
         000426 00!  
    1403 000427 20            NOP
    1404 000428 20            NOP
    1405 000429 20            NOP
    1406 00042a A931          MOV *(#_usCriticalNesting), AR1 ; |1233| 
         00042c 0000 
         00042e 00!  
    1407 00042f 6199          BCC $C$L31,AR1 != #0 ; |1233| 
    1408                                                      ; branchcc occurs ; |1233| 
    1409 000431 20     nop
    1410 000432 46B2   bclr INTM
    1411 000434       $C$L31:    
    1412                      .dwpsn  file "../FreeRTOS/Source/tasks_sysStk.c",line 1237,column 3,is_stmt
    1413 000434 A931          MOV *(#_xSchedulerRunning), AR1 ; |1237| 
         000436 0000 
         000438 73-  
    1414 000439 0409          BCC $C$L35,AR1 == #0 ; |1237| 
         00043b 2B   
    1415                                                      ; branchcc occurs ; |1237| 
    1416                      .dwpsn  file "../FreeRTOS/Source/tasks_sysStk.c",line 1239,column 4,is_stmt
    1417 00043c ED31          MOV dbl(*(#_pxCurrentTCB)), XAR3
         00043e BF00 
         000440 0004-
    1418 000442 90B0          MOV XAR3, AC0
    1419 000444 ED04          MOV dbl(*SP(#2)), XAR3
         000446 BF   
    1420 000447 90B1          MOV XAR3, AC1
    1421 000449 121C          CMPU AC1 != AC0, TC1 ; |1239| 
         00044b 04   
    1422 00044c 0464          BCC $C$L35,TC1 ; |1239| 
         00044e 18   
    1423                                                      ; branchcc occurs ; |1239| 
    1424                      .dwpsn  file "../FreeRTOS/Source/tasks_sysStk.c",line 1241,column 5,is_stmt
    1425 00044f AA31          MOV *(#_uxSchedulerSuspended), AR2 ; |1241| 
         000451 0000 
         000453 7C-  
    1426 000454 3C09          MOV #0, AR1
    1427 000456 611A          BCC $C$L32,AR2 != #0 ; |1241| 
    1428                                                      ; branchcc occurs ; |1241| 
    1429 000458 3C19          MOV #1, AR1
    1430 00045a       $C$L32:    
    1431 00045a 6299          BCC $C$L34,AR1 != #0 ; |1241| 
    1432                                                      ; branchcc occurs ; |1241| 
    1433 00045c 20     nop
    1434 00045d 46B3   bset INTM
    1435 00045f       $C$L33:    
    1436 00045f       $C$DW$L$_vTaskDelete$19$B:
    1437 00045f 4A7E          B $C$L33  ; |1241| 
    1438                                                      ; branch occurs ; |1241| 
    1439 000461       $C$DW$L$_vTaskDelete$19$E:
    1440 000461       $C$L34:    
    1441                      .dwpsn  file "../FreeRTOS/Source/tasks_sysStk.c",line 1242,column 5,is_stmt
    1442              $C$DW$135       .dwtag  DW_TAG_TI_branch
    1443                      .dwattr $C$DW$135, DW_AT_low_pc(0x00)
TMS320C55x Assembler PC v4.4.1 Tue Oct 02 02:33:57 2018

Tools Copyright (c) 1996-2012 Texas Instruments Incorporated
tasks_sysStk.asm                                                     PAGE   33

    1444                      .dwattr $C$DW$135, DW_AT_name("_vPortYield")
    1445                      .dwattr $C$DW$135, DW_AT_TI_call
    1446 000461 6C00          CALL #_vPortYield ; |1242| 
         000463 0000!
    1447                                                      ; call occurs [#_vPortYield] ; |1242| 
    1448                      .dwpsn  file "../FreeRTOS/Source/tasks_sysStk.c",line 1243,column 4,is_stmt
    1449 000465 4A00          B $C$L35  ; |1243| 
    1450                                                      ; branch occurs ; |1243| 
    1451 000467       $C$L35:    
    1452 000467 4E05          AADD #5, SP
    1453                      .dwcfi  cfa_offset, 1
    1454              $C$DW$136       .dwtag  DW_TAG_TI_branch
    1455                      .dwattr $C$DW$136, DW_AT_low_pc(0x00)
    1456                      .dwattr $C$DW$136, DW_AT_TI_return
    1457 000469 4804          RET
    1458                                                      ; return occurs
    1459              
    1460              $C$DW$137       .dwtag  DW_TAG_TI_loop
    1461                      .dwattr $C$DW$137, DW_AT_name("F:\eZdsp-DBG-sim\tmp1\c55x-sim2\foo\Debug\tasks_sysStk.asm:$C$L33:1:15
    1462                      .dwattr $C$DW$137, DW_AT_TI_begin_file("../FreeRTOS/Source/tasks_sysStk.c")
    1463                      .dwattr $C$DW$137, DW_AT_TI_begin_line(0x4d9)
    1464                      .dwattr $C$DW$137, DW_AT_TI_end_line(0x4d9)
    1465              $C$DW$138       .dwtag  DW_TAG_TI_loop_range
    1466                      .dwattr $C$DW$138, DW_AT_low_pc($C$DW$L$_vTaskDelete$19$B)
    1467                      .dwattr $C$DW$138, DW_AT_high_pc($C$DW$L$_vTaskDelete$19$E)
    1468                      .dwendtag $C$DW$137
    1469              
    1470                      .dwattr $C$DW$126, DW_AT_TI_end_file("../FreeRTOS/Source/tasks_sysStk.c")
    1471                      .dwattr $C$DW$126, DW_AT_TI_end_line(0x4e1)
    1472                      .dwattr $C$DW$126, DW_AT_TI_end_column(0x02)
    1473                      .dwendentry
    1474                      .dwendtag $C$DW$126
    1475              
    1476 00046b               .sect   ".text"
    1477                      .align 4
    1478                      .global _vTaskDelayUntil
    1479              
    1480              $C$DW$139       .dwtag  DW_TAG_subprogram, DW_AT_name("vTaskDelayUntil")
    1481                      .dwattr $C$DW$139, DW_AT_low_pc(_vTaskDelayUntil)
    1482                      .dwattr $C$DW$139, DW_AT_high_pc(0x00)
    1483                      .dwattr $C$DW$139, DW_AT_TI_symbol_name("_vTaskDelayUntil")
    1484                      .dwattr $C$DW$139, DW_AT_external
    1485                      .dwattr $C$DW$139, DW_AT_TI_begin_file("../FreeRTOS/Source/tasks_sysStk.c")
    1486                      .dwattr $C$DW$139, DW_AT_TI_begin_line(0x4e8)
    1487                      .dwattr $C$DW$139, DW_AT_TI_begin_column(0x07)
    1488                      .dwattr $C$DW$139, DW_AT_TI_max_frame_size(0x0c)
    1489                      .dwpsn  file "../FreeRTOS/Source/tasks_sysStk.c",line 1257,column 2,is_stmt,address _vTaskDelayUntil
    1490              
    1491                      .dwfde $C$DW$CIE, _vTaskDelayUntil
    1492              $C$DW$140       .dwtag  DW_TAG_formal_parameter, DW_AT_name("pxPreviousWakeTime")
    1493                      .dwattr $C$DW$140, DW_AT_TI_symbol_name("_pxPreviousWakeTime")
    1494                      .dwattr $C$DW$140, DW_AT_type(*$C$DW$T$94)
    1495                      .dwattr $C$DW$140, DW_AT_location[DW_OP_reg17]
    1496              $C$DW$141       .dwtag  DW_TAG_formal_parameter, DW_AT_name("xTimeIncrement")
    1497                      .dwattr $C$DW$141, DW_AT_TI_symbol_name("_xTimeIncrement")
TMS320C55x Assembler PC v4.4.1 Tue Oct 02 02:33:57 2018

Tools Copyright (c) 1996-2012 Texas Instruments Incorporated
tasks_sysStk.asm                                                     PAGE   34

    1498                      .dwattr $C$DW$141, DW_AT_type(*$C$DW$T$95)
    1499                      .dwattr $C$DW$141, DW_AT_location[DW_OP_reg0]
    1500              ;*******************************************************************************
    1501              ;* FUNCTION NAME: vTaskDelayUntil                                              *
    1502              ;*                                                                             *
    1503              ;*   Function Uses Regs : AC0,AC0,AC1,AC1,T0,AR0,XAR0,AR1,AR2,AR3,XAR3,SP,     *
    1504              ;*                        CARRY,TC1,M40,SATA,SATD,RDM,FRCT,SMUL                *
    1505              ;*   Stack Frame        : Compact (No Frame Pointer, w/ debug)                 *
    1506              ;*   Total Frame Size   : 12 words                                             *
    1507              ;*                        (2 return address/alignment)                         *
    1508              ;*                        (10 local values)                                    *
    1509              ;*   Min System Stack   : 1 word                                               *
    1510              ;*******************************************************************************
    1511 00046c       _vTaskDelayUntil:
    1512                      .dwcfi  cfa_offset, 1
    1513                      .dwcfi  save_reg_to_mem, 91, -1
    1514 00046c 4EF5          AADD #-11, SP
    1515                      .dwcfi  cfa_offset, 12
    1516              $C$DW$142       .dwtag  DW_TAG_variable, DW_AT_name("pxPreviousWakeTime")
    1517                      .dwattr $C$DW$142, DW_AT_TI_symbol_name("_pxPreviousWakeTime")
    1518                      .dwattr $C$DW$142, DW_AT_type(*$C$DW$T$94)
    1519                      .dwattr $C$DW$142, DW_AT_location[DW_OP_bregx 0x24 0]
    1520              $C$DW$143       .dwtag  DW_TAG_variable, DW_AT_name("xTimeIncrement")
    1521                      .dwattr $C$DW$143, DW_AT_TI_symbol_name("_xTimeIncrement")
    1522                      .dwattr $C$DW$143, DW_AT_type(*$C$DW$T$95)
    1523                      .dwattr $C$DW$143, DW_AT_location[DW_OP_bregx 0x24 2]
    1524              $C$DW$144       .dwtag  DW_TAG_variable, DW_AT_name("xTimeToWake")
    1525                      .dwattr $C$DW$144, DW_AT_TI_symbol_name("_xTimeToWake")
    1526                      .dwattr $C$DW$144, DW_AT_type(*$C$DW$T$37)
    1527                      .dwattr $C$DW$144, DW_AT_location[DW_OP_bregx 0x24 4]
    1528              $C$DW$145       .dwtag  DW_TAG_variable, DW_AT_name("xAlreadyYielded")
    1529                      .dwattr $C$DW$145, DW_AT_TI_symbol_name("_xAlreadyYielded")
    1530                      .dwattr $C$DW$145, DW_AT_type(*$C$DW$T$43)
    1531                      .dwattr $C$DW$145, DW_AT_location[DW_OP_bregx 0x24 6]
    1532              $C$DW$146       .dwtag  DW_TAG_variable, DW_AT_name("xShouldDelay")
    1533                      .dwattr $C$DW$146, DW_AT_TI_symbol_name("_xShouldDelay")
    1534                      .dwattr $C$DW$146, DW_AT_type(*$C$DW$T$43)
    1535                      .dwattr $C$DW$146, DW_AT_location[DW_OP_bregx 0x24 7]
    1536 00046e EB04          MOV AC0, dbl(*SP(#2)) ; |1257| 
         000470 08   
    1537 000471 EB00          MOV XAR0, dbl(*SP(#0))
         000473 85   
    1538                      .dwpsn  file "../FreeRTOS/Source/tasks_sysStk.c",line 1259,column 30,is_stmt
    1539 000474 E60E          MOV #0, *SP(#7) ; |1259| 
         000476 00   
    1540                      .dwpsn  file "../FreeRTOS/Source/tasks_sysStk.c",line 1261,column 3,is_stmt
    1541 000477 ED00          MOV dbl(*SP(#0)), XAR3
         000479 BF   
    1542 00047a 90B0          MOV XAR3, AC0
    1543 00047c 6290          BCC $C$L37,AC0 != #0 ; |1261| 
    1544                                                      ; branchcc occurs ; |1261| 
    1545 00047e 20     nop
    1546 00047f 46B3   bset INTM
    1547 000481       $C$L36:    
    1548 000481       $C$DW$L$_vTaskDelayUntil$3$B:
TMS320C55x Assembler PC v4.4.1 Tue Oct 02 02:33:57 2018

Tools Copyright (c) 1996-2012 Texas Instruments Incorporated
tasks_sysStk.asm                                                     PAGE   35

    1549 000481 4A7E          B $C$L36  ; |1261| 
    1550                                                      ; branch occurs ; |1261| 
    1551 000483       $C$DW$L$_vTaskDelayUntil$3$E:
    1552 000483       $C$L37:    
    1553                      .dwpsn  file "../FreeRTOS/Source/tasks_sysStk.c",line 1262,column 3,is_stmt
    1554 000483 ED04          MOV dbl(*SP(#2)), AC0 ; |1262| 
         000485 08   
    1555 000486 3C09          MOV #0, AR1
    1556 000488 6100          BCC $C$L38,AC0 == #0 ; |1262| 
    1557                                                      ; branchcc occurs ; |1262| 
    1558 00048a 3C19          MOV #1, AR1
    1559 00048c       $C$L38:    
    1560 00048c 6299          BCC $C$L40,AR1 != #0 ; |1262| 
    1561                                                      ; branchcc occurs ; |1262| 
    1562 00048e 20     nop
    1563 00048f 46B3   bset INTM
    1564 000491       $C$L39:    
    1565 000491       $C$DW$L$_vTaskDelayUntil$8$B:
    1566 000491 4A7E          B $C$L39  ; |1262| 
    1567                                                      ; branch occurs ; |1262| 
    1568 000493       $C$DW$L$_vTaskDelayUntil$8$E:
    1569 000493       $C$L40:    
    1570                      .dwpsn  file "../FreeRTOS/Source/tasks_sysStk.c",line 1263,column 3,is_stmt
    1571 000493 AA31          MOV *(#_uxSchedulerSuspended), AR2 ; |1263| 
         000495 0000 
         000497 7C-  
    1572 000498 3C09          MOV #0, AR1
    1573 00049a 611A          BCC $C$L41,AR2 != #0 ; |1263| 
    1574                                                      ; branchcc occurs ; |1263| 
    1575 00049c 3C19          MOV #1, AR1
    1576 00049e       $C$L41:    
    1577 00049e 6299          BCC $C$L43,AR1 != #0 ; |1263| 
    1578                                                      ; branchcc occurs ; |1263| 
    1579 0004a0 20     nop
    1580 0004a1 46B3   bset INTM
    1581 0004a3       $C$L42:    
    1582 0004a3       $C$DW$L$_vTaskDelayUntil$13$B:
    1583 0004a3 4A7E          B $C$L42  ; |1263| 
    1584                                                      ; branch occurs ; |1263| 
    1585 0004a5       $C$DW$L$_vTaskDelayUntil$13$E:
    1586 0004a5       $C$L43:    
    1587                      .dwpsn  file "../FreeRTOS/Source/tasks_sysStk.c",line 1265,column 3,is_stmt
    1588              $C$DW$147       .dwtag  DW_TAG_TI_branch
    1589                      .dwattr $C$DW$147, DW_AT_low_pc(0x00)
    1590                      .dwattr $C$DW$147, DW_AT_name("_vTaskSuspendAll")
    1591                      .dwattr $C$DW$147, DW_AT_TI_call
    1592 0004a5 0806          CALL #_vTaskSuspendAll ; |1265| 
         0004a7 FC   
    1593                                                      ; call occurs [#_vTaskSuspendAll] ; |1265| 
    1594              
    1595              $C$DW$148       .dwtag  DW_TAG_lexical_block, DW_AT_low_pc(0x00), DW_AT_high_pc(0x00)
    1596              $C$DW$149       .dwtag  DW_TAG_variable, DW_AT_name("xConstTickCount")
    1597                      .dwattr $C$DW$149, DW_AT_TI_symbol_name("_xConstTickCount")
    1598                      .dwattr $C$DW$149, DW_AT_type(*$C$DW$T$95)
    1599                      .dwattr $C$DW$149, DW_AT_location[DW_OP_bregx 0x24 8]
TMS320C55x Assembler PC v4.4.1 Tue Oct 02 02:33:57 2018

Tools Copyright (c) 1996-2012 Texas Instruments Incorporated
tasks_sysStk.asm                                                     PAGE   36

    1600                      .dwpsn  file "../FreeRTOS/Source/tasks_sysStk.c",line 1269,column 21,is_stmt
    1601 0004a8 ED31          MOV dbl(*(#_xTickCount)), AC0 ; |1269| 
         0004aa 0800 
         0004ac 0070-
    1602 0004ae EB10          MOV AC0, dbl(*SP(#8)) ; |1269| 
         0004b0 08   
    1603                      .dwpsn  file "../FreeRTOS/Source/tasks_sysStk.c",line 1272,column 4,is_stmt
    1604 0004b1 ED00          MOV dbl(*SP(#0)), XAR3
         0004b3 BF   
    1605 0004b4 ED04          MOV dbl(*SP(#2)), AC0 ; |1272| 
         0004b6 08   
    1606 0004b7 ED61          ADD dbl(*AR3), AC0, AC0 ; |1272| 
         0004b9 00   
    1607 0004ba EB08          MOV AC0, dbl(*SP(#4)) ; |1272| 
         0004bc 08   
    1608                      .dwpsn  file "../FreeRTOS/Source/tasks_sysStk.c",line 1274,column 4,is_stmt
    1609 0004bd ED00          MOV dbl(*SP(#0)), XAR3
         0004bf BF   
    1610 0004c0 ED10          MOV dbl(*SP(#8)), AC1 ; |1274| 
         0004c2 18   
    1611 0004c3 ED61          MOV dbl(*AR3), AC0 ; |1274| 
         0004c5 08   
    1612 0004c6 1218          CMPU AC1 >= AC0, TC1 ; |1274| 
         0004c8 04   
    1613 0004c9 0464          BCC $C$L44,TC1 ; |1274| 
         0004cb 1D   
    1614                                                      ; branchcc occurs ; |1274| 
    1615                      .dwpsn  file "../FreeRTOS/Source/tasks_sysStk.c",line 1281,column 5,is_stmt
    1616 0004cc ED61          MOV dbl(*AR3), AC0 ; |1281| 
         0004ce 08   
    1617 0004cf ED08          MOV dbl(*SP(#4)), AC1 ; |1281| 
         0004d1 18   
    1618 0004d2 1218          CMPU AC1 >= AC0, TC1 ; |1281| 
         0004d4 04   
    1619 0004d5 0464          BCC $C$L46,TC1 ; |1281| 
         0004d7 2A   
    1620                                                      ; branchcc occurs ; |1281| 
    1621 0004d8 ED10          MOV dbl(*SP(#8)), AC0 ; |1281| 
         0004da 08   
    1622 0004db ED08          MOV dbl(*SP(#4)), AC1 ; |1281| 
         0004dd 18   
    1623 0004de 1208          CMPU AC1 <= AC0, TC1 ; |1281| 
         0004e0 14   
    1624 0004e1 0464          BCC $C$L46,TC1 ; |1281| 
         0004e3 1E   
    1625                                                      ; branchcc occurs ; |1281| 
    1626                      .dwpsn  file "../FreeRTOS/Source/tasks_sysStk.c",line 1283,column 6,is_stmt
    1627 0004e4 E60E          MOV #1, *SP(#7) ; |1283| 
         0004e6 01   
    1628                      .dwpsn  file "../FreeRTOS/Source/tasks_sysStk.c",line 1284,column 5,is_stmt
    1629 0004e7 4A19          B $C$L46  ; |1284| 
    1630                                                      ; branch occurs ; |1284| 
    1631 0004e9       $C$L44:    
    1632                      .dwpsn  file "../FreeRTOS/Source/tasks_sysStk.c",line 1295,column 5,is_stmt
    1633 0004e9 ED61          MOV dbl(*AR3), AC0 ; |1295| 
TMS320C55x Assembler PC v4.4.1 Tue Oct 02 02:33:57 2018

Tools Copyright (c) 1996-2012 Texas Instruments Incorporated
tasks_sysStk.asm                                                     PAGE   37

         0004eb 08   
    1634 0004ec ED08          MOV dbl(*SP(#4)), AC1 ; |1295| 
         0004ee 18   
    1635 0004ef 1214          CMPU AC1 < AC0, TC1 ; |1295| 
         0004f1 04   
    1636 0004f2 65E4          BCC $C$L45,TC1 ; |1295| 
    1637                                                      ; branchcc occurs ; |1295| 
    1638 0004f4 ED10          MOV dbl(*SP(#8)), AC0 ; |1295| 
         0004f6 08   
    1639 0004f7 ED08          MOV dbl(*SP(#4)), AC1 ; |1295| 
         0004f9 18   
    1640 0004fa 1208          CMPU AC1 <= AC0, TC1 ; |1295| 
         0004fc 14   
    1641 0004fd 61E4          BCC $C$L46,TC1 ; |1295| 
    1642                                                      ; branchcc occurs ; |1295| 
    1643 0004ff       $C$L45:    
    1644                      .dwpsn  file "../FreeRTOS/Source/tasks_sysStk.c",line 1297,column 6,is_stmt
    1645 0004ff E60E          MOV #1, *SP(#7) ; |1297| 
         000501 01   
    1646                      .dwpsn  file "../FreeRTOS/Source/tasks_sysStk.c",line 1298,column 5,is_stmt
    1647 000502       $C$L46:    
    1648                      .dwpsn  file "../FreeRTOS/Source/tasks_sysStk.c",line 1306,column 4,is_stmt
    1649 000502 ED00          MOV dbl(*SP(#0)), XAR3
         000504 BF   
    1650 000505 ED08          MOV dbl(*SP(#4)), AC0 ; |1306| 
         000507 08   
    1651 000508 EB61          MOV AC0, dbl(*AR3) ; |1306| 
         00050a 08   
    1652                      .dwpsn  file "../FreeRTOS/Source/tasks_sysStk.c",line 1308,column 4,is_stmt
    1653 00050b A90E          MOV *SP(#7), AR1 ; |1308| 
    1654 00050d 6589          BCC $C$L47,AR1 == #0 ; |1308| 
    1655                                                      ; branchcc occurs ; |1308| 
    1656                      .dwpsn  file "../FreeRTOS/Source/tasks_sysStk.c",line 1314,column 5,is_stmt
    1657 00050f ED10          MOV dbl(*SP(#8)), AC0 ; |1314| 
         000511 08   
    1658 000512 ED08          SUB AC0, dbl(*SP(#4)), AC0 ; |1314| 
         000514 04   
    1659              $C$DW$150       .dwtag  DW_TAG_TI_branch
    1660                      .dwattr $C$DW$150, DW_AT_low_pc(0x00)
    1661                      .dwattr $C$DW$150, DW_AT_name("_prvAddCurrentTaskToDelayedList")
    1662                      .dwattr $C$DW$150, DW_AT_TI_call
    1663              
    1664 000515 0819          CALL #_prvAddCurrentTaskToDelayedList ; |1314| 
         000517 5A   
    1665 000518 3D04  ||      MOV #0, T0
    1666              
    1667                                                      ; call occurs [#_prvAddCurrentTaskToDelayedList] ; |1314| 
    1668                      .dwpsn  file "../FreeRTOS/Source/tasks_sysStk.c",line 1315,column 4,is_stmt
    1669              $C$L47:    
    1670                      .dwendtag $C$DW$148
    1671              
    1672                      .dwpsn  file "../FreeRTOS/Source/tasks_sysStk.c",line 1321,column 3,is_stmt
    1673              $C$DW$151       .dwtag  DW_TAG_TI_branch
    1674                      .dwattr $C$DW$151, DW_AT_low_pc(0x00)
    1675                      .dwattr $C$DW$151, DW_AT_name("_xTaskResumeAll")
TMS320C55x Assembler PC v4.4.1 Tue Oct 02 02:33:57 2018

Tools Copyright (c) 1996-2012 Texas Instruments Incorporated
tasks_sysStk.asm                                                     PAGE   38

    1676                      .dwattr $C$DW$151, DW_AT_TI_call
    1677 00051a 0806          CALL #_xTaskResumeAll ; |1321| 
         00051c 93   
    1678                                                      ; call occurs [#_xTaskResumeAll] ; |1321| 
    1679 00051d C40C          MOV T0, *SP(#6) ; |1321| 
    1680                      .dwpsn  file "../FreeRTOS/Source/tasks_sysStk.c",line 1325,column 3,is_stmt
    1681 00051f 2249          MOV T0, AR1
    1682 000521 6319          BCC $C$L48,AR1 != #0 ; |1325| 
    1683                                                      ; branchcc occurs ; |1325| 
    1684                      .dwpsn  file "../FreeRTOS/Source/tasks_sysStk.c",line 1327,column 4,is_stmt
    1685              $C$DW$152       .dwtag  DW_TAG_TI_branch
    1686                      .dwattr $C$DW$152, DW_AT_low_pc(0x00)
    1687                      .dwattr $C$DW$152, DW_AT_name("_vPortYield")
    1688                      .dwattr $C$DW$152, DW_AT_TI_call
    1689 000523 6C00          CALL #_vPortYield ; |1327| 
         000525 0000!
    1690                                                      ; call occurs [#_vPortYield] ; |1327| 
    1691                      .dwpsn  file "../FreeRTOS/Source/tasks_sysStk.c",line 1328,column 3,is_stmt
    1692 000527 4A00          B $C$L48  ; |1328| 
    1693                                                      ; branch occurs ; |1328| 
    1694 000529       $C$L48:    
    1695 000529 4E0B          AADD #11, SP
    1696                      .dwcfi  cfa_offset, 1
    1697              $C$DW$153       .dwtag  DW_TAG_TI_branch
    1698                      .dwattr $C$DW$153, DW_AT_low_pc(0x00)
    1699                      .dwattr $C$DW$153, DW_AT_TI_return
    1700 00052b 4804          RET
    1701                                                      ; return occurs
    1702              
    1703              $C$DW$154       .dwtag  DW_TAG_TI_loop
    1704                      .dwattr $C$DW$154, DW_AT_name("F:\eZdsp-DBG-sim\tmp1\c55x-sim2\foo\Debug\tasks_sysStk.asm:$C$L42:1:15
    1705                      .dwattr $C$DW$154, DW_AT_TI_begin_file("../FreeRTOS/Source/tasks_sysStk.c")
    1706                      .dwattr $C$DW$154, DW_AT_TI_begin_line(0x4ef)
    1707                      .dwattr $C$DW$154, DW_AT_TI_end_line(0x4ef)
    1708              $C$DW$155       .dwtag  DW_TAG_TI_loop_range
    1709                      .dwattr $C$DW$155, DW_AT_low_pc($C$DW$L$_vTaskDelayUntil$13$B)
    1710                      .dwattr $C$DW$155, DW_AT_high_pc($C$DW$L$_vTaskDelayUntil$13$E)
    1711                      .dwendtag $C$DW$154
    1712              
    1713              
    1714              $C$DW$156       .dwtag  DW_TAG_TI_loop
    1715                      .dwattr $C$DW$156, DW_AT_name("F:\eZdsp-DBG-sim\tmp1\c55x-sim2\foo\Debug\tasks_sysStk.asm:$C$L39:1:15
    1716                      .dwattr $C$DW$156, DW_AT_TI_begin_file("../FreeRTOS/Source/tasks_sysStk.c")
    1717                      .dwattr $C$DW$156, DW_AT_TI_begin_line(0x4ee)
    1718                      .dwattr $C$DW$156, DW_AT_TI_end_line(0x4ee)
    1719              $C$DW$157       .dwtag  DW_TAG_TI_loop_range
    1720                      .dwattr $C$DW$157, DW_AT_low_pc($C$DW$L$_vTaskDelayUntil$8$B)
    1721                      .dwattr $C$DW$157, DW_AT_high_pc($C$DW$L$_vTaskDelayUntil$8$E)
    1722                      .dwendtag $C$DW$156
    1723              
    1724              
    1725              $C$DW$158       .dwtag  DW_TAG_TI_loop
    1726                      .dwattr $C$DW$158, DW_AT_name("F:\eZdsp-DBG-sim\tmp1\c55x-sim2\foo\Debug\tasks_sysStk.asm:$C$L36:1:15
    1727                      .dwattr $C$DW$158, DW_AT_TI_begin_file("../FreeRTOS/Source/tasks_sysStk.c")
    1728                      .dwattr $C$DW$158, DW_AT_TI_begin_line(0x4ed)
TMS320C55x Assembler PC v4.4.1 Tue Oct 02 02:33:57 2018

Tools Copyright (c) 1996-2012 Texas Instruments Incorporated
tasks_sysStk.asm                                                     PAGE   39

    1729                      .dwattr $C$DW$158, DW_AT_TI_end_line(0x4ed)
    1730              $C$DW$159       .dwtag  DW_TAG_TI_loop_range
    1731                      .dwattr $C$DW$159, DW_AT_low_pc($C$DW$L$_vTaskDelayUntil$3$B)
    1732                      .dwattr $C$DW$159, DW_AT_high_pc($C$DW$L$_vTaskDelayUntil$3$E)
    1733                      .dwendtag $C$DW$158
    1734              
    1735                      .dwattr $C$DW$139, DW_AT_TI_end_file("../FreeRTOS/Source/tasks_sysStk.c")
    1736                      .dwattr $C$DW$139, DW_AT_TI_end_line(0x535)
    1737                      .dwattr $C$DW$139, DW_AT_TI_end_column(0x02)
    1738                      .dwendentry
    1739                      .dwendtag $C$DW$139
    1740              
    1741 00052d               .sect   ".text"
    1742                      .align 4
    1743                      .global _vTaskDelay
    1744              
    1745              $C$DW$160       .dwtag  DW_TAG_subprogram, DW_AT_name("vTaskDelay")
    1746                      .dwattr $C$DW$160, DW_AT_low_pc(_vTaskDelay)
    1747                      .dwattr $C$DW$160, DW_AT_high_pc(0x00)
    1748                      .dwattr $C$DW$160, DW_AT_TI_symbol_name("_vTaskDelay")
    1749                      .dwattr $C$DW$160, DW_AT_external
    1750                      .dwattr $C$DW$160, DW_AT_TI_begin_file("../FreeRTOS/Source/tasks_sysStk.c")
    1751                      .dwattr $C$DW$160, DW_AT_TI_begin_line(0x53c)
    1752                      .dwattr $C$DW$160, DW_AT_TI_begin_column(0x07)
    1753                      .dwattr $C$DW$160, DW_AT_TI_max_frame_size(0x04)
    1754                      .dwpsn  file "../FreeRTOS/Source/tasks_sysStk.c",line 1341,column 2,is_stmt,address _vTaskDelay
    1755              
    1756                      .dwfde $C$DW$CIE, _vTaskDelay
    1757              $C$DW$161       .dwtag  DW_TAG_formal_parameter, DW_AT_name("xTicksToDelay")
    1758                      .dwattr $C$DW$161, DW_AT_TI_symbol_name("_xTicksToDelay")
    1759                      .dwattr $C$DW$161, DW_AT_type(*$C$DW$T$95)
    1760                      .dwattr $C$DW$161, DW_AT_location[DW_OP_reg0]
    1761              ;*******************************************************************************
    1762              ;* FUNCTION NAME: vTaskDelay                                                   *
    1763              ;*                                                                             *
    1764              ;*   Function Uses Regs : AC0,AC0,T0,AR1,AR2,SP,M40,SATA,SATD,RDM,FRCT,SMUL    *
    1765              ;*   Stack Frame        : Compact (No Frame Pointer, w/ debug)                 *
    1766              ;*   Total Frame Size   : 4 words                                              *
    1767              ;*                        (1 return address/alignment)                         *
    1768              ;*                        (3 local values)                                     *
    1769              ;*   Min System Stack   : 1 word                                               *
    1770              ;*******************************************************************************
    1771 000530       _vTaskDelay:
    1772                      .dwcfi  cfa_offset, 1
    1773                      .dwcfi  save_reg_to_mem, 91, -1
    1774 000530 4EFD          AADD #-3, SP
    1775                      .dwcfi  cfa_offset, 4
    1776              $C$DW$162       .dwtag  DW_TAG_variable, DW_AT_name("xTicksToDelay")
    1777                      .dwattr $C$DW$162, DW_AT_TI_symbol_name("_xTicksToDelay")
    1778                      .dwattr $C$DW$162, DW_AT_type(*$C$DW$T$95)
    1779                      .dwattr $C$DW$162, DW_AT_location[DW_OP_bregx 0x24 0]
    1780              $C$DW$163       .dwtag  DW_TAG_variable, DW_AT_name("xAlreadyYielded")
    1781                      .dwattr $C$DW$163, DW_AT_TI_symbol_name("_xAlreadyYielded")
    1782                      .dwattr $C$DW$163, DW_AT_type(*$C$DW$T$43)
    1783                      .dwattr $C$DW$163, DW_AT_location[DW_OP_bregx 0x24 2]
TMS320C55x Assembler PC v4.4.1 Tue Oct 02 02:33:57 2018

Tools Copyright (c) 1996-2012 Texas Instruments Incorporated
tasks_sysStk.asm                                                     PAGE   40

    1784 000532 EB00          MOV AC0, dbl(*SP(#0)) ; |1341| 
         000534 08   
    1785                      .dwpsn  file "../FreeRTOS/Source/tasks_sysStk.c",line 1342,column 13,is_stmt
    1786 000535 E604          MOV #0, *SP(#2) ; |1342| 
         000537 00   
    1787                      .dwpsn  file "../FreeRTOS/Source/tasks_sysStk.c",line 1345,column 3,is_stmt
    1788 000538 ED00          MOV dbl(*SP(#0)), AC0 ; |1345| 
         00053a 08   
    1789 00053b 0400          BCC $C$L52,AC0 == #0 ; |1345| 
         00053d 22   
    1790                                                      ; branchcc occurs ; |1345| 
    1791                      .dwpsn  file "../FreeRTOS/Source/tasks_sysStk.c",line 1347,column 4,is_stmt
    1792 00053e AA31          MOV *(#_uxSchedulerSuspended), AR2 ; |1347| 
         000540 0000 
         000542 7C-  
    1793 000543 3C09          MOV #0, AR1
    1794 000545 611A          BCC $C$L49,AR2 != #0 ; |1347| 
    1795                                                      ; branchcc occurs ; |1347| 
    1796 000547 3C19          MOV #1, AR1
    1797 000549       $C$L49:    
    1798 000549 6299          BCC $C$L51,AR1 != #0 ; |1347| 
    1799                                                      ; branchcc occurs ; |1347| 
    1800 00054b 20     nop
    1801 00054c 46B3   bset INTM
    1802 00054e       $C$L50:    
    1803 00054e       $C$DW$L$_vTaskDelay$6$B:
    1804 00054e 4A7E          B $C$L50  ; |1347| 
    1805                                                      ; branch occurs ; |1347| 
    1806 000550       $C$DW$L$_vTaskDelay$6$E:
    1807 000550       $C$L51:    
    1808                      .dwpsn  file "../FreeRTOS/Source/tasks_sysStk.c",line 1348,column 4,is_stmt
    1809              $C$DW$164       .dwtag  DW_TAG_TI_branch
    1810                      .dwattr $C$DW$164, DW_AT_low_pc(0x00)
    1811                      .dwattr $C$DW$164, DW_AT_name("_vTaskSuspendAll")
    1812                      .dwattr $C$DW$164, DW_AT_TI_call
    1813 000550 0806          CALL #_vTaskSuspendAll ; |1348| 
         000552 51   
    1814                                                      ; call occurs [#_vTaskSuspendAll] ; |1348| 
    1815                      .dwpsn  file "../FreeRTOS/Source/tasks_sysStk.c",line 1359,column 5,is_stmt
    1816 000553 ED00          MOV dbl(*SP(#0)), AC0 ; |1359| 
         000555 08   
    1817              $C$DW$165       .dwtag  DW_TAG_TI_branch
    1818                      .dwattr $C$DW$165, DW_AT_low_pc(0x00)
    1819                      .dwattr $C$DW$165, DW_AT_name("_prvAddCurrentTaskToDelayedList")
    1820                      .dwattr $C$DW$165, DW_AT_TI_call
    1821              
    1822 000556 0819          CALL #_prvAddCurrentTaskToDelayedList ; |1359| 
         000558 19   
    1823 000559 3D04  ||      MOV #0, T0
    1824              
    1825                                                      ; call occurs [#_prvAddCurrentTaskToDelayedList] ; |1359| 
    1826                      .dwpsn  file "../FreeRTOS/Source/tasks_sysStk.c",line 1361,column 4,is_stmt
    1827              $C$DW$166       .dwtag  DW_TAG_TI_branch
    1828                      .dwattr $C$DW$166, DW_AT_low_pc(0x00)
    1829                      .dwattr $C$DW$166, DW_AT_name("_xTaskResumeAll")
TMS320C55x Assembler PC v4.4.1 Tue Oct 02 02:33:57 2018

Tools Copyright (c) 1996-2012 Texas Instruments Incorporated
tasks_sysStk.asm                                                     PAGE   41

    1830                      .dwattr $C$DW$166, DW_AT_TI_call
    1831 00055b 0806          CALL #_xTaskResumeAll ; |1361| 
         00055d 52   
    1832                                                      ; call occurs [#_xTaskResumeAll] ; |1361| 
    1833 00055e C404          MOV T0, *SP(#2) ; |1361| 
    1834                      .dwpsn  file "../FreeRTOS/Source/tasks_sysStk.c",line 1362,column 3,is_stmt
    1835 000560       $C$L52:    
    1836                      .dwpsn  file "../FreeRTOS/Source/tasks_sysStk.c",line 1370,column 3,is_stmt
    1837 000560 A904          MOV *SP(#2), AR1 ; |1370| 
    1838 000562 6319          BCC $C$L53,AR1 != #0 ; |1370| 
    1839                                                      ; branchcc occurs ; |1370| 
    1840                      .dwpsn  file "../FreeRTOS/Source/tasks_sysStk.c",line 1372,column 4,is_stmt
    1841              $C$DW$167       .dwtag  DW_TAG_TI_branch
    1842                      .dwattr $C$DW$167, DW_AT_low_pc(0x00)
    1843                      .dwattr $C$DW$167, DW_AT_name("_vPortYield")
    1844                      .dwattr $C$DW$167, DW_AT_TI_call
    1845 000564 6C00          CALL #_vPortYield ; |1372| 
         000566 0000!
    1846                                                      ; call occurs [#_vPortYield] ; |1372| 
    1847                      .dwpsn  file "../FreeRTOS/Source/tasks_sysStk.c",line 1373,column 3,is_stmt
    1848 000568 4A00          B $C$L53  ; |1373| 
    1849                                                      ; branch occurs ; |1373| 
    1850 00056a       $C$L53:    
    1851 00056a 4E03          AADD #3, SP
    1852                      .dwcfi  cfa_offset, 1
    1853              $C$DW$168       .dwtag  DW_TAG_TI_branch
    1854                      .dwattr $C$DW$168, DW_AT_low_pc(0x00)
    1855                      .dwattr $C$DW$168, DW_AT_TI_return
    1856 00056c 4804          RET
    1857                                                      ; return occurs
    1858              
    1859              $C$DW$169       .dwtag  DW_TAG_TI_loop
    1860                      .dwattr $C$DW$169, DW_AT_name("F:\eZdsp-DBG-sim\tmp1\c55x-sim2\foo\Debug\tasks_sysStk.asm:$C$L50:1:15
    1861                      .dwattr $C$DW$169, DW_AT_TI_begin_file("../FreeRTOS/Source/tasks_sysStk.c")
    1862                      .dwattr $C$DW$169, DW_AT_TI_begin_line(0x543)
    1863                      .dwattr $C$DW$169, DW_AT_TI_end_line(0x543)
    1864              $C$DW$170       .dwtag  DW_TAG_TI_loop_range
    1865                      .dwattr $C$DW$170, DW_AT_low_pc($C$DW$L$_vTaskDelay$6$B)
    1866                      .dwattr $C$DW$170, DW_AT_high_pc($C$DW$L$_vTaskDelay$6$E)
    1867                      .dwendtag $C$DW$169
    1868              
    1869                      .dwattr $C$DW$160, DW_AT_TI_end_file("../FreeRTOS/Source/tasks_sysStk.c")
    1870                      .dwattr $C$DW$160, DW_AT_TI_end_line(0x562)
    1871                      .dwattr $C$DW$160, DW_AT_TI_end_column(0x02)
    1872                      .dwendentry
    1873                      .dwendtag $C$DW$160
    1874              
    1875 00056e               .sect   ".text"
    1876                      .align 4
    1877                      .global _eTaskGetState
    1878              
    1879              $C$DW$171       .dwtag  DW_TAG_subprogram, DW_AT_name("eTaskGetState")
    1880                      .dwattr $C$DW$171, DW_AT_low_pc(_eTaskGetState)
    1881                      .dwattr $C$DW$171, DW_AT_high_pc(0x00)
    1882                      .dwattr $C$DW$171, DW_AT_TI_symbol_name("_eTaskGetState")
TMS320C55x Assembler PC v4.4.1 Tue Oct 02 02:33:57 2018

Tools Copyright (c) 1996-2012 Texas Instruments Incorporated
tasks_sysStk.asm                                                     PAGE   42

    1883                      .dwattr $C$DW$171, DW_AT_external
    1884                      .dwattr $C$DW$171, DW_AT_type(*$C$DW$T$46)
    1885                      .dwattr $C$DW$171, DW_AT_TI_begin_file("../FreeRTOS/Source/tasks_sysStk.c")
    1886                      .dwattr $C$DW$171, DW_AT_TI_begin_line(0x569)
    1887                      .dwattr $C$DW$171, DW_AT_TI_begin_column(0x0d)
    1888                      .dwattr $C$DW$171, DW_AT_TI_max_frame_size(0x0e)
    1889                      .dwpsn  file "../FreeRTOS/Source/tasks_sysStk.c",line 1386,column 2,is_stmt,address _eTaskGetState
    1890              
    1891                      .dwfde $C$DW$CIE, _eTaskGetState
    1892              $C$DW$172       .dwtag  DW_TAG_formal_parameter, DW_AT_name("xTask")
    1893                      .dwattr $C$DW$172, DW_AT_TI_symbol_name("_xTask")
    1894                      .dwattr $C$DW$172, DW_AT_type(*$C$DW$T$48)
    1895                      .dwattr $C$DW$172, DW_AT_location[DW_OP_reg17]
    1896              ;*******************************************************************************
    1897              ;* FUNCTION NAME: eTaskGetState                                                *
    1898              ;*                                                                             *
    1899              ;*   Function Uses Regs : AC0,AC0,AC1,AC1,T0,AR0,XAR0,AR1,AR3,XAR3,SP,CARRY,   *
    1900              ;*                        TC1,M40,SATA,SATD,RDM,FRCT,SMUL                      *
    1901              ;*   Stack Frame        : Compact (No Frame Pointer, w/ debug)                 *
    1902              ;*   Total Frame Size   : 14 words                                             *
    1903              ;*                        (2 return address/alignment)                         *
    1904              ;*                        (12 local values)                                    *
    1905              ;*   Min System Stack   : 1 word                                               *
    1906              ;*******************************************************************************
    1907 000570       _eTaskGetState:
    1908                      .dwcfi  cfa_offset, 1
    1909                      .dwcfi  save_reg_to_mem, 91, -1
    1910 000570 4EF3          AADD #-13, SP
    1911                      .dwcfi  cfa_offset, 14
    1912              $C$DW$173       .dwtag  DW_TAG_variable, DW_AT_name("xTask")
    1913                      .dwattr $C$DW$173, DW_AT_TI_symbol_name("_xTask")
    1914                      .dwattr $C$DW$173, DW_AT_type(*$C$DW$T$48)
    1915                      .dwattr $C$DW$173, DW_AT_location[DW_OP_bregx 0x24 0]
    1916              $C$DW$174       .dwtag  DW_TAG_variable, DW_AT_name("eReturn")
    1917                      .dwattr $C$DW$174, DW_AT_TI_symbol_name("_eReturn")
    1918                      .dwattr $C$DW$174, DW_AT_type(*$C$DW$T$46)
    1919                      .dwattr $C$DW$174, DW_AT_location[DW_OP_bregx 0x24 2]
    1920              $C$DW$175       .dwtag  DW_TAG_variable, DW_AT_name("pxStateList")
    1921                      .dwattr $C$DW$175, DW_AT_TI_symbol_name("_pxStateList")
    1922                      .dwattr $C$DW$175, DW_AT_type(*$C$DW$T$129)
    1923                      .dwattr $C$DW$175, DW_AT_location[DW_OP_bregx 0x24 4]
    1924              $C$DW$176       .dwtag  DW_TAG_variable, DW_AT_name("pxDelayedList")
    1925                      .dwattr $C$DW$176, DW_AT_TI_symbol_name("_pxDelayedList")
    1926                      .dwattr $C$DW$176, DW_AT_type(*$C$DW$T$129)
    1927                      .dwattr $C$DW$176, DW_AT_location[DW_OP_bregx 0x24 6]
    1928              $C$DW$177       .dwtag  DW_TAG_variable, DW_AT_name("pxOverflowedDelayedList")
    1929                      .dwattr $C$DW$177, DW_AT_TI_symbol_name("_pxOverflowedDelayedList")
    1930                      .dwattr $C$DW$177, DW_AT_type(*$C$DW$T$129)
    1931                      .dwattr $C$DW$177, DW_AT_location[DW_OP_bregx 0x24 8]
    1932              $C$DW$178       .dwtag  DW_TAG_variable, DW_AT_name("pxTCB")
    1933                      .dwattr $C$DW$178, DW_AT_TI_symbol_name("_pxTCB")
    1934                      .dwattr $C$DW$178, DW_AT_type(*$C$DW$T$158)
    1935                      .dwattr $C$DW$178, DW_AT_location[DW_OP_bregx 0x24 10]
    1936 000572 EB00          MOV XAR0, dbl(*SP(#0))
         000574 85   
TMS320C55x Assembler PC v4.4.1 Tue Oct 02 02:33:57 2018

Tools Copyright (c) 1996-2012 Texas Instruments Incorporated
tasks_sysStk.asm                                                     PAGE   43

    1937                      .dwpsn  file "../FreeRTOS/Source/tasks_sysStk.c",line 1389,column 22,is_stmt
    1938 000575 ED00          MOV dbl(*SP(#0)), XAR3
         000577 BF   
    1939 000578 EB14          MOV XAR3, dbl(*SP(#10))
         00057a B5   
    1940                      .dwpsn  file "../FreeRTOS/Source/tasks_sysStk.c",line 1391,column 3,is_stmt
    1941 00057b 90B0          MOV XAR3, AC0
    1942 00057d 6290          BCC $C$L55,AC0 != #0 ; |1391| 
    1943                                                      ; branchcc occurs ; |1391| 
    1944 00057f 20     nop
    1945 000580 46B3   bset INTM
    1946 000582       $C$L54:    
    1947 000582       $C$DW$L$_eTaskGetState$3$B:
    1948 000582 4A7E          B $C$L54  ; |1391| 
    1949                                                      ; branch occurs ; |1391| 
    1950 000584       $C$DW$L$_eTaskGetState$3$E:
    1951 000584       $C$L55:    
    1952                      .dwpsn  file "../FreeRTOS/Source/tasks_sysStk.c",line 1393,column 3,is_stmt
    1953 000584 ED31          MOV dbl(*(#_pxCurrentTCB)), XAR3
         000586 BF00 
         000588 0004-
    1954 00058a 90B0          MOV XAR3, AC0
    1955 00058c ED14          MOV dbl(*SP(#10)), XAR3
         00058e BF   
    1956 00058f 90B1          MOV XAR3, AC1
    1957 000591 121C          CMPU AC1 != AC0, TC1 ; |1393| 
         000593 04   
    1958 000594 6364          BCC $C$L56,TC1 ; |1393| 
    1959                                                      ; branchcc occurs ; |1393| 
    1960                      .dwpsn  file "../FreeRTOS/Source/tasks_sysStk.c",line 1396,column 4,is_stmt
    1961 000596 E604          MOV #0, *SP(#2) ; |1396| 
         000598 00   
    1962                      .dwpsn  file "../FreeRTOS/Source/tasks_sysStk.c",line 1397,column 3,is_stmt
    1963 000599 0600          B $C$L65  ; |1397| 
         00059b B1   
    1964                                                      ; branch occurs ; |1397| 
    1965 00059c       $C$L56:    
    1966                      .dwpsn  file "../FreeRTOS/Source/tasks_sysStk.c",line 1400,column 4,is_stmt
    1967 00059c 20     nop
    1968 00059d 46B3   bset INTM
    1969 00059f F731          ADD #1, *(#_usCriticalNesting) ; |1400| 
         0005a1 0001 
         0005a3 0000 
         0005a5 00!  
    1970 0005a6 20            NOP
    1971                      .dwpsn  file "../FreeRTOS/Source/tasks_sysStk.c",line 1402,column 5,is_stmt
    1972 0005a7 ED6D          MOV dbl(*AR3(#12)), XAR3
         0005a9 BF00 
         0005ab 0C   
    1973 0005ac EB08          MOV XAR3, dbl(*SP(#4))
         0005ae B5   
    1974                      .dwpsn  file "../FreeRTOS/Source/tasks_sysStk.c",line 1403,column 5,is_stmt
    1975 0005af ED31          MOV dbl(*(#_pxDelayedTaskList)), XAR3
         0005b1 BF00 
         0005b3 004C-
TMS320C55x Assembler PC v4.4.1 Tue Oct 02 02:33:57 2018

Tools Copyright (c) 1996-2012 Texas Instruments Incorporated
tasks_sysStk.asm                                                     PAGE   44

    1976 0005b5 EB0C          MOV XAR3, dbl(*SP(#6))
         0005b7 B5   
    1977                      .dwpsn  file "../FreeRTOS/Source/tasks_sysStk.c",line 1404,column 5,is_stmt
    1978 0005b8 ED31          MOV dbl(*(#_pxOverflowDelayedTaskList)), XAR3
         0005ba BF00 
         0005bc 004E-
    1979 0005be EB10          MOV XAR3, dbl(*SP(#8))
         0005c0 B5   
    1980                      .dwpsn  file "../FreeRTOS/Source/tasks_sysStk.c",line 1406,column 4,is_stmt
    1981 0005c1 A931          MOV *(#_usCriticalNesting), AR1 ; |1406| 
         0005c3 0000 
         0005c5 00!  
    1982 0005c6 0409          BCC $C$L57,AR1 == #0 ; |1406| 
         0005c8 14   
    1983                                                      ; branchcc occurs ; |1406| 
    1984 0005c9 F731          SUB #1, *(#_usCriticalNesting) ; |1406| 
         0005cb FFFF 
         0005cd 0000 
         0005cf 00!  
    1985 0005d0 20            NOP
    1986 0005d1 20            NOP
    1987 0005d2 20            NOP
    1988 0005d3 A931          MOV *(#_usCriticalNesting), AR1 ; |1406| 
         0005d5 0000 
         0005d7 00!  
    1989 0005d8 6199          BCC $C$L57,AR1 != #0 ; |1406| 
    1990                                                      ; branchcc occurs ; |1406| 
    1991 0005da 20     nop
    1992 0005db 46B2   bclr INTM
    1993 0005dd       $C$L57:    
    1994                      .dwpsn  file "../FreeRTOS/Source/tasks_sysStk.c",line 1408,column 4,is_stmt
    1995 0005dd ED0C          MOV dbl(*SP(#6)), XAR3
         0005df BF   
    1996 0005e0 90B0          MOV XAR3, AC0
    1997 0005e2 ED08          MOV dbl(*SP(#4)), XAR3
         0005e4 BF   
    1998 0005e5 90B1          MOV XAR3, AC1
    1999 0005e7 1210          CMPU AC1 == AC0, TC1 ; |1408| 
         0005e9 04   
    2000 0005ea 6564          BCC $C$L58,TC1 ; |1408| 
    2001                                                      ; branchcc occurs ; |1408| 
    2002 0005ec ED10          MOV dbl(*SP(#8)), XAR3
         0005ee BF   
    2003 0005ef 90B0          MOV XAR3, AC0
    2004 0005f1 121C          CMPU AC1 != AC0, TC1 ; |1408| 
         0005f3 04   
    2005 0005f4 6364          BCC $C$L59,TC1 ; |1408| 
    2006                                                      ; branchcc occurs ; |1408| 
    2007 0005f6       $C$L58:    
    2008                      .dwpsn  file "../FreeRTOS/Source/tasks_sysStk.c",line 1412,column 5,is_stmt
    2009 0005f6 E604          MOV #2, *SP(#2) ; |1412| 
         0005f8 02   
    2010                      .dwpsn  file "../FreeRTOS/Source/tasks_sysStk.c",line 1413,column 4,is_stmt
    2011 0005f9 0600          B $C$L65  ; |1413| 
         0005fb 51   
TMS320C55x Assembler PC v4.4.1 Tue Oct 02 02:33:57 2018

Tools Copyright (c) 1996-2012 Texas Instruments Incorporated
tasks_sysStk.asm                                                     PAGE   45

    2012                                                      ; branch occurs ; |1413| 
    2013 0005fc       $C$L59:    
    2014                      .dwpsn  file "../FreeRTOS/Source/tasks_sysStk.c",line 1416,column 10,is_stmt
    2015 0005fc EC31          AMOV #_xSuspendedTaskList, XAR3 ; |1416| 
         0005fe BE00 
         000600 0066-
    2016 000602 90B0          MOV XAR3, AC0
    2017 000604 121C          CMPU AC1 != AC0, TC1 ; |1416| 
         000606 04   
    2018 000607 0464          BCC $C$L62,TC1 ; |1416| 
         000609 27   
    2019                                                      ; branchcc occurs ; |1416| 
    2020                      .dwpsn  file "../FreeRTOS/Source/tasks_sysStk.c",line 1421,column 6,is_stmt
    2021 00060a ED14          MOV dbl(*SP(#10)), XAR3
         00060c BF   
    2022 00060d ED6D          MOV dbl(*AR3(#22)), XAR3
         00060f BF00 
         000611 16   
    2023 000612 90B0          MOV XAR3, AC0
    2024 000614 0410          BCC $C$L61,AC0 != #0 ; |1421| 
         000616 15   
    2025                                                      ; branchcc occurs ; |1421| 
    2026                      .dwpsn  file "../FreeRTOS/Source/tasks_sysStk.c",line 1429,column 8,is_stmt
    2027 000617 ED14          MOV dbl(*SP(#10)), XAR3
         000619 BF   
    2028 00061a F06D          CMP *AR3(#48) == #1, TC1 ; |1429| 
         00061c 0001 
         00061e 0030 
    2029 000620 62F4          BCC $C$L60,!TC1 ; |1429| 
    2030                                                      ; branchcc occurs ; |1429| 
    2031                      .dwpsn  file "../FreeRTOS/Source/tasks_sysStk.c",line 1431,column 9,is_stmt
    2032 000622 E604          MOV #2, *SP(#2) ; |1431| 
         000624 02   
    2033                      .dwpsn  file "../FreeRTOS/Source/tasks_sysStk.c",line 1432,column 8,is_stmt
    2034 000625 4A26          B $C$L65  ; |1432| 
    2035                                                      ; branch occurs ; |1432| 
    2036 000627       $C$L60:    
    2037                      .dwpsn  file "../FreeRTOS/Source/tasks_sysStk.c",line 1435,column 9,is_stmt
    2038 000627 E604          MOV #3, *SP(#2) ; |1435| 
         000629 03   
    2039                      .dwpsn  file "../FreeRTOS/Source/tasks_sysStk.c",line 1443,column 6,is_stmt
    2040 00062a 4A21          B $C$L65  ; |1443| 
    2041                                                      ; branch occurs ; |1443| 
    2042 00062c       $C$L61:    
    2043                      .dwpsn  file "../FreeRTOS/Source/tasks_sysStk.c",line 1446,column 7,is_stmt
    2044 00062c E604          MOV #2, *SP(#2) ; |1446| 
         00062e 02   
    2045                      .dwpsn  file "../FreeRTOS/Source/tasks_sysStk.c",line 1448,column 5,is_stmt
    2046 00062f 4A1C          B $C$L65  ; |1448| 
    2047                                                      ; branch occurs ; |1448| 
    2048 000631       $C$L62:    
    2049                      .dwpsn  file "../FreeRTOS/Source/tasks_sysStk.c",line 1452,column 10,is_stmt
    2050 000631 EC31          AMOV #_xTasksWaitingTermination, XAR3 ; |1452| 
         000633 BE00 
         000635 005A-
TMS320C55x Assembler PC v4.4.1 Tue Oct 02 02:33:57 2018

Tools Copyright (c) 1996-2012 Texas Instruments Incorporated
tasks_sysStk.asm                                                     PAGE   46

    2051 000637 90B0          MOV XAR3, AC0
    2052 000639 1210          CMPU AC1 == AC0, TC1 ; |1452| 
         00063b 04   
    2053 00063c ED08          MOV dbl(*SP(#4)), XAR3
         00063e BF   
    2054 00063f 6264          BCC $C$L63,TC1 ; |1452| 
    2055                                                      ; branchcc occurs ; |1452| 
    2056 000641 90B0          MOV XAR3, AC0
    2057 000643 6290          BCC $C$L64,AC0 != #0 ; |1452| 
    2058                                                      ; branchcc occurs ; |1452| 
    2059 000645       $C$L63:    
    2060                      .dwpsn  file "../FreeRTOS/Source/tasks_sysStk.c",line 1457,column 6,is_stmt
    2061 000645 E604          MOV #4, *SP(#2) ; |1457| 
         000647 04   
    2062                      .dwpsn  file "../FreeRTOS/Source/tasks_sysStk.c",line 1458,column 5,is_stmt
    2063 000648 4A03          B $C$L65  ; |1458| 
    2064                                                      ; branch occurs ; |1458| 
    2065 00064a       $C$L64:    
    2066                      .dwpsn  file "../FreeRTOS/Source/tasks_sysStk.c",line 1465,column 5,is_stmt
    2067 00064a E604          MOV #1, *SP(#2) ; |1465| 
         00064c 01   
    2068 00064d       $C$L65:    
    2069                      .dwpsn  file "../FreeRTOS/Source/tasks_sysStk.c",line 1469,column 3,is_stmt
    2070 00064d A404          MOV *SP(#2), T0 ; |1469| 
    2071                      .dwpsn  file "../FreeRTOS/Source/tasks_sysStk.c",line 1470,column 2,is_stmt
    2072 00064f 4E0D          AADD #13, SP
    2073                      .dwcfi  cfa_offset, 1
    2074              $C$DW$179       .dwtag  DW_TAG_TI_branch
    2075                      .dwattr $C$DW$179, DW_AT_low_pc(0x00)
    2076                      .dwattr $C$DW$179, DW_AT_TI_return
    2077 000651 4804          RET
    2078                                                      ; return occurs
    2079              
    2080              $C$DW$180       .dwtag  DW_TAG_TI_loop
    2081                      .dwattr $C$DW$180, DW_AT_name("F:\eZdsp-DBG-sim\tmp1\c55x-sim2\foo\Debug\tasks_sysStk.asm:$C$L54:1:15
    2082                      .dwattr $C$DW$180, DW_AT_TI_begin_file("../FreeRTOS/Source/tasks_sysStk.c")
    2083                      .dwattr $C$DW$180, DW_AT_TI_begin_line(0x56f)
    2084                      .dwattr $C$DW$180, DW_AT_TI_end_line(0x56f)
    2085              $C$DW$181       .dwtag  DW_TAG_TI_loop_range
    2086                      .dwattr $C$DW$181, DW_AT_low_pc($C$DW$L$_eTaskGetState$3$B)
    2087                      .dwattr $C$DW$181, DW_AT_high_pc($C$DW$L$_eTaskGetState$3$E)
    2088                      .dwendtag $C$DW$180
    2089              
    2090                      .dwattr $C$DW$171, DW_AT_TI_end_file("../FreeRTOS/Source/tasks_sysStk.c")
    2091                      .dwattr $C$DW$171, DW_AT_TI_end_line(0x5be)
    2092                      .dwattr $C$DW$171, DW_AT_TI_end_column(0x02)
    2093                      .dwendentry
    2094                      .dwendtag $C$DW$171
    2095              
    2096 000653               .sect   ".text"
    2097                      .align 4
    2098                      .global _uxTaskPriorityGet
    2099              
    2100              $C$DW$182       .dwtag  DW_TAG_subprogram, DW_AT_name("uxTaskPriorityGet")
    2101                      .dwattr $C$DW$182, DW_AT_low_pc(_uxTaskPriorityGet)
TMS320C55x Assembler PC v4.4.1 Tue Oct 02 02:33:57 2018

Tools Copyright (c) 1996-2012 Texas Instruments Incorporated
tasks_sysStk.asm                                                     PAGE   47

    2102                      .dwattr $C$DW$182, DW_AT_high_pc(0x00)
    2103                      .dwattr $C$DW$182, DW_AT_TI_symbol_name("_uxTaskPriorityGet")
    2104                      .dwattr $C$DW$182, DW_AT_external
    2105                      .dwattr $C$DW$182, DW_AT_type(*$C$DW$T$25)
    2106                      .dwattr $C$DW$182, DW_AT_TI_begin_file("../FreeRTOS/Source/tasks_sysStk.c")
    2107                      .dwattr $C$DW$182, DW_AT_TI_begin_line(0x5c5)
    2108                      .dwattr $C$DW$182, DW_AT_TI_begin_column(0x0e)
    2109                      .dwattr $C$DW$182, DW_AT_TI_max_frame_size(0x06)
    2110                      .dwpsn  file "../FreeRTOS/Source/tasks_sysStk.c",line 1478,column 2,is_stmt,address _uxTaskPriorityGe
    2111              
    2112                      .dwfde $C$DW$CIE, _uxTaskPriorityGet
    2113              $C$DW$183       .dwtag  DW_TAG_formal_parameter, DW_AT_name("xTask")
    2114                      .dwattr $C$DW$183, DW_AT_TI_symbol_name("_xTask")
    2115                      .dwattr $C$DW$183, DW_AT_type(*$C$DW$T$107)
    2116                      .dwattr $C$DW$183, DW_AT_location[DW_OP_reg17]
    2117              ;*******************************************************************************
    2118              ;* FUNCTION NAME: uxTaskPriorityGet                                            *
    2119              ;*                                                                             *
    2120              ;*   Function Uses Regs : AC0,AC0,T0,AR0,XAR0,AR1,AR3,XAR3,SP,CARRY,M40,SATA,  *
    2121              ;*                        SATD,RDM,FRCT,SMUL                                   *
    2122              ;*   Stack Frame        : Compact (No Frame Pointer, w/ debug)                 *
    2123              ;*   Total Frame Size   : 6 words                                              *
    2124              ;*                        (1 return address/alignment)                         *
    2125              ;*                        (5 local values)                                     *
    2126              ;*   Min System Stack   : 1 word                                               *
    2127              ;*******************************************************************************
    2128 000654       _uxTaskPriorityGet:
    2129                      .dwcfi  cfa_offset, 1
    2130                      .dwcfi  save_reg_to_mem, 91, -1
    2131 000654 4EFB          AADD #-5, SP
    2132                      .dwcfi  cfa_offset, 6
    2133              $C$DW$184       .dwtag  DW_TAG_variable, DW_AT_name("xTask")
    2134                      .dwattr $C$DW$184, DW_AT_TI_symbol_name("_xTask")
    2135                      .dwattr $C$DW$184, DW_AT_type(*$C$DW$T$107)
    2136                      .dwattr $C$DW$184, DW_AT_location[DW_OP_bregx 0x24 0]
    2137              $C$DW$185       .dwtag  DW_TAG_variable, DW_AT_name("pxTCB")
    2138                      .dwattr $C$DW$185, DW_AT_TI_symbol_name("_pxTCB")
    2139                      .dwattr $C$DW$185, DW_AT_type(*$C$DW$T$157)
    2140                      .dwattr $C$DW$185, DW_AT_location[DW_OP_bregx 0x24 2]
    2141              $C$DW$186       .dwtag  DW_TAG_variable, DW_AT_name("uxReturn")
    2142                      .dwattr $C$DW$186, DW_AT_TI_symbol_name("_uxReturn")
    2143                      .dwattr $C$DW$186, DW_AT_type(*$C$DW$T$25)
    2144                      .dwattr $C$DW$186, DW_AT_location[DW_OP_bregx 0x24 4]
    2145 000656 EB00          MOV XAR0, dbl(*SP(#0))
         000658 85   
    2146                      .dwpsn  file "../FreeRTOS/Source/tasks_sysStk.c",line 1482,column 3,is_stmt
    2147 000659 20     nop
    2148 00065a 46B3   bset INTM
    2149 00065c F731          ADD #1, *(#_usCriticalNesting) ; |1482| 
         00065e 0001 
         000660 0000 
         000662 00!  
    2150                      .dwpsn  file "../FreeRTOS/Source/tasks_sysStk.c",line 1486,column 4,is_stmt
    2151 000663 ED00          MOV dbl(*SP(#0)), XAR3
         000665 BF   
TMS320C55x Assembler PC v4.4.1 Tue Oct 02 02:33:57 2018

Tools Copyright (c) 1996-2012 Texas Instruments Incorporated
tasks_sysStk.asm                                                     PAGE   48

    2152 000666 90B0          MOV XAR3, AC0
    2153 000668 6310          BCC $C$L66,AC0 != #0 ; |1486| 
    2154                                                      ; branchcc occurs ; |1486| 
    2155 00066a ED31          MOV dbl(*(#_pxCurrentTCB)), XAR3
         00066c BF00 
         00066e 0004-
    2156 000670       $C$L66:    
    2157 000670 EB04          MOV XAR3, dbl(*SP(#2))
         000672 B5   
    2158                      .dwpsn  file "../FreeRTOS/Source/tasks_sysStk.c",line 1487,column 4,is_stmt
    2159 000673 A96D          MOV *AR3(#24), AR1 ; |1487| 
         000675 0018 
    2160 000677 C908          MOV AR1, *SP(#4) ; |1487| 
    2161                      .dwpsn  file "../FreeRTOS/Source/tasks_sysStk.c",line 1489,column 3,is_stmt
    2162 000679 A931          MOV *(#_usCriticalNesting), AR1 ; |1489| 
         00067b 0000 
         00067d 00!  
    2163 00067e 0409          BCC $C$L67,AR1 == #0 ; |1489| 
         000680 14   
    2164                                                      ; branchcc occurs ; |1489| 
    2165 000681 F731          SUB #1, *(#_usCriticalNesting) ; |1489| 
         000683 FFFF 
         000685 0000 
         000687 00!  
    2166 000688 20            NOP
    2167 000689 20            NOP
    2168 00068a 20            NOP
    2169 00068b A931          MOV *(#_usCriticalNesting), AR1 ; |1489| 
         00068d 0000 
         00068f 00!  
    2170 000690 6199          BCC $C$L67,AR1 != #0 ; |1489| 
    2171                                                      ; branchcc occurs ; |1489| 
    2172 000692 20     nop
    2173 000693 46B2   bclr INTM
    2174 000695       $C$L67:    
    2175                      .dwpsn  file "../FreeRTOS/Source/tasks_sysStk.c",line 1491,column 3,is_stmt
    2176 000695 A408          MOV *SP(#4), T0 ; |1491| 
    2177                      .dwpsn  file "../FreeRTOS/Source/tasks_sysStk.c",line 1492,column 2,is_stmt
    2178 000697 4E05          AADD #5, SP
    2179                      .dwcfi  cfa_offset, 1
    2180              $C$DW$187       .dwtag  DW_TAG_TI_branch
    2181                      .dwattr $C$DW$187, DW_AT_low_pc(0x00)
    2182                      .dwattr $C$DW$187, DW_AT_TI_return
    2183 000699 4804          RET
    2184                                                      ; return occurs
    2185                      .dwattr $C$DW$182, DW_AT_TI_end_file("../FreeRTOS/Source/tasks_sysStk.c")
    2186                      .dwattr $C$DW$182, DW_AT_TI_end_line(0x5d4)
    2187                      .dwattr $C$DW$182, DW_AT_TI_end_column(0x02)
    2188                      .dwendentry
    2189                      .dwendtag $C$DW$182
    2190              
    2191 00069b               .sect   ".text"
    2192                      .align 4
    2193                      .global _uxTaskPriorityGetFromISR
    2194              
TMS320C55x Assembler PC v4.4.1 Tue Oct 02 02:33:57 2018

Tools Copyright (c) 1996-2012 Texas Instruments Incorporated
tasks_sysStk.asm                                                     PAGE   49

    2195              $C$DW$188       .dwtag  DW_TAG_subprogram, DW_AT_name("uxTaskPriorityGetFromISR")
    2196                      .dwattr $C$DW$188, DW_AT_low_pc(_uxTaskPriorityGetFromISR)
    2197                      .dwattr $C$DW$188, DW_AT_high_pc(0x00)
    2198                      .dwattr $C$DW$188, DW_AT_TI_symbol_name("_uxTaskPriorityGetFromISR")
    2199                      .dwattr $C$DW$188, DW_AT_external
    2200                      .dwattr $C$DW$188, DW_AT_type(*$C$DW$T$25)
    2201                      .dwattr $C$DW$188, DW_AT_TI_begin_file("../FreeRTOS/Source/tasks_sysStk.c")
    2202                      .dwattr $C$DW$188, DW_AT_TI_begin_line(0x5db)
    2203                      .dwattr $C$DW$188, DW_AT_TI_begin_column(0x0e)
    2204                      .dwattr $C$DW$188, DW_AT_TI_max_frame_size(0x08)
    2205                      .dwpsn  file "../FreeRTOS/Source/tasks_sysStk.c",line 1500,column 2,is_stmt,address _uxTaskPriorityGe
    2206              
    2207                      .dwfde $C$DW$CIE, _uxTaskPriorityGetFromISR
    2208              $C$DW$189       .dwtag  DW_TAG_formal_parameter, DW_AT_name("xTask")
    2209                      .dwattr $C$DW$189, DW_AT_TI_symbol_name("_xTask")
    2210                      .dwattr $C$DW$189, DW_AT_type(*$C$DW$T$107)
    2211                      .dwattr $C$DW$189, DW_AT_location[DW_OP_reg17]
    2212              ;*******************************************************************************
    2213              ;* FUNCTION NAME: uxTaskPriorityGetFromISR                                     *
    2214              ;*                                                                             *
    2215              ;*   Function Uses Regs : AC0,AC0,T0,AR0,XAR0,AR1,AR3,XAR3,SP,M40,SATA,SATD,   *
    2216              ;*                        RDM,FRCT,SMUL                                        *
    2217              ;*   Stack Frame        : Compact (No Frame Pointer, w/ debug)                 *
    2218              ;*   Total Frame Size   : 8 words                                              *
    2219              ;*                        (2 return address/alignment)                         *
    2220              ;*                        (6 local values)                                     *
    2221              ;*   Min System Stack   : 1 word                                               *
    2222              ;*******************************************************************************
    2223 00069c       _uxTaskPriorityGetFromISR:
    2224                      .dwcfi  cfa_offset, 1
    2225                      .dwcfi  save_reg_to_mem, 91, -1
    2226 00069c 4EF9          AADD #-7, SP
    2227                      .dwcfi  cfa_offset, 8
    2228              $C$DW$190       .dwtag  DW_TAG_variable, DW_AT_name("xTask")
    2229                      .dwattr $C$DW$190, DW_AT_TI_symbol_name("_xTask")
    2230                      .dwattr $C$DW$190, DW_AT_type(*$C$DW$T$107)
    2231                      .dwattr $C$DW$190, DW_AT_location[DW_OP_bregx 0x24 0]
    2232              $C$DW$191       .dwtag  DW_TAG_variable, DW_AT_name("pxTCB")
    2233                      .dwattr $C$DW$191, DW_AT_TI_symbol_name("_pxTCB")
    2234                      .dwattr $C$DW$191, DW_AT_type(*$C$DW$T$157)
    2235                      .dwattr $C$DW$191, DW_AT_location[DW_OP_bregx 0x24 2]
    2236              $C$DW$192       .dwtag  DW_TAG_variable, DW_AT_name("uxReturn")
    2237                      .dwattr $C$DW$192, DW_AT_TI_symbol_name("_uxReturn")
    2238                      .dwattr $C$DW$192, DW_AT_type(*$C$DW$T$25)
    2239                      .dwattr $C$DW$192, DW_AT_location[DW_OP_bregx 0x24 4]
    2240              $C$DW$193       .dwtag  DW_TAG_variable, DW_AT_name("uxSavedInterruptState")
    2241                      .dwattr $C$DW$193, DW_AT_TI_symbol_name("_uxSavedInterruptState")
    2242                      .dwattr $C$DW$193, DW_AT_type(*$C$DW$T$25)
    2243                      .dwattr $C$DW$193, DW_AT_location[DW_OP_bregx 0x24 5]
    2244 00069e EB00          MOV XAR0, dbl(*SP(#0))
         0006a0 85   
    2245                      .dwpsn  file "../FreeRTOS/Source/tasks_sysStk.c",line 1522,column 3,is_stmt
    2246 0006a1 E60A          MOV #0, *SP(#5) ; |1522| 
         0006a3 00   
    2247                      .dwpsn  file "../FreeRTOS/Source/tasks_sysStk.c",line 1526,column 4,is_stmt
TMS320C55x Assembler PC v4.4.1 Tue Oct 02 02:33:57 2018

Tools Copyright (c) 1996-2012 Texas Instruments Incorporated
tasks_sysStk.asm                                                     PAGE   50

    2248 0006a4 ED00          MOV dbl(*SP(#0)), XAR3
         0006a6 BF   
    2249 0006a7 90B0          MOV XAR3, AC0
    2250 0006a9 6310          BCC $C$L68,AC0 != #0 ; |1526| 
    2251                                                      ; branchcc occurs ; |1526| 
    2252 0006ab ED31          MOV dbl(*(#_pxCurrentTCB)), XAR3
         0006ad BF00 
         0006af 0004-
    2253 0006b1       $C$L68:    
    2254 0006b1 EB04          MOV XAR3, dbl(*SP(#2))
         0006b3 B5   
    2255                      .dwpsn  file "../FreeRTOS/Source/tasks_sysStk.c",line 1527,column 4,is_stmt
    2256 0006b4 A96D          MOV *AR3(#24), AR1 ; |1527| 
         0006b6 0018 
    2257 0006b8 C908          MOV AR1, *SP(#4) ; |1527| 
    2258                      .dwpsn  file "../FreeRTOS/Source/tasks_sysStk.c",line 1529,column 3,is_stmt
    2259                      .dwpsn  file "../FreeRTOS/Source/tasks_sysStk.c",line 1531,column 3,is_stmt
    2260 0006ba 2294          MOV AR1, T0
    2261                      .dwpsn  file "../FreeRTOS/Source/tasks_sysStk.c",line 1532,column 2,is_stmt
    2262 0006bc 4E07          AADD #7, SP
    2263                      .dwcfi  cfa_offset, 1
    2264              $C$DW$194       .dwtag  DW_TAG_TI_branch
    2265                      .dwattr $C$DW$194, DW_AT_low_pc(0x00)
    2266                      .dwattr $C$DW$194, DW_AT_TI_return
    2267 0006be 4804          RET
    2268                                                      ; return occurs
    2269                      .dwattr $C$DW$188, DW_AT_TI_end_file("../FreeRTOS/Source/tasks_sysStk.c")
    2270                      .dwattr $C$DW$188, DW_AT_TI_end_line(0x5fc)
    2271                      .dwattr $C$DW$188, DW_AT_TI_end_column(0x02)
    2272                      .dwendentry
    2273                      .dwendtag $C$DW$188
    2274              
    2275 0006c0               .sect   ".text"
    2276                      .align 4
    2277                      .global _vTaskPrioritySet
    2278              
    2279              $C$DW$195       .dwtag  DW_TAG_subprogram, DW_AT_name("vTaskPrioritySet")
    2280                      .dwattr $C$DW$195, DW_AT_low_pc(_vTaskPrioritySet)
    2281                      .dwattr $C$DW$195, DW_AT_high_pc(0x00)
    2282                      .dwattr $C$DW$195, DW_AT_TI_symbol_name("_vTaskPrioritySet")
    2283                      .dwattr $C$DW$195, DW_AT_external
    2284                      .dwattr $C$DW$195, DW_AT_TI_begin_file("../FreeRTOS/Source/tasks_sysStk.c")
    2285                      .dwattr $C$DW$195, DW_AT_TI_begin_line(0x603)
    2286                      .dwattr $C$DW$195, DW_AT_TI_begin_column(0x07)
    2287                      .dwattr $C$DW$195, DW_AT_TI_max_frame_size(0x0a)
    2288                      .dwpsn  file "../FreeRTOS/Source/tasks_sysStk.c",line 1540,column 2,is_stmt,address _vTaskPrioritySet
    2289              
    2290                      .dwfde $C$DW$CIE, _vTaskPrioritySet
    2291              $C$DW$196       .dwtag  DW_TAG_formal_parameter, DW_AT_name("xTask")
    2292                      .dwattr $C$DW$196, DW_AT_TI_symbol_name("_xTask")
    2293                      .dwattr $C$DW$196, DW_AT_type(*$C$DW$T$48)
    2294                      .dwattr $C$DW$196, DW_AT_location[DW_OP_reg17]
    2295              $C$DW$197       .dwtag  DW_TAG_formal_parameter, DW_AT_name("uxNewPriority")
    2296                      .dwattr $C$DW$197, DW_AT_TI_symbol_name("_uxNewPriority")
    2297                      .dwattr $C$DW$197, DW_AT_type(*$C$DW$T$25)
TMS320C55x Assembler PC v4.4.1 Tue Oct 02 02:33:57 2018

Tools Copyright (c) 1996-2012 Texas Instruments Incorporated
tasks_sysStk.asm                                                     PAGE   51

    2298                      .dwattr $C$DW$197, DW_AT_location[DW_OP_reg12]
    2299              ;*******************************************************************************
    2300              ;* FUNCTION NAME: vTaskPrioritySet                                             *
    2301              ;*                                                                             *
    2302              ;*   Function Uses Regs : AC0,AC0,AC1,AC1,T0,AR0,XAR0,AR1,XAR1,AR2,XAR2,AR3,   *
    2303              ;*                        XAR3,SP,CARRY,TC1,M40,SATA,SATD,RDM,FRCT,SMUL        *
    2304              ;*   Stack Frame        : Compact (No Frame Pointer, w/ debug)                 *
    2305              ;*   Total Frame Size   : 10 words                                             *
    2306              ;*                        (1 return address/alignment)                         *
    2307              ;*                        (9 local values)                                     *
    2308              ;*   Min System Stack   : 1 word                                               *
    2309              ;*******************************************************************************
    2310 0006c0       _vTaskPrioritySet:
    2311                      .dwcfi  cfa_offset, 1
    2312                      .dwcfi  save_reg_to_mem, 91, -1
    2313 0006c0 4EF7          AADD #-9, SP
    2314                      .dwcfi  cfa_offset, 10
    2315              $C$DW$198       .dwtag  DW_TAG_variable, DW_AT_name("xTask")
    2316                      .dwattr $C$DW$198, DW_AT_TI_symbol_name("_xTask")
    2317                      .dwattr $C$DW$198, DW_AT_type(*$C$DW$T$48)
    2318                      .dwattr $C$DW$198, DW_AT_location[DW_OP_bregx 0x24 0]
    2319              $C$DW$199       .dwtag  DW_TAG_variable, DW_AT_name("uxNewPriority")
    2320                      .dwattr $C$DW$199, DW_AT_TI_symbol_name("_uxNewPriority")
    2321                      .dwattr $C$DW$199, DW_AT_type(*$C$DW$T$25)
    2322                      .dwattr $C$DW$199, DW_AT_location[DW_OP_bregx 0x24 2]
    2323              $C$DW$200       .dwtag  DW_TAG_variable, DW_AT_name("pxTCB")
    2324                      .dwattr $C$DW$200, DW_AT_TI_symbol_name("_pxTCB")
    2325                      .dwattr $C$DW$200, DW_AT_type(*$C$DW$T$83)
    2326                      .dwattr $C$DW$200, DW_AT_location[DW_OP_bregx 0x24 4]
    2327              $C$DW$201       .dwtag  DW_TAG_variable, DW_AT_name("uxCurrentBasePriority")
    2328                      .dwattr $C$DW$201, DW_AT_TI_symbol_name("_uxCurrentBasePriority")
    2329                      .dwattr $C$DW$201, DW_AT_type(*$C$DW$T$25)
    2330                      .dwattr $C$DW$201, DW_AT_location[DW_OP_bregx 0x24 6]
    2331              $C$DW$202       .dwtag  DW_TAG_variable, DW_AT_name("uxPriorityUsedOnEntry")
    2332                      .dwattr $C$DW$202, DW_AT_TI_symbol_name("_uxPriorityUsedOnEntry")
    2333                      .dwattr $C$DW$202, DW_AT_type(*$C$DW$T$25)
    2334                      .dwattr $C$DW$202, DW_AT_location[DW_OP_bregx 0x24 7]
    2335              $C$DW$203       .dwtag  DW_TAG_variable, DW_AT_name("xYieldRequired")
    2336                      .dwattr $C$DW$203, DW_AT_TI_symbol_name("_xYieldRequired")
    2337                      .dwattr $C$DW$203, DW_AT_type(*$C$DW$T$43)
    2338                      .dwattr $C$DW$203, DW_AT_location[DW_OP_bregx 0x24 8]
    2339 0006c2 C404          MOV T0, *SP(#2) ; |1540| 
    2340 0006c4 EB00          MOV XAR0, dbl(*SP(#0))
         0006c6 85   
    2341                      .dwpsn  file "../FreeRTOS/Source/tasks_sysStk.c",line 1543,column 13,is_stmt
    2342 0006c7 E610          MOV #0, *SP(#8) ; |1543| 
         0006c9 00   
    2343                      .dwpsn  file "../FreeRTOS/Source/tasks_sysStk.c",line 1545,column 3,is_stmt
    2344              
    2345 0006ca AA04          MOV *SP(#2), AR2 ; |1545| 
    2346 0006cc 3D5B  ||      MOV #5, AR3
    2347              
    2348 0006ce 12A8          CMPU AR2 >= AR3, TC1 ; |1545| 
         0006d0 B4   
    2349              
TMS320C55x Assembler PC v4.4.1 Tue Oct 02 02:33:57 2018

Tools Copyright (c) 1996-2012 Texas Instruments Incorporated
tasks_sysStk.asm                                                     PAGE   52

    2350 0006d1 6164          BCC $C$L69,TC1 ; |1545| 
    2351 0006d3 3D09  ||      MOV #0, AR1
    2352              
    2353                                                      ; branchcc occurs ; |1545| 
    2354 0006d5 3C19          MOV #1, AR1
    2355 0006d7       $C$L69:    
    2356 0006d7 6299          BCC $C$L71,AR1 != #0 ; |1545| 
    2357                                                      ; branchcc occurs ; |1545| 
    2358 0006d9 20     nop
    2359 0006da 46B3   bset INTM
    2360 0006dc       $C$L70:    
    2361 0006dc       $C$DW$L$_vTaskPrioritySet$5$B:
    2362 0006dc 4A7E          B $C$L70  ; |1545| 
    2363                                                      ; branch occurs ; |1545| 
    2364 0006de       $C$DW$L$_vTaskPrioritySet$5$E:
    2365 0006de       $C$L71:    
    2366                      .dwpsn  file "../FreeRTOS/Source/tasks_sysStk.c",line 1548,column 3,is_stmt
    2367              
    2368 0006de A904          MOV *SP(#2), AR1 ; |1548| 
    2369 0006e0 3D5A  ||      MOV #5, AR2
    2370              
    2371 0006e2 1294          CMPU AR1 < AR2, TC1 ; |1548| 
         0006e4 A4   
    2372 0006e5 61E4          BCC $C$L72,TC1 ; |1548| 
    2373                                                      ; branchcc occurs ; |1548| 
    2374                      .dwpsn  file "../FreeRTOS/Source/tasks_sysStk.c",line 1550,column 4,is_stmt
    2375 0006e7 E604          MOV #4, *SP(#2) ; |1550| 
         0006e9 04   
    2376                      .dwpsn  file "../FreeRTOS/Source/tasks_sysStk.c",line 1551,column 3,is_stmt
    2377 0006ea       $C$L72:    
    2378                      .dwpsn  file "../FreeRTOS/Source/tasks_sysStk.c",line 1557,column 3,is_stmt
    2379 0006ea 20     nop
    2380 0006eb 46B3   bset INTM
    2381 0006ed F731          ADD #1, *(#_usCriticalNesting) ; |1557| 
         0006ef 0001 
         0006f1 0000 
         0006f3 00!  
    2382                      .dwpsn  file "../FreeRTOS/Source/tasks_sysStk.c",line 1561,column 4,is_stmt
    2383 0006f4 ED00          MOV dbl(*SP(#0)), XAR3
         0006f6 BF   
    2384 0006f7 90B0          MOV XAR3, AC0
    2385 0006f9 6310          BCC $C$L73,AC0 != #0 ; |1561| 
    2386                                                      ; branchcc occurs ; |1561| 
    2387 0006fb ED31          MOV dbl(*(#_pxCurrentTCB)), XAR3
         0006fd BF00 
         0006ff 0004-
    2388 000701       $C$L73:    
    2389 000701 EB08          MOV XAR3, dbl(*SP(#4))
         000703 B5   
    2390                      .dwpsn  file "../FreeRTOS/Source/tasks_sysStk.c",line 1567,column 5,is_stmt
    2391 000704 A96D          MOV *AR3(#43), AR1 ; |1567| 
         000706 002B 
    2392 000708 C90C          MOV AR1, *SP(#6) ; |1567| 
    2393                      .dwpsn  file "../FreeRTOS/Source/tasks_sysStk.c",line 1575,column 4,is_stmt
    2394 00070a AA0C          MOV *SP(#6), AR2 ; |1575| 
TMS320C55x Assembler PC v4.4.1 Tue Oct 02 02:33:57 2018

Tools Copyright (c) 1996-2012 Texas Instruments Incorporated
tasks_sysStk.asm                                                     PAGE   53

    2395 00070c A904          MOV *SP(#2), AR1 ; |1575| 
    2396 00070e 12A0          CMPU AR2 == AR1, TC1 ; |1575| 
         000710 94   
    2397 000711 6D64          BCC $C$L84,TC1 ; |1575| 
         000713 0105 
    2398                                                      ; branchcc occurs ; |1575| 
    2399                      .dwpsn  file "../FreeRTOS/Source/tasks_sysStk.c",line 1579,column 5,is_stmt
    2400              
    2401 000715 AA04          MOV *SP(#2), AR2 ; |1579| 
    2402 000717 23A9  ||      MOV AR2, AR1
    2403              
    2404 000719 1298          CMPU AR2 <= AR1, TC1 ; |1579| 
         00071b A4   
    2405 00071c 0464          BCC $C$L74,TC1 ; |1579| 
         00071e 28   
    2406                                                      ; branchcc occurs ; |1579| 
    2407                      .dwpsn  file "../FreeRTOS/Source/tasks_sysStk.c",line 1581,column 6,is_stmt
    2408 00071f ED31          MOV dbl(*(#_pxCurrentTCB)), XAR3
         000721 BF00 
         000723 0004-
    2409 000725 90B0          MOV XAR3, AC0
    2410 000727 ED08          MOV dbl(*SP(#4)), XAR3
         000729 BF   
    2411 00072a 90B1          MOV XAR3, AC1
    2412 00072c 1210          CMPU AC1 == AC0, TC1 ; |1581| 
         00072e 04   
    2413 00072f 0464          BCC $C$L75,TC1 ; |1581| 
         000731 2A   
    2414                                                      ; branchcc occurs ; |1581| 
    2415                      .dwpsn  file "../FreeRTOS/Source/tasks_sysStk.c",line 1586,column 7,is_stmt
    2416 000732 ED31          MOV dbl(*(#_pxCurrentTCB)), XAR3
         000734 BF00 
         000736 0004-
    2417 000738 A96D          MOV *AR3(#24), AR1 ; |1586| 
         00073a 0018 
    2418 00073c 12A4          CMPU AR2 < AR1, TC1 ; |1586| 
         00073e 94   
    2419 00073f 0464          BCC $C$L75,TC1 ; |1586| 
         000741 1A   
    2420                                                      ; branchcc occurs ; |1586| 
    2421                      .dwpsn  file "../FreeRTOS/Source/tasks_sysStk.c",line 1588,column 8,is_stmt
    2422 000742 E610          MOV #1, *SP(#8) ; |1588| 
         000744 01   
    2423                      .dwpsn  file "../FreeRTOS/Source/tasks_sysStk.c",line 1589,column 7,is_stmt
    2424 000745 4A15          B $C$L75  ; |1589| 
    2425                                                      ; branch occurs ; |1589| 
    2426 000747       $C$L74:    
    2427                      .dwpsn  file "../FreeRTOS/Source/tasks_sysStk.c",line 1602,column 10,is_stmt
    2428 000747 ED31          MOV dbl(*(#_pxCurrentTCB)), XAR3
         000749 BF00 
         00074b 0004-
    2429 00074d 90B0          MOV XAR3, AC0
    2430 00074f ED08          MOV dbl(*SP(#4)), XAR3
         000751 BF   
    2431 000752 90B1          MOV XAR3, AC1
TMS320C55x Assembler PC v4.4.1 Tue Oct 02 02:33:57 2018

Tools Copyright (c) 1996-2012 Texas Instruments Incorporated
tasks_sysStk.asm                                                     PAGE   54

    2432 000754 121C          CMPU AC1 != AC0, TC1 ; |1602| 
         000756 04   
    2433 000757 61E4          BCC $C$L75,TC1 ; |1602| 
    2434                                                      ; branchcc occurs ; |1602| 
    2435                      .dwpsn  file "../FreeRTOS/Source/tasks_sysStk.c",line 1607,column 6,is_stmt
    2436 000759 E610          MOV #1, *SP(#8) ; |1607| 
         00075b 01   
    2437                      .dwpsn  file "../FreeRTOS/Source/tasks_sysStk.c",line 1608,column 5,is_stmt
    2438 00075c       $C$L75:    
    2439                      .dwpsn  file "../FreeRTOS/Source/tasks_sysStk.c",line 1619,column 5,is_stmt
    2440 00075c ED08          MOV dbl(*SP(#4)), XAR3
         00075e BF   
    2441 00075f A96D          MOV *AR3(#24), AR1 ; |1619| 
         000761 0018 
    2442 000763 C90E          MOV AR1, *SP(#7) ; |1619| 
    2443                      .dwpsn  file "../FreeRTOS/Source/tasks_sysStk.c",line 1625,column 6,is_stmt
    2444 000765 ED08          MOV dbl(*SP(#4)), XAR3
         000767 BF   
    2445 000768 AA6D          MOV *AR3(#43), AR2 ; |1625| 
         00076a 002B 
    2446 00076c A96D          MOV *AR3(#24), AR1 ; |1625| 
         00076e 0018 
    2447 000770 12AC          CMPU AR2 != AR1, TC1 ; |1625| 
         000772 94   
    2448 000773 6364          BCC $C$L76,TC1 ; |1625| 
    2449                                                      ; branchcc occurs ; |1625| 
    2450                      .dwpsn  file "../FreeRTOS/Source/tasks_sysStk.c",line 1627,column 7,is_stmt
    2451 000775 A904          MOV *SP(#2), AR1 ; |1627| 
    2452 000777 C96D          MOV AR1, *AR3(#24) ; |1627| 
         000779 0018 
    2453                      .dwpsn  file "../FreeRTOS/Source/tasks_sysStk.c",line 1628,column 6,is_stmt
    2454 00077b       $C$L76:    
    2455                      .dwpsn  file "../FreeRTOS/Source/tasks_sysStk.c",line 1635,column 6,is_stmt
    2456 00077b ED08          MOV dbl(*SP(#4)), XAR3
         00077d BF   
    2457 00077e A904          MOV *SP(#2), AR1 ; |1635| 
    2458 000780 C96D          MOV AR1, *AR3(#43) ; |1635| 
         000782 002B 
    2459                      .dwpsn  file "../FreeRTOS/Source/tasks_sysStk.c",line 1645,column 5,is_stmt
    2460 000784 ED08          MOV dbl(*SP(#4)), XAR3
         000786 BF   
    2461 000787 7A80          MOV #-32768 << #16, AC0 ; |1645| 
         000789 000A 
    2462 00078b ED6D          MOV dbl(*AR3(#14)), AC1 ; |1645| 
         00078d 1800 
         00078f 0E   
    2463 000790 2810          AND AC1, AC0 ; |1645| 
    2464 000792 6510          BCC $C$L77,AC0 != #0 ; |1645| 
    2465                                                      ; branchcc occurs ; |1645| 
    2466                      .dwpsn  file "../FreeRTOS/Source/tasks_sysStk.c",line 1647,column 6,is_stmt
    2467 000794 3C50          MOV #5, AC0 ; |1647| 
    2468 000796 DF04          SUB uns(*SP(#2)), AC0, AC0 ; |1647| 
         000798 0F   
    2469 000799 EB6D          MOV AC0, dbl(*AR3(#14)) ; |1647| 
         00079b 0800 
TMS320C55x Assembler PC v4.4.1 Tue Oct 02 02:33:57 2018

Tools Copyright (c) 1996-2012 Texas Instruments Incorporated
tasks_sysStk.asm                                                     PAGE   55

         00079d 0E   
    2470                      .dwpsn  file "../FreeRTOS/Source/tasks_sysStk.c",line 1648,column 5,is_stmt
    2471 00079e       $C$L77:    
    2472                      .dwpsn  file "../FreeRTOS/Source/tasks_sysStk.c",line 1658,column 5,is_stmt
    2473 00079e DF0E          MOV uns(*SP(#7)), AC1 ; |1658| 
         0007a0 15   
    2474 0007a1 1015          SFTS AC1, #1, AC0 ; |1658| 
         0007a3 01   
    2475 0007a4 1013          ADD AC1 << #3, AC0 ; |1658| 
         0007a6 03   
    2476 0007a7 900A          MOV AC0, XAR2
    2477 0007a9 EC31          AMOV #_pxReadyTasksLists, XAR3 ; |1658| 
         0007ab BE00 
         0007ad 0006-
    2478 0007af 14A1          AADD XAR2, XAR3 ; |1658| 
         0007b1 B0   
    2479 0007b2 90B1          MOV XAR3, AC1
    2480 0007b4 ED08          MOV dbl(*SP(#4)), XAR3
         0007b6 BF   
    2481 0007b7 ED6D          MOV dbl(*AR3(#12)), XAR3
         0007b9 BF00 
         0007bb 0C   
    2482 0007bc 90B0          MOV XAR3, AC0
    2483 0007be 120C          CMPU AC0 != AC1, TC1 ; |1658| 
         0007c0 14   
    2484 0007c1 6264          BCC $C$L78,TC1 ; |1658| 
    2485                                                      ; branchcc occurs ; |1658| 
    2486 0007c3 3C19          MOV #1, AR1
    2487 0007c5 4A02          B $C$L79  ; |1658| 
    2488                                                      ; branch occurs ; |1658| 
    2489 0007c7       $C$L78:    
    2490 0007c7 3C09          MOV #0, AR1
    2491 0007c9       $C$L79:    
    2492 0007c9 0409          BCC $C$L82,AR1 == #0 ; |1658| 
         0007cb 46   
    2493                                                      ; branchcc occurs ; |1658| 
    2494                      .dwpsn  file "../FreeRTOS/Source/tasks_sysStk.c",line 1663,column 6,is_stmt
    2495 0007cc ED08          MOV dbl(*SP(#4)), XAR0
         0007ce 8F   
    2496 0007cf 1404          AADD #4, AR0 ; |1663| 
         0007d1 84   
    2497              $C$DW$204       .dwtag  DW_TAG_TI_branch
    2498                      .dwattr $C$DW$204, DW_AT_low_pc(0x00)
    2499                      .dwattr $C$DW$204, DW_AT_name("_uxListRemove")
    2500                      .dwattr $C$DW$204, DW_AT_TI_call
    2501 0007d2 6C00          CALL #_uxListRemove ; |1663| 
         0007d4 0000!
    2502                                                      ; call occurs [#_uxListRemove] ; |1663| 
    2503 0007d6 6004          BCC $C$L80,T0 == #0 ; |1663| 
    2504                                                      ; branchcc occurs ; |1663| 
    2505                      .dwpsn  file "../FreeRTOS/Source/tasks_sysStk.c",line 1669,column 6,is_stmt
    2506 0007d8       $C$L80:    
    2507                      .dwpsn  file "../FreeRTOS/Source/tasks_sysStk.c",line 1674,column 6,is_stmt
    2508 0007d8 ED08          MOV dbl(*SP(#4)), XAR3
         0007da BF   
TMS320C55x Assembler PC v4.4.1 Tue Oct 02 02:33:57 2018

Tools Copyright (c) 1996-2012 Texas Instruments Incorporated
tasks_sysStk.asm                                                     PAGE   56

    2509 0007db A931          MOV *(#_uxTopReadyPriority), AR1 ; |1674| 
         0007dd 0000 
         0007df 72-  
    2510 0007e0 AA6D          MOV *AR3(#24), AR2 ; |1674| 
         0007e2 0018 
    2511 0007e4 1298          CMPU AR2 <= AR1, TC1 ; |1674| 
         0007e6 A4   
    2512 0007e7 64E4          BCC $C$L81,TC1 ; |1674| 
    2513                                                      ; branchcc occurs ; |1674| 
    2514 0007e9 A96D          MOV *AR3(#24), AR1 ; |1674| 
         0007eb 0018 
    2515 0007ed C931          MOV AR1, *(#_uxTopReadyPriority) ; |1674| 
         0007ef 0000 
         0007f1 72-  
    2516 0007f2       $C$L81:    
    2517 0007f2 DF6D          MOV uns(*AR3(#24)), AC1 ; |1674| 
         0007f4 1500 
         0007f6 18   
    2518 0007f7 ED08          MOV dbl(*SP(#4)), XAR1
         0007f9 9F   
    2519 0007fa 1015          SFTS AC1, #1, AC0 ; |1674| 
         0007fc 01   
    2520 0007fd 1013          ADD AC1 << #3, AC0 ; |1674| 
         0007ff 03   
    2521 000800 900B          MOV AC0, XAR3
    2522 000802 EC31          AMOV #_pxReadyTasksLists, XAR0 ; |1674| 
         000804 8E00 
         000806 0006-
    2523              
    2524 000808 14B1          AADD XAR3, XAR0 ; |1674| 
         00080a 80   
    2525 00080b 1504  ||      AADD #4, AR1 ; |1674| 
         00080d 9C   
    2526              
    2527              $C$DW$205       .dwtag  DW_TAG_TI_branch
    2528                      .dwattr $C$DW$205, DW_AT_low_pc(0x00)
    2529                      .dwattr $C$DW$205, DW_AT_name("_vListInsertEnd")
    2530                      .dwattr $C$DW$205, DW_AT_TI_call
    2531 00080e 6C00          CALL #_vListInsertEnd ; |1674| 
         000810 0000!
    2532                                                      ; call occurs [#_vListInsertEnd] ; |1674| 
    2533                      .dwpsn  file "../FreeRTOS/Source/tasks_sysStk.c",line 1675,column 5,is_stmt
    2534 000812       $C$L82:    
    2535                      .dwpsn  file "../FreeRTOS/Source/tasks_sysStk.c",line 1681,column 5,is_stmt
    2536 000812 A910          MOV *SP(#8), AR1 ; |1681| 
    2537 000814 6209          BCC $C$L83,AR1 == #0 ; |1681| 
    2538                                                      ; branchcc occurs ; |1681| 
    2539                      .dwpsn  file "../FreeRTOS/Source/tasks_sysStk.c",line 1683,column 6,is_stmt
    2540              $C$DW$206       .dwtag  DW_TAG_TI_branch
    2541                      .dwattr $C$DW$206, DW_AT_low_pc(0x00)
    2542                      .dwattr $C$DW$206, DW_AT_name("_vPortYield")
    2543                      .dwattr $C$DW$206, DW_AT_TI_call
    2544 000816 6C00          CALL #_vPortYield ; |1683| 
         000818 0000!
    2545                                                      ; call occurs [#_vPortYield] ; |1683| 
TMS320C55x Assembler PC v4.4.1 Tue Oct 02 02:33:57 2018

Tools Copyright (c) 1996-2012 Texas Instruments Incorporated
tasks_sysStk.asm                                                     PAGE   57

    2546                      .dwpsn  file "../FreeRTOS/Source/tasks_sysStk.c",line 1684,column 5,is_stmt
    2547 00081a       $C$L83:    
    2548                      .dwpsn  file "../FreeRTOS/Source/tasks_sysStk.c",line 1692,column 5,is_stmt
    2549 00081a       $C$L84:    
    2550                      .dwpsn  file "../FreeRTOS/Source/tasks_sysStk.c",line 1695,column 3,is_stmt
    2551 00081a A931          MOV *(#_usCriticalNesting), AR1 ; |1695| 
         00081c 0000 
         00081e 00!  
    2552 00081f 0409          BCC $C$L85,AR1 == #0 ; |1695| 
         000821 14   
    2553                                                      ; branchcc occurs ; |1695| 
    2554 000822 F731          SUB #1, *(#_usCriticalNesting) ; |1695| 
         000824 FFFF 
         000826 0000 
         000828 00!  
    2555 000829 20            NOP
    2556 00082a 20            NOP
    2557 00082b 20            NOP
    2558 00082c A931          MOV *(#_usCriticalNesting), AR1 ; |1695| 
         00082e 0000 
         000830 00!  
    2559 000831 6199          BCC $C$L85,AR1 != #0 ; |1695| 
    2560                                                      ; branchcc occurs ; |1695| 
    2561 000833 20     nop
    2562 000834 46B2   bclr INTM
    2563                      .dwpsn  file "../FreeRTOS/Source/tasks_sysStk.c",line 1696,column 2,is_stmt
    2564 000836       $C$L85:    
    2565 000836 4E09          AADD #9, SP
    2566                      .dwcfi  cfa_offset, 1
    2567              $C$DW$207       .dwtag  DW_TAG_TI_branch
    2568                      .dwattr $C$DW$207, DW_AT_low_pc(0x00)
    2569                      .dwattr $C$DW$207, DW_AT_TI_return
    2570 000838 4804          RET
    2571                                                      ; return occurs
    2572              
    2573              $C$DW$208       .dwtag  DW_TAG_TI_loop
    2574                      .dwattr $C$DW$208, DW_AT_name("F:\eZdsp-DBG-sim\tmp1\c55x-sim2\foo\Debug\tasks_sysStk.asm:$C$L70:1:15
    2575                      .dwattr $C$DW$208, DW_AT_TI_begin_file("../FreeRTOS/Source/tasks_sysStk.c")
    2576                      .dwattr $C$DW$208, DW_AT_TI_begin_line(0x609)
    2577                      .dwattr $C$DW$208, DW_AT_TI_end_line(0x609)
    2578              $C$DW$209       .dwtag  DW_TAG_TI_loop_range
    2579                      .dwattr $C$DW$209, DW_AT_low_pc($C$DW$L$_vTaskPrioritySet$5$B)
    2580                      .dwattr $C$DW$209, DW_AT_high_pc($C$DW$L$_vTaskPrioritySet$5$E)
    2581                      .dwendtag $C$DW$208
    2582              
    2583                      .dwattr $C$DW$195, DW_AT_TI_end_file("../FreeRTOS/Source/tasks_sysStk.c")
    2584                      .dwattr $C$DW$195, DW_AT_TI_end_line(0x6a0)
    2585                      .dwattr $C$DW$195, DW_AT_TI_end_column(0x02)
    2586                      .dwendentry
    2587                      .dwendtag $C$DW$195
    2588              
    2589 00083a               .sect   ".text"
    2590                      .align 4
    2591                      .global _vTaskSuspend
    2592              
TMS320C55x Assembler PC v4.4.1 Tue Oct 02 02:33:57 2018

Tools Copyright (c) 1996-2012 Texas Instruments Incorporated
tasks_sysStk.asm                                                     PAGE   58

    2593              $C$DW$210       .dwtag  DW_TAG_subprogram, DW_AT_name("vTaskSuspend")
    2594                      .dwattr $C$DW$210, DW_AT_low_pc(_vTaskSuspend)
    2595                      .dwattr $C$DW$210, DW_AT_high_pc(0x00)
    2596                      .dwattr $C$DW$210, DW_AT_TI_symbol_name("_vTaskSuspend")
    2597                      .dwattr $C$DW$210, DW_AT_external
    2598                      .dwattr $C$DW$210, DW_AT_TI_begin_file("../FreeRTOS/Source/tasks_sysStk.c")
    2599                      .dwattr $C$DW$210, DW_AT_TI_begin_line(0x6a7)
    2600                      .dwattr $C$DW$210, DW_AT_TI_begin_column(0x07)
    2601                      .dwattr $C$DW$210, DW_AT_TI_max_frame_size(0x06)
    2602                      .dwpsn  file "../FreeRTOS/Source/tasks_sysStk.c",line 1704,column 2,is_stmt,address _vTaskSuspend
    2603              
    2604                      .dwfde $C$DW$CIE, _vTaskSuspend
    2605              $C$DW$211       .dwtag  DW_TAG_formal_parameter, DW_AT_name("xTaskToSuspend")
    2606                      .dwattr $C$DW$211, DW_AT_TI_symbol_name("_xTaskToSuspend")
    2607                      .dwattr $C$DW$211, DW_AT_type(*$C$DW$T$48)
    2608                      .dwattr $C$DW$211, DW_AT_location[DW_OP_reg17]
    2609              ;*******************************************************************************
    2610              ;* FUNCTION NAME: vTaskSuspend                                                 *
    2611              ;*                                                                             *
    2612              ;*   Function Uses Regs : AC0,AC0,AC1,AC1,T0,AR0,XAR0,AR1,XAR1,AR2,AR3,XAR3,SP,*
    2613              ;*                        CARRY,TC1,M40,SATA,SATD,RDM,FRCT,SMUL                *
    2614              ;*   Stack Frame        : Compact (No Frame Pointer, w/ debug)                 *
    2615              ;*   Total Frame Size   : 6 words                                              *
    2616              ;*                        (2 return address/alignment)                         *
    2617              ;*                        (4 local values)                                     *
    2618              ;*   Min System Stack   : 1 word                                               *
    2619              ;*******************************************************************************
    2620 00083c       _vTaskSuspend:
    2621                      .dwcfi  cfa_offset, 1
    2622                      .dwcfi  save_reg_to_mem, 91, -1
    2623 00083c 4EFB          AADD #-5, SP
    2624                      .dwcfi  cfa_offset, 6
    2625              $C$DW$212       .dwtag  DW_TAG_variable, DW_AT_name("xTaskToSuspend")
    2626                      .dwattr $C$DW$212, DW_AT_TI_symbol_name("_xTaskToSuspend")
    2627                      .dwattr $C$DW$212, DW_AT_type(*$C$DW$T$48)
    2628                      .dwattr $C$DW$212, DW_AT_location[DW_OP_bregx 0x24 0]
    2629              $C$DW$213       .dwtag  DW_TAG_variable, DW_AT_name("pxTCB")
    2630                      .dwattr $C$DW$213, DW_AT_TI_symbol_name("_pxTCB")
    2631                      .dwattr $C$DW$213, DW_AT_type(*$C$DW$T$83)
    2632                      .dwattr $C$DW$213, DW_AT_location[DW_OP_bregx 0x24 2]
    2633 00083e EB00          MOV XAR0, dbl(*SP(#0))
         000840 85   
    2634                      .dwpsn  file "../FreeRTOS/Source/tasks_sysStk.c",line 1707,column 3,is_stmt
    2635 000841 20     nop
    2636 000842 46B3   bset INTM
    2637 000844 F731          ADD #1, *(#_usCriticalNesting) ; |1707| 
         000846 0001 
         000848 0000 
         00084a 00!  
    2638                      .dwpsn  file "../FreeRTOS/Source/tasks_sysStk.c",line 1711,column 4,is_stmt
    2639 00084b ED00          MOV dbl(*SP(#0)), XAR3
         00084d BF   
    2640 00084e 90B0          MOV XAR3, AC0
    2641 000850 6310          BCC $C$L86,AC0 != #0 ; |1711| 
    2642                                                      ; branchcc occurs ; |1711| 
TMS320C55x Assembler PC v4.4.1 Tue Oct 02 02:33:57 2018

Tools Copyright (c) 1996-2012 Texas Instruments Incorporated
tasks_sysStk.asm                                                     PAGE   59

    2643 000852 ED31          MOV dbl(*(#_pxCurrentTCB)), XAR3
         000854 BF00 
         000856 0004-
    2644 000858       $C$L86:    
    2645 000858 EB04          MOV XAR3, dbl(*SP(#2))
         00085a B5   
    2646                      .dwpsn  file "../FreeRTOS/Source/tasks_sysStk.c",line 1717,column 4,is_stmt
    2647 00085b ED04          MOV dbl(*SP(#2)), XAR0
         00085d 8F   
    2648 00085e 1404          AADD #4, AR0 ; |1717| 
         000860 84   
    2649              $C$DW$214       .dwtag  DW_TAG_TI_branch
    2650                      .dwattr $C$DW$214, DW_AT_low_pc(0x00)
    2651                      .dwattr $C$DW$214, DW_AT_name("_uxListRemove")
    2652                      .dwattr $C$DW$214, DW_AT_TI_call
    2653 000861 6C00          CALL #_uxListRemove ; |1717| 
         000863 0000!
    2654                                                      ; call occurs [#_uxListRemove] ; |1717| 
    2655 000865 6004          BCC $C$L87,T0 == #0 ; |1717| 
    2656                                                      ; branchcc occurs ; |1717| 
    2657                      .dwpsn  file "../FreeRTOS/Source/tasks_sysStk.c",line 1720,column 4,is_stmt
    2658 000867       $C$L87:    
    2659                      .dwpsn  file "../FreeRTOS/Source/tasks_sysStk.c",line 1727,column 4,is_stmt
    2660 000867 ED04          MOV dbl(*SP(#2)), XAR3
         000869 BF   
    2661 00086a ED6D          MOV dbl(*AR3(#22)), XAR3
         00086c BF00 
         00086e 16   
    2662 00086f 90B0          MOV XAR3, AC0
    2663 000871 6500          BCC $C$L88,AC0 == #0 ; |1727| 
    2664                                                      ; branchcc occurs ; |1727| 
    2665                      .dwpsn  file "../FreeRTOS/Source/tasks_sysStk.c",line 1729,column 5,is_stmt
    2666 000873 ED04          MOV dbl(*SP(#2)), XAR0
         000875 8F   
    2667 000876 140E          AADD #14, AR0 ; |1729| 
         000878 84   
    2668              $C$DW$215       .dwtag  DW_TAG_TI_branch
    2669                      .dwattr $C$DW$215, DW_AT_low_pc(0x00)
    2670                      .dwattr $C$DW$215, DW_AT_name("_uxListRemove")
    2671                      .dwattr $C$DW$215, DW_AT_TI_call
    2672 000879 6C00          CALL #_uxListRemove ; |1729| 
         00087b 0000!
    2673                                                      ; call occurs [#_uxListRemove] ; |1729| 
    2674                      .dwpsn  file "../FreeRTOS/Source/tasks_sysStk.c",line 1730,column 4,is_stmt
    2675 00087d       $C$L88:    
    2676                      .dwpsn  file "../FreeRTOS/Source/tasks_sysStk.c",line 1736,column 4,is_stmt
    2677 00087d ED04          MOV dbl(*SP(#2)), XAR1
         00087f 9F   
    2678 000880 EC31          AMOV #_xSuspendedTaskList, XAR0 ; |1736| 
         000882 8E00 
         000884 0066-
    2679 000886 1404          AADD #4, AR1 ; |1736| 
         000888 94   
    2680              $C$DW$216       .dwtag  DW_TAG_TI_branch
    2681                      .dwattr $C$DW$216, DW_AT_low_pc(0x00)
TMS320C55x Assembler PC v4.4.1 Tue Oct 02 02:33:57 2018

Tools Copyright (c) 1996-2012 Texas Instruments Incorporated
tasks_sysStk.asm                                                     PAGE   60

    2682                      .dwattr $C$DW$216, DW_AT_name("_vListInsertEnd")
    2683                      .dwattr $C$DW$216, DW_AT_TI_call
    2684 000889 6C00          CALL #_vListInsertEnd ; |1736| 
         00088b 0000!
    2685                                                      ; call occurs [#_vListInsertEnd] ; |1736| 
    2686                      .dwpsn  file "../FreeRTOS/Source/tasks_sysStk.c",line 1740,column 5,is_stmt
    2687 00088d ED04          MOV dbl(*SP(#2)), XAR3
         00088f BF   
    2688 000890 F06D          CMP *AR3(#48) == #1, TC1 ; |1740| 
         000892 0001 
         000894 0030 
    2689 000896 62F4          BCC $C$L89,!TC1 ; |1740| 
    2690                                                      ; branchcc occurs ; |1740| 
    2691                      .dwpsn  file "../FreeRTOS/Source/tasks_sysStk.c",line 1744,column 6,is_stmt
    2692 000898 E66D          MOV #0, *AR3(#48) ; |1744| 
         00089a 0000 
         00089c 30   
    2693 00089d       $C$L89:    
    2694                      .dwpsn  file "../FreeRTOS/Source/tasks_sysStk.c",line 1749,column 3,is_stmt
    2695 00089d A931          MOV *(#_usCriticalNesting), AR1 ; |1749| 
         00089f 0000 
         0008a1 00!  
    2696 0008a2 0409          BCC $C$L90,AR1 == #0 ; |1749| 
         0008a4 14   
    2697                                                      ; branchcc occurs ; |1749| 
    2698 0008a5 F731          SUB #1, *(#_usCriticalNesting) ; |1749| 
         0008a7 FFFF 
         0008a9 0000 
         0008ab 00!  
    2699 0008ac 20            NOP
    2700 0008ad 20            NOP
    2701 0008ae 20            NOP
    2702 0008af A931          MOV *(#_usCriticalNesting), AR1 ; |1749| 
         0008b1 0000 
         0008b3 00!  
    2703 0008b4 6199          BCC $C$L90,AR1 != #0 ; |1749| 
    2704                                                      ; branchcc occurs ; |1749| 
    2705 0008b6 20     nop
    2706 0008b7 46B2   bclr INTM
    2707 0008b9       $C$L90:    
    2708                      .dwpsn  file "../FreeRTOS/Source/tasks_sysStk.c",line 1751,column 3,is_stmt
    2709 0008b9 A931          MOV *(#_xSchedulerRunning), AR1 ; |1751| 
         0008bb 0000 
         0008bd 73-  
    2710 0008be 0409          BCC $C$L91,AR1 == #0 ; |1751| 
         0008c0 29   
    2711                                                      ; branchcc occurs ; |1751| 
    2712                      .dwpsn  file "../FreeRTOS/Source/tasks_sysStk.c",line 1755,column 4,is_stmt
    2713 0008c1 20     nop
    2714 0008c2 46B3   bset INTM
    2715 0008c4 F731          ADD #1, *(#_usCriticalNesting) ; |1755| 
         0008c6 0001 
         0008c8 0000 
         0008ca 00!  
    2716                      .dwpsn  file "../FreeRTOS/Source/tasks_sysStk.c",line 1757,column 5,is_stmt
TMS320C55x Assembler PC v4.4.1 Tue Oct 02 02:33:57 2018

Tools Copyright (c) 1996-2012 Texas Instruments Incorporated
tasks_sysStk.asm                                                     PAGE   61

    2717              $C$DW$217       .dwtag  DW_TAG_TI_branch
    2718                      .dwattr $C$DW$217, DW_AT_low_pc(0x00)
    2719                      .dwattr $C$DW$217, DW_AT_name("_prvResetNextTaskUnblockTime")
    2720                      .dwattr $C$DW$217, DW_AT_TI_call
    2721 0008cb 080B          CALL #_prvResetNextTaskUnblockTime ; |1757| 
         0008cd 66   
    2722                                                      ; call occurs [#_prvResetNextTaskUnblockTime] ; |1757| 
    2723                      .dwpsn  file "../FreeRTOS/Source/tasks_sysStk.c",line 1759,column 4,is_stmt
    2724 0008ce A931          MOV *(#_usCriticalNesting), AR1 ; |1759| 
         0008d0 0000 
         0008d2 00!  
    2725 0008d3 0409          BCC $C$L91,AR1 == #0 ; |1759| 
         0008d5 14   
    2726                                                      ; branchcc occurs ; |1759| 
    2727 0008d6 F731          SUB #1, *(#_usCriticalNesting) ; |1759| 
         0008d8 FFFF 
         0008da 0000 
         0008dc 00!  
    2728 0008dd 20            NOP
    2729 0008de 20            NOP
    2730 0008df 20            NOP
    2731 0008e0 A931          MOV *(#_usCriticalNesting), AR1 ; |1759| 
         0008e2 0000 
         0008e4 00!  
    2732 0008e5 6199          BCC $C$L91,AR1 != #0 ; |1759| 
    2733                                                      ; branchcc occurs ; |1759| 
    2734 0008e7 20     nop
    2735 0008e8 46B2   bclr INTM
    2736                      .dwpsn  file "../FreeRTOS/Source/tasks_sysStk.c",line 1760,column 3,is_stmt
    2737 0008ea       $C$L91:    
    2738                      .dwpsn  file "../FreeRTOS/Source/tasks_sysStk.c",line 1766,column 3,is_stmt
    2739 0008ea ED31          MOV dbl(*(#_pxCurrentTCB)), XAR3
         0008ec BF00 
         0008ee 0004-
    2740 0008f0 90B0          MOV XAR3, AC0
    2741 0008f2 ED04          MOV dbl(*SP(#2)), XAR3
         0008f4 BF   
    2742 0008f5 90B1          MOV XAR3, AC1
    2743 0008f7 121C          CMPU AC1 != AC0, TC1 ; |1766| 
         0008f9 04   
    2744 0008fa 0464          BCC $C$L97,TC1 ; |1766| 
         0008fc 3E   
    2745                                                      ; branchcc occurs ; |1766| 
    2746                      .dwpsn  file "../FreeRTOS/Source/tasks_sysStk.c",line 1768,column 4,is_stmt
    2747 0008fd A931          MOV *(#_xSchedulerRunning), AR1 ; |1768| 
         0008ff 0000 
         000901 73-  
    2748 000902 0409          BCC $C$L95,AR1 == #0 ; |1768| 
         000904 18   
    2749                                                      ; branchcc occurs ; |1768| 
    2750                      .dwpsn  file "../FreeRTOS/Source/tasks_sysStk.c",line 1771,column 5,is_stmt
    2751 000905 AA31          MOV *(#_uxSchedulerSuspended), AR2 ; |1771| 
         000907 0000 
         000909 7C-  
    2752 00090a 3C09          MOV #0, AR1
TMS320C55x Assembler PC v4.4.1 Tue Oct 02 02:33:57 2018

Tools Copyright (c) 1996-2012 Texas Instruments Incorporated
tasks_sysStk.asm                                                     PAGE   62

    2753 00090c 611A          BCC $C$L92,AR2 != #0 ; |1771| 
    2754                                                      ; branchcc occurs ; |1771| 
    2755 00090e 3C19          MOV #1, AR1
    2756 000910       $C$L92:    
    2757 000910 6299          BCC $C$L94,AR1 != #0 ; |1771| 
    2758                                                      ; branchcc occurs ; |1771| 
    2759 000912 20     nop
    2760 000913 46B3   bset INTM
    2761 000915       $C$L93:    
    2762 000915       $C$DW$L$_vTaskSuspend$22$B:
    2763 000915 4A7E          B $C$L93  ; |1771| 
    2764                                                      ; branch occurs ; |1771| 
    2765 000917       $C$DW$L$_vTaskSuspend$22$E:
    2766 000917       $C$L94:    
    2767                      .dwpsn  file "../FreeRTOS/Source/tasks_sysStk.c",line 1772,column 5,is_stmt
    2768              $C$DW$218       .dwtag  DW_TAG_TI_branch
    2769                      .dwattr $C$DW$218, DW_AT_low_pc(0x00)
    2770                      .dwattr $C$DW$218, DW_AT_name("_vPortYield")
    2771                      .dwattr $C$DW$218, DW_AT_TI_call
    2772 000917 6C00          CALL #_vPortYield ; |1772| 
         000919 0000!
    2773                                                      ; call occurs [#_vPortYield] ; |1772| 
    2774                      .dwpsn  file "../FreeRTOS/Source/tasks_sysStk.c",line 1773,column 4,is_stmt
    2775 00091b 4A1E          B $C$L97  ; |1773| 
    2776                                                      ; branch occurs ; |1773| 
    2777 00091d       $C$L95:    
    2778                      .dwpsn  file "../FreeRTOS/Source/tasks_sysStk.c",line 1779,column 5,is_stmt
    2779 00091d A931          MOV *(#_uxCurrentNumberOfTasks), AR1 ; |1779| 
         00091f 0000 
         000921 65-  
    2780 000922 AA31          MOV *(#_xSuspendedTaskList), AR2 ; |1779| 
         000924 0000 
         000926 66-  
    2781 000927 12AC          CMPU AR2 != AR1, TC1 ; |1779| 
         000929 94   
    2782 00092a 6564          BCC $C$L96,TC1 ; |1779| 
    2783                                                      ; branchcc occurs ; |1779| 
    2784                      .dwpsn  file "../FreeRTOS/Source/tasks_sysStk.c",line 1785,column 6,is_stmt
    2785 00092c 3C00          MOV #0, AC0 ; |1785| 
    2786 00092e EB31          MOV AC0, dbl(*(#_pxCurrentTCB))
         000930 0800 
         000932 0004-
    2787                      .dwpsn  file "../FreeRTOS/Source/tasks_sysStk.c",line 1786,column 5,is_stmt
    2788 000934 4A05          B $C$L97  ; |1786| 
    2789                                                      ; branch occurs ; |1786| 
    2790 000936       $C$L96:    
    2791                      .dwpsn  file "../FreeRTOS/Source/tasks_sysStk.c",line 1789,column 6,is_stmt
    2792              $C$DW$219       .dwtag  DW_TAG_TI_branch
    2793                      .dwattr $C$DW$219, DW_AT_low_pc(0x00)
    2794                      .dwattr $C$DW$219, DW_AT_name("_vTaskSwitchContext")
    2795                      .dwattr $C$DW$219, DW_AT_TI_call
    2796 000936 0805          CALL #_vTaskSwitchContext ; |1789| 
         000938 87   
    2797                                                      ; call occurs [#_vTaskSwitchContext] ; |1789| 
    2798                      .dwpsn  file "../FreeRTOS/Source/tasks_sysStk.c",line 1792,column 3,is_stmt
TMS320C55x Assembler PC v4.4.1 Tue Oct 02 02:33:57 2018

Tools Copyright (c) 1996-2012 Texas Instruments Incorporated
tasks_sysStk.asm                                                     PAGE   63

    2799 000939 4A00          B $C$L97  ; |1792| 
    2800                                                      ; branch occurs ; |1792| 
    2801 00093b       $C$L97:    
    2802 00093b 4E05          AADD #5, SP
    2803                      .dwcfi  cfa_offset, 1
    2804              $C$DW$220       .dwtag  DW_TAG_TI_branch
    2805                      .dwattr $C$DW$220, DW_AT_low_pc(0x00)
    2806                      .dwattr $C$DW$220, DW_AT_TI_return
    2807 00093d 4804          RET
    2808                                                      ; return occurs
    2809              
    2810              $C$DW$221       .dwtag  DW_TAG_TI_loop
    2811                      .dwattr $C$DW$221, DW_AT_name("F:\eZdsp-DBG-sim\tmp1\c55x-sim2\foo\Debug\tasks_sysStk.asm:$C$L93:1:15
    2812                      .dwattr $C$DW$221, DW_AT_TI_begin_file("../FreeRTOS/Source/tasks_sysStk.c")
    2813                      .dwattr $C$DW$221, DW_AT_TI_begin_line(0x6eb)
    2814                      .dwattr $C$DW$221, DW_AT_TI_end_line(0x6eb)
    2815              $C$DW$222       .dwtag  DW_TAG_TI_loop_range
    2816                      .dwattr $C$DW$222, DW_AT_low_pc($C$DW$L$_vTaskSuspend$22$B)
    2817                      .dwattr $C$DW$222, DW_AT_high_pc($C$DW$L$_vTaskSuspend$22$E)
    2818                      .dwendtag $C$DW$221
    2819              
    2820                      .dwattr $C$DW$210, DW_AT_TI_end_file("../FreeRTOS/Source/tasks_sysStk.c")
    2821                      .dwattr $C$DW$210, DW_AT_TI_end_line(0x705)
    2822                      .dwattr $C$DW$210, DW_AT_TI_end_column(0x02)
    2823                      .dwendentry
    2824                      .dwendtag $C$DW$210
    2825              
    2826 00093f               .sect   ".text"
    2827                      .align 4
    2828              
    2829              $C$DW$223       .dwtag  DW_TAG_subprogram, DW_AT_name("prvTaskIsTaskSuspended")
    2830                      .dwattr $C$DW$223, DW_AT_low_pc(_prvTaskIsTaskSuspended)
    2831                      .dwattr $C$DW$223, DW_AT_high_pc(0x00)
    2832                      .dwattr $C$DW$223, DW_AT_TI_symbol_name("_prvTaskIsTaskSuspended")
    2833                      .dwattr $C$DW$223, DW_AT_type(*$C$DW$T$43)
    2834                      .dwattr $C$DW$223, DW_AT_TI_begin_file("../FreeRTOS/Source/tasks_sysStk.c")
    2835                      .dwattr $C$DW$223, DW_AT_TI_begin_line(0x70c)
    2836                      .dwattr $C$DW$223, DW_AT_TI_begin_column(0x14)
    2837                      .dwattr $C$DW$223, DW_AT_TI_max_frame_size(0x08)
    2838                      .dwpsn  file "../FreeRTOS/Source/tasks_sysStk.c",line 1805,column 2,is_stmt,address _prvTaskIsTaskSus
    2839              
    2840                      .dwfde $C$DW$CIE, _prvTaskIsTaskSuspended
    2841              $C$DW$224       .dwtag  DW_TAG_formal_parameter, DW_AT_name("xTask")
    2842                      .dwattr $C$DW$224, DW_AT_TI_symbol_name("_xTask")
    2843                      .dwattr $C$DW$224, DW_AT_type(*$C$DW$T$107)
    2844                      .dwattr $C$DW$224, DW_AT_location[DW_OP_reg17]
    2845              ;*******************************************************************************
    2846              ;* FUNCTION NAME: prvTaskIsTaskSuspended                                       *
    2847              ;*                                                                             *
    2848              ;*   Function Uses Regs : AC0,AC0,AC1,AC1,T0,AR0,XAR0,AR1,AR3,XAR3,SP,TC1,M40, *
    2849              ;*                        SATA,SATD,RDM,FRCT,SMUL                              *
    2850              ;*   Stack Frame        : Compact (No Frame Pointer, w/ debug)                 *
    2851              ;*   Total Frame Size   : 8 words                                              *
    2852              ;*                        (2 return address/alignment)                         *
    2853              ;*                        (6 local values)                                     *
TMS320C55x Assembler PC v4.4.1 Tue Oct 02 02:33:57 2018

Tools Copyright (c) 1996-2012 Texas Instruments Incorporated
tasks_sysStk.asm                                                     PAGE   64

    2854              ;*   Min System Stack   : 1 word                                               *
    2855              ;*******************************************************************************
    2856 000940       _prvTaskIsTaskSuspended:
    2857                      .dwcfi  cfa_offset, 1
    2858                      .dwcfi  save_reg_to_mem, 91, -1
    2859 000940 4EF9          AADD #-7, SP
    2860                      .dwcfi  cfa_offset, 8
    2861              $C$DW$225       .dwtag  DW_TAG_variable, DW_AT_name("xTask")
    2862                      .dwattr $C$DW$225, DW_AT_TI_symbol_name("_xTask")
    2863                      .dwattr $C$DW$225, DW_AT_type(*$C$DW$T$107)
    2864                      .dwattr $C$DW$225, DW_AT_location[DW_OP_bregx 0x24 0]
    2865              $C$DW$226       .dwtag  DW_TAG_variable, DW_AT_name("xReturn")
    2866                      .dwattr $C$DW$226, DW_AT_TI_symbol_name("_xReturn")
    2867                      .dwattr $C$DW$226, DW_AT_type(*$C$DW$T$43)
    2868                      .dwattr $C$DW$226, DW_AT_location[DW_OP_bregx 0x24 2]
    2869              $C$DW$227       .dwtag  DW_TAG_variable, DW_AT_name("pxTCB")
    2870                      .dwattr $C$DW$227, DW_AT_TI_symbol_name("_pxTCB")
    2871                      .dwattr $C$DW$227, DW_AT_type(*$C$DW$T$158)
    2872                      .dwattr $C$DW$227, DW_AT_location[DW_OP_bregx 0x24 4]
    2873 000942 EB00          MOV XAR0, dbl(*SP(#0))
         000944 85   
    2874                      .dwpsn  file "../FreeRTOS/Source/tasks_sysStk.c",line 1806,column 13,is_stmt
    2875 000945 E604          MOV #0, *SP(#2) ; |1806| 
         000947 00   
    2876                      .dwpsn  file "../FreeRTOS/Source/tasks_sysStk.c",line 1807,column 22,is_stmt
    2877 000948 ED00          MOV dbl(*SP(#0)), XAR3
         00094a BF   
    2878 00094b EB08          MOV XAR3, dbl(*SP(#4))
         00094d B5   
    2879                      .dwpsn  file "../FreeRTOS/Source/tasks_sysStk.c",line 1813,column 3,is_stmt
    2880 00094e ED00          MOV dbl(*SP(#0)), XAR3
         000950 BF   
    2881 000951 90B0          MOV XAR3, AC0
    2882 000953 6290          BCC $C$L99,AC0 != #0 ; |1813| 
    2883                                                      ; branchcc occurs ; |1813| 
    2884 000955 20     nop
    2885 000956 46B3   bset INTM
    2886 000958       $C$L98:    
    2887 000958       $C$DW$L$_prvTaskIsTaskSuspended$3$B:
    2888 000958 4A7E          B $C$L98  ; |1813| 
    2889                                                      ; branch occurs ; |1813| 
    2890 00095a       $C$DW$L$_prvTaskIsTaskSuspended$3$E:
    2891 00095a       $C$L99:    
    2892                      .dwpsn  file "../FreeRTOS/Source/tasks_sysStk.c",line 1816,column 3,is_stmt
    2893 00095a EC31          AMOV #_xSuspendedTaskList, XAR3 ; |1816| 
         00095c BE00 
         00095e 0066-
    2894 000960 90B0          MOV XAR3, AC0
    2895 000962 ED08          MOV dbl(*SP(#4)), XAR3
         000964 BF   
    2896 000965 ED6D          MOV dbl(*AR3(#12)), XAR3
         000967 BF00 
         000969 0C   
    2897 00096a 90B1          MOV XAR3, AC1
    2898 00096c 121C          CMPU AC1 != AC0, TC1 ; |1816| 
TMS320C55x Assembler PC v4.4.1 Tue Oct 02 02:33:57 2018

Tools Copyright (c) 1996-2012 Texas Instruments Incorporated
tasks_sysStk.asm                                                     PAGE   65

         00096e 04   
    2899 00096f 6264          BCC $C$L100,TC1 ; |1816| 
    2900                                                      ; branchcc occurs ; |1816| 
    2901 000971 3C19          MOV #1, AR1
    2902 000973 4A02          B $C$L101 ; |1816| 
    2903                                                      ; branch occurs ; |1816| 
    2904 000975       $C$L100:    
    2905 000975 3C09          MOV #0, AR1
    2906 000977       $C$L101:    
    2907 000977 0409          BCC $C$L106,AR1 == #0 ; |1816| 
         000979 39   
    2908                                                      ; branchcc occurs ; |1816| 
    2909                      .dwpsn  file "../FreeRTOS/Source/tasks_sysStk.c",line 1819,column 4,is_stmt
    2910 00097a EC31          AMOV #_xPendingReadyList, XAR3 ; |1819| 
         00097c BE00 
         00097e 0050-
    2911 000980 90B0          MOV XAR3, AC0
    2912 000982 ED08          MOV dbl(*SP(#4)), XAR3
         000984 BF   
    2913 000985 ED6D          MOV dbl(*AR3(#22)), XAR3
         000987 BF00 
         000989 16   
    2914 00098a 90B1          MOV XAR3, AC1
    2915 00098c 121C          CMPU AC1 != AC0, TC1 ; |1819| 
         00098e 04   
    2916 00098f 6264          BCC $C$L102,TC1 ; |1819| 
    2917                                                      ; branchcc occurs ; |1819| 
    2918 000991 3C19          MOV #1, AR1
    2919 000993 4A02          B $C$L103 ; |1819| 
    2920                                                      ; branch occurs ; |1819| 
    2921 000995       $C$L102:    
    2922 000995 3C09          MOV #0, AR1
    2923 000997       $C$L103:    
    2924 000997 0419          BCC $C$L106,AR1 != #0 ; |1819| 
         000999 19   
    2925                                                      ; branchcc occurs ; |1819| 
    2926                      .dwpsn  file "../FreeRTOS/Source/tasks_sysStk.c",line 1823,column 5,is_stmt
    2927 00099a ED08          MOV dbl(*SP(#4)), XAR3
         00099c BF   
    2928 00099d ED6D          MOV dbl(*AR3(#22)), XAR3
         00099f BF00 
         0009a1 16   
    2929 0009a2 90B0          MOV XAR3, AC0
    2930 0009a4 6210          BCC $C$L104,AC0 != #0 ; |1823| 
    2931                                                      ; branchcc occurs ; |1823| 
    2932 0009a6 3C19          MOV #1, AR1
    2933 0009a8 4A02          B $C$L105 ; |1823| 
    2934                                                      ; branch occurs ; |1823| 
    2935 0009aa       $C$L104:    
    2936 0009aa 3C09          MOV #0, AR1
    2937 0009ac       $C$L105:    
    2938 0009ac 6289          BCC $C$L106,AR1 == #0 ; |1823| 
    2939                                                      ; branchcc occurs ; |1823| 
    2940                      .dwpsn  file "../FreeRTOS/Source/tasks_sysStk.c",line 1825,column 6,is_stmt
    2941 0009ae E604          MOV #1, *SP(#2) ; |1825| 
TMS320C55x Assembler PC v4.4.1 Tue Oct 02 02:33:57 2018

Tools Copyright (c) 1996-2012 Texas Instruments Incorporated
tasks_sysStk.asm                                                     PAGE   66

         0009b0 01   
    2942                      .dwpsn  file "../FreeRTOS/Source/tasks_sysStk.c",line 1826,column 5,is_stmt
    2943 0009b1 4A00          B $C$L106 ; |1826| 
    2944                                                      ; branch occurs ; |1826| 
    2945 0009b3       $C$L106:    
    2946                      .dwpsn  file "../FreeRTOS/Source/tasks_sysStk.c",line 1842,column 3,is_stmt
    2947 0009b3 A404          MOV *SP(#2), T0 ; |1842| 
    2948                      .dwpsn  file "../FreeRTOS/Source/tasks_sysStk.c",line 1843,column 2,is_stmt
    2949 0009b5 4E07          AADD #7, SP
    2950                      .dwcfi  cfa_offset, 1
    2951              $C$DW$228       .dwtag  DW_TAG_TI_branch
    2952                      .dwattr $C$DW$228, DW_AT_low_pc(0x00)
    2953                      .dwattr $C$DW$228, DW_AT_TI_return
    2954 0009b7 4804          RET
    2955                                                      ; return occurs
    2956              
    2957              $C$DW$229       .dwtag  DW_TAG_TI_loop
    2958                      .dwattr $C$DW$229, DW_AT_name("F:\eZdsp-DBG-sim\tmp1\c55x-sim2\foo\Debug\tasks_sysStk.asm:$C$L98:1:15
    2959                      .dwattr $C$DW$229, DW_AT_TI_begin_file("../FreeRTOS/Source/tasks_sysStk.c")
    2960                      .dwattr $C$DW$229, DW_AT_TI_begin_line(0x715)
    2961                      .dwattr $C$DW$229, DW_AT_TI_end_line(0x715)
    2962              $C$DW$230       .dwtag  DW_TAG_TI_loop_range
    2963                      .dwattr $C$DW$230, DW_AT_low_pc($C$DW$L$_prvTaskIsTaskSuspended$3$B)
    2964                      .dwattr $C$DW$230, DW_AT_high_pc($C$DW$L$_prvTaskIsTaskSuspended$3$E)
    2965                      .dwendtag $C$DW$229
    2966              
    2967                      .dwattr $C$DW$223, DW_AT_TI_end_file("../FreeRTOS/Source/tasks_sysStk.c")
    2968                      .dwattr $C$DW$223, DW_AT_TI_end_line(0x733)
    2969                      .dwattr $C$DW$223, DW_AT_TI_end_column(0x02)
    2970                      .dwendentry
    2971                      .dwendtag $C$DW$223
    2972              
    2973 0009b9               .sect   ".text"
    2974                      .align 4
    2975                      .global _vTaskResume
    2976              
    2977              $C$DW$231       .dwtag  DW_TAG_subprogram, DW_AT_name("vTaskResume")
    2978                      .dwattr $C$DW$231, DW_AT_low_pc(_vTaskResume)
    2979                      .dwattr $C$DW$231, DW_AT_high_pc(0x00)
    2980                      .dwattr $C$DW$231, DW_AT_TI_symbol_name("_vTaskResume")
    2981                      .dwattr $C$DW$231, DW_AT_external
    2982                      .dwattr $C$DW$231, DW_AT_TI_begin_file("../FreeRTOS/Source/tasks_sysStk.c")
    2983                      .dwattr $C$DW$231, DW_AT_TI_begin_line(0x73a)
    2984                      .dwattr $C$DW$231, DW_AT_TI_begin_column(0x07)
    2985                      .dwattr $C$DW$231, DW_AT_TI_max_frame_size(0x06)
    2986                      .dwpsn  file "../FreeRTOS/Source/tasks_sysStk.c",line 1851,column 2,is_stmt,address _vTaskResume
    2987              
    2988                      .dwfde $C$DW$CIE, _vTaskResume
    2989              $C$DW$232       .dwtag  DW_TAG_formal_parameter, DW_AT_name("xTaskToResume")
    2990                      .dwattr $C$DW$232, DW_AT_TI_symbol_name("_xTaskToResume")
    2991                      .dwattr $C$DW$232, DW_AT_type(*$C$DW$T$48)
    2992                      .dwattr $C$DW$232, DW_AT_location[DW_OP_reg17]
    2993              ;*******************************************************************************
    2994              ;* FUNCTION NAME: vTaskResume                                                  *
    2995              ;*                                                                             *
TMS320C55x Assembler PC v4.4.1 Tue Oct 02 02:33:57 2018

Tools Copyright (c) 1996-2012 Texas Instruments Incorporated
tasks_sysStk.asm                                                     PAGE   67

    2996              ;*   Function Uses Regs : AC0,AC0,AC1,AC1,T0,AR0,XAR0,AR1,XAR1,AR2,AR3,XAR3,SP,*
    2997              ;*                        CARRY,TC1,M40,SATA,SATD,RDM,FRCT,SMUL                *
    2998              ;*   Stack Frame        : Compact (No Frame Pointer, w/ debug)                 *
    2999              ;*   Total Frame Size   : 6 words                                              *
    3000              ;*                        (2 return address/alignment)                         *
    3001              ;*                        (4 local values)                                     *
    3002              ;*   Min System Stack   : 1 word                                               *
    3003              ;*******************************************************************************
    3004 0009bc       _vTaskResume:
    3005                      .dwcfi  cfa_offset, 1
    3006                      .dwcfi  save_reg_to_mem, 91, -1
    3007 0009bc 4EFB          AADD #-5, SP
    3008                      .dwcfi  cfa_offset, 6
    3009              $C$DW$233       .dwtag  DW_TAG_variable, DW_AT_name("xTaskToResume")
    3010                      .dwattr $C$DW$233, DW_AT_TI_symbol_name("_xTaskToResume")
    3011                      .dwattr $C$DW$233, DW_AT_type(*$C$DW$T$48)
    3012                      .dwattr $C$DW$233, DW_AT_location[DW_OP_bregx 0x24 0]
    3013              $C$DW$234       .dwtag  DW_TAG_variable, DW_AT_name("pxTCB")
    3014                      .dwattr $C$DW$234, DW_AT_TI_symbol_name("_pxTCB")
    3015                      .dwattr $C$DW$234, DW_AT_type(*$C$DW$T$160)
    3016                      .dwattr $C$DW$234, DW_AT_location[DW_OP_bregx 0x24 2]
    3017 0009be EB00          MOV XAR0, dbl(*SP(#0))
         0009c0 85   
    3018                      .dwpsn  file "../FreeRTOS/Source/tasks_sysStk.c",line 1852,column 16,is_stmt
    3019 0009c1 ED00          MOV dbl(*SP(#0)), XAR3
         0009c3 BF   
    3020 0009c4 EB04          MOV XAR3, dbl(*SP(#2))
         0009c6 B5   
    3021                      .dwpsn  file "../FreeRTOS/Source/tasks_sysStk.c",line 1855,column 3,is_stmt
    3022 0009c7 ED00          MOV dbl(*SP(#0)), XAR3
         0009c9 BF   
    3023 0009ca 90B0          MOV XAR3, AC0
    3024 0009cc 6290          BCC $C$L108,AC0 != #0 ; |1855| 
    3025                                                      ; branchcc occurs ; |1855| 
    3026 0009ce 20     nop
    3027 0009cf 46B3   bset INTM
    3028 0009d1       $C$L107:    
    3029 0009d1       $C$DW$L$_vTaskResume$3$B:
    3030 0009d1 4A7E          B $C$L107 ; |1855| 
    3031                                                      ; branch occurs ; |1855| 
    3032 0009d3       $C$DW$L$_vTaskResume$3$E:
    3033 0009d3       $C$L108:    
    3034                      .dwpsn  file "../FreeRTOS/Source/tasks_sysStk.c",line 1859,column 3,is_stmt
    3035 0009d3 ED31          MOV dbl(*(#_pxCurrentTCB)), XAR3
         0009d5 BF00 
         0009d7 0004-
    3036 0009d9 90B0          MOV XAR3, AC0
    3037 0009db ED04          MOV dbl(*SP(#2)), XAR3
         0009dd BF   
    3038 0009de 90B1          MOV XAR3, AC1
    3039 0009e0 1210          CMPU AC1 == AC0, TC1 ; |1859| 
         0009e2 04   
    3040 0009e3 6D64          BCC $C$L111,TC1 ; |1859| 
         0009e5 0094 
    3041                                                      ; branchcc occurs ; |1859| 
TMS320C55x Assembler PC v4.4.1 Tue Oct 02 02:33:57 2018

Tools Copyright (c) 1996-2012 Texas Instruments Incorporated
tasks_sysStk.asm                                                     PAGE   68

    3042 0009e7 90B0          MOV XAR3, AC0
    3043 0009e9 6D00          BCC $C$L111,AC0 == #0 ; |1859| 
         0009eb 008E 
    3044                                                      ; branchcc occurs ; |1859| 
    3045                      .dwpsn  file "../FreeRTOS/Source/tasks_sysStk.c",line 1861,column 4,is_stmt
    3046 0009ed 20     nop
    3047 0009ee 46B3   bset INTM
    3048 0009f0 F731          ADD #1, *(#_usCriticalNesting) ; |1861| 
         0009f2 0001 
         0009f4 0000 
         0009f6 00!  
    3049                      .dwpsn  file "../FreeRTOS/Source/tasks_sysStk.c",line 1863,column 5,is_stmt
    3050              $C$DW$235       .dwtag  DW_TAG_TI_branch
    3051                      .dwattr $C$DW$235, DW_AT_low_pc(0x00)
    3052                      .dwattr $C$DW$235, DW_AT_name("_prvTaskIsTaskSuspended")
    3053                      .dwattr $C$DW$235, DW_AT_TI_call
    3054 0009f7 08FF          CALL #_prvTaskIsTaskSuspended ; |1863| 
         0009f9 46   
    3055                                                      ; call occurs [#_prvTaskIsTaskSuspended] ; |1863| 
    3056 0009fa 0404          BCC $C$L110,T0 == #0 ; |1863| 
         0009fc 60   
    3057                                                      ; branchcc occurs ; |1863| 
    3058                      .dwpsn  file "../FreeRTOS/Source/tasks_sysStk.c",line 1869,column 6,is_stmt
    3059 0009fd ED04          MOV dbl(*SP(#2)), XAR0
         0009ff 8F   
    3060 000a00 1404          AADD #4, AR0 ; |1869| 
         000a02 84   
    3061              $C$DW$236       .dwtag  DW_TAG_TI_branch
    3062                      .dwattr $C$DW$236, DW_AT_low_pc(0x00)
    3063                      .dwattr $C$DW$236, DW_AT_name("_uxListRemove")
    3064                      .dwattr $C$DW$236, DW_AT_TI_call
    3065 000a03 6C00          CALL #_uxListRemove ; |1869| 
         000a05 0000!
    3066                                                      ; call occurs [#_uxListRemove] ; |1869| 
    3067                      .dwpsn  file "../FreeRTOS/Source/tasks_sysStk.c",line 1870,column 6,is_stmt
    3068 000a07 ED04          MOV dbl(*SP(#2)), XAR3
         000a09 BF   
    3069 000a0a A931          MOV *(#_uxTopReadyPriority), AR1 ; |1870| 
         000a0c 0000 
         000a0e 72-  
    3070 000a0f AA6D          MOV *AR3(#24), AR2 ; |1870| 
         000a11 0018 
    3071 000a13 1298          CMPU AR2 <= AR1, TC1 ; |1870| 
         000a15 A4   
    3072 000a16 64E4          BCC $C$L109,TC1 ; |1870| 
    3073                                                      ; branchcc occurs ; |1870| 
    3074 000a18 A96D          MOV *AR3(#24), AR1 ; |1870| 
         000a1a 0018 
    3075 000a1c C931          MOV AR1, *(#_uxTopReadyPriority) ; |1870| 
         000a1e 0000 
         000a20 72-  
    3076 000a21       $C$L109:    
    3077 000a21 DF6D          MOV uns(*AR3(#24)), AC1 ; |1870| 
         000a23 1500 
         000a25 18   
TMS320C55x Assembler PC v4.4.1 Tue Oct 02 02:33:57 2018

Tools Copyright (c) 1996-2012 Texas Instruments Incorporated
tasks_sysStk.asm                                                     PAGE   69

    3078 000a26 ED04          MOV dbl(*SP(#2)), XAR1
         000a28 9F   
    3079 000a29 1015          SFTS AC1, #1, AC0 ; |1870| 
         000a2b 01   
    3080 000a2c 1013          ADD AC1 << #3, AC0 ; |1870| 
         000a2e 03   
    3081 000a2f 900B          MOV AC0, XAR3
    3082 000a31 EC31          AMOV #_pxReadyTasksLists, XAR0 ; |1870| 
         000a33 8E00 
         000a35 0006-
    3083              
    3084 000a37 14B1          AADD XAR3, XAR0 ; |1870| 
         000a39 80   
    3085 000a3a 1504  ||      AADD #4, AR1 ; |1870| 
         000a3c 9C   
    3086              
    3087              $C$DW$237       .dwtag  DW_TAG_TI_branch
    3088                      .dwattr $C$DW$237, DW_AT_low_pc(0x00)
    3089                      .dwattr $C$DW$237, DW_AT_name("_vListInsertEnd")
    3090                      .dwattr $C$DW$237, DW_AT_TI_call
    3091 000a3d 6C00          CALL #_vListInsertEnd ; |1870| 
         000a3f 0000!
    3092                                                      ; call occurs [#_vListInsertEnd] ; |1870| 
    3093                      .dwpsn  file "../FreeRTOS/Source/tasks_sysStk.c",line 1873,column 6,is_stmt
    3094 000a41 ED31          MOV dbl(*(#_pxCurrentTCB)), XAR3
         000a43 BF00 
         000a45 0004-
    3095 000a47 A96D          MOV *AR3(#24), AR1 ; |1873| 
         000a49 0018 
    3096 000a4b ED04          MOV dbl(*SP(#2)), XAR3
         000a4d BF   
    3097 000a4e AA6D          MOV *AR3(#24), AR2 ; |1873| 
         000a50 0018 
    3098 000a52 12A4          CMPU AR2 < AR1, TC1 ; |1873| 
         000a54 94   
    3099 000a55 6364          BCC $C$L110,TC1 ; |1873| 
    3100                                                      ; branchcc occurs ; |1873| 
    3101                      .dwpsn  file "../FreeRTOS/Source/tasks_sysStk.c",line 1878,column 7,is_stmt
    3102              $C$DW$238       .dwtag  DW_TAG_TI_branch
    3103                      .dwattr $C$DW$238, DW_AT_low_pc(0x00)
    3104                      .dwattr $C$DW$238, DW_AT_name("_vPortYield")
    3105                      .dwattr $C$DW$238, DW_AT_TI_call
    3106 000a57 6C00          CALL #_vPortYield ; |1878| 
         000a59 0000!
    3107                                                      ; call occurs [#_vPortYield] ; |1878| 
    3108                      .dwpsn  file "../FreeRTOS/Source/tasks_sysStk.c",line 1879,column 6,is_stmt
    3109 000a5b 4A00          B $C$L110 ; |1879| 
    3110                                                      ; branch occurs ; |1879| 
    3111 000a5d       $C$L110:    
    3112                      .dwpsn  file "../FreeRTOS/Source/tasks_sysStk.c",line 1890,column 4,is_stmt
    3113 000a5d A931          MOV *(#_usCriticalNesting), AR1 ; |1890| 
         000a5f 0000 
         000a61 00!  
    3114 000a62 0409          BCC $C$L111,AR1 == #0 ; |1890| 
         000a64 16   
TMS320C55x Assembler PC v4.4.1 Tue Oct 02 02:33:57 2018

Tools Copyright (c) 1996-2012 Texas Instruments Incorporated
tasks_sysStk.asm                                                     PAGE   70

    3115                                                      ; branchcc occurs ; |1890| 
    3116 000a65 F731          SUB #1, *(#_usCriticalNesting) ; |1890| 
         000a67 FFFF 
         000a69 0000 
         000a6b 00!  
    3117 000a6c 20            NOP
    3118 000a6d 20            NOP
    3119 000a6e 20            NOP
    3120 000a6f A931          MOV *(#_usCriticalNesting), AR1 ; |1890| 
         000a71 0000 
         000a73 00!  
    3121 000a74 6299          BCC $C$L111,AR1 != #0 ; |1890| 
    3122                                                      ; branchcc occurs ; |1890| 
    3123 000a76 20     nop
    3124 000a77 46B2   bclr INTM
    3125                      .dwpsn  file "../FreeRTOS/Source/tasks_sysStk.c",line 1891,column 3,is_stmt
    3126 000a79 4A00          B $C$L111 ; |1891| 
    3127                                                      ; branch occurs ; |1891| 
    3128 000a7b       $C$L111:    
    3129 000a7b 4E05          AADD #5, SP
    3130                      .dwcfi  cfa_offset, 1
    3131              $C$DW$239       .dwtag  DW_TAG_TI_branch
    3132                      .dwattr $C$DW$239, DW_AT_low_pc(0x00)
    3133                      .dwattr $C$DW$239, DW_AT_TI_return
    3134 000a7d 4804          RET
    3135                                                      ; return occurs
    3136              
    3137              $C$DW$240       .dwtag  DW_TAG_TI_loop
    3138                      .dwattr $C$DW$240, DW_AT_name("F:\eZdsp-DBG-sim\tmp1\c55x-sim2\foo\Debug\tasks_sysStk.asm:$C$L107:1:1
    3139                      .dwattr $C$DW$240, DW_AT_TI_begin_file("../FreeRTOS/Source/tasks_sysStk.c")
    3140                      .dwattr $C$DW$240, DW_AT_TI_begin_line(0x73f)
    3141                      .dwattr $C$DW$240, DW_AT_TI_end_line(0x73f)
    3142              $C$DW$241       .dwtag  DW_TAG_TI_loop_range
    3143                      .dwattr $C$DW$241, DW_AT_low_pc($C$DW$L$_vTaskResume$3$B)
    3144                      .dwattr $C$DW$241, DW_AT_high_pc($C$DW$L$_vTaskResume$3$E)
    3145                      .dwendtag $C$DW$240
    3146              
    3147                      .dwattr $C$DW$231, DW_AT_TI_end_file("../FreeRTOS/Source/tasks_sysStk.c")
    3148                      .dwattr $C$DW$231, DW_AT_TI_end_line(0x768)
    3149                      .dwattr $C$DW$231, DW_AT_TI_end_column(0x02)
    3150                      .dwendentry
    3151                      .dwendtag $C$DW$231
    3152              
    3153 000a7f               .sect   ".text"
    3154                      .align 4
    3155                      .global _xTaskResumeFromISR
    3156              
    3157              $C$DW$242       .dwtag  DW_TAG_subprogram, DW_AT_name("xTaskResumeFromISR")
    3158                      .dwattr $C$DW$242, DW_AT_low_pc(_xTaskResumeFromISR)
    3159                      .dwattr $C$DW$242, DW_AT_high_pc(0x00)
    3160                      .dwattr $C$DW$242, DW_AT_TI_symbol_name("_xTaskResumeFromISR")
    3161                      .dwattr $C$DW$242, DW_AT_external
    3162                      .dwattr $C$DW$242, DW_AT_type(*$C$DW$T$43)
