TMS320C55x Assembler PC v4.4.1 Sat Sep 29 23:08:45 2018

Tools Copyright (c) 1996-2012 Texas Instruments Incorporated
csl_uart_intc_example.asm                                            PAGE    1

    3233              ; Temporary Registers Used: None
       1              ;*******************************************************************************
       2              ;* TMS320C55x C/C++ Codegen                                          PC v4.4.1 *
       3              ;* Date/Time created: Sat Sep 29 23:08:44 2018                                 *
       4              ;*******************************************************************************
       5                      .compiler_opts --hll_source=on --mem_model:code=flat --mem_model:data=large --object_format=coff --si
       6                      .mmregs
       7                      .cpl_on
       8                      .arms_on
       9                      .c54cm_off
      10                      .asg AR6, FP
      11                      .asg XAR6, XFP
      12                      .asg DPH, MDP
      13                      .model call=c55_std
      14                      .model mem=large
      15                      .noremark 5002  ; code respects overwrite rules
      16              ;*******************************************************************************
      17              ;* GLOBAL FILE PARAMETERS                                                      *
      18              ;*                                                                             *
      19              ;*   Architecture       : TMS320C55x                                           *
      20              ;*   Optimizing for     : Speed                                                *
      21              ;*   Memory             : Large Model (23-Bit Data Pointers)                   *
      22              ;*   Calls              : Normal Library ASM calls                             *
      23              ;*   Debug Info         : Standard TI Debug Information                        *
      24              ;*******************************************************************************
      25              
      26              $C$DW$CU        .dwtag  DW_TAG_compile_unit
      27                      .dwattr $C$DW$CU, DW_AT_name("../c5535_bsl_revc/ezdsp5535_v1/c55xx_csl/ccs_v4.0_examples/uart/CSL_UAR
      28                      .dwattr $C$DW$CU, DW_AT_producer("TMS320C55x C/C++ Codegen PC v4.4.1 Copyright (c) 1996-2012 Texas In
      29                      .dwattr $C$DW$CU, DW_AT_TI_version(0x01)
      30                      .dwattr $C$DW$CU, DW_AT_comp_dir("F:\eZdsp_DBG\tmp1\c55x-sim2\foo\Debug")
      31              ;******************************************************************************
      32              ;* CINIT RECORDS                                                              *
      33              ;******************************************************************************
      34 000000               .sect   ".cinit"
      35                      .align  1
      36 000000 000B          .field          $C$IR_1,16
      37 000001 0000-         .field          _mySetup+0,24
         000002 0000 
      38 000002 0000          .field          0,8
      39 000003 0393          .field  60000000,32                     ; _mySetup._clkInput @ 0
         000004 8700 
      40 000005 0000          .field  2400,32                 ; _mySetup._baud @ 32
         000006 0960 
      41 000007 0008          .field  8,16                    ; _mySetup._wordLength @ 64
      42 000008 0000          .field  0,16                    ; _mySetup._stopBits @ 80
      43 000009 0000          .field  0,16                    ; _mySetup._parity @ 96
      44 00000a 00C7          .field  199,16                  ; _mySetup._fifoControl @ 112
      45 00000b 0000          .field  0,16                    ; _mySetup._loopBackEnable @ 128
      46 00000c 0000          .field  0,16                    ; _mySetup._afeEnable @ 144
      47 00000d 0000          .field  0,16                    ; _mySetup._rtsEnable @ 160
      48              $C$IR_1:        .set    11
      49              
      50 00000e               .sect   ".cinit"
      51                      .align  1
TMS320C55x Assembler PC v4.4.1 Sat Sep 29 23:08:45 2018

Tools Copyright (c) 1996-2012 Texas Instruments Incorporated
csl_uart_intc_example.asm                                            PAGE    2

      52 00000e 000E          .field          $C$IR_2,16
      53 00000f 0000-         .field          _buffer1+0,24
         000010 2A00 
      54 000010 2A00          .field          0,8
      55 000011 000D          .field  13,16                   ; _buffer1[0] @ 0
      56 000012 000A          .field  10,16                   ; _buffer1[1] @ 16
      57 000013 0045          .field  69,16                   ; _buffer1[2] @ 32
      58 000014 006E          .field  110,16                  ; _buffer1[3] @ 48
      59 000015 0074          .field  116,16                  ; _buffer1[4] @ 64
      60 000016 0065          .field  101,16                  ; _buffer1[5] @ 80
      61 000017 0072          .field  114,16                  ; _buffer1[6] @ 96
      62 000018 0020          .field  32,16                   ; _buffer1[7] @ 112
      63 000019 0063          .field  99,16                   ; _buffer1[8] @ 128
      64 00001a 0068          .field  104,16                  ; _buffer1[9] @ 144
      65 00001b 0061          .field  97,16                   ; _buffer1[10] @ 160
      66 00001c 0072          .field  114,16                  ; _buffer1[11] @ 176
      67 00001d 003A          .field  58,16                   ; _buffer1[12] @ 192
      68 00001e 0000          .field  0,16                    ; _buffer1[13] @ 208
      69              $C$IR_2:        .set    14
      70              
      71 00001f               .sect   ".cinit"
      72                      .align  1
      73 00001f 0001          .field          $C$IR_3,16
      74 000020 0000-         .field          _buffer2+0,24
         000021 4800 
      75 000021 4800          .field          0,8
      76 000022 0000          .field  0,16                    ; _buffer2[0] @ 0
      77              $C$IR_3:        .set    1
      78              
      79 000023               .sect   ".cinit"
      80                      .align  1
      81 000023 0003          .field          $C$IR_4,16
      82 000024 0000-         .field          _buffer3+0,24
         000025 5200 
      83 000025 5200          .field          0,8
      84 000026 000D          .field  13,16                   ; _buffer3[0] @ 0
      85 000027 000A          .field  10,16                   ; _buffer3[1] @ 16
      86 000028 0000          .field  0,16                    ; _buffer3[2] @ 32
      87              $C$IR_4:        .set    3
      88              
      89 000029               .sect   ".cinit"
      90                      .align  1
      91 000029 0001          .field          1,16
      92 00002a 0000-         .field          _gcount+0,24
         00002b 7000 
      93 00002b 7000          .field          0,8
      94 00002c 0010          .field  16,16                   ; _gcount @ 0
      95              
      96 00002d               .sect   ".cinit"
      97                      .align  1
      98 00002d 0001          .field          1,16
      99 00002e 0000-         .field          _mutex+0,24
         00002f 7100 
     100 00002f 7100          .field          0,8
     101 000030 0000          .field  0,16                    ; _mutex @ 0
TMS320C55x Assembler PC v4.4.1 Sat Sep 29 23:08:45 2018

Tools Copyright (c) 1996-2012 Texas Instruments Incorporated
csl_uart_intc_example.asm                                            PAGE    3

     102              
     103 000031               .sect   ".cinit"
     104                      .align  1
     105 000031 0002          .field          2,16
     106 000032 0000-         .field          _ptr+0,24
         000033 7200 
     107 000033 7200          .field          0,8
     108 000034 0000-         .field  _buffer1,32             ; _ptr @ 0
         000035 002A 
     109              
     110 000036               .sect   ".cinit"
     111                      .align  1
     112 000036 0001          .field          1,16
     113 000037 0000-         .field          _endOfTest+0,24
         000038 7500 
     114 000038 7500          .field          0,8
     115 000039 0000          .field  0,16                    ; _endOfTest @ 0
     116              
     117 00003a               .sect   ".cinit"
     118                      .align  1
     119 00003a 0001          .field          1,16
     120 00003b 0000-         .field          _PaSs_StAtE+0,24
         00003c 7600 
     121 00003c 7600          .field          0,8
     122 00003d 0001          .field  1,16                    ; _PaSs_StAtE @ 0
     123              
     124 00003e               .sect   ".cinit"
     125                      .align  1
     126 00003e 0001          .field          1,16
     127 00003f 0000-         .field          _PaSs+0,24
         000040 7700 
     128 000040 7700          .field          0,8
     129 000041 0000          .field  0,16                    ; _PaSs @ 0
     130              
     131              
     132              $C$DW$1 .dwtag  DW_TAG_subprogram, DW_AT_name("printf")
     133                      .dwattr $C$DW$1, DW_AT_TI_symbol_name("_printf")
     134                      .dwattr $C$DW$1, DW_AT_type(*$C$DW$T$10)
     135                      .dwattr $C$DW$1, DW_AT_declaration
     136                      .dwattr $C$DW$1, DW_AT_external
     137              $C$DW$2 .dwtag  DW_TAG_formal_parameter
     138                      .dwattr $C$DW$2, DW_AT_type(*$C$DW$T$88)
     139              $C$DW$3 .dwtag  DW_TAG_unspecified_parameters
     140                      .dwendtag $C$DW$1
     141              
     142              
     143              $C$DW$4 .dwtag  DW_TAG_subprogram, DW_AT_name("IRQ_plug")
     144                      .dwattr $C$DW$4, DW_AT_TI_symbol_name("_IRQ_plug")
     145                      .dwattr $C$DW$4, DW_AT_type(*$C$DW$T$10)
     146                      .dwattr $C$DW$4, DW_AT_declaration
     147                      .dwattr $C$DW$4, DW_AT_external
     148              $C$DW$5 .dwtag  DW_TAG_formal_parameter
     149                      .dwattr $C$DW$5, DW_AT_type(*$C$DW$T$19)
     150              $C$DW$6 .dwtag  DW_TAG_formal_parameter
     151                      .dwattr $C$DW$6, DW_AT_type(*$C$DW$T$53)
TMS320C55x Assembler PC v4.4.1 Sat Sep 29 23:08:45 2018

Tools Copyright (c) 1996-2012 Texas Instruments Incorporated
csl_uart_intc_example.asm                                            PAGE    4

     152                      .dwendtag $C$DW$4
     153              
     154              
     155              $C$DW$7 .dwtag  DW_TAG_subprogram, DW_AT_name("IRQ_clearAll")
     156                      .dwattr $C$DW$7, DW_AT_TI_symbol_name("_IRQ_clearAll")
     157                      .dwattr $C$DW$7, DW_AT_declaration
     158                      .dwattr $C$DW$7, DW_AT_external
     159              
     160              $C$DW$8 .dwtag  DW_TAG_subprogram, DW_AT_name("IRQ_disable")
     161                      .dwattr $C$DW$8, DW_AT_TI_symbol_name("_IRQ_disable")
     162                      .dwattr $C$DW$8, DW_AT_type(*$C$DW$T$10)
     163                      .dwattr $C$DW$8, DW_AT_declaration
     164                      .dwattr $C$DW$8, DW_AT_external
     165              $C$DW$9 .dwtag  DW_TAG_formal_parameter
     166                      .dwattr $C$DW$9, DW_AT_type(*$C$DW$T$19)
     167                      .dwendtag $C$DW$8
     168              
     169              
     170              $C$DW$10        .dwtag  DW_TAG_subprogram, DW_AT_name("IRQ_disableAll")
     171                      .dwattr $C$DW$10, DW_AT_TI_symbol_name("_IRQ_disableAll")
     172                      .dwattr $C$DW$10, DW_AT_declaration
     173                      .dwattr $C$DW$10, DW_AT_external
     174              
     175              $C$DW$11        .dwtag  DW_TAG_subprogram, DW_AT_name("IRQ_enable")
     176                      .dwattr $C$DW$11, DW_AT_TI_symbol_name("_IRQ_enable")
     177                      .dwattr $C$DW$11, DW_AT_type(*$C$DW$T$10)
     178                      .dwattr $C$DW$11, DW_AT_declaration
     179                      .dwattr $C$DW$11, DW_AT_external
     180              $C$DW$12        .dwtag  DW_TAG_formal_parameter
     181                      .dwattr $C$DW$12, DW_AT_type(*$C$DW$T$19)
     182                      .dwendtag $C$DW$11
     183              
     184              
     185              $C$DW$13        .dwtag  DW_TAG_subprogram, DW_AT_name("IRQ_setVecs")
     186                      .dwattr $C$DW$13, DW_AT_TI_symbol_name("_IRQ_setVecs")
     187                      .dwattr $C$DW$13, DW_AT_type(*$C$DW$T$56)
     188                      .dwattr $C$DW$13, DW_AT_declaration
     189                      .dwattr $C$DW$13, DW_AT_external
     190              $C$DW$14        .dwtag  DW_TAG_formal_parameter
     191                      .dwattr $C$DW$14, DW_AT_type(*$C$DW$T$27)
     192                      .dwendtag $C$DW$13
     193              
     194              
     195              $C$DW$15        .dwtag  DW_TAG_subprogram, DW_AT_name("IRQ_globalDisable")
     196                      .dwattr $C$DW$15, DW_AT_TI_symbol_name("_IRQ_globalDisable")
     197                      .dwattr $C$DW$15, DW_AT_type(*$C$DW$T$83)
     198                      .dwattr $C$DW$15, DW_AT_declaration
     199                      .dwattr $C$DW$15, DW_AT_external
     200              
     201              $C$DW$16        .dwtag  DW_TAG_subprogram, DW_AT_name("IRQ_globalEnable")
     202                      .dwattr $C$DW$16, DW_AT_TI_symbol_name("_IRQ_globalEnable")
     203                      .dwattr $C$DW$16, DW_AT_type(*$C$DW$T$83)
     204                      .dwattr $C$DW$16, DW_AT_declaration
     205                      .dwattr $C$DW$16, DW_AT_external
     206              
TMS320C55x Assembler PC v4.4.1 Sat Sep 29 23:08:45 2018

Tools Copyright (c) 1996-2012 Texas Instruments Incorporated
csl_uart_intc_example.asm                                            PAGE    5

     207              $C$DW$17        .dwtag  DW_TAG_subprogram, DW_AT_name("UART_init")
     208                      .dwattr $C$DW$17, DW_AT_TI_symbol_name("_UART_init")
     209                      .dwattr $C$DW$17, DW_AT_type(*$C$DW$T$56)
     210                      .dwattr $C$DW$17, DW_AT_declaration
     211                      .dwattr $C$DW$17, DW_AT_external
     212              $C$DW$18        .dwtag  DW_TAG_formal_parameter
     213                      .dwattr $C$DW$18, DW_AT_type(*$C$DW$T$51)
     214              $C$DW$19        .dwtag  DW_TAG_formal_parameter
     215                      .dwattr $C$DW$19, DW_AT_type(*$C$DW$T$27)
     216              $C$DW$20        .dwtag  DW_TAG_formal_parameter
     217                      .dwattr $C$DW$20, DW_AT_type(*$C$DW$T$41)
     218                      .dwendtag $C$DW$17
     219              
     220              
     221              $C$DW$21        .dwtag  DW_TAG_subprogram, DW_AT_name("UART_setup")
     222                      .dwattr $C$DW$21, DW_AT_TI_symbol_name("_UART_setup")
     223                      .dwattr $C$DW$21, DW_AT_type(*$C$DW$T$56)
     224                      .dwattr $C$DW$21, DW_AT_declaration
     225                      .dwattr $C$DW$21, DW_AT_external
     226              $C$DW$22        .dwtag  DW_TAG_formal_parameter
     227                      .dwattr $C$DW$22, DW_AT_type(*$C$DW$T$52)
     228              $C$DW$23        .dwtag  DW_TAG_formal_parameter
     229                      .dwattr $C$DW$23, DW_AT_type(*$C$DW$T$45)
     230                      .dwendtag $C$DW$21
     231              
     232              
     233              $C$DW$24        .dwtag  DW_TAG_subprogram, DW_AT_name("UART_eventEnable")
     234                      .dwattr $C$DW$24, DW_AT_TI_symbol_name("_UART_eventEnable")
     235                      .dwattr $C$DW$24, DW_AT_type(*$C$DW$T$56)
     236                      .dwattr $C$DW$24, DW_AT_declaration
     237                      .dwattr $C$DW$24, DW_AT_external
     238              $C$DW$25        .dwtag  DW_TAG_formal_parameter
     239                      .dwattr $C$DW$25, DW_AT_type(*$C$DW$T$52)
     240              $C$DW$26        .dwtag  DW_TAG_formal_parameter
     241                      .dwattr $C$DW$26, DW_AT_type(*$C$DW$T$49)
     242                      .dwendtag $C$DW$24
     243              
     244              
     245              $C$DW$27        .dwtag  DW_TAG_subprogram, DW_AT_name("UART_eventDisable")
     246                      .dwattr $C$DW$27, DW_AT_TI_symbol_name("_UART_eventDisable")
     247                      .dwattr $C$DW$27, DW_AT_type(*$C$DW$T$56)
     248                      .dwattr $C$DW$27, DW_AT_declaration
     249                      .dwattr $C$DW$27, DW_AT_external
     250              $C$DW$28        .dwtag  DW_TAG_formal_parameter
     251                      .dwattr $C$DW$28, DW_AT_type(*$C$DW$T$52)
     252              $C$DW$29        .dwtag  DW_TAG_formal_parameter
     253                      .dwattr $C$DW$29, DW_AT_type(*$C$DW$T$49)
     254                      .dwendtag $C$DW$27
     255              
     256              
     257              $C$DW$30        .dwtag  DW_TAG_subprogram, DW_AT_name("UART_read")
     258                      .dwattr $C$DW$30, DW_AT_TI_symbol_name("_UART_read")
     259                      .dwattr $C$DW$30, DW_AT_type(*$C$DW$T$56)
     260                      .dwattr $C$DW$30, DW_AT_declaration
     261                      .dwattr $C$DW$30, DW_AT_external
TMS320C55x Assembler PC v4.4.1 Sat Sep 29 23:08:45 2018

Tools Copyright (c) 1996-2012 Texas Instruments Incorporated
csl_uart_intc_example.asm                                            PAGE    6

     262              $C$DW$31        .dwtag  DW_TAG_formal_parameter
     263                      .dwattr $C$DW$31, DW_AT_type(*$C$DW$T$52)
     264              $C$DW$32        .dwtag  DW_TAG_formal_parameter
     265                      .dwattr $C$DW$32, DW_AT_type(*$C$DW$T$67)
     266              $C$DW$33        .dwtag  DW_TAG_formal_parameter
     267                      .dwattr $C$DW$33, DW_AT_type(*$C$DW$T$19)
     268              $C$DW$34        .dwtag  DW_TAG_formal_parameter
     269                      .dwattr $C$DW$34, DW_AT_type(*$C$DW$T$27)
     270                      .dwendtag $C$DW$30
     271              
     272              
     273              $C$DW$35        .dwtag  DW_TAG_subprogram, DW_AT_name("UART_write")
     274                      .dwattr $C$DW$35, DW_AT_TI_symbol_name("_UART_write")
     275                      .dwattr $C$DW$35, DW_AT_type(*$C$DW$T$56)
     276                      .dwattr $C$DW$35, DW_AT_declaration
     277                      .dwattr $C$DW$35, DW_AT_external
     278              $C$DW$36        .dwtag  DW_TAG_formal_parameter
     279                      .dwattr $C$DW$36, DW_AT_type(*$C$DW$T$52)
     280              $C$DW$37        .dwtag  DW_TAG_formal_parameter
     281                      .dwattr $C$DW$37, DW_AT_type(*$C$DW$T$67)
     282              $C$DW$38        .dwtag  DW_TAG_formal_parameter
     283                      .dwattr $C$DW$38, DW_AT_type(*$C$DW$T$19)
     284              $C$DW$39        .dwtag  DW_TAG_formal_parameter
     285                      .dwattr $C$DW$39, DW_AT_type(*$C$DW$T$27)
     286                      .dwendtag $C$DW$35
     287              
     288              
     289              $C$DW$40        .dwtag  DW_TAG_subprogram, DW_AT_name("UART_fputs")
     290                      .dwattr $C$DW$40, DW_AT_TI_symbol_name("_UART_fputs")
     291                      .dwattr $C$DW$40, DW_AT_type(*$C$DW$T$56)
     292                      .dwattr $C$DW$40, DW_AT_declaration
     293                      .dwattr $C$DW$40, DW_AT_external
     294              $C$DW$41        .dwtag  DW_TAG_formal_parameter
     295                      .dwattr $C$DW$41, DW_AT_type(*$C$DW$T$52)
     296              $C$DW$42        .dwtag  DW_TAG_formal_parameter
     297                      .dwattr $C$DW$42, DW_AT_type(*$C$DW$T$71)
     298              $C$DW$43        .dwtag  DW_TAG_formal_parameter
     299                      .dwattr $C$DW$43, DW_AT_type(*$C$DW$T$27)
     300                      .dwendtag $C$DW$40
     301              
     302              
     303              $C$DW$44        .dwtag  DW_TAG_subprogram, DW_AT_name("UART_getEventId")
     304                      .dwattr $C$DW$44, DW_AT_TI_symbol_name("_UART_getEventId")
     305                      .dwattr $C$DW$44, DW_AT_type(*$C$DW$T$55)
     306                      .dwattr $C$DW$44, DW_AT_declaration
     307                      .dwattr $C$DW$44, DW_AT_external
     308              $C$DW$45        .dwtag  DW_TAG_formal_parameter
     309                      .dwattr $C$DW$45, DW_AT_type(*$C$DW$T$52)
     310                      .dwendtag $C$DW$44
     311              
     312              
     313              $C$DW$46        .dwtag  DW_TAG_subprogram, DW_AT_name("UART_setCallback")
     314                      .dwattr $C$DW$46, DW_AT_TI_symbol_name("_UART_setCallback")
     315                      .dwattr $C$DW$46, DW_AT_type(*$C$DW$T$56)
     316                      .dwattr $C$DW$46, DW_AT_declaration
TMS320C55x Assembler PC v4.4.1 Sat Sep 29 23:08:45 2018

Tools Copyright (c) 1996-2012 Texas Instruments Incorporated
csl_uart_intc_example.asm                                            PAGE    7

     317                      .dwattr $C$DW$46, DW_AT_external
     318              $C$DW$47        .dwtag  DW_TAG_formal_parameter
     319                      .dwattr $C$DW$47, DW_AT_type(*$C$DW$T$52)
     320              $C$DW$48        .dwtag  DW_TAG_formal_parameter
     321                      .dwattr $C$DW$48, DW_AT_type(*$C$DW$T$47)
     322                      .dwendtag $C$DW$46
     323              
     324              
     325              $C$DW$49        .dwtag  DW_TAG_subprogram, DW_AT_name("VECSTART")
     326                      .dwattr $C$DW$49, DW_AT_TI_symbol_name("_VECSTART")
     327                      .dwattr $C$DW$49, DW_AT_declaration
     328                      .dwattr $C$DW$49, DW_AT_external
     329                      .global _mySetup
     330 000000               .bss    _mySetup,12,0,2
     331              $C$DW$50        .dwtag  DW_TAG_variable, DW_AT_name("mySetup")
     332                      .dwattr $C$DW$50, DW_AT_TI_symbol_name("_mySetup")
     333                      .dwattr $C$DW$50, DW_AT_location[DW_OP_addr _mySetup]
     334                      .dwattr $C$DW$50, DW_AT_type(*$C$DW$T$44)
     335                      .dwattr $C$DW$50, DW_AT_external
     336                      .global _uartObj
     337 00000c               .bss    _uartObj,20,0,2
     338              $C$DW$51        .dwtag  DW_TAG_variable, DW_AT_name("uartObj")
     339                      .dwattr $C$DW$51, DW_AT_TI_symbol_name("_uartObj")
     340                      .dwattr $C$DW$51, DW_AT_location[DW_OP_addr _uartObj]
     341                      .dwattr $C$DW$51, DW_AT_type(*$C$DW$T$50)
     342                      .dwattr $C$DW$51, DW_AT_external
     343                      .global _hUart
     344 000020               .bss    _hUart,2,0,2
     345              $C$DW$52        .dwtag  DW_TAG_variable, DW_AT_name("hUart")
     346                      .dwattr $C$DW$52, DW_AT_TI_symbol_name("_hUart")
     347                      .dwattr $C$DW$52, DW_AT_location[DW_OP_addr _hUart]
     348                      .dwattr $C$DW$52, DW_AT_type(*$C$DW$T$52)
     349                      .dwattr $C$DW$52, DW_AT_external
     350                      .global _uartIntcWriteBuff
     351 000022               .bss    _uartIntcWriteBuff,4,0,0
     352              $C$DW$53        .dwtag  DW_TAG_variable, DW_AT_name("uartIntcWriteBuff")
     353                      .dwattr $C$DW$53, DW_AT_TI_symbol_name("_uartIntcWriteBuff")
     354                      .dwattr $C$DW$53, DW_AT_location[DW_OP_addr _uartIntcWriteBuff]
     355                      .dwattr $C$DW$53, DW_AT_type(*$C$DW$T$82)
     356                      .dwattr $C$DW$53, DW_AT_external
     357                      .global _uartIntcReadBuff
     358 000026               .bss    _uartIntcReadBuff,4,0,0
     359              $C$DW$54        .dwtag  DW_TAG_variable, DW_AT_name("uartIntcReadBuff")
     360                      .dwattr $C$DW$54, DW_AT_TI_symbol_name("_uartIntcReadBuff")
     361                      .dwattr $C$DW$54, DW_AT_location[DW_OP_addr _uartIntcReadBuff]
     362                      .dwattr $C$DW$54, DW_AT_type(*$C$DW$T$82)
     363                      .dwattr $C$DW$54, DW_AT_external
     364                      .global _buffer1
     365 00002a               .bss    _buffer1,30,0,0
     366              $C$DW$55        .dwtag  DW_TAG_variable, DW_AT_name("buffer1")
     367                      .dwattr $C$DW$55, DW_AT_TI_symbol_name("_buffer1")
     368                      .dwattr $C$DW$55, DW_AT_location[DW_OP_addr _buffer1]
     369                      .dwattr $C$DW$55, DW_AT_type(*$C$DW$T$99)
     370                      .dwattr $C$DW$55, DW_AT_external
     371                      .global _buffer2
TMS320C55x Assembler PC v4.4.1 Sat Sep 29 23:08:45 2018

Tools Copyright (c) 1996-2012 Texas Instruments Incorporated
csl_uart_intc_example.asm                                            PAGE    8

     372 000048               .bss    _buffer2,10,0,0
     373              $C$DW$56        .dwtag  DW_TAG_variable, DW_AT_name("buffer2")
     374                      .dwattr $C$DW$56, DW_AT_TI_symbol_name("_buffer2")
     375                      .dwattr $C$DW$56, DW_AT_location[DW_OP_addr _buffer2]
     376                      .dwattr $C$DW$56, DW_AT_type(*$C$DW$T$101)
     377                      .dwattr $C$DW$56, DW_AT_external
     378                      .global _buffer3
     379 000052               .bss    _buffer3,30,0,0
     380              $C$DW$57        .dwtag  DW_TAG_variable, DW_AT_name("buffer3")
     381                      .dwattr $C$DW$57, DW_AT_TI_symbol_name("_buffer3")
     382                      .dwattr $C$DW$57, DW_AT_location[DW_OP_addr _buffer3]
     383                      .dwattr $C$DW$57, DW_AT_type(*$C$DW$T$99)
     384                      .dwattr $C$DW$57, DW_AT_external
     385                      .global _gcount
     386 000070               .bss    _gcount,1,0,0
     387              $C$DW$58        .dwtag  DW_TAG_variable, DW_AT_name("gcount")
     388                      .dwattr $C$DW$58, DW_AT_TI_symbol_name("_gcount")
     389                      .dwattr $C$DW$58, DW_AT_location[DW_OP_addr _gcount]
     390                      .dwattr $C$DW$58, DW_AT_type(*$C$DW$T$19)
     391                      .dwattr $C$DW$58, DW_AT_external
     392                      .global _mutex
     393 000071               .bss    _mutex,1,0,0
     394              $C$DW$59        .dwtag  DW_TAG_variable, DW_AT_name("mutex")
     395                      .dwattr $C$DW$59, DW_AT_TI_symbol_name("_mutex")
     396                      .dwattr $C$DW$59, DW_AT_location[DW_OP_addr _mutex]
     397                      .dwattr $C$DW$59, DW_AT_type(*$C$DW$T$19)
     398                      .dwattr $C$DW$59, DW_AT_external
     399                      .global _ptr
     400 000072               .bss    _ptr,2,0,2
     401              $C$DW$60        .dwtag  DW_TAG_variable, DW_AT_name("ptr")
     402                      .dwattr $C$DW$60, DW_AT_TI_symbol_name("_ptr")
     403                      .dwattr $C$DW$60, DW_AT_location[DW_OP_addr _ptr]
     404                      .dwattr $C$DW$60, DW_AT_type(*$C$DW$T$102)
     405                      .dwattr $C$DW$60, DW_AT_external
     406                      .global _setbit
     407 000074               .bss    _setbit,1,0,0
     408              $C$DW$61        .dwtag  DW_TAG_variable, DW_AT_name("setbit")
     409                      .dwattr $C$DW$61, DW_AT_TI_symbol_name("_setbit")
     410                      .dwattr $C$DW$61, DW_AT_location[DW_OP_addr _setbit]
     411                      .dwattr $C$DW$61, DW_AT_type(*$C$DW$T$19)
     412                      .dwattr $C$DW$61, DW_AT_external
     413                      .global _endOfTest
     414 000075               .bss    _endOfTest,1,0,0
     415              $C$DW$62        .dwtag  DW_TAG_variable, DW_AT_name("endOfTest")
     416                      .dwattr $C$DW$62, DW_AT_TI_symbol_name("_endOfTest")
     417                      .dwattr $C$DW$62, DW_AT_location[DW_OP_addr _endOfTest]
     418                      .dwattr $C$DW$62, DW_AT_type(*$C$DW$T$84)
     419                      .dwattr $C$DW$62, DW_AT_external
     420                      .global _PaSs_StAtE
     421 000076               .bss    _PaSs_StAtE,1,0,0
     422              $C$DW$63        .dwtag  DW_TAG_variable, DW_AT_name("PaSs_StAtE")
     423                      .dwattr $C$DW$63, DW_AT_TI_symbol_name("_PaSs_StAtE")
     424                      .dwattr $C$DW$63, DW_AT_location[DW_OP_addr _PaSs_StAtE]
     425                      .dwattr $C$DW$63, DW_AT_type(*$C$DW$T$78)
     426                      .dwattr $C$DW$63, DW_AT_external
TMS320C55x Assembler PC v4.4.1 Sat Sep 29 23:08:45 2018

Tools Copyright (c) 1996-2012 Texas Instruments Incorporated
csl_uart_intc_example.asm                                            PAGE    9

     427                      .global _PaSs
     428 000077               .bss    _PaSs,1,0,0
     429              $C$DW$64        .dwtag  DW_TAG_variable, DW_AT_name("PaSs")
     430                      .dwattr $C$DW$64, DW_AT_TI_symbol_name("_PaSs")
     431                      .dwattr $C$DW$64, DW_AT_location[DW_OP_addr _PaSs]
     432                      .dwattr $C$DW$64, DW_AT_type(*$C$DW$T$78)
     433                      .dwattr $C$DW$64, DW_AT_external
     434              ;       F:\t\cc5p5\ccsv5\tools\compiler\c5500_4.4.1\bin\acp55.exe -@f:\\AppData\\Local\\Temp\\0661212 
     435 000000               .sect   ".text"
     436                      .align 4
     437                      .global _uart_lsiIsr
     438              
     439              $C$DW$65        .dwtag  DW_TAG_subprogram, DW_AT_name("uart_lsiIsr")
     440                      .dwattr $C$DW$65, DW_AT_low_pc(_uart_lsiIsr)
     441                      .dwattr $C$DW$65, DW_AT_high_pc(0x00)
     442                      .dwattr $C$DW$65, DW_AT_TI_symbol_name("_uart_lsiIsr")
     443                      .dwattr $C$DW$65, DW_AT_external
     444                      .dwattr $C$DW$65, DW_AT_TI_begin_file("../c5535_bsl_revc/ezdsp5535_v1/c55xx_csl/ccs_v4.0_examples/uar
     445                      .dwattr $C$DW$65, DW_AT_TI_begin_line(0xc9)
     446                      .dwattr $C$DW$65, DW_AT_TI_begin_column(0x06)
     447                      .dwattr $C$DW$65, DW_AT_TI_max_frame_size(0x02)
     448                      .dwpsn  file "../c5535_bsl_revc/ezdsp5535_v1/c55xx_csl/ccs_v4.0_examples/uart/CSL_UART_IntExample/csl
     449              
     450                      .dwfde $C$DW$CIE, _uart_lsiIsr
     451              ;*******************************************************************************
     452              ;* FUNCTION NAME: uart_lsiIsr                                                  *
     453              ;*                                                                             *
     454              ;*   Function Uses Regs : T0,AR1,AR3,XAR3,SP,M40,SATA,SATD,RDM,FRCT,SMUL       *
     455              ;*   Stack Frame        : Compact (No Frame Pointer, w/ debug)                 *
     456              ;*   Total Frame Size   : 2 words                                              *
     457              ;*                        (1 return address/alignment)                         *
     458              ;*                        (1 local values)                                     *
     459              ;*   Min System Stack   : 1 word                                               *
     460              ;*******************************************************************************
     461 000000       _uart_lsiIsr:
     462                      .dwcfi  cfa_offset, 1
     463                      .dwcfi  save_reg_to_mem, 91, -1
     464 000000 4EFF          AADD #-1, SP
     465                      .dwcfi  cfa_offset, 2
     466              $C$DW$66        .dwtag  DW_TAG_variable, DW_AT_name("reg")
     467                      .dwattr $C$DW$66, DW_AT_TI_symbol_name("_reg")
     468                      .dwattr $C$DW$66, DW_AT_type(*$C$DW$T$19)
     469                      .dwattr $C$DW$66, DW_AT_location[DW_OP_bregx 0x24 0]
     470                      .dwpsn  file "../c5535_bsl_revc/ezdsp5535_v1/c55xx_csl/ccs_v4.0_examples/uart/CSL_UART_IntExample/csl
     471 000002 ED31          MOV dbl(*(#_hUart)), XAR3
         000004 BF00 
         000006 0020-
     472 000008 AB73          MOV *AR3(short(#1)), AR3 ; |204| 
     473 00000a 140A          AMOV #10, T0
         00000c 45   
     474 00000d A96B          MOV port(*AR3(T0)), AR1 ; |204| 
         00000f 99   
     475 000010 C900          MOV AR1, *SP(#0) ; |204| 
     476                      .dwpsn  file "../c5535_bsl_revc/ezdsp5535_v1/c55xx_csl/ccs_v4.0_examples/uart/CSL_UART_IntExample/csl
     477                      .dwpsn  file "../c5535_bsl_revc/ezdsp5535_v1/c55xx_csl/ccs_v4.0_examples/uart/CSL_UART_IntExample/csl
TMS320C55x Assembler PC v4.4.1 Sat Sep 29 23:08:45 2018

Tools Copyright (c) 1996-2012 Texas Instruments Incorporated
csl_uart_intc_example.asm                                            PAGE   10

     478 000012 4E01          AADD #1, SP
     479                      .dwcfi  cfa_offset, 1
     480              $C$DW$67        .dwtag  DW_TAG_TI_branch
     481                      .dwattr $C$DW$67, DW_AT_low_pc(0x00)
     482                      .dwattr $C$DW$67, DW_AT_TI_return
     483 000014 4804          RET
     484                                                      ; return occurs
     485                      .dwattr $C$DW$65, DW_AT_TI_end_file("../c5535_bsl_revc/ezdsp5535_v1/c55xx_csl/ccs_v4.0_examples/uart/
     486                      .dwattr $C$DW$65, DW_AT_TI_end_line(0xce)
     487                      .dwattr $C$DW$65, DW_AT_TI_end_column(0x01)
     488                      .dwendentry
     489                      .dwendtag $C$DW$65
     490              
     491 000016               .sect   ".text"
     492                      .align 4
     493                      .global _uart_ctoIsr
     494              
     495              $C$DW$68        .dwtag  DW_TAG_subprogram, DW_AT_name("uart_ctoIsr")
     496                      .dwattr $C$DW$68, DW_AT_low_pc(_uart_ctoIsr)
     497                      .dwattr $C$DW$68, DW_AT_high_pc(0x00)
     498                      .dwattr $C$DW$68, DW_AT_TI_symbol_name("_uart_ctoIsr")
     499                      .dwattr $C$DW$68, DW_AT_external
     500                      .dwattr $C$DW$68, DW_AT_TI_begin_file("../c5535_bsl_revc/ezdsp5535_v1/c55xx_csl/ccs_v4.0_examples/uar
     501                      .dwattr $C$DW$68, DW_AT_TI_begin_line(0xd7)
     502                      .dwattr $C$DW$68, DW_AT_TI_begin_column(0x06)
     503                      .dwattr $C$DW$68, DW_AT_TI_max_frame_size(0x02)
     504                      .dwpsn  file "../c5535_bsl_revc/ezdsp5535_v1/c55xx_csl/ccs_v4.0_examples/uart/CSL_UART_IntExample/csl
     505              
     506                      .dwfde $C$DW$CIE, _uart_ctoIsr
     507              ;*******************************************************************************
     508              ;* FUNCTION NAME: uart_ctoIsr                                                  *
     509              ;*                                                                             *
     510              ;*   Function Uses Regs : AC0,AC0,T0,AR0,XAR0,AR1,XAR1,AR3,XAR3,SP,M40,SATA,   *
     511              ;*                        SATD,RDM,FRCT,SMUL                                   *
     512              ;*   Stack Frame        : Compact (No Frame Pointer, w/ debug)                 *
     513              ;*   Total Frame Size   : 2 words                                              *
     514              ;*                        (2 return address/alignment)                         *
     515              ;*   Min System Stack   : 1 word                                               *
     516              ;*******************************************************************************
     517 000018       _uart_ctoIsr:
     518                      .dwcfi  cfa_offset, 1
     519                      .dwcfi  save_reg_to_mem, 91, -1
     520 000018 4EFF          AADD #-1, SP
     521                      .dwcfi  cfa_offset, 2
     522                      .dwpsn  file "../c5535_bsl_revc/ezdsp5535_v1/c55xx_csl/ccs_v4.0_examples/uart/CSL_UART_IntExample/csl
     523 00001a ED31          MOV dbl(*(#_hUart)), XAR0
         00001c 8F00 
         00001e 0020-
     524 000020 EC31          AMOV #_buffer2, XAR1 ; |217| 
         000022 9E00 
         000024 0048-
     525 000026 3C04          MOV #0, T0
     526              $C$DW$69        .dwtag  DW_TAG_TI_branch
     527                      .dwattr $C$DW$69, DW_AT_low_pc(0x00)
     528                      .dwattr $C$DW$69, DW_AT_name("_UART_read")
TMS320C55x Assembler PC v4.4.1 Sat Sep 29 23:08:45 2018

Tools Copyright (c) 1996-2012 Texas Instruments Incorporated
csl_uart_intc_example.asm                                            PAGE   11

     529                      .dwattr $C$DW$69, DW_AT_TI_call
     530              
     531 000028 6C00          CALL #_UART_read ; |217| 
         00002a 0000!
     532 00002c 3D00  ||      MOV #0, AC0 ; |217| 
     533              
     534                                                      ; call occurs [#_UART_read] ; |217| 
     535                      .dwpsn  file "../c5535_bsl_revc/ezdsp5535_v1/c55xx_csl/ccs_v4.0_examples/uart/CSL_UART_IntExample/csl
     536 00002e EC31          AMOV #_buffer2, XAR3 ; |218| 
         000030 BE00 
         000032 0048-
     537 000034 EB31          MOV XAR3, dbl(*(#_ptr))
         000036 B500 
         000038 0072-
     538                      .dwpsn  file "../c5535_bsl_revc/ezdsp5535_v1/c55xx_csl/ccs_v4.0_examples/uart/CSL_UART_IntExample/csl
     539 00003a E631          MOV #1, *(#_gcount) ; |219| 
         00003c 0100 
         00003e 0070-
     540                      .dwpsn  file "../c5535_bsl_revc/ezdsp5535_v1/c55xx_csl/ccs_v4.0_examples/uart/CSL_UART_IntExample/csl
     541 000040 3C14          MOV #1, T0
     542 000042 ED31          MOV dbl(*(#_hUart)), XAR0
         000044 8F00 
         000046 0020-
     543              $C$DW$70        .dwtag  DW_TAG_TI_branch
     544                      .dwattr $C$DW$70, DW_AT_low_pc(0x00)
     545                      .dwattr $C$DW$70, DW_AT_name("_UART_eventEnable")
     546                      .dwattr $C$DW$70, DW_AT_TI_call
     547 000048 6C00          CALL #_UART_eventEnable ; |220| 
         00004a 0000!
     548                                                      ; call occurs [#_UART_eventEnable] ; |220| 
     549                      .dwpsn  file "../c5535_bsl_revc/ezdsp5535_v1/c55xx_csl/ccs_v4.0_examples/uart/CSL_UART_IntExample/csl
     550 00004c 4E01          AADD #1, SP
     551                      .dwcfi  cfa_offset, 1
     552              $C$DW$71        .dwtag  DW_TAG_TI_branch
     553                      .dwattr $C$DW$71, DW_AT_low_pc(0x00)
     554                      .dwattr $C$DW$71, DW_AT_TI_return
     555 00004e 4804          RET
     556                                                      ; return occurs
     557                      .dwattr $C$DW$68, DW_AT_TI_end_file("../c5535_bsl_revc/ezdsp5535_v1/c55xx_csl/ccs_v4.0_examples/uart/
     558                      .dwattr $C$DW$68, DW_AT_TI_end_line(0xdd)
     559                      .dwattr $C$DW$68, DW_AT_TI_end_column(0x01)
     560                      .dwendentry
     561                      .dwendtag $C$DW$68
     562              
     563 000050               .sect   ".text"
     564                      .align 4
     565                      .global _uart_txIsr
     566              
     567              $C$DW$72        .dwtag  DW_TAG_subprogram, DW_AT_name("uart_txIsr")
     568                      .dwattr $C$DW$72, DW_AT_low_pc(_uart_txIsr)
     569                      .dwattr $C$DW$72, DW_AT_high_pc(0x00)
     570                      .dwattr $C$DW$72, DW_AT_TI_symbol_name("_uart_txIsr")
     571                      .dwattr $C$DW$72, DW_AT_external
     572                      .dwattr $C$DW$72, DW_AT_TI_begin_file("../c5535_bsl_revc/ezdsp5535_v1/c55xx_csl/ccs_v4.0_examples/uar
     573                      .dwattr $C$DW$72, DW_AT_TI_begin_line(0xe6)
TMS320C55x Assembler PC v4.4.1 Sat Sep 29 23:08:45 2018

Tools Copyright (c) 1996-2012 Texas Instruments Incorporated
csl_uart_intc_example.asm                                            PAGE   12

     574                      .dwattr $C$DW$72, DW_AT_TI_begin_column(0x06)
     575                      .dwattr $C$DW$72, DW_AT_TI_max_frame_size(0x02)
     576                      .dwpsn  file "../c5535_bsl_revc/ezdsp5535_v1/c55xx_csl/ccs_v4.0_examples/uart/CSL_UART_IntExample/csl
     577              
     578                      .dwfde $C$DW$CIE, _uart_txIsr
     579              ;*******************************************************************************
     580              ;* FUNCTION NAME: uart_txIsr                                                   *
     581              ;*                                                                             *
     582              ;*   Function Uses Regs : AC0,AC0,T0,AR0,XAR0,AR1,XAR1,AR3,XAR3,SP,TC1,M40,    *
     583              ;*                        SATA,SATD,RDM,FRCT,SMUL                              *
     584              ;*   Stack Frame        : Compact (No Frame Pointer, w/ debug)                 *
     585              ;*   Total Frame Size   : 2 words                                              *
     586              ;*                        (2 return address/alignment)                         *
     587              ;*   Min System Stack   : 1 word                                               *
     588              ;*******************************************************************************
     589 000050       _uart_txIsr:
     590                      .dwcfi  cfa_offset, 1
     591                      .dwcfi  save_reg_to_mem, 91, -1
     592 000050 4EFF          AADD #-1, SP
     593                      .dwcfi  cfa_offset, 2
     594                      .dwpsn  file "../c5535_bsl_revc/ezdsp5535_v1/c55xx_csl/ccs_v4.0_examples/uart/CSL_UART_IntExample/csl
     595 000052 F031          CMP *(#_gcount) == #1, TC1 ; |232| 
         000054 0001 
         000056 0000 
         000058 70-  
     596 000059 0474          BCC $C$L2,!TC1 ; |232| 
         00005b 43   
     597                                                      ; branchcc occurs ; |232| 
     598                      .dwpsn  file "../c5535_bsl_revc/ezdsp5535_v1/c55xx_csl/ccs_v4.0_examples/uart/CSL_UART_IntExample/csl
     599 00005c ED31          MOV dbl(*(#_hUart)), XAR0
         00005e 8F00 
         000060 0020-
     600 000062 EC31          AMOV #_buffer3, XAR1 ; |234| 
         000064 9E00 
         000066 0052-
     601 000068 3C24          MOV #2, T0
     602              $C$DW$73        .dwtag  DW_TAG_TI_branch
     603                      .dwattr $C$DW$73, DW_AT_low_pc(0x00)
     604                      .dwattr $C$DW$73, DW_AT_name("_UART_write")
     605                      .dwattr $C$DW$73, DW_AT_TI_call
     606              
     607 00006a 6C00          CALL #_UART_write ; |234| 
         00006c 0000!
     608 00006e 3D00  ||      MOV #0, AC0 ; |234| 
     609              
     610                                                      ; call occurs [#_UART_write] ; |234| 
     611                      .dwpsn  file "../c5535_bsl_revc/ezdsp5535_v1/c55xx_csl/ccs_v4.0_examples/uart/CSL_UART_IntExample/csl
     612 000070 A431          MOV *(#_gcount), T0 ; |235| 
         000072 0000 
         000074 70-  
     613 000075 ED31          MOV dbl(*(#_hUart)), XAR0
         000077 8F00 
         000079 0020-
     614 00007b ED31          MOV dbl(*(#_ptr)), XAR1
         00007d 9F00 
TMS320C55x Assembler PC v4.4.1 Sat Sep 29 23:08:45 2018

Tools Copyright (c) 1996-2012 Texas Instruments Incorporated
csl_uart_intc_example.asm                                            PAGE   13

         00007f 0072-
     615              $C$DW$74        .dwtag  DW_TAG_TI_branch
     616                      .dwattr $C$DW$74, DW_AT_low_pc(0x00)
     617                      .dwattr $C$DW$74, DW_AT_name("_UART_write")
     618                      .dwattr $C$DW$74, DW_AT_TI_call
     619              
     620 000081 6C00          CALL #_UART_write ; |235| 
         000083 0000!
     621 000085 3D00  ||      MOV #0, AC0 ; |235| 
     622              
     623                                                      ; call occurs [#_UART_write] ; |235| 
     624                      .dwpsn  file "../c5535_bsl_revc/ezdsp5535_v1/c55xx_csl/ccs_v4.0_examples/uart/CSL_UART_IntExample/csl
     625 000087 ED31          MOV dbl(*(#_ptr)), XAR3
         000089 BF00 
         00008b 0072-
     626 00008d F061          CMP *AR3 == #36, TC1 ; |236| 
         00008f 0024 
     627 000091 6374          BCC $C$L1,!TC1 ; |236| 
     628                                                      ; branchcc occurs ; |236| 
     629                      .dwpsn  file "../c5535_bsl_revc/ezdsp5535_v1/c55xx_csl/ccs_v4.0_examples/uart/CSL_UART_IntExample/csl
     630 000093 E631          MOV #1, *(#_endOfTest) ; |238| 
         000095 0100 
         000097 0075-
     631 000099       $C$L1:    
     632                      .dwpsn  file "../c5535_bsl_revc/ezdsp5535_v1/c55xx_csl/ccs_v4.0_examples/uart/CSL_UART_IntExample/csl
     633 000099 E631          MOV #13, *(#_gcount) ; |240| 
         00009b 0D00 
         00009d 0070-
     634 00009f       $C$L2:    
     635                      .dwpsn  file "../c5535_bsl_revc/ezdsp5535_v1/c55xx_csl/ccs_v4.0_examples/uart/CSL_UART_IntExample/csl
     636 00009f A931          MOV *(#_endOfTest), AR1 ; |243| 
         0000a1 0000 
         0000a3 75-  
     637 0000a4 0419          BCC $C$L3,AR1 != #0 ; |243| 
         0000a6 17   
     638                                                      ; branchcc occurs ; |243| 
     639                      .dwpsn  file "../c5535_bsl_revc/ezdsp5535_v1/c55xx_csl/ccs_v4.0_examples/uart/CSL_UART_IntExample/csl
     640 0000a7 ED31          MOV dbl(*(#_hUart)), XAR0
         0000a9 8F00 
         0000ab 0020-
     641 0000ad A431          MOV *(#_gcount), T0 ; |245| 
         0000af 0000 
         0000b1 70-  
     642 0000b2 EC31          AMOV #_buffer1, XAR1 ; |245| 
         0000b4 9E00 
         0000b6 002A-
     643              $C$DW$75        .dwtag  DW_TAG_TI_branch
     644                      .dwattr $C$DW$75, DW_AT_low_pc(0x00)
     645                      .dwattr $C$DW$75, DW_AT_name("_UART_write")
     646                      .dwattr $C$DW$75, DW_AT_TI_call
     647              
     648 0000b8 6C00          CALL #_UART_write ; |245| 
         0000ba 0000!
     649 0000bc 3D00  ||      MOV #0, AC0 ; |245| 
     650              
TMS320C55x Assembler PC v4.4.1 Sat Sep 29 23:08:45 2018

Tools Copyright (c) 1996-2012 Texas Instruments Incorporated
csl_uart_intc_example.asm                                            PAGE   14

     651                                                      ; call occurs [#_UART_write] ; |245| 
     652 0000be       $C$L3:    
     653                      .dwpsn  file "../c5535_bsl_revc/ezdsp5535_v1/c55xx_csl/ccs_v4.0_examples/uart/CSL_UART_IntExample/csl
     654 0000be ED31          MOV dbl(*(#_hUart)), XAR0
         0000c0 8F00 
         0000c2 0020-
     655 0000c4 3C14          MOV #1, T0
     656              $C$DW$76        .dwtag  DW_TAG_TI_branch
     657                      .dwattr $C$DW$76, DW_AT_low_pc(0x00)
     658                      .dwattr $C$DW$76, DW_AT_name("_UART_eventDisable")
     659                      .dwattr $C$DW$76, DW_AT_TI_call
     660 0000c6 6C00          CALL #_UART_eventDisable ; |248| 
         0000c8 0000!
     661                                                      ; call occurs [#_UART_eventDisable] ; |248| 
     662                      .dwpsn  file "../c5535_bsl_revc/ezdsp5535_v1/c55xx_csl/ccs_v4.0_examples/uart/CSL_UART_IntExample/csl
     663 0000ca 4E01          AADD #1, SP
     664                      .dwcfi  cfa_offset, 1
     665              $C$DW$77        .dwtag  DW_TAG_TI_branch
     666                      .dwattr $C$DW$77, DW_AT_low_pc(0x00)
     667                      .dwattr $C$DW$77, DW_AT_TI_return
     668 0000cc 4804          RET
     669                                                      ; return occurs
     670                      .dwattr $C$DW$72, DW_AT_TI_end_file("../c5535_bsl_revc/ezdsp5535_v1/c55xx_csl/ccs_v4.0_examples/uart/
     671                      .dwattr $C$DW$72, DW_AT_TI_end_line(0xf9)
     672                      .dwattr $C$DW$72, DW_AT_TI_end_column(0x01)
     673                      .dwendentry
     674                      .dwendtag $C$DW$72
     675              
     676 0000ce               .sect   ".text"
     677                      .align 4
     678                      .global _uart_rxIsr
     679              
     680              $C$DW$78        .dwtag  DW_TAG_subprogram, DW_AT_name("uart_rxIsr")
     681                      .dwattr $C$DW$78, DW_AT_low_pc(_uart_rxIsr)
     682                      .dwattr $C$DW$78, DW_AT_high_pc(0x00)
     683                      .dwattr $C$DW$78, DW_AT_TI_symbol_name("_uart_rxIsr")
     684                      .dwattr $C$DW$78, DW_AT_external
     685                      .dwattr $C$DW$78, DW_AT_TI_begin_file("../c5535_bsl_revc/ezdsp5535_v1/c55xx_csl/ccs_v4.0_examples/uar
     686                      .dwattr $C$DW$78, DW_AT_TI_begin_line(0x102)
     687                      .dwattr $C$DW$78, DW_AT_TI_begin_column(0x06)
     688                      .dwattr $C$DW$78, DW_AT_TI_max_frame_size(0x02)
     689                      .dwpsn  file "../c5535_bsl_revc/ezdsp5535_v1/c55xx_csl/ccs_v4.0_examples/uart/CSL_UART_IntExample/csl
     690              
     691                      .dwfde $C$DW$CIE, _uart_rxIsr
     692              ;*******************************************************************************
     693              ;* FUNCTION NAME: uart_rxIsr                                                   *
     694              ;*                                                                             *
     695              ;*   Function Uses Regs : AC0,AC0,T0,AR0,XAR0,AR1,XAR1,SP,M40,SATA,SATD,RDM,   *
     696              ;*                        FRCT,SMUL                                            *
     697              ;*   Stack Frame        : Compact (No Frame Pointer, w/ debug)                 *
     698              ;*   Total Frame Size   : 2 words                                              *
     699              ;*                        (2 return address/alignment)                         *
     700              ;*   Min System Stack   : 1 word                                               *
     701              ;*******************************************************************************
     702 0000d0       _uart_rxIsr:
TMS320C55x Assembler PC v4.4.1 Sat Sep 29 23:08:45 2018

Tools Copyright (c) 1996-2012 Texas Instruments Incorporated
csl_uart_intc_example.asm                                            PAGE   15

     703                      .dwcfi  cfa_offset, 1
     704                      .dwcfi  save_reg_to_mem, 91, -1
     705 0000d0 4EFF          AADD #-1, SP
     706                      .dwcfi  cfa_offset, 2
     707                      .dwpsn  file "../c5535_bsl_revc/ezdsp5535_v1/c55xx_csl/ccs_v4.0_examples/uart/CSL_UART_IntExample/csl
     708 0000d2 ED31          MOV dbl(*(#_hUart)), XAR0
         0000d4 8F00 
         0000d6 0020-
     709 0000d8 EC31          AMOV #_buffer2, XAR1 ; |260| 
         0000da 9E00 
         0000dc 0048-
     710 0000de 3C04          MOV #0, T0
     711              $C$DW$79        .dwtag  DW_TAG_TI_branch
     712                      .dwattr $C$DW$79, DW_AT_low_pc(0x00)
     713                      .dwattr $C$DW$79, DW_AT_name("_UART_read")
     714                      .dwattr $C$DW$79, DW_AT_TI_call
     715              
     716 0000e0 6C00          CALL #_UART_read ; |260| 
         0000e2 0000!
     717 0000e4 3D00  ||      MOV #0, AC0 ; |260| 
     718              
     719                                                      ; call occurs [#_UART_read] ; |260| 
     720                      .dwpsn  file "../c5535_bsl_revc/ezdsp5535_v1/c55xx_csl/ccs_v4.0_examples/uart/CSL_UART_IntExample/csl
     721 0000e6 E631          MOV #1, *(#_gcount) ; |261| 
         0000e8 0100 
         0000ea 0070-
     722                      .dwpsn  file "../c5535_bsl_revc/ezdsp5535_v1/c55xx_csl/ccs_v4.0_examples/uart/CSL_UART_IntExample/csl
     723 0000ec 3C14          MOV #1, T0
     724 0000ee ED31          MOV dbl(*(#_hUart)), XAR0
         0000f0 8F00 
         0000f2 0020-
     725              $C$DW$80        .dwtag  DW_TAG_TI_branch
     726                      .dwattr $C$DW$80, DW_AT_low_pc(0x00)
     727                      .dwattr $C$DW$80, DW_AT_name("_UART_eventEnable")
     728                      .dwattr $C$DW$80, DW_AT_TI_call
     729 0000f4 6C00          CALL #_UART_eventEnable ; |262| 
         0000f6 0000!
     730                                                      ; call occurs [#_UART_eventEnable] ; |262| 
     731                      .dwpsn  file "../c5535_bsl_revc/ezdsp5535_v1/c55xx_csl/ccs_v4.0_examples/uart/CSL_UART_IntExample/csl
     732 0000f8 4E01          AADD #1, SP
     733                      .dwcfi  cfa_offset, 1
     734              $C$DW$81        .dwtag  DW_TAG_TI_branch
     735                      .dwattr $C$DW$81, DW_AT_low_pc(0x00)
     736                      .dwattr $C$DW$81, DW_AT_TI_return
     737 0000fa 4804          RET
     738                                                      ; return occurs
     739                      .dwattr $C$DW$78, DW_AT_TI_end_file("../c5535_bsl_revc/ezdsp5535_v1/c55xx_csl/ccs_v4.0_examples/uart/
     740                      .dwattr $C$DW$78, DW_AT_TI_end_line(0x107)
     741                      .dwattr $C$DW$78, DW_AT_TI_end_column(0x01)
     742                      .dwendentry
     743                      .dwendtag $C$DW$78
     744              
     745 000000               .sect   ".text:retain"
     746                      .align 4
     747                      .global _UART_intrDispatch
TMS320C55x Assembler PC v4.4.1 Sat Sep 29 23:08:45 2018

Tools Copyright (c) 1996-2012 Texas Instruments Incorporated
csl_uart_intc_example.asm                                            PAGE   16

     748              
     749              $C$DW$82        .dwtag  DW_TAG_subprogram, DW_AT_name("UART_intrDispatch")
     750                      .dwattr $C$DW$82, DW_AT_low_pc(_UART_intrDispatch)
     751                      .dwattr $C$DW$82, DW_AT_high_pc(0x00)
     752                      .dwattr $C$DW$82, DW_AT_TI_symbol_name("_UART_intrDispatch")
     753                      .dwattr $C$DW$82, DW_AT_external
     754                      .dwattr $C$DW$82, DW_AT_TI_begin_file("../c5535_bsl_revc/ezdsp5535_v1/c55xx_csl/ccs_v4.0_examples/uar
     755                      .dwattr $C$DW$82, DW_AT_TI_begin_line(0x113)
     756                      .dwattr $C$DW$82, DW_AT_TI_begin_column(0x10)
     757                      .dwattr $C$DW$82, DW_AT_TI_interrupt
     758                      .dwattr $C$DW$82, DW_AT_TI_max_frame_size(0x2f)
     759                      .dwpsn  file "../c5535_bsl_revc/ezdsp5535_v1/c55xx_csl/ccs_v4.0_examples/uart/CSL_UART_IntExample/csl
     760              
     761                      .dwfde $C$DW$CIE, _UART_intrDispatch
     762              ;*******************************************************************************
     763              ;* INTERRUPT NAME: UART_intrDispatch                                           *
     764              ;*                                                                             *
     765              ;*   Function Uses Regs : AC0,AC0,AC1,AC1,AC2,AC2,AC3,AC3,T0,T1,AR0,XAR0,AR1,  *
     766              ;*                        AR2,AR3,XAR3,AR4,SP,BKC,BK03,BK47,ST1,ST2,ST3,BRC0,  *
     767              ;*                        RSA0,REA0,BRS1,BRC1,RSA1,REA1,CSR,RPTC,CDP,TRN0,TRN1,*
     768              ;*                        BSA01,BSA23,BSA45,BSA67,BSAC,CARRY,M40,SATA,SATD,RDM,*
     769              ;*                        FRCT,SMUL                                            *
     770              ;*   Save On Entry Regs : AC0,AC0,AC1,AC1,AC2,AC2,AC3,AC3,T0,T1,AR0,AR1,AR2,   *
     771              ;*                        AR3,AR4,BKC,BK03,BK47,BRC0,RSA0,REA0,BRS1,BRC1,RSA1, *
     772              ;*                        REA1,CSR,RPTC,CDP,TRN0,TRN1,BSA01,BSA23,BSA45,BSA67, *
     773              ;*                        BSAC                                                 *
     774              ;*******************************************************************************
     775 000000       _UART_intrDispatch:
     776                      .dwcfi  cfa_offset, 3
     777                      .dwcfi  save_reg_to_mem, 91, -3
     778 000000 F406          AND #0xf91f, mmap(ST1_55)
         000002 F91F 
         000004 98   
     779 000005 F506          OR #0x4100, mmap(ST1_55)
         000007 4100 
         000009 98   
     780 00000a F496          AND #0xfa00, mmap(ST2_55)
         00000c FA00 
         00000e 98   
     781 00000f F596          OR #0x8000, mmap(ST2_55)
         000011 8000 
         000013 98   
     782 000014 B508          PSH mmap(ST3_55)
         000016 98   
     783                      .dwcfi  cfa_offset, 4
     784                      .dwcfi  save_reg_to_mem, 42, -4
     785 000017 5007          PSH dbl(AC0)
     786                      .dwcfi  cfa_offset, 5
     787                      .dwcfi  save_reg_to_mem, 0, -5
     788                      .dwcfi  cfa_offset, 6
     789                      .dwcfi  save_reg_to_mem, 1, -6
     790 000019 B514          PSH mmap(AC0G)
         00001b 98   
     791                      .dwcfi  cfa_offset, 7
     792                      .dwcfi  save_reg_to_mem, 2, -7
TMS320C55x Assembler PC v4.4.1 Sat Sep 29 23:08:45 2018

Tools Copyright (c) 1996-2012 Texas Instruments Incorporated
csl_uart_intc_example.asm                                            PAGE   17

     793 00001c 5017          PSH dbl(AC1)
     794                      .dwcfi  cfa_offset, 8
     795                      .dwcfi  save_reg_to_mem, 3, -8
     796                      .dwcfi  cfa_offset, 9
     797                      .dwcfi  save_reg_to_mem, 4, -9
     798 00001e B51A          PSH mmap(AC1G)
         000020 98   
     799                      .dwcfi  cfa_offset, 10
     800                      .dwcfi  save_reg_to_mem, 5, -10
     801 000021 5027          PSH dbl(AC2)
     802                      .dwcfi  cfa_offset, 11
     803                      .dwcfi  save_reg_to_mem, 6, -11
     804                      .dwcfi  cfa_offset, 12
     805                      .dwcfi  save_reg_to_mem, 7, -12
     806 000023 B54C          PSH mmap(AC2G)
         000025 98   
     807                      .dwcfi  cfa_offset, 13
     808                      .dwcfi  save_reg_to_mem, 8, -13
     809 000026 5037          PSH dbl(AC3)
     810                      .dwcfi  cfa_offset, 14
     811                      .dwcfi  save_reg_to_mem, 9, -14
     812                      .dwcfi  cfa_offset, 15
     813                      .dwcfi  save_reg_to_mem, 10, -15
     814 000028 B554          PSH mmap(AC3G)
         00002a 98   
     815                      .dwcfi  cfa_offset, 16
     816                      .dwcfi  save_reg_to_mem, 11, -16
     817 00002b 5046          PSH T0
     818                      .dwcfi  cfa_offset, 17
     819                      .dwcfi  save_reg_to_mem, 12, -17
     820 00002d 5056          PSH T1
     821                      .dwcfi  cfa_offset, 18
     822                      .dwcfi  save_reg_to_mem, 13, -18
     823 00002f 5085          PSHBOTH XAR0
     824                      .dwcfi  cfa_offset, 19
     825                      .dwcfi  save_reg_to_mem, 16, -19
     826 000031 5095          PSHBOTH XAR1
     827                      .dwcfi  cfa_offset, 20
     828                      .dwcfi  save_reg_to_mem, 18, -20
     829 000033 50A5          PSHBOTH XAR2
     830                      .dwcfi  cfa_offset, 21
     831                      .dwcfi  save_reg_to_mem, 20, -21
     832 000035 50B5          PSHBOTH XAR3
     833                      .dwcfi  cfa_offset, 22
     834                      .dwcfi  save_reg_to_mem, 22, -22
     835 000037 50C5          PSHBOTH XAR4
     836                      .dwcfi  cfa_offset, 23
     837                      .dwcfi  save_reg_to_mem, 24, -23
     838 000039 B562          PSH mmap(BKC)
         00003b 98   
     839                      .dwcfi  cfa_offset, 24
     840                      .dwcfi  save_reg_to_mem, 37, -24
     841 00003c B532          PSH mmap(BK03)
         00003e 98   
     842                      .dwcfi  cfa_offset, 25
TMS320C55x Assembler PC v4.4.1 Sat Sep 29 23:08:45 2018

Tools Copyright (c) 1996-2012 Texas Instruments Incorporated
csl_uart_intc_example.asm                                            PAGE   18

     843                      .dwcfi  save_reg_to_mem, 38, -25
     844 00003f B560          PSH mmap(BK47)
         000041 98   
     845                      .dwcfi  cfa_offset, 26
     846                      .dwcfi  save_reg_to_mem, 39, -26
     847 000042 B534          PSH mmap(BRC0)
         000044 98   
     848                      .dwcfi  cfa_offset, 27
     849                      .dwcfi  save_reg_to_mem, 47, -27
     850 000045 B57A          PSH mmap(RSA0L)
         000047 98   
     851                      .dwcfi  cfa_offset, 28
     852                      .dwcfi  save_reg_to_mem, 48, -28
     853 000048 B578          PSH mmap(RSA0H)
         00004a 98   
     854                      .dwcfi  cfa_offset, 29
     855                      .dwcfi  save_reg_to_mem, 49, -29
     856 00004b B57E          PSH mmap(REA0L)
         00004d 98   
     857                      .dwcfi  cfa_offset, 30
     858                      .dwcfi  save_reg_to_mem, 50, -30
     859 00004e B57C          PSH mmap(REA0H)
         000050 98   
     860                      .dwcfi  cfa_offset, 31
     861                      .dwcfi  save_reg_to_mem, 51, -31
     862 000051 B574          PSH mmap(BRS1)
         000053 98   
     863                      .dwcfi  cfa_offset, 32
     864                      .dwcfi  save_reg_to_mem, 52, -32
     865 000054 B572          PSH mmap(BRC1)
         000056 98   
     866                      .dwcfi  cfa_offset, 33
     867                      .dwcfi  save_reg_to_mem, 53, -33
     868 000057 B582          PSH mmap(RSA1L)
         000059 98   
     869                      .dwcfi  cfa_offset, 34
     870                      .dwcfi  save_reg_to_mem, 54, -34
     871 00005a B580          PSH mmap(RSA1H)
         00005c 98   
     872                      .dwcfi  cfa_offset, 35
     873                      .dwcfi  save_reg_to_mem, 55, -35
     874 00005d B586          PSH mmap(REA1L)
         00005f 98   
     875                      .dwcfi  cfa_offset, 36
     876                      .dwcfi  save_reg_to_mem, 56, -36
     877 000060 B584          PSH mmap(REA1H)
         000062 98   
     878                      .dwcfi  cfa_offset, 37
     879                      .dwcfi  save_reg_to_mem, 57, -37
     880 000063 B576          PSH mmap(CSR)
         000065 98   
     881                      .dwcfi  cfa_offset, 38
     882                      .dwcfi  save_reg_to_mem, 58, -38
     883 000066 B588          PSH mmap(RPTC)
         000068 98   
TMS320C55x Assembler PC v4.4.1 Sat Sep 29 23:08:45 2018

Tools Copyright (c) 1996-2012 Texas Instruments Incorporated
csl_uart_intc_example.asm                                            PAGE   19

     884                      .dwcfi  cfa_offset, 39
     885                      .dwcfi  save_reg_to_mem, 59, -39
     886 000069 5075          PSHBOTH XCDP
     887                      .dwcfi  cfa_offset, 40
     888                      .dwcfi  save_reg_to_mem, 60, -40
     889 00006b B51E          PSH mmap(TRN0)
         00006d 98   
     890                      .dwcfi  cfa_offset, 41
     891                      .dwcfi  save_reg_to_mem, 62, -41
     892 00006e B570          PSH mmap(TRN1)
         000070 98   
     893                      .dwcfi  cfa_offset, 42
     894                      .dwcfi  save_reg_to_mem, 63, -42
     895 000071 B564          PSH mmap(BSA01)
         000073 98   
     896                      .dwcfi  cfa_offset, 43
     897                      .dwcfi  save_reg_to_mem, 64, -43
     898 000074 B566          PSH mmap(BSA23)
         000076 98   
     899                      .dwcfi  cfa_offset, 44
     900                      .dwcfi  save_reg_to_mem, 65, -44
     901 000077 B568          PSH mmap(BSA45)
         000079 98   
     902                      .dwcfi  cfa_offset, 45
     903                      .dwcfi  save_reg_to_mem, 66, -45
     904 00007a B56A          PSH mmap(BSA67)
         00007c 98   
     905                      .dwcfi  cfa_offset, 46
     906                      .dwcfi  save_reg_to_mem, 67, -46
     907 00007d B56C          PSH mmap(BSAC)
         00007f 98   
     908                      .dwcfi  cfa_offset, 47
     909                      .dwcfi  save_reg_to_mem, 68, -47
     910 000080 EC00          AMAR *SP(#0), XAR1
         000082 9E   
     911 000083 F49A          AND #0xfffe, mmap(SP)
         000085 FFFE 
         000087 98   
     912 000088 5096          PSH AR1
     913 00008a 4EFF          AADD #-1, SP
     914                      .dwcfi  cfa_offset, 47
     915              $C$DW$83        .dwtag  DW_TAG_variable, DW_AT_name("eventId")
     916                      .dwattr $C$DW$83, DW_AT_TI_symbol_name("_eventId")
     917                      .dwattr $C$DW$83, DW_AT_type(*$C$DW$T$19)
     918                      .dwattr $C$DW$83, DW_AT_location[DW_OP_bregx 0x24 0]
     919                      .dwpsn  file "../c5535_bsl_revc/ezdsp5535_v1/c55xx_csl/ccs_v4.0_examples/uart/CSL_UART_IntExample/csl
     920 00008c E600          MOV #0, *SP(#0) ; |277| 
         00008e 00   
     921                      .dwpsn  file "../c5535_bsl_revc/ezdsp5535_v1/c55xx_csl/ccs_v4.0_examples/uart/CSL_UART_IntExample/csl
     922 00008f 4656          BCLR ST3_SATA
     923 000091 4617          BSET ST3_SMUL
     924              $C$DW$84        .dwtag  DW_TAG_TI_branch
     925                      .dwattr $C$DW$84, DW_AT_low_pc(0x00)
     926                      .dwattr $C$DW$84, DW_AT_name("_IRQ_disable")
     927                      .dwattr $C$DW$84, DW_AT_TI_call
TMS320C55x Assembler PC v4.4.1 Sat Sep 29 23:08:45 2018

Tools Copyright (c) 1996-2012 Texas Instruments Incorporated
csl_uart_intc_example.asm                                            PAGE   20

     928              
     929 000093 6C00          CALL #_IRQ_disable ; |279| 
         000095 0000!
     930 000097 3D64  ||      MOV #6, T0
     931              
     932                                                      ; call occurs [#_IRQ_disable] ; |279| 
     933                      .dwpsn  file "../c5535_bsl_revc/ezdsp5535_v1/c55xx_csl/ccs_v4.0_examples/uart/CSL_UART_IntExample/csl
     934 000099 ED31          MOV dbl(*(#_hUart)), XAR0
         00009b 8F00 
         00009d 0020-
     935              $C$DW$85        .dwtag  DW_TAG_TI_branch
     936                      .dwattr $C$DW$85, DW_AT_low_pc(0x00)
     937                      .dwattr $C$DW$85, DW_AT_name("_UART_getEventId")
     938                      .dwattr $C$DW$85, DW_AT_TI_call
     939 00009f 6C00          CALL #_UART_getEventId ; |282| 
         0000a1 0000!
     940                                                      ; call occurs [#_UART_getEventId] ; |282| 
     941 0000a3 C400          MOV T0, *SP(#0) ; |282| 
     942                      .dwpsn  file "../c5535_bsl_revc/ezdsp5535_v1/c55xx_csl/ccs_v4.0_examples/uart/CSL_UART_IntExample/csl
     943 0000a5 ED31          MOV dbl(*(#_hUart)), XAR3
         0000a7 BF00 
         0000a9 0020-
     944 0000ab A900          MOV *SP(#0), AR1 ; |284| 
     945 0000ad 5090          SFTL AR1, #1 ; |284| 
     946 0000af 1490          AADD AR1, AR3 ; |284| 
         0000b1 B0   
     947 0000b2 ED7D          MOV dbl(*AR3(short(#6))), AC0 ; |284| 
         0000b4 08   
     948 0000b5 0400          BCC $C$L4,AC0 == #0 ; |284| 
         0000b7 12   
     949                                                      ; branchcc occurs ; |284| 
     950                      .dwpsn  file "../c5535_bsl_revc/ezdsp5535_v1/c55xx_csl/ccs_v4.0_examples/uart/CSL_UART_IntExample/csl
     951 0000b8 ED31          MOV dbl(*(#_hUart)), XAR3
         0000ba BF00 
         0000bc 0020-
     952 0000be A900          MOV *SP(#0), AR1 ; |286| 
     953 0000c0 5090          SFTL AR1, #1 ; |286| 
     954 0000c2 1490          AADD AR1, AR3 ; |286| 
         0000c4 B0   
     955 0000c5 ED7D          MOV dbl(*AR3(short(#6))), AC0 ; |286| 
         0000c7 08   
     956              $C$DW$86        .dwtag  DW_TAG_TI_branch
     957                      .dwattr $C$DW$86, DW_AT_low_pc(0x00)
     958                      .dwattr $C$DW$86, DW_AT_TI_call
     959                      .dwattr $C$DW$86, DW_AT_TI_indirect
     960 0000c8 9200          CALL AC0  ; |286| 
     961                                                      ; call occurs [AC0] ; |286| 
     962 0000ca       $C$L4:    
     963                      .dwpsn  file "../c5535_bsl_revc/ezdsp5535_v1/c55xx_csl/ccs_v4.0_examples/uart/CSL_UART_IntExample/csl
     964              $C$DW$87        .dwtag  DW_TAG_TI_branch
     965                      .dwattr $C$DW$87, DW_AT_low_pc(0x00)
     966                      .dwattr $C$DW$87, DW_AT_name("_IRQ_enable")
     967                      .dwattr $C$DW$87, DW_AT_TI_call
     968              
     969 0000ca 6C00          CALL #_IRQ_enable ; |289| 
TMS320C55x Assembler PC v4.4.1 Sat Sep 29 23:08:45 2018

Tools Copyright (c) 1996-2012 Texas Instruments Incorporated
csl_uart_intc_example.asm                                            PAGE   21

         0000cc 0000!
     970 0000ce 3D64  ||      MOV #6, T0
     971              
     972                                                      ; call occurs [#_IRQ_enable] ; |289| 
     973                      .dwpsn  file "../c5535_bsl_revc/ezdsp5535_v1/c55xx_csl/ccs_v4.0_examples/uart/CSL_UART_IntExample/csl
     974                      .dwpsn  file "../c5535_bsl_revc/ezdsp5535_v1/c55xx_csl/ccs_v4.0_examples/uart/CSL_UART_IntExample/csl
     975 0000d0 4E01          AADD #1, SP
     976                      .dwcfi  cfa_offset, 47
     977 0000d2 BB9A          POP mmap(SP)
         0000d4 98   
     978 0000d5 BB6C          POP mmap(BSAC)
         0000d7 98   
     979                      .dwcfi  restore_reg, 68
     980                      .dwcfi  cfa_offset, 46
     981 0000d8 BB6A          POP mmap(BSA67)
         0000da 98   
     982                      .dwcfi  restore_reg, 67
     983                      .dwcfi  cfa_offset, 45
     984 0000db BB68          POP mmap(BSA45)
         0000dd 98   
     985                      .dwcfi  restore_reg, 66
     986                      .dwcfi  cfa_offset, 44
     987 0000de BB66          POP mmap(BSA23)
         0000e0 98   
     988                      .dwcfi  restore_reg, 65
     989                      .dwcfi  cfa_offset, 43
     990 0000e1 BB64          POP mmap(BSA01)
         0000e3 98   
     991                      .dwcfi  restore_reg, 64
     992                      .dwcfi  cfa_offset, 42
     993 0000e4 BB70          POP mmap(TRN1)
         0000e6 98   
     994                      .dwcfi  restore_reg, 63
     995                      .dwcfi  cfa_offset, 41
     996 0000e7 BB1E          POP mmap(TRN0)
         0000e9 98   
     997                      .dwcfi  restore_reg, 62
     998                      .dwcfi  cfa_offset, 40
     999 0000ea 5074          POPBOTH XCDP
    1000                      .dwcfi  restore_reg, 60
    1001                      .dwcfi  cfa_offset, 39
    1002 0000ec BB88          POP mmap(RPTC)
         0000ee 98   
    1003                      .dwcfi  restore_reg, 59
    1004                      .dwcfi  cfa_offset, 38
    1005 0000ef BB76          POP mmap(CSR)
         0000f1 98   
    1006                      .dwcfi  restore_reg, 58
    1007                      .dwcfi  cfa_offset, 37
    1008 0000f2 BB84          POP mmap(REA1H)
         0000f4 98   
    1009                      .dwcfi  restore_reg, 57
    1010                      .dwcfi  cfa_offset, 36
    1011 0000f5 BB86          POP mmap(REA1L)
         0000f7 98   
TMS320C55x Assembler PC v4.4.1 Sat Sep 29 23:08:45 2018

Tools Copyright (c) 1996-2012 Texas Instruments Incorporated
csl_uart_intc_example.asm                                            PAGE   22

    1012                      .dwcfi  restore_reg, 56
    1013                      .dwcfi  cfa_offset, 35
    1014 0000f8 BB80          POP mmap(RSA1H)
         0000fa 98   
    1015                      .dwcfi  restore_reg, 55
    1016                      .dwcfi  cfa_offset, 34
    1017 0000fb BB82          POP mmap(RSA1L)
         0000fd 98   
    1018                      .dwcfi  restore_reg, 54
    1019                      .dwcfi  cfa_offset, 33
    1020 0000fe BB72          POP mmap(BRC1)
         000100 98   
    1021                      .dwcfi  restore_reg, 53
    1022                      .dwcfi  cfa_offset, 32
    1023 000101 BB74          POP mmap(BRS1)
         000103 98   
    1024                      .dwcfi  restore_reg, 52
    1025                      .dwcfi  cfa_offset, 31
    1026 000104 BB7C          POP mmap(REA0H)
         000106 98   
    1027                      .dwcfi  restore_reg, 51
    1028                      .dwcfi  cfa_offset, 30
    1029 000107 BB7E          POP mmap(REA0L)
         000109 98   
    1030                      .dwcfi  restore_reg, 50
    1031                      .dwcfi  cfa_offset, 29
    1032 00010a BB78          POP mmap(RSA0H)
         00010c 98   
    1033                      .dwcfi  restore_reg, 49
    1034                      .dwcfi  cfa_offset, 28
    1035 00010d BB7A          POP mmap(RSA0L)
         00010f 98   
    1036                      .dwcfi  restore_reg, 48
    1037                      .dwcfi  cfa_offset, 27
    1038 000110 BB34          POP mmap(BRC0)
         000112 98   
    1039                      .dwcfi  restore_reg, 47
    1040                      .dwcfi  cfa_offset, 26
    1041 000113 BB60          POP mmap(BK47)
         000115 98   
    1042                      .dwcfi  restore_reg, 39
    1043                      .dwcfi  cfa_offset, 25
    1044 000116 BB32          POP mmap(BK03)
         000118 98   
    1045                      .dwcfi  restore_reg, 38
    1046                      .dwcfi  cfa_offset, 24
    1047 000119 BB62          POP mmap(BKC)
         00011b 98   
    1048                      .dwcfi  restore_reg, 37
    1049                      .dwcfi  cfa_offset, 23
    1050 00011c 50C4          POPBOTH XAR4
    1051                      .dwcfi  restore_reg, 24
    1052                      .dwcfi  cfa_offset, 22
    1053 00011e 50B4          POPBOTH XAR3
    1054                      .dwcfi  restore_reg, 22
TMS320C55x Assembler PC v4.4.1 Sat Sep 29 23:08:45 2018

Tools Copyright (c) 1996-2012 Texas Instruments Incorporated
csl_uart_intc_example.asm                                            PAGE   23

    1055                      .dwcfi  cfa_offset, 21
    1056 000120 50A4          POPBOTH XAR2
    1057                      .dwcfi  restore_reg, 20
    1058                      .dwcfi  cfa_offset, 20
    1059 000122 5094          POPBOTH XAR1
    1060                      .dwcfi  restore_reg, 18
    1061                      .dwcfi  cfa_offset, 19
    1062 000124 5084          POPBOTH XAR0
    1063                      .dwcfi  restore_reg, 16
    1064                      .dwcfi  cfa_offset, 18
    1065 000126 5052          POP T1
    1066                      .dwcfi  restore_reg, 13
    1067                      .dwcfi  cfa_offset, 17
    1068 000128 5042          POP T0
    1069                      .dwcfi  restore_reg, 12
    1070                      .dwcfi  cfa_offset, 16
    1071 00012a BB54          POP mmap(AC3G)
         00012c 98   
    1072                      .dwcfi  restore_reg, 11
    1073                      .dwcfi  cfa_offset, 15
    1074                      .dwcfi  restore_reg, 10
    1075                      .dwcfi  cfa_offset, 14
    1076 00012d 5033          POP dbl(AC3)
    1077                      .dwcfi  restore_reg, 9
    1078                      .dwcfi  cfa_offset, 13
    1079 00012f BB4C          POP mmap(AC2G)
         000131 98   
    1080                      .dwcfi  restore_reg, 8
    1081                      .dwcfi  cfa_offset, 12
    1082                      .dwcfi  restore_reg, 7
    1083                      .dwcfi  cfa_offset, 11
    1084 000132 5023          POP dbl(AC2)
    1085                      .dwcfi  restore_reg, 6
    1086                      .dwcfi  cfa_offset, 10
    1087 000134 BB1A          POP mmap(AC1G)
         000136 98   
    1088                      .dwcfi  restore_reg, 5
    1089                      .dwcfi  cfa_offset, 9
    1090                      .dwcfi  restore_reg, 4
    1091                      .dwcfi  cfa_offset, 8
    1092 000137 5013          POP dbl(AC1)
    1093                      .dwcfi  restore_reg, 3
    1094                      .dwcfi  cfa_offset, 7
    1095 000139 BB14          POP mmap(AC0G)
         00013b 98   
    1096                      .dwcfi  restore_reg, 2
    1097                      .dwcfi  cfa_offset, 6
    1098                      .dwcfi  restore_reg, 1
    1099                      .dwcfi  cfa_offset, 5
    1100 00013c 5003          POP dbl(AC0)
    1101                      .dwcfi  restore_reg, 0
    1102                      .dwcfi  cfa_offset, 4
    1103 00013e BB08          POP mmap(ST3_55)
         000140 98   
    1104                      .dwcfi  restore_reg, 43
TMS320C55x Assembler PC v4.4.1 Sat Sep 29 23:08:45 2018

Tools Copyright (c) 1996-2012 Texas Instruments Incorporated
csl_uart_intc_example.asm                                            PAGE   24

    1105                      .dwcfi  cfa_offset, 3
    1106              $C$DW$88        .dwtag  DW_TAG_TI_branch
    1107                      .dwattr $C$DW$88, DW_AT_low_pc(0x00)
    1108                      .dwattr $C$DW$88, DW_AT_TI_return
    1109 000141 4805          RETI
    1110                                                      ; return occurs
    1111                      .dwattr $C$DW$82, DW_AT_TI_end_file("../c5535_bsl_revc/ezdsp5535_v1/c55xx_csl/ccs_v4.0_examples/uart/
    1112                      .dwattr $C$DW$82, DW_AT_TI_end_line(0x124)
    1113                      .dwattr $C$DW$82, DW_AT_TI_end_column(0x01)
    1114                      .dwendentry
    1115                      .dwendtag $C$DW$82
    1116              
    1117 0000fc               .sect   ".text"
    1118                      .align 4
    1119                      .global _uart_IntcSample
    1120              
    1121              $C$DW$89        .dwtag  DW_TAG_subprogram, DW_AT_name("uart_IntcSample")
    1122                      .dwattr $C$DW$89, DW_AT_low_pc(_uart_IntcSample)
    1123                      .dwattr $C$DW$89, DW_AT_high_pc(0x00)
    1124                      .dwattr $C$DW$89, DW_AT_TI_symbol_name("_uart_IntcSample")
    1125                      .dwattr $C$DW$89, DW_AT_external
    1126                      .dwattr $C$DW$89, DW_AT_type(*$C$DW$T$56)
    1127                      .dwattr $C$DW$89, DW_AT_TI_begin_file("../c5535_bsl_revc/ezdsp5535_v1/c55xx_csl/ccs_v4.0_examples/uar
    1128                      .dwattr $C$DW$89, DW_AT_TI_begin_line(0x131)
    1129                      .dwattr $C$DW$89, DW_AT_TI_begin_column(0x0c)
    1130                      .dwattr $C$DW$89, DW_AT_TI_max_frame_size(0x12)
    1131                      .dwpsn  file "../c5535_bsl_revc/ezdsp5535_v1/c55xx_csl/ccs_v4.0_examples/uart/CSL_UART_IntExample/csl
    1132              
    1133                      .dwfde $C$DW$CIE, _uart_IntcSample
    1134              ;*******************************************************************************
    1135              ;* FUNCTION NAME: uart_IntcSample                                              *
    1136              ;*                                                                             *
    1137              ;*   Function Uses Regs : AC0,AC0,T0,AR0,XAR0,AR1,XAR1,AR2,AR3,XAR3,SP,TC1,M40,*
    1138              ;*                        SATA,SATD,RDM,FRCT,SMUL                              *
    1139              ;*   Stack Frame        : Compact (No Frame Pointer, w/ debug)                 *
    1140              ;*   Total Frame Size   : 18 words                                             *
    1141              ;*                        (2 return address/alignment)                         *
    1142              ;*                        (3 function parameters)                              *
    1143              ;*                        (13 local values)                                    *
    1144              ;*   Min System Stack   : 1 word                                               *
    1145              ;*******************************************************************************
    1146 0000fc       _uart_IntcSample:
    1147                      .dwcfi  cfa_offset, 1
    1148                      .dwcfi  save_reg_to_mem, 91, -1
    1149 0000fc 4EEF          AADD #-17, SP
    1150                      .dwcfi  cfa_offset, 18
    1151              $C$DW$90        .dwtag  DW_TAG_variable, DW_AT_name("isrAddr")
    1152                      .dwattr $C$DW$90, DW_AT_TI_symbol_name("_isrAddr")
    1153                      .dwattr $C$DW$90, DW_AT_type(*$C$DW$T$46)
    1154                      .dwattr $C$DW$90, DW_AT_location[DW_OP_bregx 0x24 4]
    1155              $C$DW$91        .dwtag  DW_TAG_variable, DW_AT_name("status")
    1156                      .dwattr $C$DW$91, DW_AT_TI_symbol_name("_status")
    1157                      .dwattr $C$DW$91, DW_AT_type(*$C$DW$T$56)
    1158                      .dwattr $C$DW$91, DW_AT_location[DW_OP_bregx 0x24 12]
    1159              $C$DW$92        .dwtag  DW_TAG_variable, DW_AT_name("sysClk")
TMS320C55x Assembler PC v4.4.1 Sat Sep 29 23:08:45 2018

Tools Copyright (c) 1996-2012 Texas Instruments Incorporated
csl_uart_intc_example.asm                                            PAGE   25

    1160                      .dwattr $C$DW$92, DW_AT_TI_symbol_name("_sysClk")
    1161                      .dwattr $C$DW$92, DW_AT_type(*$C$DW$T$27)
    1162                      .dwattr $C$DW$92, DW_AT_location[DW_OP_bregx 0x24 14]
    1163                      .dwpsn  file "../c5535_bsl_revc/ezdsp5535_v1/c55xx_csl/ccs_v4.0_examples/uart/CSL_UART_IntExample/csl
    1164              $C$DW$93        .dwtag  DW_TAG_TI_branch
    1165                      .dwattr $C$DW$93, DW_AT_low_pc(0x00)
    1166                      .dwattr $C$DW$93, DW_AT_name("_getSysClk")
    1167                      .dwattr $C$DW$93, DW_AT_TI_call
    1168 0000fe 0803          CALL #_getSysClk ; |311| 
         000100 33   
    1169                                                      ; call occurs [#_getSysClk] ; |311| 
    1170 000101 EB1C          MOV AC0, dbl(*SP(#14)) ; |311| 
         000103 08   
    1171                      .dwpsn  file "../c5535_bsl_revc/ezdsp5535_v1/c55xx_csl/ccs_v4.0_examples/uart/CSL_UART_IntExample/csl
    1172 000104 ED1C          MOV dbl(*SP(#14)), AC0 ; |313| 
         000106 08   
    1173 000107 EB31          MOV AC0, dbl(*(#_mySetup)) ; |313| 
         000109 0800 
         00010b 0000-
    1174                      .dwpsn  file "../c5535_bsl_revc/ezdsp5535_v1/c55xx_csl/ccs_v4.0_examples/uart/CSL_UART_IntExample/csl
    1175 00010d 3C14          MOV #1, T0
    1176 00010f EC31          AMOV #_uartObj, XAR0 ; |316| 
         000111 8E00 
         000113 000C-
    1177              $C$DW$94        .dwtag  DW_TAG_TI_branch
    1178                      .dwattr $C$DW$94, DW_AT_low_pc(0x00)
    1179                      .dwattr $C$DW$94, DW_AT_name("_UART_init")
    1180                      .dwattr $C$DW$94, DW_AT_TI_call
    1181              
    1182 000115 6C00          CALL #_UART_init ; |316| 
         000117 0000!
    1183 000119 3D00  ||      MOV #0, AC0 ; |316| 
    1184              
    1185                                                      ; call occurs [#_UART_init] ; |316| 
    1186 00011b C418          MOV T0, *SP(#12) ; |316| 
    1187                      .dwpsn  file "../c5535_bsl_revc/ezdsp5535_v1/c55xx_csl/ccs_v4.0_examples/uart/CSL_UART_IntExample/csl
    1188              
    1189 00011d 2249          MOV T0, AR1
    1190 00011f 3D0A  ||      MOV #0, AR2
    1191              
    1192 000121 12A0          CMP AR2 == AR1, TC1 ; |317| 
         000123 90   
    1193 000124 0464          BCC $C$L5,TC1 ; |317| 
         000126 16   
    1194                                                      ; branchcc occurs ; |317| 
    1195                      .dwpsn  file "../c5535_bsl_revc/ezdsp5535_v1/c55xx_csl/ccs_v4.0_examples/uart/CSL_UART_IntExample/csl
    1196 000127 EC31          AMOV #$C$FSL1, XAR3 ; |319| 
         000129 BE00 
         00012b 0000+
    1197 00012d EB00          MOV XAR3, dbl(*SP(#0))
         00012f B5   
    1198 000130 A918          MOV *SP(#12), AR1 ; |319| 
    1199 000132 C904          MOV AR1, *SP(#2) ; |319| 
    1200              $C$DW$95        .dwtag  DW_TAG_TI_branch
    1201                      .dwattr $C$DW$95, DW_AT_low_pc(0x00)
TMS320C55x Assembler PC v4.4.1 Sat Sep 29 23:08:45 2018

Tools Copyright (c) 1996-2012 Texas Instruments Incorporated
csl_uart_intc_example.asm                                            PAGE   26

    1202                      .dwattr $C$DW$95, DW_AT_name("_printf")
    1203                      .dwattr $C$DW$95, DW_AT_TI_call
    1204 000134 6C00          CALL #_printf ; |319| 
         000136 0000!
    1205                                                      ; call occurs [#_printf] ; |319| 
    1206                      .dwpsn  file "../c5535_bsl_revc/ezdsp5535_v1/c55xx_csl/ccs_v4.0_examples/uart/CSL_UART_IntExample/csl
    1207 000138 A418          MOV *SP(#12), T0 ; |320| 
    1208 00013a 0602          B $C$L18  ; |320| 
         00013c 8D   
    1209                                                      ; branch occurs ; |320| 
    1210 00013d       $C$L5:    
    1211                      .dwpsn  file "../c5535_bsl_revc/ezdsp5535_v1/c55xx_csl/ccs_v4.0_examples/uart/CSL_UART_IntExample/csl
    1212 00013d EC31          AMOV #$C$FSL2, XAR3 ; |324| 
         00013f BE00 
         000141 0020+
    1213 000143 EB00          MOV XAR3, dbl(*SP(#0))
         000145 B5   
    1214              $C$DW$96        .dwtag  DW_TAG_TI_branch
    1215                      .dwattr $C$DW$96, DW_AT_low_pc(0x00)
    1216                      .dwattr $C$DW$96, DW_AT_name("_printf")
    1217                      .dwattr $C$DW$96, DW_AT_TI_call
    1218 000146 6C00          CALL #_printf ; |324| 
         000148 0000!
    1219                                                      ; call occurs [#_printf] ; |324| 
    1220                      .dwpsn  file "../c5535_bsl_revc/ezdsp5535_v1/c55xx_csl/ccs_v4.0_examples/uart/CSL_UART_IntExample/csl
    1221 00014a EC31          AMOV #_uartObj, XAR3 ; |328| 
         00014c BE00 
         00014e 000C-
    1222 000150 EB31          MOV XAR3, dbl(*(#_hUart))
         000152 B500 
         000154 0020-
    1223                      .dwpsn  file "../c5535_bsl_revc/ezdsp5535_v1/c55xx_csl/ccs_v4.0_examples/uart/CSL_UART_IntExample/csl
    1224 000156 EC31          AMOV #_mySetup, XAR1 ; |331| 
         000158 9E00 
         00015a 0000-
    1225 00015c ED31          MOV dbl(*(#_hUart)), XAR0
         00015e 8F00 
         000160 0020-
    1226              $C$DW$97        .dwtag  DW_TAG_TI_branch
    1227                      .dwattr $C$DW$97, DW_AT_low_pc(0x00)
    1228                      .dwattr $C$DW$97, DW_AT_name("_UART_setup")
    1229                      .dwattr $C$DW$97, DW_AT_TI_call
    1230 000162 6C00          CALL #_UART_setup ; |331| 
         000164 0000!
    1231                                                      ; call occurs [#_UART_setup] ; |331| 
    1232 000166 C418          MOV T0, *SP(#12) ; |331| 
    1233                      .dwpsn  file "../c5535_bsl_revc/ezdsp5535_v1/c55xx_csl/ccs_v4.0_examples/uart/CSL_UART_IntExample/csl
    1234              
    1235 000168 2249          MOV T0, AR1
    1236 00016a 3D0A  ||      MOV #0, AR2
    1237              
    1238 00016c 12A0          CMP AR2 == AR1, TC1 ; |332| 
         00016e 90   
    1239 00016f 0464          BCC $C$L6,TC1 ; |332| 
         000171 16   
TMS320C55x Assembler PC v4.4.1 Sat Sep 29 23:08:45 2018

Tools Copyright (c) 1996-2012 Texas Instruments Incorporated
csl_uart_intc_example.asm                                            PAGE   27

    1240                                                      ; branchcc occurs ; |332| 
    1241                      .dwpsn  file "../c5535_bsl_revc/ezdsp5535_v1/c55xx_csl/ccs_v4.0_examples/uart/CSL_UART_IntExample/csl
    1242 000172 EC31          AMOV #$C$FSL3, XAR3 ; |334| 
         000174 BE00 
         000176 0036+
    1243 000178 EB00          MOV XAR3, dbl(*SP(#0))
         00017a B5   
    1244 00017b A918          MOV *SP(#12), AR1 ; |334| 
    1245 00017d C904          MOV AR1, *SP(#2) ; |334| 
    1246              $C$DW$98        .dwtag  DW_TAG_TI_branch
    1247                      .dwattr $C$DW$98, DW_AT_low_pc(0x00)
    1248                      .dwattr $C$DW$98, DW_AT_name("_printf")
    1249                      .dwattr $C$DW$98, DW_AT_TI_call
    1250 00017f 6C00          CALL #_printf ; |334| 
         000181 0000!
    1251                                                      ; call occurs [#_printf] ; |334| 
    1252                      .dwpsn  file "../c5535_bsl_revc/ezdsp5535_v1/c55xx_csl/ccs_v4.0_examples/uart/CSL_UART_IntExample/csl
    1253 000183 A418          MOV *SP(#12), T0 ; |335| 
    1254 000185 0602          B $C$L18  ; |335| 
         000187 42   
    1255                                                      ; branch occurs ; |335| 
    1256 000188       $C$L6:    
    1257                      .dwpsn  file "../c5535_bsl_revc/ezdsp5535_v1/c55xx_csl/ccs_v4.0_examples/uart/CSL_UART_IntExample/csl
    1258 000188 EC31          AMOV #$C$FSL4, XAR3 ; |339| 
         00018a BE00 
         00018c 0058+
    1259 00018e EB00          MOV XAR3, dbl(*SP(#0))
         000190 B5   
    1260              $C$DW$99        .dwtag  DW_TAG_TI_branch
    1261                      .dwattr $C$DW$99, DW_AT_low_pc(0x00)
    1262                      .dwattr $C$DW$99, DW_AT_name("_printf")
    1263                      .dwattr $C$DW$99, DW_AT_TI_call
    1264 000191 6C00          CALL #_printf ; |339| 
         000193 0000!
    1265                                                      ; call occurs [#_printf] ; |339| 
    1266                      .dwpsn  file "../c5535_bsl_revc/ezdsp5535_v1/c55xx_csl/ccs_v4.0_examples/uart/CSL_UART_IntExample/csl
    1267 000195 EC31          AMOV #$C$FSL5, XAR1 ; |343| 
         000197 9E00 
         000199 0070+
    1268 00019b ED31          MOV dbl(*(#_hUart)), XAR0
         00019d 8F00 
         00019f 0020-
    1269              $C$DW$100       .dwtag  DW_TAG_TI_branch
    1270                      .dwattr $C$DW$100, DW_AT_low_pc(0x00)
    1271                      .dwattr $C$DW$100, DW_AT_name("_UART_fputs")
    1272                      .dwattr $C$DW$100, DW_AT_TI_call
    1273              
    1274 0001a1 6C00          CALL #_UART_fputs ; |343| 
         0001a3 0000!
    1275 0001a5 3D00  ||      MOV #0, AC0 ; |343| 
    1276              
    1277                                                      ; call occurs [#_UART_fputs] ; |343| 
    1278 0001a7 C418          MOV T0, *SP(#12) ; |343| 
    1279                      .dwpsn  file "../c5535_bsl_revc/ezdsp5535_v1/c55xx_csl/ccs_v4.0_examples/uart/CSL_UART_IntExample/csl
    1280              
TMS320C55x Assembler PC v4.4.1 Sat Sep 29 23:08:45 2018

Tools Copyright (c) 1996-2012 Texas Instruments Incorporated
csl_uart_intc_example.asm                                            PAGE   28

    1281 0001a9 2249          MOV T0, AR1
    1282 0001ab 3D0A  ||      MOV #0, AR2
    1283              
    1284 0001ad 12A0          CMP AR2 == AR1, TC1 ; |344| 
         0001af 90   
    1285 0001b0 0464          BCC $C$L7,TC1 ; |344| 
         0001b2 16   
    1286                                                      ; branchcc occurs ; |344| 
    1287                      .dwpsn  file "../c5535_bsl_revc/ezdsp5535_v1/c55xx_csl/ccs_v4.0_examples/uart/CSL_UART_IntExample/csl
    1288 0001b3 EC31          AMOV #$C$FSL6, XAR3 ; |346| 
         0001b5 BE00 
         0001b7 0088+
    1289 0001b9 EB00          MOV XAR3, dbl(*SP(#0))
         0001bb B5   
    1290 0001bc A918          MOV *SP(#12), AR1 ; |346| 
    1291 0001be C904          MOV AR1, *SP(#2) ; |346| 
    1292              $C$DW$101       .dwtag  DW_TAG_TI_branch
    1293                      .dwattr $C$DW$101, DW_AT_low_pc(0x00)
    1294                      .dwattr $C$DW$101, DW_AT_name("_printf")
    1295                      .dwattr $C$DW$101, DW_AT_TI_call
    1296 0001c0 6C00          CALL #_printf ; |346| 
         0001c2 0000!
    1297                                                      ; call occurs [#_printf] ; |346| 
    1298                      .dwpsn  file "../c5535_bsl_revc/ezdsp5535_v1/c55xx_csl/ccs_v4.0_examples/uart/CSL_UART_IntExample/csl
    1299 0001c4 A418          MOV *SP(#12), T0 ; |347| 
    1300 0001c6 0602          B $C$L18  ; |347| 
         0001c8 01   
    1301                                                      ; branch occurs ; |347| 
    1302 0001c9       $C$L7:    
    1303                      .dwpsn  file "../c5535_bsl_revc/ezdsp5535_v1/c55xx_csl/ccs_v4.0_examples/uart/CSL_UART_IntExample/csl
    1304 0001c9 ED31          MOV dbl(*(#_hUart)), XAR0
         0001cb 8F00 
         0001cd 0020-
    1305 0001cf EC31          AMOV #$C$FSL7, XAR1 ; |350| 
         0001d1 9E00 
         0001d3 00AA+
    1306              $C$DW$102       .dwtag  DW_TAG_TI_branch
    1307                      .dwattr $C$DW$102, DW_AT_low_pc(0x00)
    1308                      .dwattr $C$DW$102, DW_AT_name("_UART_fputs")
    1309                      .dwattr $C$DW$102, DW_AT_TI_call
    1310              
    1311 0001d5 6C00          CALL #_UART_fputs ; |350| 
         0001d7 0000!
    1312 0001d9 3D00  ||      MOV #0, AC0 ; |350| 
    1313              
    1314                                                      ; call occurs [#_UART_fputs] ; |350| 
    1315 0001db C418          MOV T0, *SP(#12) ; |350| 
    1316                      .dwpsn  file "../c5535_bsl_revc/ezdsp5535_v1/c55xx_csl/ccs_v4.0_examples/uart/CSL_UART_IntExample/csl
    1317              
    1318 0001dd 2249          MOV T0, AR1
    1319 0001df 3D0A  ||      MOV #0, AR2
    1320              
    1321 0001e1 12A0          CMP AR2 == AR1, TC1 ; |351| 
         0001e3 90   
    1322 0001e4 0464          BCC $C$L8,TC1 ; |351| 
TMS320C55x Assembler PC v4.4.1 Sat Sep 29 23:08:45 2018

Tools Copyright (c) 1996-2012 Texas Instruments Incorporated
csl_uart_intc_example.asm                                            PAGE   29

         0001e6 16   
    1323                                                      ; branchcc occurs ; |351| 
    1324                      .dwpsn  file "../c5535_bsl_revc/ezdsp5535_v1/c55xx_csl/ccs_v4.0_examples/uart/CSL_UART_IntExample/csl
    1325 0001e7 EC31          AMOV #$C$FSL6, XAR3 ; |353| 
         0001e9 BE00 
         0001eb 0088+
    1326 0001ed EB00          MOV XAR3, dbl(*SP(#0))
         0001ef B5   
    1327 0001f0 A918          MOV *SP(#12), AR1 ; |353| 
    1328 0001f2 C904          MOV AR1, *SP(#2) ; |353| 
    1329              $C$DW$103       .dwtag  DW_TAG_TI_branch
    1330                      .dwattr $C$DW$103, DW_AT_low_pc(0x00)
    1331                      .dwattr $C$DW$103, DW_AT_name("_printf")
    1332                      .dwattr $C$DW$103, DW_AT_TI_call
    1333 0001f4 6C00          CALL #_printf ; |353| 
         0001f6 0000!
    1334                                                      ; call occurs [#_printf] ; |353| 
    1335                      .dwpsn  file "../c5535_bsl_revc/ezdsp5535_v1/c55xx_csl/ccs_v4.0_examples/uart/CSL_UART_IntExample/csl
    1336 0001f8 A418          MOV *SP(#12), T0 ; |354| 
    1337 0001fa 0601          B $C$L18  ; |354| 
         0001fc CD   
    1338                                                      ; branch occurs ; |354| 
    1339 0001fd       $C$L8:    
    1340                      .dwpsn  file "../c5535_bsl_revc/ezdsp5535_v1/c55xx_csl/ccs_v4.0_examples/uart/CSL_UART_IntExample/csl
    1341 0001fd ED31          MOV dbl(*(#_hUart)), XAR0
         0001ff 8F00 
         000201 0020-
    1342 000203 EC31          AMOV #$C$FSL8, XAR1 ; |357| 
         000205 9E00 
         000207 00E4+
    1343              $C$DW$104       .dwtag  DW_TAG_TI_branch
    1344                      .dwattr $C$DW$104, DW_AT_low_pc(0x00)
    1345                      .dwattr $C$DW$104, DW_AT_name("_UART_fputs")
    1346                      .dwattr $C$DW$104, DW_AT_TI_call
    1347              
    1348 000209 6C00          CALL #_UART_fputs ; |357| 
         00020b 0000!
    1349 00020d 3D00  ||      MOV #0, AC0 ; |357| 
    1350              
    1351                                                      ; call occurs [#_UART_fputs] ; |357| 
    1352 00020f C418          MOV T0, *SP(#12) ; |357| 
    1353                      .dwpsn  file "../c5535_bsl_revc/ezdsp5535_v1/c55xx_csl/ccs_v4.0_examples/uart/CSL_UART_IntExample/csl
    1354              
    1355 000211 2249          MOV T0, AR1
    1356 000213 3D0A  ||      MOV #0, AR2
    1357              
    1358 000215 12A0          CMP AR2 == AR1, TC1 ; |358| 
         000217 90   
    1359 000218 0464          BCC $C$L9,TC1 ; |358| 
         00021a 16   
    1360                                                      ; branchcc occurs ; |358| 
    1361                      .dwpsn  file "../c5535_bsl_revc/ezdsp5535_v1/c55xx_csl/ccs_v4.0_examples/uart/CSL_UART_IntExample/csl
    1362 00021b EC31          AMOV #$C$FSL6, XAR3 ; |360| 
         00021d BE00 
         00021f 0088+
TMS320C55x Assembler PC v4.4.1 Sat Sep 29 23:08:45 2018

Tools Copyright (c) 1996-2012 Texas Instruments Incorporated
csl_uart_intc_example.asm                                            PAGE   30

    1363 000221 EB00          MOV XAR3, dbl(*SP(#0))
         000223 B5   
    1364 000224 A918          MOV *SP(#12), AR1 ; |360| 
    1365 000226 C904          MOV AR1, *SP(#2) ; |360| 
    1366              $C$DW$105       .dwtag  DW_TAG_TI_branch
    1367                      .dwattr $C$DW$105, DW_AT_low_pc(0x00)
    1368                      .dwattr $C$DW$105, DW_AT_name("_printf")
    1369                      .dwattr $C$DW$105, DW_AT_TI_call
    1370 000228 6C00          CALL #_printf ; |360| 
         00022a 0000!
    1371                                                      ; call occurs [#_printf] ; |360| 
    1372                      .dwpsn  file "../c5535_bsl_revc/ezdsp5535_v1/c55xx_csl/ccs_v4.0_examples/uart/CSL_UART_IntExample/csl
    1373 00022c A418          MOV *SP(#12), T0 ; |361| 
    1374 00022e 0601          B $C$L18  ; |361| 
         000230 99   
    1375                                                      ; branch occurs ; |361| 
    1376 000231       $C$L9:    
    1377                      .dwpsn  file "../c5535_bsl_revc/ezdsp5535_v1/c55xx_csl/ccs_v4.0_examples/uart/CSL_UART_IntExample/csl
    1378 000231 7A00          MOV #(_uart_rxIsr >> 16) << #16, AC0 ; |365| 
         000233 000A%
    1379 000235 7E00          OR #(_uart_rxIsr & 0xffff), AC0, AC0 ; |365| 
         000237 0000%
    1380 000239 EB0C          MOV AC0, dbl(*SP(#6)) ; |365| 
         00023b 08   
    1381                      .dwpsn  file "../c5535_bsl_revc/ezdsp5535_v1/c55xx_csl/ccs_v4.0_examples/uart/CSL_UART_IntExample/csl
    1382 00023c 7A00          MOV #(_uart_txIsr >> 16) << #16, AC0 ; |366| 
         00023e 000A%
    1383 000240 7E00          OR #(_uart_txIsr & 0xffff), AC0, AC0 ; |366| 
         000242 0000%
    1384 000244 EB10          MOV AC0, dbl(*SP(#8)) ; |366| 
         000246 08   
    1385                      .dwpsn  file "../c5535_bsl_revc/ezdsp5535_v1/c55xx_csl/ccs_v4.0_examples/uart/CSL_UART_IntExample/csl
    1386 000247 7A00          MOV #(_uart_ctoIsr >> 16) << #16, AC0 ; |367| 
         000249 000A%
    1387 00024b 7E00          OR #(_uart_ctoIsr & 0xffff), AC0, AC0 ; |367| 
         00024d 0000%
    1388 00024f EB14          MOV AC0, dbl(*SP(#10)) ; |367| 
         000251 08   
    1389                      .dwpsn  file "../c5535_bsl_revc/ezdsp5535_v1/c55xx_csl/ccs_v4.0_examples/uart/CSL_UART_IntExample/csl
    1390 000252 7A00          MOV #(_uart_lsiIsr >> 16) << #16, AC0 ; |368| 
         000254 000A%
    1391 000256 7E00          OR #(_uart_lsiIsr & 0xffff), AC0, AC0 ; |368| 
         000258 0000%
    1392 00025a EB08          MOV AC0, dbl(*SP(#4)) ; |368| 
         00025c 08   
    1393                      .dwpsn  file "../c5535_bsl_revc/ezdsp5535_v1/c55xx_csl/ccs_v4.0_examples/uart/CSL_UART_IntExample/csl
    1394              $C$DW$106       .dwtag  DW_TAG_TI_branch
    1395                      .dwattr $C$DW$106, DW_AT_low_pc(0x00)
    1396                      .dwattr $C$DW$106, DW_AT_name("_IRQ_globalDisable")
    1397                      .dwattr $C$DW$106, DW_AT_TI_call
    1398 00025d 6C00          CALL #_IRQ_globalDisable ; |371| 
         00025f 0000!
    1399                                                      ; call occurs [#_IRQ_globalDisable] ; |371| 
    1400                      .dwpsn  file "../c5535_bsl_revc/ezdsp5535_v1/c55xx_csl/ccs_v4.0_examples/uart/CSL_UART_IntExample/csl
    1401              $C$DW$107       .dwtag  DW_TAG_TI_branch
TMS320C55x Assembler PC v4.4.1 Sat Sep 29 23:08:45 2018

Tools Copyright (c) 1996-2012 Texas Instruments Incorporated
csl_uart_intc_example.asm                                            PAGE   31

    1402                      .dwattr $C$DW$107, DW_AT_low_pc(0x00)
    1403                      .dwattr $C$DW$107, DW_AT_name("_IRQ_clearAll")
    1404                      .dwattr $C$DW$107, DW_AT_TI_call
    1405 000261 6C00          CALL #_IRQ_clearAll ; |374| 
         000263 0000!
    1406                                                      ; call occurs [#_IRQ_clearAll] ; |374| 
    1407                      .dwpsn  file "../c5535_bsl_revc/ezdsp5535_v1/c55xx_csl/ccs_v4.0_examples/uart/CSL_UART_IntExample/csl
    1408              $C$DW$108       .dwtag  DW_TAG_TI_branch
    1409                      .dwattr $C$DW$108, DW_AT_low_pc(0x00)
    1410                      .dwattr $C$DW$108, DW_AT_name("_IRQ_disableAll")
    1411                      .dwattr $C$DW$108, DW_AT_TI_call
    1412 000265 6C00          CALL #_IRQ_disableAll ; |377| 
         000267 0000!
    1413                                                      ; call occurs [#_IRQ_disableAll] ; |377| 
    1414                      .dwpsn  file "../c5535_bsl_revc/ezdsp5535_v1/c55xx_csl/ccs_v4.0_examples/uart/CSL_UART_IntExample/csl
    1415 000269 7A00          MOV #(_VECSTART >> 16) << #16, AC0 ; |379| 
         00026b 000A%
    1416 00026d 7E00          OR #(_VECSTART & 0xffff), AC0, AC0 ; |379| 
         00026f 0000%
    1417              $C$DW$109       .dwtag  DW_TAG_TI_branch
    1418                      .dwattr $C$DW$109, DW_AT_low_pc(0x00)
    1419                      .dwattr $C$DW$109, DW_AT_name("_IRQ_setVecs")
    1420                      .dwattr $C$DW$109, DW_AT_TI_call
    1421 000271 6C00          CALL #_IRQ_setVecs ; |379| 
         000273 0000!
    1422                                                      ; call occurs [#_IRQ_setVecs] ; |379| 
    1423                      .dwpsn  file "../c5535_bsl_revc/ezdsp5535_v1/c55xx_csl/ccs_v4.0_examples/uart/CSL_UART_IntExample/csl
    1424 000275 7A00          MOV #(_UART_intrDispatch >> 16) << #16, AC0 ; |382| 
         000277 000A%
    1425 000279 7E00          OR #(_UART_intrDispatch & 0xffff), AC0, AC0 ; |382| 
         00027b 0000%
    1426              $C$DW$110       .dwtag  DW_TAG_TI_branch
    1427                      .dwattr $C$DW$110, DW_AT_low_pc(0x00)
    1428                      .dwattr $C$DW$110, DW_AT_name("_IRQ_plug")
    1429                      .dwattr $C$DW$110, DW_AT_TI_call
    1430              
    1431 00027d 6C00          CALL #_IRQ_plug ; |382| 
         00027f 0000!
    1432 000281 3D64  ||      MOV #6, T0
    1433              
    1434                                                      ; call occurs [#_IRQ_plug] ; |382| 
    1435                      .dwpsn  file "../c5535_bsl_revc/ezdsp5535_v1/c55xx_csl/ccs_v4.0_examples/uart/CSL_UART_IntExample/csl
    1436              $C$DW$111       .dwtag  DW_TAG_TI_branch
    1437                      .dwattr $C$DW$111, DW_AT_low_pc(0x00)
    1438                      .dwattr $C$DW$111, DW_AT_name("_IRQ_enable")
    1439                      .dwattr $C$DW$111, DW_AT_TI_call
    1440              
    1441 000283 6C00          CALL #_IRQ_enable ; |385| 
         000285 0000!
    1442 000287 3D64  ||      MOV #6, T0
    1443              
    1444                                                      ; call occurs [#_IRQ_enable] ; |385| 
    1445                      .dwpsn  file "../c5535_bsl_revc/ezdsp5535_v1/c55xx_csl/ccs_v4.0_examples/uart/CSL_UART_IntExample/csl
    1446              $C$DW$112       .dwtag  DW_TAG_TI_branch
    1447                      .dwattr $C$DW$112, DW_AT_low_pc(0x00)
TMS320C55x Assembler PC v4.4.1 Sat Sep 29 23:08:45 2018

Tools Copyright (c) 1996-2012 Texas Instruments Incorporated
csl_uart_intc_example.asm                                            PAGE   32

    1448                      .dwattr $C$DW$112, DW_AT_name("_IRQ_globalEnable")
    1449                      .dwattr $C$DW$112, DW_AT_TI_call
    1450 000289 6C00          CALL #_IRQ_globalEnable ; |386| 
         00028b 0000!
    1451                                                      ; call occurs [#_IRQ_globalEnable] ; |386| 
    1452                      .dwpsn  file "../c5535_bsl_revc/ezdsp5535_v1/c55xx_csl/ccs_v4.0_examples/uart/CSL_UART_IntExample/csl
    1453 00028d EC08          AMAR *SP(#4), XAR1
         00028f 9E   
    1454 000290 ED31          MOV dbl(*(#_hUart)), XAR0
         000292 8F00 
         000294 0020-
    1455              $C$DW$113       .dwtag  DW_TAG_TI_branch
    1456                      .dwattr $C$DW$113, DW_AT_low_pc(0x00)
    1457                      .dwattr $C$DW$113, DW_AT_name("_UART_setCallback")
    1458                      .dwattr $C$DW$113, DW_AT_TI_call
    1459 000296 6C00          CALL #_UART_setCallback ; |389| 
         000298 0000!
    1460                                                      ; call occurs [#_UART_setCallback] ; |389| 
    1461 00029a C418          MOV T0, *SP(#12) ; |389| 
    1462                      .dwpsn  file "../c5535_bsl_revc/ezdsp5535_v1/c55xx_csl/ccs_v4.0_examples/uart/CSL_UART_IntExample/csl
    1463 00029c 2249          MOV T0, AR1
    1464 00029e 0409          BCC $C$L10,AR1 == #0 ; |390| 
         0002a0 12   
    1465                                                      ; branchcc occurs ; |390| 
    1466                      .dwpsn  file "../c5535_bsl_revc/ezdsp5535_v1/c55xx_csl/ccs_v4.0_examples/uart/CSL_UART_IntExample/csl
    1467 0002a1 EC31          AMOV #$C$FSL9, XAR3 ; |392| 
         0002a3 BE00 
         0002a5 0102+
    1468 0002a7 EB00          MOV XAR3, dbl(*SP(#0))
         0002a9 B5   
    1469              $C$DW$114       .dwtag  DW_TAG_TI_branch
    1470                      .dwattr $C$DW$114, DW_AT_low_pc(0x00)
    1471                      .dwattr $C$DW$114, DW_AT_name("_printf")
    1472                      .dwattr $C$DW$114, DW_AT_TI_call
    1473 0002aa 6C00          CALL #_printf ; |392| 
         0002ac 0000!
    1474                                                      ; call occurs [#_printf] ; |392| 
    1475                      .dwpsn  file "../c5535_bsl_revc/ezdsp5535_v1/c55xx_csl/ccs_v4.0_examples/uart/CSL_UART_IntExample/csl
    1476 0002ae A418          MOV *SP(#12), T0 ; |393| 
    1477 0002b0 0601          B $C$L18  ; |393| 
         0002b2 17   
    1478                                                      ; branch occurs ; |393| 
    1479 0002b3       $C$L10:    
    1480                      .dwpsn  file "../c5535_bsl_revc/ezdsp5535_v1/c55xx_csl/ccs_v4.0_examples/uart/CSL_UART_IntExample/csl
    1481 0002b3 ED31          MOV dbl(*(#_hUart)), XAR0
         0002b5 8F00 
         0002b7 0020-
    1482              $C$DW$115       .dwtag  DW_TAG_TI_branch
    1483                      .dwattr $C$DW$115, DW_AT_low_pc(0x00)
    1484                      .dwattr $C$DW$115, DW_AT_name("_UART_eventEnable")
    1485                      .dwattr $C$DW$115, DW_AT_TI_call
    1486              
    1487 0002b9 6C00          CALL #_UART_eventEnable ; |397| 
         0002bb 0000!
    1488 0002bd 3D14  ||      MOV #1, T0
TMS320C55x Assembler PC v4.4.1 Sat Sep 29 23:08:45 2018

Tools Copyright (c) 1996-2012 Texas Instruments Incorporated
csl_uart_intc_example.asm                                            PAGE   33

    1489              
    1490                                                      ; call occurs [#_UART_eventEnable] ; |397| 
    1491 0002bf C418          MOV T0, *SP(#12) ; |397| 
    1492                      .dwpsn  file "../c5535_bsl_revc/ezdsp5535_v1/c55xx_csl/ccs_v4.0_examples/uart/CSL_UART_IntExample/csl
    1493 0002c1 2249          MOV T0, AR1
    1494 0002c3 0409          BCC $C$L11,AR1 == #0 ; |398| 
         0002c5 12   
    1495                                                      ; branchcc occurs ; |398| 
    1496                      .dwpsn  file "../c5535_bsl_revc/ezdsp5535_v1/c55xx_csl/ccs_v4.0_examples/uart/CSL_UART_IntExample/csl
    1497 0002c6 EC31          AMOV #$C$FSL10, XAR3 ; |400| 
         0002c8 BE00 
         0002ca 011C+
    1498 0002cc EB00          MOV XAR3, dbl(*SP(#0))
         0002ce B5   
    1499              $C$DW$116       .dwtag  DW_TAG_TI_branch
    1500                      .dwattr $C$DW$116, DW_AT_low_pc(0x00)
    1501                      .dwattr $C$DW$116, DW_AT_name("_printf")
    1502                      .dwattr $C$DW$116, DW_AT_TI_call
    1503 0002cf 6C00          CALL #_printf ; |400| 
         0002d1 0000!
    1504                                                      ; call occurs [#_printf] ; |400| 
    1505                      .dwpsn  file "../c5535_bsl_revc/ezdsp5535_v1/c55xx_csl/ccs_v4.0_examples/uart/CSL_UART_IntExample/csl
    1506 0002d3 A418          MOV *SP(#12), T0 ; |401| 
    1507 0002d5 0600          B $C$L18  ; |401| 
         0002d7 F2   
    1508                                                      ; branch occurs ; |401| 
    1509 0002d8       $C$L11:    
    1510                      .dwpsn  file "../c5535_bsl_revc/ezdsp5535_v1/c55xx_csl/ccs_v4.0_examples/uart/CSL_UART_IntExample/csl
    1511 0002d8 ED31          MOV dbl(*(#_hUart)), XAR0
         0002da 8F00 
         0002dc 0020-
    1512              $C$DW$117       .dwtag  DW_TAG_TI_branch
    1513                      .dwattr $C$DW$117, DW_AT_low_pc(0x00)
    1514                      .dwattr $C$DW$117, DW_AT_name("_UART_eventEnable")
    1515                      .dwattr $C$DW$117, DW_AT_TI_call
    1516              
    1517 0002de 6C00          CALL #_UART_eventEnable ; |404| 
         0002e0 0000!
    1518 0002e2 3D04  ||      MOV #0, T0
    1519              
    1520                                                      ; call occurs [#_UART_eventEnable] ; |404| 
    1521 0002e4 C418          MOV T0, *SP(#12) ; |404| 
    1522                      .dwpsn  file "../c5535_bsl_revc/ezdsp5535_v1/c55xx_csl/ccs_v4.0_examples/uart/CSL_UART_IntExample/csl
    1523 0002e6 2249          MOV T0, AR1
    1524 0002e8 0409          BCC $C$L12,AR1 == #0 ; |405| 
         0002ea 12   
    1525                                                      ; branchcc occurs ; |405| 
    1526                      .dwpsn  file "../c5535_bsl_revc/ezdsp5535_v1/c55xx_csl/ccs_v4.0_examples/uart/CSL_UART_IntExample/csl
    1527 0002eb EC31          AMOV #$C$FSL10, XAR3 ; |407| 
         0002ed BE00 
         0002ef 011C+
    1528 0002f1 EB00          MOV XAR3, dbl(*SP(#0))
         0002f3 B5   
    1529              $C$DW$118       .dwtag  DW_TAG_TI_branch
    1530                      .dwattr $C$DW$118, DW_AT_low_pc(0x00)
TMS320C55x Assembler PC v4.4.1 Sat Sep 29 23:08:45 2018

Tools Copyright (c) 1996-2012 Texas Instruments Incorporated
csl_uart_intc_example.asm                                            PAGE   34

    1531                      .dwattr $C$DW$118, DW_AT_name("_printf")
    1532                      .dwattr $C$DW$118, DW_AT_TI_call
    1533 0002f4 6C00          CALL #_printf ; |407| 
         0002f6 0000!
    1534                                                      ; call occurs [#_printf] ; |407| 
    1535                      .dwpsn  file "../c5535_bsl_revc/ezdsp5535_v1/c55xx_csl/ccs_v4.0_examples/uart/CSL_UART_IntExample/csl
    1536 0002f8 A418          MOV *SP(#12), T0 ; |408| 
    1537 0002fa 0600          B $C$L18  ; |408| 
         0002fc CD   
    1538                                                      ; branch occurs ; |408| 
    1539 0002fd       $C$L12:    
    1540                      .dwpsn  file "../c5535_bsl_revc/ezdsp5535_v1/c55xx_csl/ccs_v4.0_examples/uart/CSL_UART_IntExample/csl
    1541 0002fd ED31          MOV dbl(*(#_hUart)), XAR0
         0002ff 8F00 
         000301 0020-
    1542              $C$DW$119       .dwtag  DW_TAG_TI_branch
    1543                      .dwattr $C$DW$119, DW_AT_low_pc(0x00)
    1544                      .dwattr $C$DW$119, DW_AT_name("_UART_eventEnable")
    1545                      .dwattr $C$DW$119, DW_AT_TI_call
    1546              
    1547 000303 6C00          CALL #_UART_eventEnable ; |411| 
         000305 0000!
    1548 000307 3D24  ||      MOV #2, T0
    1549              
    1550                                                      ; call occurs [#_UART_eventEnable] ; |411| 
    1551 000309 C418          MOV T0, *SP(#12) ; |411| 
    1552                      .dwpsn  file "../c5535_bsl_revc/ezdsp5535_v1/c55xx_csl/ccs_v4.0_examples/uart/CSL_UART_IntExample/csl
    1553 00030b 2249          MOV T0, AR1
    1554 00030d 0409          BCC $C$L13,AR1 == #0 ; |412| 
         00030f 12   
    1555                                                      ; branchcc occurs ; |412| 
    1556                      .dwpsn  file "../c5535_bsl_revc/ezdsp5535_v1/c55xx_csl/ccs_v4.0_examples/uart/CSL_UART_IntExample/csl
    1557 000310 EC31          AMOV #$C$FSL10, XAR3 ; |414| 
         000312 BE00 
         000314 011C+
    1558 000316 EB00          MOV XAR3, dbl(*SP(#0))
         000318 B5   
    1559              $C$DW$120       .dwtag  DW_TAG_TI_branch
    1560                      .dwattr $C$DW$120, DW_AT_low_pc(0x00)
    1561                      .dwattr $C$DW$120, DW_AT_name("_printf")
    1562                      .dwattr $C$DW$120, DW_AT_TI_call
    1563 000319 6C00          CALL #_printf ; |414| 
         00031b 0000!
    1564                                                      ; call occurs [#_printf] ; |414| 
    1565                      .dwpsn  file "../c5535_bsl_revc/ezdsp5535_v1/c55xx_csl/ccs_v4.0_examples/uart/CSL_UART_IntExample/csl
    1566 00031d A418          MOV *SP(#12), T0 ; |415| 
    1567 00031f 0600          B $C$L18  ; |415| 
         000321 A8   
    1568                                                      ; branch occurs ; |415| 
    1569 000322       $C$L13:    
    1570                      .dwpsn  file "../c5535_bsl_revc/ezdsp5535_v1/c55xx_csl/ccs_v4.0_examples/uart/CSL_UART_IntExample/csl
    1571 000322 A931          MOV *(#_endOfTest), AR1 ; |419| 
         000324 0000 
         000326 75-  
    1572 000327 6419          BCC $C$L15,AR1 != #0 ; |419| 
TMS320C55x Assembler PC v4.4.1 Sat Sep 29 23:08:45 2018

Tools Copyright (c) 1996-2012 Texas Instruments Incorporated
csl_uart_intc_example.asm                                            PAGE   35

    1573                                                      ; branchcc occurs ; |419| 
    1574 000329       $C$L14:    
    1575 000329       $C$DW$L$_uart_IntcSample$22$B:
    1576 000329 A931          MOV *(#_endOfTest), AR1 ; |419| 
         00032b 0000 
         00032d 75-  
    1577 00032e 0409          BCC $C$L14,AR1 == #0 ; |419| 
         000330 F8   
    1578                                                      ; branchcc occurs ; |419| 
    1579 000331       $C$DW$L$_uart_IntcSample$22$E:
    1580 000331       $C$L15:    
    1581                      .dwpsn  file "../c5535_bsl_revc/ezdsp5535_v1/c55xx_csl/ccs_v4.0_examples/uart/CSL_UART_IntExample/csl
    1582 000331 EC31          AMOV #$C$FSL11, XAR3 ; |424| 
         000333 BE00 
         000335 0136+
    1583 000337 EB00          MOV XAR3, dbl(*SP(#0))
         000339 B5   
    1584              $C$DW$121       .dwtag  DW_TAG_TI_branch
    1585                      .dwattr $C$DW$121, DW_AT_low_pc(0x00)
    1586                      .dwattr $C$DW$121, DW_AT_name("_printf")
    1587                      .dwattr $C$DW$121, DW_AT_TI_call
    1588 00033a 6C00          CALL #_printf ; |424| 
         00033c 0000!
    1589                                                      ; call occurs [#_printf] ; |424| 
    1590                      .dwpsn  file "../c5535_bsl_revc/ezdsp5535_v1/c55xx_csl/ccs_v4.0_examples/uart/CSL_UART_IntExample/csl
    1591 00033e EC31          AMOV #$C$FSL12, XAR3 ; |425| 
         000340 BE00 
         000342 015A+
    1592 000344 EB00          MOV XAR3, dbl(*SP(#0))
         000346 B5   
    1593              $C$DW$122       .dwtag  DW_TAG_TI_branch
    1594                      .dwattr $C$DW$122, DW_AT_low_pc(0x00)
    1595                      .dwattr $C$DW$122, DW_AT_name("_printf")
    1596                      .dwattr $C$DW$122, DW_AT_TI_call
    1597 000347 6C00          CALL #_printf ; |425| 
         000349 0000!
    1598                                                      ; call occurs [#_printf] ; |425| 
    1599                      .dwpsn  file "../c5535_bsl_revc/ezdsp5535_v1/c55xx_csl/ccs_v4.0_examples/uart/CSL_UART_IntExample/csl
    1600              $C$DW$123       .dwtag  DW_TAG_TI_branch
    1601                      .dwattr $C$DW$123, DW_AT_low_pc(0x00)
    1602                      .dwattr $C$DW$123, DW_AT_name("_IRQ_disable")
    1603                      .dwattr $C$DW$123, DW_AT_TI_call
    1604              
    1605 00034b 6C00          CALL #_IRQ_disable ; |428| 
         00034d 0000!
    1606 00034f 3D64  ||      MOV #6, T0
    1607              
    1608                                                      ; call occurs [#_IRQ_disable] ; |428| 
    1609                      .dwpsn  file "../c5535_bsl_revc/ezdsp5535_v1/c55xx_csl/ccs_v4.0_examples/uart/CSL_UART_IntExample/csl
    1610              $C$DW$124       .dwtag  DW_TAG_TI_branch
    1611                      .dwattr $C$DW$124, DW_AT_low_pc(0x00)
    1612                      .dwattr $C$DW$124, DW_AT_name("_IRQ_globalDisable")
    1613                      .dwattr $C$DW$124, DW_AT_TI_call
    1614 000351 6C00          CALL #_IRQ_globalDisable ; |431| 
         000353 0000!
TMS320C55x Assembler PC v4.4.1 Sat Sep 29 23:08:45 2018

Tools Copyright (c) 1996-2012 Texas Instruments Incorporated
csl_uart_intc_example.asm                                            PAGE   36

    1615                                                      ; call occurs [#_IRQ_globalDisable] ; |431| 
    1616                      .dwpsn  file "../c5535_bsl_revc/ezdsp5535_v1/c55xx_csl/ccs_v4.0_examples/uart/CSL_UART_IntExample/csl
    1617 000355 EC31          AMOV #$C$FSL13, XAR1 ; |434| 
         000357 9E00 
         000359 0168+
    1618 00035b ED31          MOV dbl(*(#_hUart)), XAR0
         00035d 8F00 
         00035f 0020-
    1619              $C$DW$125       .dwtag  DW_TAG_TI_branch
    1620                      .dwattr $C$DW$125, DW_AT_low_pc(0x00)
    1621                      .dwattr $C$DW$125, DW_AT_name("_UART_fputs")
    1622                      .dwattr $C$DW$125, DW_AT_TI_call
    1623              
    1624 000361 6C00          CALL #_UART_fputs ; |434| 
         000363 0000!
    1625 000365 3D00  ||      MOV #0, AC0 ; |434| 
    1626              
    1627                                                      ; call occurs [#_UART_fputs] ; |434| 
    1628 000367 C418          MOV T0, *SP(#12) ; |434| 
    1629                      .dwpsn  file "../c5535_bsl_revc/ezdsp5535_v1/c55xx_csl/ccs_v4.0_examples/uart/CSL_UART_IntExample/csl
    1630              
    1631 000369 3C0A          MOV #0, AR2
    1632 00036b 2349  ||      MOV T0, AR1
    1633              
    1634 00036d 12A0          CMP AR2 == AR1, TC1 ; |435| 
         00036f 90   
    1635 000370 0464          BCC $C$L16,TC1 ; |435| 
         000372 16   
    1636                                                      ; branchcc occurs ; |435| 
    1637                      .dwpsn  file "../c5535_bsl_revc/ezdsp5535_v1/c55xx_csl/ccs_v4.0_examples/uart/CSL_UART_IntExample/csl
    1638 000373 EC31          AMOV #$C$FSL6, XAR3 ; |437| 
         000375 BE00 
         000377 0088+
    1639 000379 EB00          MOV XAR3, dbl(*SP(#0))
         00037b B5   
    1640 00037c A918          MOV *SP(#12), AR1 ; |437| 
    1641 00037e C904          MOV AR1, *SP(#2) ; |437| 
    1642              $C$DW$126       .dwtag  DW_TAG_TI_branch
    1643                      .dwattr $C$DW$126, DW_AT_low_pc(0x00)
    1644                      .dwattr $C$DW$126, DW_AT_name("_printf")
    1645                      .dwattr $C$DW$126, DW_AT_TI_call
    1646 000380 6C00          CALL #_printf ; |437| 
         000382 0000!
    1647                                                      ; call occurs [#_printf] ; |437| 
    1648                      .dwpsn  file "../c5535_bsl_revc/ezdsp5535_v1/c55xx_csl/ccs_v4.0_examples/uart/CSL_UART_IntExample/csl
    1649 000384 A418          MOV *SP(#12), T0 ; |438| 
    1650 000386 0600          B $C$L18  ; |438| 
         000388 41   
    1651                                                      ; branch occurs ; |438| 
    1652 000389       $C$L16:    
    1653                      .dwpsn  file "../c5535_bsl_revc/ezdsp5535_v1/c55xx_csl/ccs_v4.0_examples/uart/CSL_UART_IntExample/csl
    1654 000389 ED31          MOV dbl(*(#_hUart)), XAR0
         00038b 8F00 
         00038d 0020-
    1655 00038f EC31          AMOV #$C$FSL14, XAR1 ; |441| 
TMS320C55x Assembler PC v4.4.1 Sat Sep 29 23:08:45 2018

Tools Copyright (c) 1996-2012 Texas Instruments Incorporated
csl_uart_intc_example.asm                                            PAGE   37

         000391 9E00 
         000393 0182+
    1656              $C$DW$127       .dwtag  DW_TAG_TI_branch
    1657                      .dwattr $C$DW$127, DW_AT_low_pc(0x00)
    1658                      .dwattr $C$DW$127, DW_AT_name("_UART_fputs")
    1659                      .dwattr $C$DW$127, DW_AT_TI_call
    1660              
    1661 000395 6C00          CALL #_UART_fputs ; |441| 
         000397 0000!
    1662 000399 3D00  ||      MOV #0, AC0 ; |441| 
    1663              
    1664                                                      ; call occurs [#_UART_fputs] ; |441| 
    1665 00039b C418          MOV T0, *SP(#12) ; |441| 
    1666                      .dwpsn  file "../c5535_bsl_revc/ezdsp5535_v1/c55xx_csl/ccs_v4.0_examples/uart/CSL_UART_IntExample/csl
    1667              
    1668 00039d 2249          MOV T0, AR1
    1669 00039f 3D0A  ||      MOV #0, AR2
    1670              
    1671 0003a1 12A0          CMP AR2 == AR1, TC1 ; |442| 
         0003a3 90   
    1672 0003a4 0464          BCC $C$L17,TC1 ; |442| 
         0003a6 15   
    1673                                                      ; branchcc occurs ; |442| 
    1674                      .dwpsn  file "../c5535_bsl_revc/ezdsp5535_v1/c55xx_csl/ccs_v4.0_examples/uart/CSL_UART_IntExample/csl
    1675 0003a7 EC31          AMOV #$C$FSL6, XAR3 ; |444| 
         0003a9 BE00 
         0003ab 0088+
    1676 0003ad EB00          MOV XAR3, dbl(*SP(#0))
         0003af B5   
    1677 0003b0 A918          MOV *SP(#12), AR1 ; |444| 
    1678 0003b2 C904          MOV AR1, *SP(#2) ; |444| 
    1679              $C$DW$128       .dwtag  DW_TAG_TI_branch
    1680                      .dwattr $C$DW$128, DW_AT_low_pc(0x00)
    1681                      .dwattr $C$DW$128, DW_AT_name("_printf")
    1682                      .dwattr $C$DW$128, DW_AT_TI_call
    1683 0003b4 6C00          CALL #_printf ; |444| 
         0003b6 0000!
    1684                                                      ; call occurs [#_printf] ; |444| 
    1685                      .dwpsn  file "../c5535_bsl_revc/ezdsp5535_v1/c55xx_csl/ccs_v4.0_examples/uart/CSL_UART_IntExample/csl
    1686 0003b8 A418          MOV *SP(#12), T0 ; |445| 
    1687 0003ba 4A0E          B $C$L18  ; |445| 
    1688                                                      ; branch occurs ; |445| 
    1689 0003bc       $C$L17:    
    1690                      .dwpsn  file "../c5535_bsl_revc/ezdsp5535_v1/c55xx_csl/ccs_v4.0_examples/uart/CSL_UART_IntExample/csl
    1691              $C$DW$129       .dwtag  DW_TAG_TI_branch
    1692                      .dwattr $C$DW$129, DW_AT_low_pc(0x00)
    1693                      .dwattr $C$DW$129, DW_AT_name("_IRQ_globalDisable")
    1694                      .dwattr $C$DW$129, DW_AT_TI_call
    1695 0003bc 6C00          CALL #_IRQ_globalDisable ; |449| 
         0003be 0000!
    1696                                                      ; call occurs [#_IRQ_globalDisable] ; |449| 
    1697                      .dwpsn  file "../c5535_bsl_revc/ezdsp5535_v1/c55xx_csl/ccs_v4.0_examples/uart/CSL_UART_IntExample/csl
    1698              $C$DW$130       .dwtag  DW_TAG_TI_branch
    1699                      .dwattr $C$DW$130, DW_AT_low_pc(0x00)
    1700                      .dwattr $C$DW$130, DW_AT_name("_IRQ_clearAll")
TMS320C55x Assembler PC v4.4.1 Sat Sep 29 23:08:45 2018

Tools Copyright (c) 1996-2012 Texas Instruments Incorporated
csl_uart_intc_example.asm                                            PAGE   38

    1701                      .dwattr $C$DW$130, DW_AT_TI_call
    1702 0003c0 6C00          CALL #_IRQ_clearAll ; |452| 
         0003c2 0000!
    1703                                                      ; call occurs [#_IRQ_clearAll] ; |452| 
    1704                      .dwpsn  file "../c5535_bsl_revc/ezdsp5535_v1/c55xx_csl/ccs_v4.0_examples/uart/CSL_UART_IntExample/csl
    1705              $C$DW$131       .dwtag  DW_TAG_TI_branch
    1706                      .dwattr $C$DW$131, DW_AT_low_pc(0x00)
    1707                      .dwattr $C$DW$131, DW_AT_name("_IRQ_disableAll")
    1708                      .dwattr $C$DW$131, DW_AT_TI_call
    1709 0003c4 6C00          CALL #_IRQ_disableAll ; |455| 
         0003c6 0000!
    1710                                                      ; call occurs [#_IRQ_disableAll] ; |455| 
    1711                      .dwpsn  file "../c5535_bsl_revc/ezdsp5535_v1/c55xx_csl/ccs_v4.0_examples/uart/CSL_UART_IntExample/csl
    1712 0003c8 3C04          MOV #0, T0
    1713 0003ca       $C$L18:    
    1714                      .dwpsn  file "../c5535_bsl_revc/ezdsp5535_v1/c55xx_csl/ccs_v4.0_examples/uart/CSL_UART_IntExample/csl
    1715 0003ca 4E11          AADD #17, SP
    1716                      .dwcfi  cfa_offset, 1
    1717              $C$DW$132       .dwtag  DW_TAG_TI_branch
    1718                      .dwattr $C$DW$132, DW_AT_low_pc(0x00)
    1719                      .dwattr $C$DW$132, DW_AT_TI_return
    1720 0003cc 4804          RET
    1721                                                      ; return occurs
    1722              
    1723              $C$DW$133       .dwtag  DW_TAG_TI_loop
    1724                      .dwattr $C$DW$133, DW_AT_name("F:\eZdsp_DBG\tmp1\c55x-sim2\foo\Debug\csl_uart_intc_example.asm:$C$L14
    1725                      .dwattr $C$DW$133, DW_AT_TI_begin_file("../c5535_bsl_revc/ezdsp5535_v1/c55xx_csl/ccs_v4.0_examples/ua
    1726                      .dwattr $C$DW$133, DW_AT_TI_begin_line(0x1a3)
    1727                      .dwattr $C$DW$133, DW_AT_TI_end_line(0x1a6)
    1728              $C$DW$134       .dwtag  DW_TAG_TI_loop_range
    1729                      .dwattr $C$DW$134, DW_AT_low_pc($C$DW$L$_uart_IntcSample$22$B)
    1730                      .dwattr $C$DW$134, DW_AT_high_pc($C$DW$L$_uart_IntcSample$22$E)
    1731                      .dwendtag $C$DW$133
    1732              
    1733                      .dwattr $C$DW$89, DW_AT_TI_end_file("../c5535_bsl_revc/ezdsp5535_v1/c55xx_csl/ccs_v4.0_examples/uart/
    1734                      .dwattr $C$DW$89, DW_AT_TI_end_line(0x1ca)
    1735                      .dwattr $C$DW$89, DW_AT_TI_end_column(0x01)
    1736                      .dwendentry
    1737                      .dwendtag $C$DW$89
    1738              
    1739 0003ce               .sect   ".text"
    1740                      .align 4
    1741                      .global _main
    1742              
    1743              $C$DW$135       .dwtag  DW_TAG_subprogram, DW_AT_name("main")
    1744                      .dwattr $C$DW$135, DW_AT_low_pc(_main)
    1745                      .dwattr $C$DW$135, DW_AT_high_pc(0x00)
    1746                      .dwattr $C$DW$135, DW_AT_TI_symbol_name("_main")
    1747                      .dwattr $C$DW$135, DW_AT_external
    1748                      .dwattr $C$DW$135, DW_AT_TI_begin_file("../c5535_bsl_revc/ezdsp5535_v1/c55xx_csl/ccs_v4.0_examples/ua
    1749                      .dwattr $C$DW$135, DW_AT_TI_begin_line(0x1da)
    1750                      .dwattr $C$DW$135, DW_AT_TI_begin_column(0x06)
    1751                      .dwattr $C$DW$135, DW_AT_TI_max_frame_size(0x04)
    1752                      .dwpsn  file "../c5535_bsl_revc/ezdsp5535_v1/c55xx_csl/ccs_v4.0_examples/uart/CSL_UART_IntExample/csl
    1753              
TMS320C55x Assembler PC v4.4.1 Sat Sep 29 23:08:45 2018

Tools Copyright (c) 1996-2012 Texas Instruments Incorporated
csl_uart_intc_example.asm                                            PAGE   39

    1754                      .dwfde $C$DW$CIE, _main
    1755              ;*******************************************************************************
    1756              ;* FUNCTION NAME: main                                                         *
    1757              ;*                                                                             *
    1758              ;*   Function Uses Regs : T0,AR1,AR3,XAR3,SP,M40,SATA,SATD,RDM,FRCT,SMUL       *
    1759              ;*   Stack Frame        : Compact (No Frame Pointer, w/ debug)                 *
    1760              ;*   Total Frame Size   : 4 words                                              *
    1761              ;*                        (1 return address/alignment)                         *
    1762              ;*                        (2 function parameters)                              *
    1763              ;*                        (1 local values)                                     *
    1764              ;*   Min System Stack   : 1 word                                               *
    1765              ;*******************************************************************************
    1766 0003d0       _main:
    1767                      .dwcfi  cfa_offset, 1
    1768                      .dwcfi  save_reg_to_mem, 91, -1
    1769 0003d0 4EFD          AADD #-3, SP
    1770                      .dwcfi  cfa_offset, 4
    1771              $C$DW$136       .dwtag  DW_TAG_variable, DW_AT_name("status")
    1772                      .dwattr $C$DW$136, DW_AT_TI_symbol_name("_status")
    1773                      .dwattr $C$DW$136, DW_AT_type(*$C$DW$T$56)
    1774                      .dwattr $C$DW$136, DW_AT_location[DW_OP_bregx 0x24 2]
    1775                      .dwpsn  file "../c5535_bsl_revc/ezdsp5535_v1/c55xx_csl/ccs_v4.0_examples/uart/CSL_UART_IntExample/csl
    1776 0003d2 EC31          AMOV #$C$FSL15, XAR3 ; |478| 
         0003d4 BE00 
         0003d6 0198+
    1777 0003d8 EB00          MOV XAR3, dbl(*SP(#0))
         0003da B5   
    1778              $C$DW$137       .dwtag  DW_TAG_TI_branch
    1779                      .dwattr $C$DW$137, DW_AT_low_pc(0x00)
    1780                      .dwattr $C$DW$137, DW_AT_name("_printf")
    1781                      .dwattr $C$DW$137, DW_AT_TI_call
    1782 0003db 6C00          CALL #_printf ; |478| 
         0003dd 0000!
    1783                                                      ; call occurs [#_printf] ; |478| 
    1784                      .dwpsn  file "../c5535_bsl_revc/ezdsp5535_v1/c55xx_csl/ccs_v4.0_examples/uart/CSL_UART_IntExample/csl
    1785 0003df EC31          AMOV #$C$FSL16, XAR3 ; |479| 
         0003e1 BE00 
         0003e3 01B8+
    1786 0003e5 EB00          MOV XAR3, dbl(*SP(#0))
         0003e7 B5   
    1787              $C$DW$138       .dwtag  DW_TAG_TI_branch
    1788                      .dwattr $C$DW$138, DW_AT_low_pc(0x00)
    1789                      .dwattr $C$DW$138, DW_AT_name("_printf")
    1790                      .dwattr $C$DW$138, DW_AT_TI_call
    1791 0003e8 6C00          CALL #_printf ; |479| 
         0003ea 0000!
    1792                                                      ; call occurs [#_printf] ; |479| 
    1793                      .dwpsn  file "../c5535_bsl_revc/ezdsp5535_v1/c55xx_csl/ccs_v4.0_examples/uart/CSL_UART_IntExample/csl
    1794 0003ec EC31          AMOV #$C$FSL17, XAR3 ; |480| 
         0003ee BE00 
         0003f0 01F4+
    1795 0003f2 EB00          MOV XAR3, dbl(*SP(#0))
         0003f4 B5   
    1796              $C$DW$139       .dwtag  DW_TAG_TI_branch
    1797                      .dwattr $C$DW$139, DW_AT_low_pc(0x00)
TMS320C55x Assembler PC v4.4.1 Sat Sep 29 23:08:45 2018

Tools Copyright (c) 1996-2012 Texas Instruments Incorporated
csl_uart_intc_example.asm                                            PAGE   40

    1798                      .dwattr $C$DW$139, DW_AT_name("_printf")
    1799                      .dwattr $C$DW$139, DW_AT_TI_call
    1800 0003f5 6C00          CALL #_printf ; |480| 
         0003f7 0000!
    1801                                                      ; call occurs [#_printf] ; |480| 
    1802                      .dwpsn  file "../c5535_bsl_revc/ezdsp5535_v1/c55xx_csl/ccs_v4.0_examples/uart/CSL_UART_IntExample/csl
    1803              $C$DW$140       .dwtag  DW_TAG_TI_branch
    1804                      .dwattr $C$DW$140, DW_AT_low_pc(0x00)
    1805                      .dwattr $C$DW$140, DW_AT_name("_uart_IntcSample")
    1806                      .dwattr $C$DW$140, DW_AT_TI_call
    1807 0003f9 08FD          CALL #_uart_IntcSample ; |482| 
         0003fb 00   
    1808                                                      ; call occurs [#_uart_IntcSample] ; |482| 
    1809 0003fc C404          MOV T0, *SP(#2) ; |482| 
    1810                      .dwpsn  file "../c5535_bsl_revc/ezdsp5535_v1/c55xx_csl/ccs_v4.0_examples/uart/CSL_UART_IntExample/csl
    1811 0003fe 2249          MOV T0, AR1
    1812 000400 0409          BCC $C$L19,AR1 == #0 ; |483| 
         000402 15   
    1813                                                      ; branchcc occurs ; |483| 
    1814                      .dwpsn  file "../c5535_bsl_revc/ezdsp5535_v1/c55xx_csl/ccs_v4.0_examples/uart/CSL_UART_IntExample/csl
    1815 000403 EC31          AMOV #$C$FSL18, XAR3 ; |485| 
         000405 BE00 
         000407 0238+
    1816 000409 EB00          MOV XAR3, dbl(*SP(#0))
         00040b B5   
    1817              $C$DW$141       .dwtag  DW_TAG_TI_branch
    1818                      .dwattr $C$DW$141, DW_AT_low_pc(0x00)
    1819                      .dwattr $C$DW$141, DW_AT_name("_printf")
    1820                      .dwattr $C$DW$141, DW_AT_TI_call
    1821 00040c 6C00          CALL #_printf ; |485| 
         00040e 0000!
    1822                                                      ; call occurs [#_printf] ; |485| 
    1823                      .dwpsn  file "../c5535_bsl_revc/ezdsp5535_v1/c55xx_csl/ccs_v4.0_examples/uart/CSL_UART_IntExample/csl
    1824 000410 E631          MOV #0, *(#_PaSs_StAtE) ; |488| 
         000412 0000 
         000414 0076-
    1825                      .dwpsn  file "../c5535_bsl_revc/ezdsp5535_v1/c55xx_csl/ccs_v4.0_examples/uart/CSL_UART_IntExample/csl
    1826 000416 4A0D          B $C$L20  ; |490| 
    1827                                                      ; branch occurs ; |490| 
    1828 000418       $C$L19:    
    1829                      .dwpsn  file "../c5535_bsl_revc/ezdsp5535_v1/c55xx_csl/ccs_v4.0_examples/uart/CSL_UART_IntExample/csl
    1830 000418 EC31          AMOV #$C$FSL19, XAR3 ; |493| 
         00041a BE00 
         00041c 0260+
    1831 00041e EB00          MOV XAR3, dbl(*SP(#0))
         000420 B5   
    1832              $C$DW$142       .dwtag  DW_TAG_TI_branch
    1833                      .dwattr $C$DW$142, DW_AT_low_pc(0x00)
    1834                      .dwattr $C$DW$142, DW_AT_name("_printf")
    1835                      .dwattr $C$DW$142, DW_AT_TI_call
    1836 000421 6C00          CALL #_printf ; |493| 
         000423 0000!
    1837                                                      ; call occurs [#_printf] ; |493| 
    1838 000425       $C$L20:    
    1839                      .dwpsn  file "../c5535_bsl_revc/ezdsp5535_v1/c55xx_csl/ccs_v4.0_examples/uart/CSL_UART_IntExample/csl
TMS320C55x Assembler PC v4.4.1 Sat Sep 29 23:08:45 2018

Tools Copyright (c) 1996-2012 Texas Instruments Incorporated
csl_uart_intc_example.asm                                            PAGE   41

    1840 000425 A931          MOV *(#_PaSs_StAtE), AR1 ; |497| 
         000427 0000 
         000429 76-  
    1841 00042a C931          MOV AR1, *(#_PaSs) ; |497| 
         00042c 0000 
         00042e 77-  
    1842                      .dwpsn  file "../c5535_bsl_revc/ezdsp5535_v1/c55xx_csl/ccs_v4.0_examples/uart/CSL_UART_IntExample/csl
    1843 00042f 4E03          AADD #3, SP
    1844                      .dwcfi  cfa_offset, 1
    1845              $C$DW$143       .dwtag  DW_TAG_TI_branch
    1846                      .dwattr $C$DW$143, DW_AT_low_pc(0x00)
    1847                      .dwattr $C$DW$143, DW_AT_TI_return
    1848 000431 4804          RET
    1849                                                      ; return occurs
    1850                      .dwattr $C$DW$135, DW_AT_TI_end_file("../c5535_bsl_revc/ezdsp5535_v1/c55xx_csl/ccs_v4.0_examples/uart
    1851                      .dwattr $C$DW$135, DW_AT_TI_end_line(0x1f6)
    1852                      .dwattr $C$DW$135, DW_AT_TI_end_column(0x01)
    1853                      .dwendentry
    1854                      .dwendtag $C$DW$135
    1855              
    1856 000433               .sect   ".text"
    1857                      .align 4
    1858                      .global _getSysClk
    1859              
    1860              $C$DW$144       .dwtag  DW_TAG_subprogram, DW_AT_name("getSysClk")
    1861                      .dwattr $C$DW$144, DW_AT_low_pc(_getSysClk)
    1862                      .dwattr $C$DW$144, DW_AT_high_pc(0x00)
    1863                      .dwattr $C$DW$144, DW_AT_TI_symbol_name("_getSysClk")
    1864                      .dwattr $C$DW$144, DW_AT_external
    1865                      .dwattr $C$DW$144, DW_AT_type(*$C$DW$T$27)
    1866                      .dwattr $C$DW$144, DW_AT_TI_begin_file("../c5535_bsl_revc/ezdsp5535_v1/c55xx_csl/ccs_v4.0_examples/ua
    1867                      .dwattr $C$DW$144, DW_AT_TI_begin_line(0x201)
    1868                      .dwattr $C$DW$144, DW_AT_TI_begin_column(0x08)
    1869                      .dwattr $C$DW$144, DW_AT_TI_max_frame_size(0x0a)
    1870                      .dwpsn  file "../c5535_bsl_revc/ezdsp5535_v1/c55xx_csl/ccs_v4.0_examples/uart/CSL_UART_IntExample/csl
    1871              
    1872                      .dwfde $C$DW$CIE, _getSysClk
    1873              ;*******************************************************************************
    1874              ;* FUNCTION NAME: getSysClk                                                    *
    1875              ;*                                                                             *
    1876              ;*   Function Uses Regs : AC0,AC0,AC1,AC1,AR1,AR2,SP,CARRY,TC1,M40,SATA,SATD,  *
    1877              ;*                        RDM,FRCT,SMUL                                        *
    1878              ;*   Stack Frame        : Compact (No Frame Pointer, w/ debug)                 *
    1879              ;*   Total Frame Size   : 10 words                                             *
    1880              ;*                        (2 return address/alignment)                         *
    1881              ;*                        (8 local values)                                     *
    1882              ;*   Min System Stack   : 1 word                                               *
    1883              ;*******************************************************************************
    1884 000434       _getSysClk:
    1885                      .dwcfi  cfa_offset, 1
    1886                      .dwcfi  save_reg_to_mem, 91, -1
    1887 000434 4EF7          AADD #-9, SP
    1888                      .dwcfi  cfa_offset, 10
    1889              $C$DW$145       .dwtag  DW_TAG_variable, DW_AT_name("pllRDBypass")
    1890                      .dwattr $C$DW$145, DW_AT_TI_symbol_name("_pllRDBypass")
TMS320C55x Assembler PC v4.4.1 Sat Sep 29 23:08:45 2018

Tools Copyright (c) 1996-2012 Texas Instruments Incorporated
csl_uart_intc_example.asm                                            PAGE   42

    1891                      .dwattr $C$DW$145, DW_AT_type(*$C$DW$T$83)
    1892                      .dwattr $C$DW$145, DW_AT_location[DW_OP_bregx 0x24 0]
    1893              $C$DW$146       .dwtag  DW_TAG_variable, DW_AT_name("pllOutDiv")
    1894                      .dwattr $C$DW$146, DW_AT_TI_symbol_name("_pllOutDiv")
    1895                      .dwattr $C$DW$146, DW_AT_type(*$C$DW$T$83)
    1896                      .dwattr $C$DW$146, DW_AT_location[DW_OP_bregx 0x24 1]
    1897              $C$DW$147       .dwtag  DW_TAG_variable, DW_AT_name("sysClk")
    1898                      .dwattr $C$DW$147, DW_AT_TI_symbol_name("_sysClk")
    1899                      .dwattr $C$DW$147, DW_AT_type(*$C$DW$T$27)
    1900                      .dwattr $C$DW$147, DW_AT_location[DW_OP_bregx 0x24 2]
    1901              $C$DW$148       .dwtag  DW_TAG_variable, DW_AT_name("pllVP")
    1902                      .dwattr $C$DW$148, DW_AT_TI_symbol_name("_pllVP")
    1903                      .dwattr $C$DW$148, DW_AT_type(*$C$DW$T$19)
    1904                      .dwattr $C$DW$148, DW_AT_location[DW_OP_bregx 0x24 4]
    1905              $C$DW$149       .dwtag  DW_TAG_variable, DW_AT_name("pllVS")
    1906                      .dwattr $C$DW$149, DW_AT_TI_symbol_name("_pllVS")
    1907                      .dwattr $C$DW$149, DW_AT_type(*$C$DW$T$19)
    1908                      .dwattr $C$DW$149, DW_AT_location[DW_OP_bregx 0x24 5]
    1909              $C$DW$150       .dwtag  DW_TAG_variable, DW_AT_name("pllRD")
    1910                      .dwattr $C$DW$150, DW_AT_TI_symbol_name("_pllRD")
    1911                      .dwattr $C$DW$150, DW_AT_type(*$C$DW$T$19)
    1912                      .dwattr $C$DW$150, DW_AT_location[DW_OP_bregx 0x24 6]
    1913              $C$DW$151       .dwtag  DW_TAG_variable, DW_AT_name("pllVO")
    1914                      .dwattr $C$DW$151, DW_AT_TI_symbol_name("_pllVO")
    1915                      .dwattr $C$DW$151, DW_AT_type(*$C$DW$T$19)
    1916                      .dwattr $C$DW$151, DW_AT_location[DW_OP_bregx 0x24 7]
    1917                      .dwpsn  file "../c5535_bsl_revc/ezdsp5535_v1/c55xx_csl/ccs_v4.0_examples/uart/CSL_UART_IntExample/csl
    1918 000436 A951          MOV *port(#7200), AR1 ; |523| 
         000438 1C20 
    1919 00043a 7D0F          AND #0x0ffc, AR1, AC0 ; |523| 
         00043c FC09 
    1920 00043e 1005          SFTS AC0, #-2, AC0 ; |523| 
         000440 3E   
    1921 000441 C008          MOV AC0, *SP(#4) ; |523| 
    1922                      .dwpsn  file "../c5535_bsl_revc/ezdsp5535_v1/c55xx_csl/ccs_v4.0_examples/uart/CSL_UART_IntExample/csl
    1923 000443 A951          MOV *port(#7200), AR1 ; |524| 
         000445 1C20 
    1924 000447 1803          AND #0x0003, AR1, AC0 ; |524| 
         000449 09   
    1925 00044a C00A          MOV AC0, *SP(#5) ; |524| 
    1926                      .dwpsn  file "../c5535_bsl_revc/ezdsp5535_v1/c55xx_csl/ccs_v4.0_examples/uart/CSL_UART_IntExample/csl
    1927 00044c A951          MOV *port(#7201), AR1 ; |526| 
         00044e 1C21 
    1928 000450 7D0F          AND #0x0fff, AR1, AC0 ; |526| 
         000452 FF09 
    1929 000454 C00C          MOV AC0, *SP(#6) ; |526| 
    1930                      .dwpsn  file "../c5535_bsl_revc/ezdsp5535_v1/c55xx_csl/ccs_v4.0_examples/uart/CSL_UART_IntExample/csl
    1931 000456 DF51          MOV uns(low_byte(*port(#7203))), AR1 ; |527| 
         000458 931C 
         00045a 23   
    1932 00045b C90E          MOV AR1, *SP(#7) ; |527| 
    1933                      .dwpsn  file "../c5535_bsl_revc/ezdsp5535_v1/c55xx_csl/ccs_v4.0_examples/uart/CSL_UART_IntExample/csl
    1934 00045d A951          MOV *port(#7201), AR1 ; |529| 
         00045f 1C21 
    1935 000461 7D80          AND #0x8000, AR1, AC0 ; |529| 
TMS320C55x Assembler PC v4.4.1 Sat Sep 29 23:08:45 2018

Tools Copyright (c) 1996-2012 Texas Instruments Incorporated
csl_uart_intc_example.asm                                            PAGE   43

         000463 0009 
    1936 000465 1005          SFTS AC0, #-15, AC0 ; |529| 
         000467 31   
    1937 000468 C000          MOV AC0, *SP(#0) ; |529| 
    1938                      .dwpsn  file "../c5535_bsl_revc/ezdsp5535_v1/c55xx_csl/ccs_v4.0_examples/uart/CSL_UART_IntExample/csl
    1939 00046a A951          MOV *port(#7203), AR1 ; |530| 
         00046c 1C23 
    1940 00046e 7D02          AND #0x0200, AR1, AC0 ; |530| 
         000470 0009 
    1941 000472 1005          SFTS AC0, #-9, AC0 ; |530| 
         000474 37   
    1942 000475 C002          MOV AC0, *SP(#1) ; |530| 
    1943                      .dwpsn  file "../c5535_bsl_revc/ezdsp5535_v1/c55xx_csl/ccs_v4.0_examples/uart/CSL_UART_IntExample/csl
    1944 000477 3C00          MOV #0, AC0 ; |532| 
    1945 000479 7E80          OR #0x8000, AC0, AC0 ; |532| 
         00047b 0000 
    1946 00047d EB04          MOV AC0, dbl(*SP(#2)) ; |532| 
         00047f 08   
    1947                      .dwpsn  file "../c5535_bsl_revc/ezdsp5535_v1/c55xx_csl/ccs_v4.0_examples/uart/CSL_UART_IntExample/csl
    1948              
    1949 000480 A900          MOV *SP(#0), AR1 ; |534| 
    1950 000482 3D0A  ||      MOV #0, AR2
    1951              
    1952 000484 12AC          CMP AR2 != AR1, TC1 ; |534| 
         000486 90   
    1953 000487 0464          BCC $C$L21,TC1 ; |534| 
         000489 12   
    1954                                                      ; branchcc occurs ; |534| 
    1955                      .dwpsn  file "../c5535_bsl_revc/ezdsp5535_v1/c55xx_csl/ccs_v4.0_examples/uart/CSL_UART_IntExample/csl
    1956 00048a A90C          MOV *SP(#6), AR1 ; |536| 
    1957              
    1958 00048f 4149          ADD #4, AR1 ; |536| 
    1959 00048c ED04  ||      MOV dbl(*SP(#2)), AC0 ; |536| 
         00048e 08   
    1960              
    1961 000491 7DFF          AND #0xffff, AR1, AC1 ; |536| 
         000493 FF19 
    1962              $C$DW$152       .dwtag  DW_TAG_TI_branch
    1963                      .dwattr $C$DW$152, DW_AT_low_pc(0x00)
    1964                      .dwattr $C$DW$152, DW_AT_name("__divul")
    1965                      .dwattr $C$DW$152, DW_AT_TI_call
    1966 000495 6C00          CALL #__divul ; |536| 
         000497 0000!
    1967                                                      ; call occurs [#__divul] ; |536| 
    1968 000499 EB04          MOV AC0, dbl(*SP(#2)) ; |536| 
         00049b 08   
    1969 00049c       $C$L21:    
    1970                      .dwpsn  file "../c5535_bsl_revc/ezdsp5535_v1/c55xx_csl/ccs_v4.0_examples/uart/CSL_UART_IntExample/csl
    1971 00049c A008          MOV *SP(#4), AC0 ; |539| 
    1972 00049e 1007          SFTL AC0, #2, AC0 ; |539| 
         0004a0 02   
    1973 0004a1 D60A          ADD *SP(#5), AC0, AR1 ; |539| 
         0004a3 90   
    1974 0004a4 4049          ADD #4, AR1 ; |539| 
    1975 0004a6 7DFF          AND #0xffff, AR1, AC1 ; |539| 
TMS320C55x Assembler PC v4.4.1 Sat Sep 29 23:08:45 2018

Tools Copyright (c) 1996-2012 Texas Instruments Incorporated
csl_uart_intc_example.asm                                            PAGE   44

         0004a8 FF19 
    1976 0004aa ED04          MOV dbl(*SP(#2)), AC0 ; |539| 
         0004ac 08   
    1977              $C$DW$153       .dwtag  DW_TAG_TI_branch
    1978                      .dwattr $C$DW$153, DW_AT_low_pc(0x00)
    1979                      .dwattr $C$DW$153, DW_AT_name("__mpyli")
    1980                      .dwattr $C$DW$153, DW_AT_TI_call
    1981 0004ad 6C00          CALL #__mpyli ; |539| 
         0004af 0000!
    1982                                                      ; call occurs [#__mpyli] ; |539| 
    1983 0004b1 EB04          MOV AC0, dbl(*SP(#2)) ; |539| 
         0004b3 08   
    1984                      .dwpsn  file "../c5535_bsl_revc/ezdsp5535_v1/c55xx_csl/ccs_v4.0_examples/uart/CSL_UART_IntExample/csl
    1985              
    1986 0004b4 A902          MOV *SP(#1), AR1 ; |541| 
    1987 0004b6 3D1A  ||      MOV #1, AR2
    1988              
    1989 0004b8 12AC          CMP AR2 != AR1, TC1 ; |541| 
         0004ba 90   
    1990 0004bb 0464          BCC $C$L22,TC1 ; |541| 
         0004bd 12   
    1991                                                      ; branchcc occurs ; |541| 
    1992                      .dwpsn  file "../c5535_bsl_revc/ezdsp5535_v1/c55xx_csl/ccs_v4.0_examples/uart/CSL_UART_IntExample/csl
    1993 0004be A90E          MOV *SP(#7), AR1 ; |543| 
    1994              
    1995 0004c3 4119          ADD #1, AR1 ; |543| 
    1996 0004c0 ED04  ||      MOV dbl(*SP(#2)), AC0 ; |543| 
         0004c2 08   
    1997              
    1998 0004c5 7DFF          AND #0xffff, AR1, AC1 ; |543| 
         0004c7 FF19 
    1999              $C$DW$154       .dwtag  DW_TAG_TI_branch
    2000                      .dwattr $C$DW$154, DW_AT_low_pc(0x00)
    2001                      .dwattr $C$DW$154, DW_AT_name("__divul")
    2002                      .dwattr $C$DW$154, DW_AT_TI_call
    2003 0004c9 6C00          CALL #__divul ; |543| 
         0004cb 0000!
    2004                                                      ; call occurs [#__divul] ; |543| 
    2005 0004cd EB04          MOV AC0, dbl(*SP(#2)) ; |543| 
         0004cf 08   
    2006 0004d0       $C$L22:    
    2007                      .dwpsn  file "../c5535_bsl_revc/ezdsp5535_v1/c55xx_csl/ccs_v4.0_examples/uart/CSL_UART_IntExample/csl
    2008 0004d0 ED04          MOV dbl(*SP(#2)), AC0 ; |547| 
         0004d2 08   
    2009                      .dwpsn  file "../c5535_bsl_revc/ezdsp5535_v1/c55xx_csl/ccs_v4.0_examples/uart/CSL_UART_IntExample/csl
    2010 0004d3 4E09          AADD #9, SP
    2011                      .dwcfi  cfa_offset, 1
    2012              $C$DW$155       .dwtag  DW_TAG_TI_branch
    2013                      .dwattr $C$DW$155, DW_AT_low_pc(0x00)
    2014                      .dwattr $C$DW$155, DW_AT_TI_return
    2015 0004d5 4804          RET
    2016                                                      ; return occurs
    2017                      .dwattr $C$DW$144, DW_AT_TI_end_file("../c5535_bsl_revc/ezdsp5535_v1/c55xx_csl/ccs_v4.0_examples/uart
    2018                      .dwattr $C$DW$144, DW_AT_TI_end_line(0x224)
    2019                      .dwattr $C$DW$144, DW_AT_TI_end_column(0x01)
TMS320C55x Assembler PC v4.4.1 Sat Sep 29 23:08:45 2018

Tools Copyright (c) 1996-2012 Texas Instruments Incorporated
csl_uart_intc_example.asm                                            PAGE   45

    2020                      .dwendentry
    2021                      .dwendtag $C$DW$144
    2022              
    2023              ;*******************************************************************************
    2024              ;* FAR STRINGS                                                                 *
    2025              ;*******************************************************************************
    2026 000000               .sect   ".const:.string"
    2027                      .align  2
    2028 000000 0055  $C$FSL1:        .string "UART_init failed error code %d",10,0
         000001 0041 
         000002 0052 
         000003 0054 
         000004 005F 
         000005 0069 
         000006 006E 
         000007 0069 
         000008 0074 
         000009 0020 
         00000a 0066 
         00000b 0061 
         00000c 0069 
         00000d 006C 
         00000e 0065 
         00000f 0064 
         000010 0020 
         000011 0065 
         000012 0072 
         000013 0072 
         000014 006F 
         000015 0072 
         000016 0020 
         000017 0063 
         000018 006F 
         000019 0064 
         00001a 0065 
         00001b 0020 
         00001c 0025 
         00001d 0064 
         00001e 000A 
         00001f 0000 
    2029                      .align  2
    2030 000020 0055  $C$FSL2:        .string "UART_init Successful",10,0
         000021 0041 
         000022 0052 
         000023 0054 
         000024 005F 
         000025 0069 
         000026 006E 
         000027 0069 
         000028 0074 
         000029 0020 
         00002a 0053 
         00002b 0075 
         00002c 0063 
         00002d 0063 
TMS320C55x Assembler PC v4.4.1 Sat Sep 29 23:08:45 2018

Tools Copyright (c) 1996-2012 Texas Instruments Incorporated
csl_uart_intc_example.asm                                            PAGE   46

         00002e 0065 
         00002f 0073 
         000030 0073 
         000031 0066 
         000032 0075 
         000033 006C 
         000034 000A 
         000035 0000 
    2031                      .align  2
    2032 000036 0055  $C$FSL3:        .string "UART_setup failed error code %d",10,0
         000037 0041 
         000038 0052 
         000039 0054 
         00003a 005F 
         00003b 0073 
         00003c 0065 
         00003d 0074 
         00003e 0075 
         00003f 0070 
         000040 0020 
         000041 0066 
         000042 0061 
         000043 0069 
         000044 006C 
         000045 0065 
         000046 0064 
         000047 0020 
         000048 0065 
         000049 0072 
         00004a 0072 
         00004b 006F 
         00004c 0072 
         00004d 0020 
         00004e 0063 
         00004f 006F 
         000050 0064 
         000051 0065 
         000052 0020 
         000053 0025 
         000054 0064 
         000055 000A 
         000056 0000 
    2033                      .align  2
    2034 000058 0055  $C$FSL4:        .string "UART_setup Successful",10,0
         000059 0041 
         00005a 0052 
         00005b 0054 
         00005c 005F 
         00005d 0073 
         00005e 0065 
         00005f 0074 
         000060 0075 
         000061 0070 
         000062 0020 
         000063 0053 
TMS320C55x Assembler PC v4.4.1 Sat Sep 29 23:08:45 2018

Tools Copyright (c) 1996-2012 Texas Instruments Incorporated
csl_uart_intc_example.asm                                            PAGE   47

         000064 0075 
         000065 0063 
         000066 0063 
         000067 0065 
         000068 0073 
         000069 0073 
         00006a 0066 
         00006b 0075 
         00006c 006C 
         00006d 000A 
         00006e 0000 
    2035                      .align  2
    2036 000070 000D  $C$FSL5:        .string 13,10,10,"UART INTERRUPT TEST!",0
         000071 000A 
         000072 000A 
         000073 0055 
         000074 0041 
         000075 0052 
         000076 0054 
         000077 0020 
         000078 0049 
         000079 004E 
         00007a 0054 
         00007b 0045 
         00007c 0052 
         00007d 0052 
         00007e 0055 
         00007f 0050 
         000080 0054 
         000081 0020 
         000082 0054 
         000083 0045 
         000084 0053 
         000085 0054 
         000086 0021 
         000087 0000 
    2037                      .align  2
    2038 000088 0055  $C$FSL6:        .string "UART_fputs failed error code %d",10,0
         000089 0041 
         00008a 0052 
         00008b 0054 
         00008c 005F 
         00008d 0066 
         00008e 0070 
         00008f 0075 
         000090 0074 
         000091 0073 
         000092 0020 
         000093 0066 
         000094 0061 
         000095 0069 
         000096 006C 
         000097 0065 
         000098 0064 
         000099 0020 
TMS320C55x Assembler PC v4.4.1 Sat Sep 29 23:08:45 2018

Tools Copyright (c) 1996-2012 Texas Instruments Incorporated
csl_uart_intc_example.asm                                            PAGE   48

         00009a 0065 
         00009b 0072 
         00009c 0072 
         00009d 006F 
         00009e 0072 
         00009f 0020 
         0000a0 0063 
         0000a1 006F 
         0000a2 0064 
         0000a3 0065 
         0000a4 0020 
         0000a5 0025 
         0000a6 0064 
         0000a7 000A 
         0000a8 0000 
    2039                      .align  2
    2040 0000aa 000D  $C$FSL7:        .string 13,10,"TEST READS A CHARACTER FROM HYPERTERMINAL CONTINUOUSL"
         0000ab 000A 
         0000ac 0054 
         0000ad 0045 
         0000ae 0053 
         0000af 0054 
         0000b0 0020 
         0000b1 0052 
         0000b2 0045 
         0000b3 0041 
         0000b4 0044 
         0000b5 0053 
         0000b6 0020 
         0000b7 0041 
         0000b8 0020 
         0000b9 0043 
         0000ba 0048 
         0000bb 0041 
         0000bc 0052 
         0000bd 0041 
         0000be 0043 
         0000bf 0054 
         0000c0 0045 
         0000c1 0052 
         0000c2 0020 
         0000c3 0046 
         0000c4 0052 
         0000c5 004F 
         0000c6 004D 
         0000c7 0020 
         0000c8 0048 
         0000c9 0059 
         0000ca 0050 
         0000cb 0045 
         0000cc 0052 
         0000cd 0054 
         0000ce 0045 
         0000cf 0052 
         0000d0 004D 
TMS320C55x Assembler PC v4.4.1 Sat Sep 29 23:08:45 2018

Tools Copyright (c) 1996-2012 Texas Instruments Incorporated
csl_uart_intc_example.asm                                            PAGE   49

         0000d1 0049 
         0000d2 004E 
         0000d3 0041 
         0000d4 004C 
         0000d5 0020 
         0000d6 0043 
         0000d7 004F 
         0000d8 004E 
         0000d9 0054 
         0000da 0049 
         0000db 004E 
         0000dc 0055 
         0000dd 004F 
         0000de 0055 
         0000df 0053 
         0000e0 004C 
    2041 0000e1 0059          .string "Y",0
         0000e2 0000 
    2042                      .align  2
    2043 0000e4 000D  $C$FSL8:        .string 13,10,"ENTER '$' TO END THE TEST",13,10,0
         0000e5 000A 
         0000e6 0045 
         0000e7 004E 
         0000e8 0054 
         0000e9 0045 
         0000ea 0052 
         0000eb 0020 
         0000ec 0027 
         0000ed 0024 
         0000ee 0027 
         0000ef 0020 
         0000f0 0054 
         0000f1 004F 
         0000f2 0020 
         0000f3 0045 
         0000f4 004E 
         0000f5 0044 
         0000f6 0020 
         0000f7 0054 
         0000f8 0048 
         0000f9 0045 
         0000fa 0020 
         0000fb 0054 
         0000fc 0045 
         0000fd 0053 
         0000fe 0054 
         0000ff 000D 
         000100 000A 
         000101 0000 
    2044                      .align  2
    2045 000102 0055  $C$FSL9:        .string "UART_setCallback Failed",10,0
         000103 0041 
         000104 0052 
         000105 0054 
         000106 005F 
TMS320C55x Assembler PC v4.4.1 Sat Sep 29 23:08:45 2018

Tools Copyright (c) 1996-2012 Texas Instruments Incorporated
csl_uart_intc_example.asm                                            PAGE   50

         000107 0073 
         000108 0065 
         000109 0074 
         00010a 0043 
         00010b 0061 
         00010c 006C 
         00010d 006C 
         00010e 0062 
         00010f 0061 
         000110 0063 
         000111 006B 
         000112 0020 
         000113 0046 
         000114 0061 
         000115 0069 
         000116 006C 
         000117 0065 
         000118 0064 
         000119 000A 
         00011a 0000 
    2046                      .align  2
    2047 00011c 0055  $C$FSL10:       .string "UART_eventEnable Failed",10,0
         00011d 0041 
         00011e 0052 
         00011f 0054 
         000120 005F 
         000121 0065 
         000122 0076 
         000123 0065 
         000124 006E 
         000125 0074 
         000126 0045 
         000127 006E 
         000128 0061 
         000129 0062 
         00012a 006C 
         00012b 0065 
         00012c 0020 
         00012d 0046 
         00012e 0061 
         00012f 0069 
         000130 006C 
         000131 0065 
         000132 0064 
         000133 000A 
         000134 0000 
    2048                      .align  2
    2049 000136 000A  $C$FSL11:       .string 10,"USER ENTERED '$' on HyperTerminal",10,0
         000137 0055 
         000138 0053 
         000139 0045 
         00013a 0052 
         00013b 0020 
         00013c 0045 
         00013d 004E 
TMS320C55x Assembler PC v4.4.1 Sat Sep 29 23:08:45 2018

Tools Copyright (c) 1996-2012 Texas Instruments Incorporated
csl_uart_intc_example.asm                                            PAGE   51

         00013e 0054 
         00013f 0045 
         000140 0052 
         000141 0045 
         000142 0044 
         000143 0020 
         000144 0027 
         000145 0024 
         000146 0027 
         000147 0020 
         000148 006F 
         000149 006E 
         00014a 0020 
         00014b 0048 
         00014c 0079 
         00014d 0070 
         00014e 0065 
         00014f 0072 
         000150 0054 
         000151 0065 
         000152 0072 
         000153 006D 
         000154 0069 
         000155 006E 
         000156 0061 
         000157 006C 
         000158 000A 
         000159 0000 
    2050                      .align  2
    2051 00015a 0045  $C$FSL12:       .string "END OF TEST!",10,0
         00015b 004E 
         00015c 0044 
         00015d 0020 
         00015e 004F 
         00015f 0046 
         000160 0020 
         000161 0054 
         000162 0045 
         000163 0053 
         000164 0054 
         000165 0021 
         000166 000A 
         000167 0000 
    2052                      .align  2
    2053 000168 000D  $C$FSL13:       .string 13,10,10,"YOU HAVE ENTERED '$'.",0
         000169 000A 
         00016a 000A 
         00016b 0059 
         00016c 004F 
         00016d 0055 
         00016e 0020 
         00016f 0048 
         000170 0041 
         000171 0056 
         000172 0045 
TMS320C55x Assembler PC v4.4.1 Sat Sep 29 23:08:45 2018

Tools Copyright (c) 1996-2012 Texas Instruments Incorporated
csl_uart_intc_example.asm                                            PAGE   52

         000173 0020 
         000174 0045 
         000175 004E 
         000176 0054 
         000177 0045 
         000178 0052 
         000179 0045 
         00017a 0044 
         00017b 0020 
         00017c 0027 
         00017d 0024 
         00017e 0027 
         00017f 002E 
         000180 0000 
    2054                      .align  2
    2055 000182 000D  $C$FSL14:       .string 13,10,"END OF THE TEST!!",13,10,0
         000183 000A 
         000184 0045 
         000185 004E 
         000186 0044 
         000187 0020 
         000188 004F 
         000189 0046 
         00018a 0020 
         00018b 0054 
         00018c 0048 
         00018d 0045 
         00018e 0020 
         00018f 0054 
         000190 0045 
         000191 0053 
         000192 0054 
         000193 0021 
         000194 0021 
         000195 000D 
         000196 000A 
         000197 0000 
    2056                      .align  2
    2057 000198 0043  $C$FSL15:       .string "CSL UART INTERRUPT MODE TEST!",10,10,0
         000199 0053 
         00019a 004C 
         00019b 0020 
         00019c 0055 
         00019d 0041 
         00019e 0052 
         00019f 0054 
         0001a0 0020 
         0001a1 0049 
         0001a2 004E 
         0001a3 0054 
         0001a4 0045 
         0001a5 0052 
         0001a6 0052 
         0001a7 0055 
         0001a8 0050 
TMS320C55x Assembler PC v4.4.1 Sat Sep 29 23:08:45 2018

Tools Copyright (c) 1996-2012 Texas Instruments Incorporated
csl_uart_intc_example.asm                                            PAGE   53

         0001a9 0054 
         0001aa 0020 
         0001ab 004D 
         0001ac 004F 
         0001ad 0044 
         0001ae 0045 
         0001af 0020 
         0001b0 0054 
         0001b1 0045 
         0001b2 0053 
         0001b3 0054 
         0001b4 0021 
         0001b5 000A 
         0001b6 000A 
         0001b7 0000 
    2058                      .align  2
    2059 0001b8 0054  $C$FSL16:       .string "Test Reads One Character at a time from the HyperTerminal",10
         0001b9 0065 
         0001ba 0073 
         0001bb 0074 
         0001bc 0020 
         0001bd 0052 
         0001be 0065 
         0001bf 0061 
         0001c0 0064 
         0001c1 0073 
         0001c2 0020 
         0001c3 004F 
         0001c4 006E 
         0001c5 0065 
         0001c6 0020 
         0001c7 0043 
         0001c8 0068 
         0001c9 0061 
         0001ca 0072 
         0001cb 0061 
         0001cc 0063 
         0001cd 0074 
         0001ce 0065 
         0001cf 0072 
         0001d0 0020 
         0001d1 0061 
         0001d2 0074 
         0001d3 0020 
         0001d4 0061 
         0001d5 0020 
         0001d6 0074 
         0001d7 0069 
         0001d8 006D 
         0001d9 0065 
         0001da 0020 
         0001db 0066 
         0001dc 0072 
         0001dd 006F 
         0001de 006D 
TMS320C55x Assembler PC v4.4.1 Sat Sep 29 23:08:45 2018

Tools Copyright (c) 1996-2012 Texas Instruments Incorporated
csl_uart_intc_example.asm                                            PAGE   54

         0001df 0020 
         0001e0 0074 
         0001e1 0068 
         0001e2 0065 
         0001e3 0020 
         0001e4 0048 
         0001e5 0079 
         0001e6 0070 
         0001e7 0065 
         0001e8 0072 
         0001e9 0054 
         0001ea 0065 
         0001eb 0072 
         0001ec 006D 
         0001ed 0069 
         0001ee 006E 
         0001ef 0061 
         0001f0 006C 
         0001f1 000A 
    2060 0001f2 0000          .string 0
    2061                      .align  2
    2062 0001f4 0045  $C$FSL17:       .string "Enter the Symbol - '$' on the HyperTerminal to Terminate th"
         0001f5 006E 
         0001f6 0074 
         0001f7 0065 
         0001f8 0072 
         0001f9 0020 
         0001fa 0074 
         0001fb 0068 
         0001fc 0065 
         0001fd 0020 
         0001fe 0053 
         0001ff 0079 
         000200 006D 
         000201 0062 
         000202 006F 
         000203 006C 
         000204 0020 
         000205 002D 
         000206 0020 
         000207 0027 
         000208 0024 
         000209 0027 
         00020a 0020 
         00020b 006F 
         00020c 006E 
         00020d 0020 
         00020e 0074 
         00020f 0068 
         000210 0065 
         000211 0020 
         000212 0048 
         000213 0079 
         000214 0070 
         000215 0065 
TMS320C55x Assembler PC v4.4.1 Sat Sep 29 23:08:45 2018

Tools Copyright (c) 1996-2012 Texas Instruments Incorporated
csl_uart_intc_example.asm                                            PAGE   55

         000216 0072 
         000217 0054 
         000218 0065 
         000219 0072 
         00021a 006D 
         00021b 0069 
         00021c 006E 
         00021d 0061 
         00021e 006C 
         00021f 0020 
         000220 0074 
         000221 006F 
         000222 0020 
         000223 0054 
         000224 0065 
         000225 0072 
         000226 006D 
         000227 0069 
         000228 006E 
         000229 0061 
         00022a 0074 
         00022b 0065 
         00022c 0020 
         00022d 0074 
         00022e 0068 
    2063 00022f 0065          .string "e Test",10,10,0
         000230 0020 
         000231 0054 
         000232 0065 
         000233 0073 
         000234 0074 
         000235 000A 
         000236 000A 
         000237 0000 
    2064                      .align  2
    2065 000238 000A  $C$FSL18:       .string 10,"CSL UART INTERRUPT MODE TEST FAILED!!",10,0
         000239 0043 
         00023a 0053 
         00023b 004C 
         00023c 0020 
         00023d 0055 
         00023e 0041 
         00023f 0052 
         000240 0054 
         000241 0020 
         000242 0049 
         000243 004E 
         000244 0054 
         000245 0045 
         000246 0052 
         000247 0052 
         000248 0055 
         000249 0050 
         00024a 0054 
         00024b 0020 
TMS320C55x Assembler PC v4.4.1 Sat Sep 29 23:08:45 2018

Tools Copyright (c) 1996-2012 Texas Instruments Incorporated
csl_uart_intc_example.asm                                            PAGE   56

         00024c 004D 
         00024d 004F 
         00024e 0044 
         00024f 0045 
         000250 0020 
         000251 0054 
         000252 0045 
         000253 0053 
         000254 0054 
         000255 0020 
         000256 0046 
         000257 0041 
         000258 0049 
         000259 004C 
         00025a 0045 
         00025b 0044 
         00025c 0021 
         00025d 0021 
         00025e 000A 
         00025f 0000 
    2066                      .align  2
    2067 000260 000A  $C$FSL19:       .string 10,"CSL UART INTERRUPT MODE TEST COMPLETED!!",10,0
         000261 0043 
         000262 0053 
         000263 004C 
         000264 0020 
         000265 0055 
         000266 0041 
         000267 0052 
         000268 0054 
         000269 0020 
         00026a 0049 
         00026b 004E 
         00026c 0054 
         00026d 0045 
         00026e 0052 
         00026f 0052 
         000270 0055 
         000271 0050 
         000272 0054 
         000273 0020 
         000274 004D 
         000275 004F 
         000276 0044 
         000277 0045 
         000278 0020 
         000279 0054 
         00027a 0045 
         00027b 0053 
         00027c 0054 
         00027d 0020 
         00027e 0043 
         00027f 004F 
         000280 004D 
         000281 0050 
TMS320C55x Assembler PC v4.4.1 Sat Sep 29 23:08:45 2018

Tools Copyright (c) 1996-2012 Texas Instruments Incorporated
csl_uart_intc_example.asm                                            PAGE   57

         000282 004C 
         000283 0045 
         000284 0054 
         000285 0045 
         000286 0044 
         000287 0021 
         000288 0021 
         000289 000A 
         00028a 0000 
    2068              ;******************************************************************************
    2069              ;* UNDEFINED EXTERNAL REFERENCES                                              *
    2070              ;******************************************************************************
    2071                      .global _printf
    2072                      .global _IRQ_plug
    2073                      .global _IRQ_clearAll
    2074                      .global _IRQ_disable
    2075                      .global _IRQ_disableAll
    2076                      .global _IRQ_enable
    2077                      .global _IRQ_setVecs
    2078                      .global _IRQ_globalDisable
    2079                      .global _IRQ_globalEnable
    2080                      .global _UART_init
    2081                      .global _UART_setup
    2082                      .global _UART_eventEnable
    2083                      .global _UART_eventDisable
    2084                      .global _UART_read
    2085                      .global _UART_write
    2086                      .global _UART_fputs
    2087                      .global _UART_getEventId
    2088                      .global _UART_setCallback
    2089                      .global _VECSTART
    2090                      .global __divul
    2091                      .global __mpyli
    2092              
    2093              ;*******************************************************************************
    2094              ;* TYPE INFORMATION                                                            *
    2095              ;*******************************************************************************
    2096              
    2097              $C$DW$T$40      .dwtag  DW_TAG_enumeration_type
    2098                      .dwattr $C$DW$T$40, DW_AT_byte_size(0x01)
    2099              $C$DW$156       .dwtag  DW_TAG_enumerator, DW_AT_name("UART_POLLED"), DW_AT_const_value(0x00)
    2100              $C$DW$157       .dwtag  DW_TAG_enumerator, DW_AT_name("UART_INTERRUPT"), DW_AT_const_value(0x01)
    2101              $C$DW$158       .dwtag  DW_TAG_enumerator, DW_AT_name("UART_OPMODE_OTHER"), DW_AT_const_value(0x02)
    2102                      .dwendtag $C$DW$T$40
    2103              
    2104              $C$DW$T$41      .dwtag  DW_TAG_typedef, DW_AT_name("CSL_UartOpmode")
    2105                      .dwattr $C$DW$T$41, DW_AT_type(*$C$DW$T$40)
    2106                      .dwattr $C$DW$T$41, DW_AT_language(DW_LANG_C)
    2107              
    2108              $C$DW$T$23      .dwtag  DW_TAG_structure_type
    2109                      .dwattr $C$DW$T$23, DW_AT_byte_size(0x19)
    2110              $C$DW$159       .dwtag  DW_TAG_member
    2111                      .dwattr $C$DW$159, DW_AT_type(*$C$DW$T$20)
    2112                      .dwattr $C$DW$159, DW_AT_name("THR")
    2113                      .dwattr $C$DW$159, DW_AT_TI_symbol_name("_THR")
TMS320C55x Assembler PC v4.4.1 Sat Sep 29 23:08:45 2018

Tools Copyright (c) 1996-2012 Texas Instruments Incorporated
csl_uart_intc_example.asm                                            PAGE   58

    2114                      .dwattr $C$DW$159, DW_AT_data_member_location[DW_OP_plus_uconst 0x0]
    2115                      .dwattr $C$DW$159, DW_AT_accessibility(DW_ACCESS_public)
    2116              $C$DW$160       .dwtag  DW_TAG_member
    2117                      .dwattr $C$DW$160, DW_AT_type(*$C$DW$T$20)
    2118                      .dwattr $C$DW$160, DW_AT_name("RSVD0")
    2119                      .dwattr $C$DW$160, DW_AT_TI_symbol_name("_RSVD0")
    2120                      .dwattr $C$DW$160, DW_AT_data_member_location[DW_OP_plus_uconst 0x1]
    2121                      .dwattr $C$DW$160, DW_AT_accessibility(DW_ACCESS_public)
    2122              $C$DW$161       .dwtag  DW_TAG_member
    2123                      .dwattr $C$DW$161, DW_AT_type(*$C$DW$T$20)
    2124                      .dwattr $C$DW$161, DW_AT_name("IER")
    2125                      .dwattr $C$DW$161, DW_AT_TI_symbol_name("_IER")
    2126                      .dwattr $C$DW$161, DW_AT_data_member_location[DW_OP_plus_uconst 0x2]
    2127                      .dwattr $C$DW$161, DW_AT_accessibility(DW_ACCESS_public)
    2128              $C$DW$162       .dwtag  DW_TAG_member
    2129                      .dwattr $C$DW$162, DW_AT_type(*$C$DW$T$20)
    2130                      .dwattr $C$DW$162, DW_AT_name("RSVD1")
    2131                      .dwattr $C$DW$162, DW_AT_TI_symbol_name("_RSVD1")
    2132                      .dwattr $C$DW$162, DW_AT_data_member_location[DW_OP_plus_uconst 0x3]
    2133                      .dwattr $C$DW$162, DW_AT_accessibility(DW_ACCESS_public)
    2134              $C$DW$163       .dwtag  DW_TAG_member
    2135                      .dwattr $C$DW$163, DW_AT_type(*$C$DW$T$20)
    2136                      .dwattr $C$DW$163, DW_AT_name("FCR")
    2137                      .dwattr $C$DW$163, DW_AT_TI_symbol_name("_FCR")
    2138                      .dwattr $C$DW$163, DW_AT_data_member_location[DW_OP_plus_uconst 0x4]
    2139                      .dwattr $C$DW$163, DW_AT_accessibility(DW_ACCESS_public)
    2140              $C$DW$164       .dwtag  DW_TAG_member
    2141                      .dwattr $C$DW$164, DW_AT_type(*$C$DW$T$20)
    2142                      .dwattr $C$DW$164, DW_AT_name("RSVD2")
    2143                      .dwattr $C$DW$164, DW_AT_TI_symbol_name("_RSVD2")
    2144                      .dwattr $C$DW$164, DW_AT_data_member_location[DW_OP_plus_uconst 0x5]
    2145                      .dwattr $C$DW$164, DW_AT_accessibility(DW_ACCESS_public)
    2146              $C$DW$165       .dwtag  DW_TAG_member
    2147                      .dwattr $C$DW$165, DW_AT_type(*$C$DW$T$20)
    2148                      .dwattr $C$DW$165, DW_AT_name("LCR")
    2149                      .dwattr $C$DW$165, DW_AT_TI_symbol_name("_LCR")
    2150                      .dwattr $C$DW$165, DW_AT_data_member_location[DW_OP_plus_uconst 0x6]
    2151                      .dwattr $C$DW$165, DW_AT_accessibility(DW_ACCESS_public)
    2152              $C$DW$166       .dwtag  DW_TAG_member
    2153                      .dwattr $C$DW$166, DW_AT_type(*$C$DW$T$20)
    2154                      .dwattr $C$DW$166, DW_AT_name("RSVD3")
    2155                      .dwattr $C$DW$166, DW_AT_TI_symbol_name("_RSVD3")
    2156                      .dwattr $C$DW$166, DW_AT_data_member_location[DW_OP_plus_uconst 0x7]
    2157                      .dwattr $C$DW$166, DW_AT_accessibility(DW_ACCESS_public)
    2158              $C$DW$167       .dwtag  DW_TAG_member
    2159                      .dwattr $C$DW$167, DW_AT_type(*$C$DW$T$20)
    2160                      .dwattr $C$DW$167, DW_AT_name("MCR")
    2161                      .dwattr $C$DW$167, DW_AT_TI_symbol_name("_MCR")
    2162                      .dwattr $C$DW$167, DW_AT_data_member_location[DW_OP_plus_uconst 0x8]
    2163                      .dwattr $C$DW$167, DW_AT_accessibility(DW_ACCESS_public)
    2164              $C$DW$168       .dwtag  DW_TAG_member
    2165                      .dwattr $C$DW$168, DW_AT_type(*$C$DW$T$20)
    2166                      .dwattr $C$DW$168, DW_AT_name("RSVD4")
    2167                      .dwattr $C$DW$168, DW_AT_TI_symbol_name("_RSVD4")
    2168                      .dwattr $C$DW$168, DW_AT_data_member_location[DW_OP_plus_uconst 0x9]
TMS320C55x Assembler PC v4.4.1 Sat Sep 29 23:08:45 2018

Tools Copyright (c) 1996-2012 Texas Instruments Incorporated
csl_uart_intc_example.asm                                            PAGE   59

    2169                      .dwattr $C$DW$168, DW_AT_accessibility(DW_ACCESS_public)
    2170              $C$DW$169       .dwtag  DW_TAG_member
    2171                      .dwattr $C$DW$169, DW_AT_type(*$C$DW$T$20)
    2172                      .dwattr $C$DW$169, DW_AT_name("LSR")
    2173                      .dwattr $C$DW$169, DW_AT_TI_symbol_name("_LSR")
    2174                      .dwattr $C$DW$169, DW_AT_data_member_location[DW_OP_plus_uconst 0xa]
    2175                      .dwattr $C$DW$169, DW_AT_accessibility(DW_ACCESS_public)
    2176              $C$DW$170       .dwtag  DW_TAG_member
    2177                      .dwattr $C$DW$170, DW_AT_type(*$C$DW$T$21)
    2178                      .dwattr $C$DW$170, DW_AT_name("RSVD5")
    2179                      .dwattr $C$DW$170, DW_AT_TI_symbol_name("_RSVD5")
    2180                      .dwattr $C$DW$170, DW_AT_data_member_location[DW_OP_plus_uconst 0xb]
    2181                      .dwattr $C$DW$170, DW_AT_accessibility(DW_ACCESS_public)
    2182              $C$DW$171       .dwtag  DW_TAG_member
    2183                      .dwattr $C$DW$171, DW_AT_type(*$C$DW$T$20)
    2184                      .dwattr $C$DW$171, DW_AT_name("SCR")
    2185                      .dwattr $C$DW$171, DW_AT_TI_symbol_name("_SCR")
    2186                      .dwattr $C$DW$171, DW_AT_data_member_location[DW_OP_plus_uconst 0xe]
    2187                      .dwattr $C$DW$171, DW_AT_accessibility(DW_ACCESS_public)
    2188              $C$DW$172       .dwtag  DW_TAG_member
    2189                      .dwattr $C$DW$172, DW_AT_type(*$C$DW$T$20)
    2190                      .dwattr $C$DW$172, DW_AT_name("RSVD6")
    2191                      .dwattr $C$DW$172, DW_AT_TI_symbol_name("_RSVD6")
    2192                      .dwattr $C$DW$172, DW_AT_data_member_location[DW_OP_plus_uconst 0xf]
    2193                      .dwattr $C$DW$172, DW_AT_accessibility(DW_ACCESS_public)
    2194              $C$DW$173       .dwtag  DW_TAG_member
    2195                      .dwattr $C$DW$173, DW_AT_type(*$C$DW$T$20)
    2196                      .dwattr $C$DW$173, DW_AT_name("DLL")
    2197                      .dwattr $C$DW$173, DW_AT_TI_symbol_name("_DLL")
    2198                      .dwattr $C$DW$173, DW_AT_data_member_location[DW_OP_plus_uconst 0x10]
    2199                      .dwattr $C$DW$173, DW_AT_accessibility(DW_ACCESS_public)
    2200              $C$DW$174       .dwtag  DW_TAG_member
    2201                      .dwattr $C$DW$174, DW_AT_type(*$C$DW$T$20)
    2202                      .dwattr $C$DW$174, DW_AT_name("RSVD7")
    2203                      .dwattr $C$DW$174, DW_AT_TI_symbol_name("_RSVD7")
    2204                      .dwattr $C$DW$174, DW_AT_data_member_location[DW_OP_plus_uconst 0x11]
    2205                      .dwattr $C$DW$174, DW_AT_accessibility(DW_ACCESS_public)
    2206              $C$DW$175       .dwtag  DW_TAG_member
    2207                      .dwattr $C$DW$175, DW_AT_type(*$C$DW$T$20)
    2208                      .dwattr $C$DW$175, DW_AT_name("DLH")
    2209                      .dwattr $C$DW$175, DW_AT_TI_symbol_name("_DLH")
    2210                      .dwattr $C$DW$175, DW_AT_data_member_location[DW_OP_plus_uconst 0x12]
    2211                      .dwattr $C$DW$175, DW_AT_accessibility(DW_ACCESS_public)
    2212              $C$DW$176       .dwtag  DW_TAG_member
    2213                      .dwattr $C$DW$176, DW_AT_type(*$C$DW$T$22)
    2214                      .dwattr $C$DW$176, DW_AT_name("RSVD8")
    2215                      .dwattr $C$DW$176, DW_AT_TI_symbol_name("_RSVD8")
    2216                      .dwattr $C$DW$176, DW_AT_data_member_location[DW_OP_plus_uconst 0x13]
    2217                      .dwattr $C$DW$176, DW_AT_accessibility(DW_ACCESS_public)
    2218              $C$DW$177       .dwtag  DW_TAG_member
    2219                      .dwattr $C$DW$177, DW_AT_type(*$C$DW$T$20)
    2220                      .dwattr $C$DW$177, DW_AT_name("PWREMU_MGMT")
    2221                      .dwattr $C$DW$177, DW_AT_TI_symbol_name("_PWREMU_MGMT")
    2222                      .dwattr $C$DW$177, DW_AT_data_member_location[DW_OP_plus_uconst 0x18]
    2223                      .dwattr $C$DW$177, DW_AT_accessibility(DW_ACCESS_public)
TMS320C55x Assembler PC v4.4.1 Sat Sep 29 23:08:45 2018

Tools Copyright (c) 1996-2012 Texas Instruments Incorporated
csl_uart_intc_example.asm                                            PAGE   60

    2224                      .dwendtag $C$DW$T$23
    2225              
    2226              $C$DW$T$32      .dwtag  DW_TAG_typedef, DW_AT_name("CSL_UartRegs")
    2227                      .dwattr $C$DW$T$32, DW_AT_type(*$C$DW$T$23)
    2228                      .dwattr $C$DW$T$32, DW_AT_language(DW_LANG_C)
    2229              $C$DW$178       .dwtag  DW_TAG_TI_far_type
    2230                      .dwattr $C$DW$178, DW_AT_type(*$C$DW$T$32)
    2231              $C$DW$179       .dwtag  DW_TAG_TI_ioport_type
    2232                      .dwattr $C$DW$179, DW_AT_type(*$C$DW$178)
    2233              $C$DW$T$33      .dwtag  DW_TAG_volatile_type
    2234                      .dwattr $C$DW$T$33, DW_AT_type(*$C$DW$179)
    2235              $C$DW$T$34      .dwtag  DW_TAG_pointer_type
    2236                      .dwattr $C$DW$T$34, DW_AT_type(*$C$DW$T$33)
    2237                      .dwattr $C$DW$T$34, DW_AT_address_class(0x10)
    2238              $C$DW$T$35      .dwtag  DW_TAG_typedef, DW_AT_name("CSL_UartRegsOvly")
    2239                      .dwattr $C$DW$T$35, DW_AT_type(*$C$DW$T$34)
    2240                      .dwattr $C$DW$T$35, DW_AT_language(DW_LANG_C)
    2241              
    2242              $C$DW$T$26      .dwtag  DW_TAG_structure_type
    2243                      .dwattr $C$DW$T$26, DW_AT_byte_size(0x48)
    2244              $C$DW$180       .dwtag  DW_TAG_member
    2245                      .dwattr $C$DW$180, DW_AT_type(*$C$DW$T$20)
    2246                      .dwattr $C$DW$180, DW_AT_name("EBSR")
    2247                      .dwattr $C$DW$180, DW_AT_TI_symbol_name("_EBSR")
    2248                      .dwattr $C$DW$180, DW_AT_data_member_location[DW_OP_plus_uconst 0x0]
    2249                      .dwattr $C$DW$180, DW_AT_accessibility(DW_ACCESS_public)
    2250              $C$DW$181       .dwtag  DW_TAG_member
    2251                      .dwattr $C$DW$181, DW_AT_type(*$C$DW$T$20)
    2252                      .dwattr $C$DW$181, DW_AT_name("RSVD0")
    2253                      .dwattr $C$DW$181, DW_AT_TI_symbol_name("_RSVD0")
    2254                      .dwattr $C$DW$181, DW_AT_data_member_location[DW_OP_plus_uconst 0x1]
    2255                      .dwattr $C$DW$181, DW_AT_accessibility(DW_ACCESS_public)
    2256              $C$DW$182       .dwtag  DW_TAG_member
    2257                      .dwattr $C$DW$182, DW_AT_type(*$C$DW$T$20)
    2258                      .dwattr $C$DW$182, DW_AT_name("PCGCR1")
    2259                      .dwattr $C$DW$182, DW_AT_TI_symbol_name("_PCGCR1")
    2260                      .dwattr $C$DW$182, DW_AT_data_member_location[DW_OP_plus_uconst 0x2]
    2261                      .dwattr $C$DW$182, DW_AT_accessibility(DW_ACCESS_public)
    2262              $C$DW$183       .dwtag  DW_TAG_member
    2263                      .dwattr $C$DW$183, DW_AT_type(*$C$DW$T$20)
    2264                      .dwattr $C$DW$183, DW_AT_name("PCGCR2")
    2265                      .dwattr $C$DW$183, DW_AT_TI_symbol_name("_PCGCR2")
    2266                      .dwattr $C$DW$183, DW_AT_data_member_location[DW_OP_plus_uconst 0x3]
    2267                      .dwattr $C$DW$183, DW_AT_accessibility(DW_ACCESS_public)
    2268              $C$DW$184       .dwtag  DW_TAG_member
    2269                      .dwattr $C$DW$184, DW_AT_type(*$C$DW$T$20)
    2270                      .dwattr $C$DW$184, DW_AT_name("PSRCR")
    2271                      .dwattr $C$DW$184, DW_AT_TI_symbol_name("_PSRCR")
    2272                      .dwattr $C$DW$184, DW_AT_data_member_location[DW_OP_plus_uconst 0x4]
    2273                      .dwattr $C$DW$184, DW_AT_accessibility(DW_ACCESS_public)
    2274              $C$DW$185       .dwtag  DW_TAG_member
    2275                      .dwattr $C$DW$185, DW_AT_type(*$C$DW$T$20)
    2276                      .dwattr $C$DW$185, DW_AT_name("PRCR")
    2277                      .dwattr $C$DW$185, DW_AT_TI_symbol_name("_PRCR")
    2278                      .dwattr $C$DW$185, DW_AT_data_member_location[DW_OP_plus_uconst 0x5]
TMS320C55x Assembler PC v4.4.1 Sat Sep 29 23:08:45 2018

Tools Copyright (c) 1996-2012 Texas Instruments Incorporated
csl_uart_intc_example.asm                                            PAGE   61

    2279                      .dwattr $C$DW$185, DW_AT_accessibility(DW_ACCESS_public)
    2280              $C$DW$186       .dwtag  DW_TAG_member
    2281                      .dwattr $C$DW$186, DW_AT_type(*$C$DW$T$24)
    2282                      .dwattr $C$DW$186, DW_AT_name("RSVD1")
    2283                      .dwattr $C$DW$186, DW_AT_TI_symbol_name("_RSVD1")
    2284                      .dwattr $C$DW$186, DW_AT_data_member_location[DW_OP_plus_uconst 0x6]
    2285                      .dwattr $C$DW$186, DW_AT_accessibility(DW_ACCESS_public)
    2286              $C$DW$187       .dwtag  DW_TAG_member
    2287                      .dwattr $C$DW$187, DW_AT_type(*$C$DW$T$20)
    2288                      .dwattr $C$DW$187, DW_AT_name("TIAFR")
    2289                      .dwattr $C$DW$187, DW_AT_TI_symbol_name("_TIAFR")
    2290                      .dwattr $C$DW$187, DW_AT_data_member_location[DW_OP_plus_uconst 0x14]
    2291                      .dwattr $C$DW$187, DW_AT_accessibility(DW_ACCESS_public)
    2292              $C$DW$188       .dwtag  DW_TAG_member
    2293                      .dwattr $C$DW$188, DW_AT_type(*$C$DW$T$20)
    2294                      .dwattr $C$DW$188, DW_AT_name("RSVD2")
    2295                      .dwattr $C$DW$188, DW_AT_TI_symbol_name("_RSVD2")
    2296                      .dwattr $C$DW$188, DW_AT_data_member_location[DW_OP_plus_uconst 0x15]
    2297                      .dwattr $C$DW$188, DW_AT_accessibility(DW_ACCESS_public)
    2298              $C$DW$189       .dwtag  DW_TAG_member
    2299                      .dwattr $C$DW$189, DW_AT_type(*$C$DW$T$20)
    2300                      .dwattr $C$DW$189, DW_AT_name("ODSCR")
    2301                      .dwattr $C$DW$189, DW_AT_TI_symbol_name("_ODSCR")
    2302                      .dwattr $C$DW$189, DW_AT_data_member_location[DW_OP_plus_uconst 0x16]
    2303                      .dwattr $C$DW$189, DW_AT_accessibility(DW_ACCESS_public)
    2304              $C$DW$190       .dwtag  DW_TAG_member
    2305                      .dwattr $C$DW$190, DW_AT_type(*$C$DW$T$20)
    2306                      .dwattr $C$DW$190, DW_AT_name("PDINHIBR1")
    2307                      .dwattr $C$DW$190, DW_AT_TI_symbol_name("_PDINHIBR1")
    2308                      .dwattr $C$DW$190, DW_AT_data_member_location[DW_OP_plus_uconst 0x17]
    2309                      .dwattr $C$DW$190, DW_AT_accessibility(DW_ACCESS_public)
    2310              $C$DW$191       .dwtag  DW_TAG_member
    2311                      .dwattr $C$DW$191, DW_AT_type(*$C$DW$T$20)
    2312                      .dwattr $C$DW$191, DW_AT_name("PDINHIBR2")
    2313                      .dwattr $C$DW$191, DW_AT_TI_symbol_name("_PDINHIBR2")
    2314                      .dwattr $C$DW$191, DW_AT_data_member_location[DW_OP_plus_uconst 0x18]
    2315                      .dwattr $C$DW$191, DW_AT_accessibility(DW_ACCESS_public)
    2316              $C$DW$192       .dwtag  DW_TAG_member
    2317                      .dwattr $C$DW$192, DW_AT_type(*$C$DW$T$20)
    2318                      .dwattr $C$DW$192, DW_AT_name("PDINHIBR3")
    2319                      .dwattr $C$DW$192, DW_AT_TI_symbol_name("_PDINHIBR3")
    2320                      .dwattr $C$DW$192, DW_AT_data_member_location[DW_OP_plus_uconst 0x19]
    2321                      .dwattr $C$DW$192, DW_AT_accessibility(DW_ACCESS_public)
    2322              $C$DW$193       .dwtag  DW_TAG_member
    2323                      .dwattr $C$DW$193, DW_AT_type(*$C$DW$T$20)
    2324                      .dwattr $C$DW$193, DW_AT_name("DMA0CESR1")
    2325                      .dwattr $C$DW$193, DW_AT_TI_symbol_name("_DMA0CESR1")
    2326                      .dwattr $C$DW$193, DW_AT_data_member_location[DW_OP_plus_uconst 0x1a]
    2327                      .dwattr $C$DW$193, DW_AT_accessibility(DW_ACCESS_public)
    2328              $C$DW$194       .dwtag  DW_TAG_member
    2329                      .dwattr $C$DW$194, DW_AT_type(*$C$DW$T$20)
    2330                      .dwattr $C$DW$194, DW_AT_name("DMA0CESR2")
    2331                      .dwattr $C$DW$194, DW_AT_TI_symbol_name("_DMA0CESR2")
    2332                      .dwattr $C$DW$194, DW_AT_data_member_location[DW_OP_plus_uconst 0x1b]
    2333                      .dwattr $C$DW$194, DW_AT_accessibility(DW_ACCESS_public)
TMS320C55x Assembler PC v4.4.1 Sat Sep 29 23:08:45 2018

Tools Copyright (c) 1996-2012 Texas Instruments Incorporated
csl_uart_intc_example.asm                                            PAGE   62

    2334              $C$DW$195       .dwtag  DW_TAG_member
    2335                      .dwattr $C$DW$195, DW_AT_type(*$C$DW$T$20)
    2336                      .dwattr $C$DW$195, DW_AT_name("DMA1CESR1")
    2337                      .dwattr $C$DW$195, DW_AT_TI_symbol_name("_DMA1CESR1")
    2338                      .dwattr $C$DW$195, DW_AT_data_member_location[DW_OP_plus_uconst 0x1c]
    2339                      .dwattr $C$DW$195, DW_AT_accessibility(DW_ACCESS_public)
    2340              $C$DW$196       .dwtag  DW_TAG_member
    2341                      .dwattr $C$DW$196, DW_AT_type(*$C$DW$T$20)
    2342                      .dwattr $C$DW$196, DW_AT_name("DMA1CESR2")
    2343                      .dwattr $C$DW$196, DW_AT_TI_symbol_name("_DMA1CESR2")
    2344                      .dwattr $C$DW$196, DW_AT_data_member_location[DW_OP_plus_uconst 0x1d]
    2345                      .dwattr $C$DW$196, DW_AT_accessibility(DW_ACCESS_public)
    2346              $C$DW$197       .dwtag  DW_TAG_member
    2347                      .dwattr $C$DW$197, DW_AT_type(*$C$DW$T$20)
    2348                      .dwattr $C$DW$197, DW_AT_name("SDRAMCCR")
    2349                      .dwattr $C$DW$197, DW_AT_TI_symbol_name("_SDRAMCCR")
    2350                      .dwattr $C$DW$197, DW_AT_data_member_location[DW_OP_plus_uconst 0x1e]
    2351                      .dwattr $C$DW$197, DW_AT_accessibility(DW_ACCESS_public)
    2352              $C$DW$198       .dwtag  DW_TAG_member
    2353                      .dwattr $C$DW$198, DW_AT_type(*$C$DW$T$20)
    2354                      .dwattr $C$DW$198, DW_AT_name("CCR2")
    2355                      .dwattr $C$DW$198, DW_AT_TI_symbol_name("_CCR2")
    2356                      .dwattr $C$DW$198, DW_AT_data_member_location[DW_OP_plus_uconst 0x1f]
    2357                      .dwattr $C$DW$198, DW_AT_accessibility(DW_ACCESS_public)
    2358              $C$DW$199       .dwtag  DW_TAG_member
    2359                      .dwattr $C$DW$199, DW_AT_type(*$C$DW$T$20)
    2360                      .dwattr $C$DW$199, DW_AT_name("CGCR1")
    2361                      .dwattr $C$DW$199, DW_AT_TI_symbol_name("_CGCR1")
    2362                      .dwattr $C$DW$199, DW_AT_data_member_location[DW_OP_plus_uconst 0x20]
    2363                      .dwattr $C$DW$199, DW_AT_accessibility(DW_ACCESS_public)
    2364              $C$DW$200       .dwtag  DW_TAG_member
    2365                      .dwattr $C$DW$200, DW_AT_type(*$C$DW$T$20)
    2366                      .dwattr $C$DW$200, DW_AT_name("CGICR")
    2367                      .dwattr $C$DW$200, DW_AT_TI_symbol_name("_CGICR")
    2368                      .dwattr $C$DW$200, DW_AT_data_member_location[DW_OP_plus_uconst 0x21]
    2369                      .dwattr $C$DW$200, DW_AT_accessibility(DW_ACCESS_public)
    2370              $C$DW$201       .dwtag  DW_TAG_member
    2371                      .dwattr $C$DW$201, DW_AT_type(*$C$DW$T$20)
    2372                      .dwattr $C$DW$201, DW_AT_name("CGCR2")
    2373                      .dwattr $C$DW$201, DW_AT_TI_symbol_name("_CGCR2")
    2374                      .dwattr $C$DW$201, DW_AT_data_member_location[DW_OP_plus_uconst 0x22]
    2375                      .dwattr $C$DW$201, DW_AT_accessibility(DW_ACCESS_public)
    2376              $C$DW$202       .dwtag  DW_TAG_member
    2377                      .dwattr $C$DW$202, DW_AT_type(*$C$DW$T$20)
    2378                      .dwattr $C$DW$202, DW_AT_name("CGOCR")
    2379                      .dwattr $C$DW$202, DW_AT_TI_symbol_name("_CGOCR")
    2380                      .dwattr $C$DW$202, DW_AT_data_member_location[DW_OP_plus_uconst 0x23]
    2381                      .dwattr $C$DW$202, DW_AT_accessibility(DW_ACCESS_public)
    2382              $C$DW$203       .dwtag  DW_TAG_member
    2383                      .dwattr $C$DW$203, DW_AT_type(*$C$DW$T$20)
    2384                      .dwattr $C$DW$203, DW_AT_name("CCSSR")
    2385                      .dwattr $C$DW$203, DW_AT_TI_symbol_name("_CCSSR")
    2386                      .dwattr $C$DW$203, DW_AT_data_member_location[DW_OP_plus_uconst 0x24]
    2387                      .dwattr $C$DW$203, DW_AT_accessibility(DW_ACCESS_public)
    2388              $C$DW$204       .dwtag  DW_TAG_member
TMS320C55x Assembler PC v4.4.1 Sat Sep 29 23:08:45 2018

Tools Copyright (c) 1996-2012 Texas Instruments Incorporated
csl_uart_intc_example.asm                                            PAGE   63

    2389                      .dwattr $C$DW$204, DW_AT_type(*$C$DW$T$20)
    2390                      .dwattr $C$DW$204, DW_AT_name("RSVD3")
    2391                      .dwattr $C$DW$204, DW_AT_TI_symbol_name("_RSVD3")
    2392                      .dwattr $C$DW$204, DW_AT_data_member_location[DW_OP_plus_uconst 0x25]
    2393                      .dwattr $C$DW$204, DW_AT_accessibility(DW_ACCESS_public)
    2394              $C$DW$205       .dwtag  DW_TAG_member
    2395                      .dwattr $C$DW$205, DW_AT_type(*$C$DW$T$20)
    2396                      .dwattr $C$DW$205, DW_AT_name("ECDR")
    2397                      .dwattr $C$DW$205, DW_AT_TI_symbol_name("_ECDR")
    2398                      .dwattr $C$DW$205, DW_AT_data_member_location[DW_OP_plus_uconst 0x26]
    2399                      .dwattr $C$DW$205, DW_AT_accessibility(DW_ACCESS_public)
    2400              $C$DW$206       .dwtag  DW_TAG_member
    2401                      .dwattr $C$DW$206, DW_AT_type(*$C$DW$T$20)
    2402                      .dwattr $C$DW$206, DW_AT_name("RSVD4")
    2403                      .dwattr $C$DW$206, DW_AT_TI_symbol_name("_RSVD4")
    2404                      .dwattr $C$DW$206, DW_AT_data_member_location[DW_OP_plus_uconst 0x27]
    2405                      .dwattr $C$DW$206, DW_AT_accessibility(DW_ACCESS_public)
    2406              $C$DW$207       .dwtag  DW_TAG_member
    2407                      .dwattr $C$DW$207, DW_AT_type(*$C$DW$T$20)
    2408                      .dwattr $C$DW$207, DW_AT_name("RAMSLPMDCNTLR1")
    2409                      .dwattr $C$DW$207, DW_AT_TI_symbol_name("_RAMSLPMDCNTLR1")
    2410                      .dwattr $C$DW$207, DW_AT_data_member_location[DW_OP_plus_uconst 0x28]
    2411                      .dwattr $C$DW$207, DW_AT_accessibility(DW_ACCESS_public)
    2412              $C$DW$208       .dwtag  DW_TAG_member
    2413                      .dwattr $C$DW$208, DW_AT_type(*$C$DW$T$20)
    2414                      .dwattr $C$DW$208, DW_AT_name("RSVD5")
    2415                      .dwattr $C$DW$208, DW_AT_TI_symbol_name("_RSVD5")
    2416                      .dwattr $C$DW$208, DW_AT_data_member_location[DW_OP_plus_uconst 0x29]
    2417                      .dwattr $C$DW$208, DW_AT_accessibility(DW_ACCESS_public)
    2418              $C$DW$209       .dwtag  DW_TAG_member
    2419                      .dwattr $C$DW$209, DW_AT_type(*$C$DW$T$20)
    2420                      .dwattr $C$DW$209, DW_AT_name("RAMSLPMDCNTLR2")
    2421                      .dwattr $C$DW$209, DW_AT_TI_symbol_name("_RAMSLPMDCNTLR2")
    2422                      .dwattr $C$DW$209, DW_AT_data_member_location[DW_OP_plus_uconst 0x2a]
    2423                      .dwattr $C$DW$209, DW_AT_accessibility(DW_ACCESS_public)
    2424              $C$DW$210       .dwtag  DW_TAG_member
    2425                      .dwattr $C$DW$210, DW_AT_type(*$C$DW$T$20)
    2426                      .dwattr $C$DW$210, DW_AT_name("RAMSLPMDCNTLR3")
    2427                      .dwattr $C$DW$210, DW_AT_TI_symbol_name("_RAMSLPMDCNTLR3")
    2428                      .dwattr $C$DW$210, DW_AT_data_member_location[DW_OP_plus_uconst 0x2b]
    2429                      .dwattr $C$DW$210, DW_AT_accessibility(DW_ACCESS_public)
    2430              $C$DW$211       .dwtag  DW_TAG_member
    2431                      .dwattr $C$DW$211, DW_AT_type(*$C$DW$T$20)
    2432                      .dwattr $C$DW$211, DW_AT_name("RAMSLPMDCNTLR4")
    2433                      .dwattr $C$DW$211, DW_AT_TI_symbol_name("_RAMSLPMDCNTLR4")
    2434                      .dwattr $C$DW$211, DW_AT_data_member_location[DW_OP_plus_uconst 0x2c]
    2435                      .dwattr $C$DW$211, DW_AT_accessibility(DW_ACCESS_public)
    2436              $C$DW$212       .dwtag  DW_TAG_member
    2437                      .dwattr $C$DW$212, DW_AT_type(*$C$DW$T$20)
    2438                      .dwattr $C$DW$212, DW_AT_name("RAMSLPMDCNTLR5")
    2439                      .dwattr $C$DW$212, DW_AT_TI_symbol_name("_RAMSLPMDCNTLR5")
    2440                      .dwattr $C$DW$212, DW_AT_data_member_location[DW_OP_plus_uconst 0x2d]
    2441                      .dwattr $C$DW$212, DW_AT_accessibility(DW_ACCESS_public)
    2442              $C$DW$213       .dwtag  DW_TAG_member
    2443                      .dwattr $C$DW$213, DW_AT_type(*$C$DW$T$25)
TMS320C55x Assembler PC v4.4.1 Sat Sep 29 23:08:45 2018

Tools Copyright (c) 1996-2012 Texas Instruments Incorporated
csl_uart_intc_example.asm                                            PAGE   64

    2444                      .dwattr $C$DW$213, DW_AT_name("RSVD6")
    2445                      .dwattr $C$DW$213, DW_AT_TI_symbol_name("_RSVD6")
    2446                      .dwattr $C$DW$213, DW_AT_data_member_location[DW_OP_plus_uconst 0x2e]
    2447                      .dwattr $C$DW$213, DW_AT_accessibility(DW_ACCESS_public)
    2448              $C$DW$214       .dwtag  DW_TAG_member
    2449                      .dwattr $C$DW$214, DW_AT_type(*$C$DW$T$20)
    2450                      .dwattr $C$DW$214, DW_AT_name("DMAIFR")
    2451                      .dwattr $C$DW$214, DW_AT_TI_symbol_name("_DMAIFR")
    2452                      .dwattr $C$DW$214, DW_AT_data_member_location[DW_OP_plus_uconst 0x30]
    2453                      .dwattr $C$DW$214, DW_AT_accessibility(DW_ACCESS_public)
    2454              $C$DW$215       .dwtag  DW_TAG_member
    2455                      .dwattr $C$DW$215, DW_AT_type(*$C$DW$T$20)
    2456                      .dwattr $C$DW$215, DW_AT_name("DMAIER")
    2457                      .dwattr $C$DW$215, DW_AT_TI_symbol_name("_DMAIER")
    2458                      .dwattr $C$DW$215, DW_AT_data_member_location[DW_OP_plus_uconst 0x31]
    2459                      .dwattr $C$DW$215, DW_AT_accessibility(DW_ACCESS_public)
    2460              $C$DW$216       .dwtag  DW_TAG_member
    2461                      .dwattr $C$DW$216, DW_AT_type(*$C$DW$T$20)
    2462                      .dwattr $C$DW$216, DW_AT_name("USBSCR")
    2463                      .dwattr $C$DW$216, DW_AT_TI_symbol_name("_USBSCR")
    2464                      .dwattr $C$DW$216, DW_AT_data_member_location[DW_OP_plus_uconst 0x32]
    2465                      .dwattr $C$DW$216, DW_AT_accessibility(DW_ACCESS_public)
    2466              $C$DW$217       .dwtag  DW_TAG_member
    2467                      .dwattr $C$DW$217, DW_AT_type(*$C$DW$T$20)
    2468                      .dwattr $C$DW$217, DW_AT_name("ESCR")
    2469                      .dwattr $C$DW$217, DW_AT_TI_symbol_name("_ESCR")
    2470                      .dwattr $C$DW$217, DW_AT_data_member_location[DW_OP_plus_uconst 0x33]
    2471                      .dwattr $C$DW$217, DW_AT_accessibility(DW_ACCESS_public)
    2472              $C$DW$218       .dwtag  DW_TAG_member
    2473                      .dwattr $C$DW$218, DW_AT_type(*$C$DW$T$25)
    2474                      .dwattr $C$DW$218, DW_AT_name("RSVD7")
    2475                      .dwattr $C$DW$218, DW_AT_TI_symbol_name("_RSVD7")
    2476                      .dwattr $C$DW$218, DW_AT_data_member_location[DW_OP_plus_uconst 0x34]
    2477                      .dwattr $C$DW$218, DW_AT_accessibility(DW_ACCESS_public)
    2478              $C$DW$219       .dwtag  DW_TAG_member
    2479                      .dwattr $C$DW$219, DW_AT_type(*$C$DW$T$20)
    2480                      .dwattr $C$DW$219, DW_AT_name("DMA2CESR1")
    2481                      .dwattr $C$DW$219, DW_AT_TI_symbol_name("_DMA2CESR1")
    2482                      .dwattr $C$DW$219, DW_AT_data_member_location[DW_OP_plus_uconst 0x36]
    2483                      .dwattr $C$DW$219, DW_AT_accessibility(DW_ACCESS_public)
    2484              $C$DW$220       .dwtag  DW_TAG_member
    2485                      .dwattr $C$DW$220, DW_AT_type(*$C$DW$T$20)
    2486                      .dwattr $C$DW$220, DW_AT_name("DMA2CESR2")
    2487                      .dwattr $C$DW$220, DW_AT_TI_symbol_name("_DMA2CESR2")
    2488                      .dwattr $C$DW$220, DW_AT_data_member_location[DW_OP_plus_uconst 0x37]
    2489                      .dwattr $C$DW$220, DW_AT_accessibility(DW_ACCESS_public)
    2490              $C$DW$221       .dwtag  DW_TAG_member
    2491                      .dwattr $C$DW$221, DW_AT_type(*$C$DW$T$20)
    2492                      .dwattr $C$DW$221, DW_AT_name("DMA3CESR1")
    2493                      .dwattr $C$DW$221, DW_AT_TI_symbol_name("_DMA3CESR1")
    2494                      .dwattr $C$DW$221, DW_AT_data_member_location[DW_OP_plus_uconst 0x38]
    2495                      .dwattr $C$DW$221, DW_AT_accessibility(DW_ACCESS_public)
    2496              $C$DW$222       .dwtag  DW_TAG_member
    2497                      .dwattr $C$DW$222, DW_AT_type(*$C$DW$T$20)
    2498                      .dwattr $C$DW$222, DW_AT_name("DMA3CESR2")
TMS320C55x Assembler PC v4.4.1 Sat Sep 29 23:08:45 2018

Tools Copyright (c) 1996-2012 Texas Instruments Incorporated
csl_uart_intc_example.asm                                            PAGE   65

    2499                      .dwattr $C$DW$222, DW_AT_TI_symbol_name("_DMA3CESR2")
    2500                      .dwattr $C$DW$222, DW_AT_data_member_location[DW_OP_plus_uconst 0x39]
    2501                      .dwattr $C$DW$222, DW_AT_accessibility(DW_ACCESS_public)
    2502              $C$DW$223       .dwtag  DW_TAG_member
    2503                      .dwattr $C$DW$223, DW_AT_type(*$C$DW$T$20)
    2504                      .dwattr $C$DW$223, DW_AT_name("CLKSTOP")
    2505                      .dwattr $C$DW$223, DW_AT_TI_symbol_name("_CLKSTOP")
    2506                      .dwattr $C$DW$223, DW_AT_data_member_location[DW_OP_plus_uconst 0x3a]
    2507                      .dwattr $C$DW$223, DW_AT_accessibility(DW_ACCESS_public)
    2508              $C$DW$224       .dwtag  DW_TAG_member
    2509                      .dwattr $C$DW$224, DW_AT_type(*$C$DW$T$22)
    2510                      .dwattr $C$DW$224, DW_AT_name("RSVD8")
    2511                      .dwattr $C$DW$224, DW_AT_TI_symbol_name("_RSVD8")
    2512                      .dwattr $C$DW$224, DW_AT_data_member_location[DW_OP_plus_uconst 0x3b]
    2513                      .dwattr $C$DW$224, DW_AT_accessibility(DW_ACCESS_public)
    2514              $C$DW$225       .dwtag  DW_TAG_member
    2515                      .dwattr $C$DW$225, DW_AT_type(*$C$DW$T$20)
    2516                      .dwattr $C$DW$225, DW_AT_name("DIEIDR0")
    2517                      .dwattr $C$DW$225, DW_AT_TI_symbol_name("_DIEIDR0")
    2518                      .dwattr $C$DW$225, DW_AT_data_member_location[DW_OP_plus_uconst 0x40]
    2519                      .dwattr $C$DW$225, DW_AT_accessibility(DW_ACCESS_public)
    2520              $C$DW$226       .dwtag  DW_TAG_member
    2521                      .dwattr $C$DW$226, DW_AT_type(*$C$DW$T$20)
    2522                      .dwattr $C$DW$226, DW_AT_name("DIEIDR1")
    2523                      .dwattr $C$DW$226, DW_AT_TI_symbol_name("_DIEIDR1")
    2524                      .dwattr $C$DW$226, DW_AT_data_member_location[DW_OP_plus_uconst 0x41]
    2525                      .dwattr $C$DW$226, DW_AT_accessibility(DW_ACCESS_public)
    2526              $C$DW$227       .dwtag  DW_TAG_member
    2527                      .dwattr $C$DW$227, DW_AT_type(*$C$DW$T$20)
    2528                      .dwattr $C$DW$227, DW_AT_name("DIEIDR2")
    2529                      .dwattr $C$DW$227, DW_AT_TI_symbol_name("_DIEIDR2")
    2530                      .dwattr $C$DW$227, DW_AT_data_member_location[DW_OP_plus_uconst 0x42]
    2531                      .dwattr $C$DW$227, DW_AT_accessibility(DW_ACCESS_public)
    2532              $C$DW$228       .dwtag  DW_TAG_member
    2533                      .dwattr $C$DW$228, DW_AT_type(*$C$DW$T$20)
    2534                      .dwattr $C$DW$228, DW_AT_name("DIEIDR3")
    2535                      .dwattr $C$DW$228, DW_AT_TI_symbol_name("_DIEIDR3")
    2536                      .dwattr $C$DW$228, DW_AT_data_member_location[DW_OP_plus_uconst 0x43]
    2537                      .dwattr $C$DW$228, DW_AT_accessibility(DW_ACCESS_public)
    2538              $C$DW$229       .dwtag  DW_TAG_member
    2539                      .dwattr $C$DW$229, DW_AT_type(*$C$DW$T$20)
    2540                      .dwattr $C$DW$229, DW_AT_name("DIEIDR4")
    2541                      .dwattr $C$DW$229, DW_AT_TI_symbol_name("_DIEIDR4")
    2542                      .dwattr $C$DW$229, DW_AT_data_member_location[DW_OP_plus_uconst 0x44]
    2543                      .dwattr $C$DW$229, DW_AT_accessibility(DW_ACCESS_public)
    2544              $C$DW$230       .dwtag  DW_TAG_member
    2545                      .dwattr $C$DW$230, DW_AT_type(*$C$DW$T$20)
    2546                      .dwattr $C$DW$230, DW_AT_name("DIEIDR5")
    2547                      .dwattr $C$DW$230, DW_AT_TI_symbol_name("_DIEIDR5")
    2548                      .dwattr $C$DW$230, DW_AT_data_member_location[DW_OP_plus_uconst 0x45]
    2549                      .dwattr $C$DW$230, DW_AT_accessibility(DW_ACCESS_public)
    2550              $C$DW$231       .dwtag  DW_TAG_member
    2551                      .dwattr $C$DW$231, DW_AT_type(*$C$DW$T$20)
    2552                      .dwattr $C$DW$231, DW_AT_name("DIEIDR6")
    2553                      .dwattr $C$DW$231, DW_AT_TI_symbol_name("_DIEIDR6")
TMS320C55x Assembler PC v4.4.1 Sat Sep 29 23:08:45 2018

Tools Copyright (c) 1996-2012 Texas Instruments Incorporated
csl_uart_intc_example.asm                                            PAGE   66

    2554                      .dwattr $C$DW$231, DW_AT_data_member_location[DW_OP_plus_uconst 0x46]
    2555                      .dwattr $C$DW$231, DW_AT_accessibility(DW_ACCESS_public)
    2556              $C$DW$232       .dwtag  DW_TAG_member
    2557                      .dwattr $C$DW$232, DW_AT_type(*$C$DW$T$20)
    2558                      .dwattr $C$DW$232, DW_AT_name("DIEIDR7")
    2559                      .dwattr $C$DW$232, DW_AT_TI_symbol_name("_DIEIDR7")
    2560                      .dwattr $C$DW$232, DW_AT_data_member_location[DW_OP_plus_uconst 0x47]
    2561                      .dwattr $C$DW$232, DW_AT_accessibility(DW_ACCESS_public)
    2562                      .dwendtag $C$DW$T$26
    2563              
    2564              $C$DW$T$36      .dwtag  DW_TAG_typedef, DW_AT_name("CSL_SysRegs")
    2565                      .dwattr $C$DW$T$36, DW_AT_type(*$C$DW$T$26)
    2566                      .dwattr $C$DW$T$36, DW_AT_language(DW_LANG_C)
    2567              $C$DW$233       .dwtag  DW_TAG_TI_far_type
    2568                      .dwattr $C$DW$233, DW_AT_type(*$C$DW$T$36)
    2569              $C$DW$234       .dwtag  DW_TAG_TI_ioport_type
    2570                      .dwattr $C$DW$234, DW_AT_type(*$C$DW$233)
    2571              $C$DW$T$37      .dwtag  DW_TAG_volatile_type
    2572                      .dwattr $C$DW$T$37, DW_AT_type(*$C$DW$234)
    2573              $C$DW$T$38      .dwtag  DW_TAG_pointer_type
    2574                      .dwattr $C$DW$T$38, DW_AT_type(*$C$DW$T$37)
    2575                      .dwattr $C$DW$T$38, DW_AT_address_class(0x10)
    2576              $C$DW$T$39      .dwtag  DW_TAG_typedef, DW_AT_name("CSL_SysRegsOvly")
    2577                      .dwattr $C$DW$T$39, DW_AT_type(*$C$DW$T$38)
    2578                      .dwattr $C$DW$T$39, DW_AT_language(DW_LANG_C)
    2579              
    2580              $C$DW$T$28      .dwtag  DW_TAG_structure_type
    2581                      .dwattr $C$DW$T$28, DW_AT_byte_size(0x0c)
    2582              $C$DW$235       .dwtag  DW_TAG_member
    2583                      .dwattr $C$DW$235, DW_AT_type(*$C$DW$T$27)
    2584                      .dwattr $C$DW$235, DW_AT_name("clkInput")
    2585                      .dwattr $C$DW$235, DW_AT_TI_symbol_name("_clkInput")
    2586                      .dwattr $C$DW$235, DW_AT_data_member_location[DW_OP_plus_uconst 0x0]
    2587                      .dwattr $C$DW$235, DW_AT_accessibility(DW_ACCESS_public)
    2588              $C$DW$236       .dwtag  DW_TAG_member
    2589                      .dwattr $C$DW$236, DW_AT_type(*$C$DW$T$27)
    2590                      .dwattr $C$DW$236, DW_AT_name("baud")
    2591                      .dwattr $C$DW$236, DW_AT_TI_symbol_name("_baud")
    2592                      .dwattr $C$DW$236, DW_AT_data_member_location[DW_OP_plus_uconst 0x2]
    2593                      .dwattr $C$DW$236, DW_AT_accessibility(DW_ACCESS_public)
    2594              $C$DW$237       .dwtag  DW_TAG_member
    2595                      .dwattr $C$DW$237, DW_AT_type(*$C$DW$T$19)
    2596                      .dwattr $C$DW$237, DW_AT_name("wordLength")
    2597                      .dwattr $C$DW$237, DW_AT_TI_symbol_name("_wordLength")
    2598                      .dwattr $C$DW$237, DW_AT_data_member_location[DW_OP_plus_uconst 0x4]
    2599                      .dwattr $C$DW$237, DW_AT_accessibility(DW_ACCESS_public)
    2600              $C$DW$238       .dwtag  DW_TAG_member
    2601                      .dwattr $C$DW$238, DW_AT_type(*$C$DW$T$19)
    2602                      .dwattr $C$DW$238, DW_AT_name("stopBits")
    2603                      .dwattr $C$DW$238, DW_AT_TI_symbol_name("_stopBits")
    2604                      .dwattr $C$DW$238, DW_AT_data_member_location[DW_OP_plus_uconst 0x5]
    2605                      .dwattr $C$DW$238, DW_AT_accessibility(DW_ACCESS_public)
    2606              $C$DW$239       .dwtag  DW_TAG_member
    2607                      .dwattr $C$DW$239, DW_AT_type(*$C$DW$T$19)
    2608                      .dwattr $C$DW$239, DW_AT_name("parity")
TMS320C55x Assembler PC v4.4.1 Sat Sep 29 23:08:45 2018

Tools Copyright (c) 1996-2012 Texas Instruments Incorporated
csl_uart_intc_example.asm                                            PAGE   67

    2609                      .dwattr $C$DW$239, DW_AT_TI_symbol_name("_parity")
    2610                      .dwattr $C$DW$239, DW_AT_data_member_location[DW_OP_plus_uconst 0x6]
    2611                      .dwattr $C$DW$239, DW_AT_accessibility(DW_ACCESS_public)
    2612              $C$DW$240       .dwtag  DW_TAG_member
    2613                      .dwattr $C$DW$240, DW_AT_type(*$C$DW$T$19)
    2614                      .dwattr $C$DW$240, DW_AT_name("fifoControl")
    2615                      .dwattr $C$DW$240, DW_AT_TI_symbol_name("_fifoControl")
    2616                      .dwattr $C$DW$240, DW_AT_data_member_location[DW_OP_plus_uconst 0x7]
    2617                      .dwattr $C$DW$240, DW_AT_accessibility(DW_ACCESS_public)
    2618              $C$DW$241       .dwtag  DW_TAG_member
    2619                      .dwattr $C$DW$241, DW_AT_type(*$C$DW$T$19)
    2620                      .dwattr $C$DW$241, DW_AT_name("loopBackEnable")
    2621                      .dwattr $C$DW$241, DW_AT_TI_symbol_name("_loopBackEnable")
    2622                      .dwattr $C$DW$241, DW_AT_data_member_location[DW_OP_plus_uconst 0x8]
    2623                      .dwattr $C$DW$241, DW_AT_accessibility(DW_ACCESS_public)
    2624              $C$DW$242       .dwtag  DW_TAG_member
    2625                      .dwattr $C$DW$242, DW_AT_type(*$C$DW$T$19)
    2626                      .dwattr $C$DW$242, DW_AT_name("afeEnable")
    2627                      .dwattr $C$DW$242, DW_AT_TI_symbol_name("_afeEnable")
    2628                      .dwattr $C$DW$242, DW_AT_data_member_location[DW_OP_plus_uconst 0x9]
    2629                      .dwattr $C$DW$242, DW_AT_accessibility(DW_ACCESS_public)
    2630              $C$DW$243       .dwtag  DW_TAG_member
    2631                      .dwattr $C$DW$243, DW_AT_type(*$C$DW$T$19)
    2632                      .dwattr $C$DW$243, DW_AT_name("rtsEnable")
    2633                      .dwattr $C$DW$243, DW_AT_TI_symbol_name("_rtsEnable")
    2634                      .dwattr $C$DW$243, DW_AT_data_member_location[DW_OP_plus_uconst 0xa]
    2635                      .dwattr $C$DW$243, DW_AT_accessibility(DW_ACCESS_public)
    2636                      .dwendtag $C$DW$T$28
    2637              
    2638              $C$DW$T$44      .dwtag  DW_TAG_typedef, DW_AT_name("CSL_UartSetup")
    2639                      .dwattr $C$DW$T$44, DW_AT_type(*$C$DW$T$28)
    2640                      .dwattr $C$DW$T$44, DW_AT_language(DW_LANG_C)
    2641              $C$DW$T$45      .dwtag  DW_TAG_pointer_type
    2642                      .dwattr $C$DW$T$45, DW_AT_type(*$C$DW$T$44)
    2643                      .dwattr $C$DW$T$45, DW_AT_address_class(0x17)
    2644              
    2645              $C$DW$T$31      .dwtag  DW_TAG_structure_type
    2646                      .dwattr $C$DW$T$31, DW_AT_byte_size(0x08)
    2647              $C$DW$244       .dwtag  DW_TAG_member
    2648                      .dwattr $C$DW$244, DW_AT_type(*$C$DW$T$30)
    2649                      .dwattr $C$DW$244, DW_AT_name("lsiAddr")
    2650                      .dwattr $C$DW$244, DW_AT_TI_symbol_name("_lsiAddr")
    2651                      .dwattr $C$DW$244, DW_AT_data_member_location[DW_OP_plus_uconst 0x0]
    2652                      .dwattr $C$DW$244, DW_AT_accessibility(DW_ACCESS_public)
    2653              $C$DW$245       .dwtag  DW_TAG_member
    2654                      .dwattr $C$DW$245, DW_AT_type(*$C$DW$T$30)
    2655                      .dwattr $C$DW$245, DW_AT_name("rbiAddr")
    2656                      .dwattr $C$DW$245, DW_AT_TI_symbol_name("_rbiAddr")
    2657                      .dwattr $C$DW$245, DW_AT_data_member_location[DW_OP_plus_uconst 0x2]
    2658                      .dwattr $C$DW$245, DW_AT_accessibility(DW_ACCESS_public)
    2659              $C$DW$246       .dwtag  DW_TAG_member
    2660                      .dwattr $C$DW$246, DW_AT_type(*$C$DW$T$30)
    2661                      .dwattr $C$DW$246, DW_AT_name("tbeiAddr")
    2662                      .dwattr $C$DW$246, DW_AT_TI_symbol_name("_tbeiAddr")
    2663                      .dwattr $C$DW$246, DW_AT_data_member_location[DW_OP_plus_uconst 0x4]
TMS320C55x Assembler PC v4.4.1 Sat Sep 29 23:08:45 2018

Tools Copyright (c) 1996-2012 Texas Instruments Incorporated
csl_uart_intc_example.asm                                            PAGE   68

    2664                      .dwattr $C$DW$246, DW_AT_accessibility(DW_ACCESS_public)
    2665              $C$DW$247       .dwtag  DW_TAG_member
    2666                      .dwattr $C$DW$247, DW_AT_type(*$C$DW$T$30)
    2667                      .dwattr $C$DW$247, DW_AT_name("ctoi")
    2668                      .dwattr $C$DW$247, DW_AT_TI_symbol_name("_ctoi")
    2669                      .dwattr $C$DW$247, DW_AT_data_member_location[DW_OP_plus_uconst 0x6]
    2670                      .dwattr $C$DW$247, DW_AT_accessibility(DW_ACCESS_public)
    2671                      .dwendtag $C$DW$T$31
    2672              
    2673              $C$DW$T$46      .dwtag  DW_TAG_typedef, DW_AT_name("CSL_UartIsrAddr")
    2674                      .dwattr $C$DW$T$46, DW_AT_type(*$C$DW$T$31)
    2675                      .dwattr $C$DW$T$46, DW_AT_language(DW_LANG_C)
    2676              $C$DW$T$47      .dwtag  DW_TAG_pointer_type
    2677                      .dwattr $C$DW$T$47, DW_AT_type(*$C$DW$T$46)
    2678                      .dwattr $C$DW$T$47, DW_AT_address_class(0x17)
    2679              
    2680              $C$DW$T$48      .dwtag  DW_TAG_enumeration_type
    2681                      .dwattr $C$DW$T$48, DW_AT_name("CSL_UartEventType")
    2682                      .dwattr $C$DW$T$48, DW_AT_byte_size(0x01)
    2683              $C$DW$248       .dwtag  DW_TAG_enumerator, DW_AT_name("CSL_UART_RECVOR_REG_DATA_INTERRUPT"), DW_AT_const_valu
    2684              $C$DW$249       .dwtag  DW_TAG_enumerator, DW_AT_name("CSL_UART_XMITOR_REG_EMPTY_INTERRUPT"), DW_AT_const_val
    2685              $C$DW$250       .dwtag  DW_TAG_enumerator, DW_AT_name("CSL_UART_RECVOR_LINE_STATUS_INTERRUPT"), DW_AT_const_v
    2686                      .dwendtag $C$DW$T$48
    2687              
    2688              $C$DW$T$49      .dwtag  DW_TAG_typedef, DW_AT_name("CSL_UartEventType")
    2689                      .dwattr $C$DW$T$49, DW_AT_type(*$C$DW$T$48)
    2690                      .dwattr $C$DW$T$49, DW_AT_language(DW_LANG_C)
    2691              
    2692              $C$DW$T$43      .dwtag  DW_TAG_structure_type
    2693                      .dwattr $C$DW$T$43, DW_AT_name("CSL_UartObj")
    2694                      .dwattr $C$DW$T$43, DW_AT_byte_size(0x14)
    2695              $C$DW$251       .dwtag  DW_TAG_member
    2696                      .dwattr $C$DW$251, DW_AT_type(*$C$DW$T$19)
    2697                      .dwattr $C$DW$251, DW_AT_name("insId")
    2698                      .dwattr $C$DW$251, DW_AT_TI_symbol_name("_insId")
    2699                      .dwattr $C$DW$251, DW_AT_data_member_location[DW_OP_plus_uconst 0x0]
    2700                      .dwattr $C$DW$251, DW_AT_accessibility(DW_ACCESS_public)
    2701              $C$DW$252       .dwtag  DW_TAG_member
    2702                      .dwattr $C$DW$252, DW_AT_type(*$C$DW$T$35)
    2703                      .dwattr $C$DW$252, DW_AT_name("uartRegs")
    2704                      .dwattr $C$DW$252, DW_AT_TI_symbol_name("_uartRegs")
    2705                      .dwattr $C$DW$252, DW_AT_data_member_location[DW_OP_plus_uconst 0x1]
    2706                      .dwattr $C$DW$252, DW_AT_accessibility(DW_ACCESS_public)
    2707              $C$DW$253       .dwtag  DW_TAG_member
    2708                      .dwattr $C$DW$253, DW_AT_type(*$C$DW$T$39)
    2709                      .dwattr $C$DW$253, DW_AT_name("sysAddr")
    2710                      .dwattr $C$DW$253, DW_AT_TI_symbol_name("_sysAddr")
    2711                      .dwattr $C$DW$253, DW_AT_data_member_location[DW_OP_plus_uconst 0x2]
    2712                      .dwattr $C$DW$253, DW_AT_accessibility(DW_ACCESS_public)
    2713              $C$DW$254       .dwtag  DW_TAG_member
    2714                      .dwattr $C$DW$254, DW_AT_type(*$C$DW$T$41)
    2715                      .dwattr $C$DW$254, DW_AT_name("opmode")
    2716                      .dwattr $C$DW$254, DW_AT_TI_symbol_name("_opmode")
    2717                      .dwattr $C$DW$254, DW_AT_data_member_location[DW_OP_plus_uconst 0x3]
    2718                      .dwattr $C$DW$254, DW_AT_accessibility(DW_ACCESS_public)
TMS320C55x Assembler PC v4.4.1 Sat Sep 29 23:08:45 2018

Tools Copyright (c) 1996-2012 Texas Instruments Incorporated
csl_uart_intc_example.asm                                            PAGE   69

    2719              $C$DW$255       .dwtag  DW_TAG_member
    2720                      .dwattr $C$DW$255, DW_AT_type(*$C$DW$T$19)
    2721                      .dwattr $C$DW$255, DW_AT_name("trigLevel")
    2722                      .dwattr $C$DW$255, DW_AT_TI_symbol_name("_trigLevel")
    2723                      .dwattr $C$DW$255, DW_AT_data_member_location[DW_OP_plus_uconst 0x4]
    2724                      .dwattr $C$DW$255, DW_AT_accessibility(DW_ACCESS_public)
    2725              $C$DW$256       .dwtag  DW_TAG_member
    2726                      .dwattr $C$DW$256, DW_AT_type(*$C$DW$T$42)
    2727                      .dwattr $C$DW$256, DW_AT_name("UART_isrDispatchTable")
    2728                      .dwattr $C$DW$256, DW_AT_TI_symbol_name("_UART_isrDispatchTable")
    2729                      .dwattr $C$DW$256, DW_AT_data_member_location[DW_OP_plus_uconst 0x6]
    2730                      .dwattr $C$DW$256, DW_AT_accessibility(DW_ACCESS_public)
    2731                      .dwendtag $C$DW$T$43
    2732              
    2733              $C$DW$T$50      .dwtag  DW_TAG_typedef, DW_AT_name("CSL_UartObj")
    2734                      .dwattr $C$DW$T$50, DW_AT_type(*$C$DW$T$43)
    2735                      .dwattr $C$DW$T$50, DW_AT_language(DW_LANG_C)
    2736              $C$DW$T$51      .dwtag  DW_TAG_pointer_type
    2737                      .dwattr $C$DW$T$51, DW_AT_type(*$C$DW$T$50)
    2738                      .dwattr $C$DW$T$51, DW_AT_address_class(0x17)
    2739              $C$DW$T$52      .dwtag  DW_TAG_typedef, DW_AT_name("CSL_UartHandle")
    2740                      .dwattr $C$DW$T$52, DW_AT_type(*$C$DW$T$51)
    2741                      .dwattr $C$DW$T$52, DW_AT_language(DW_LANG_C)
    2742              
    2743              $C$DW$T$29      .dwtag  DW_TAG_subroutine_type
    2744                      .dwattr $C$DW$T$29, DW_AT_language(DW_LANG_C)
    2745              $C$DW$T$30      .dwtag  DW_TAG_pointer_type
    2746                      .dwattr $C$DW$T$30, DW_AT_type(*$C$DW$T$29)
    2747                      .dwattr $C$DW$T$30, DW_AT_address_class(0x20)
    2748              $C$DW$T$53      .dwtag  DW_TAG_typedef, DW_AT_name("IRQ_IsrPtr")
    2749                      .dwattr $C$DW$T$53, DW_AT_type(*$C$DW$T$30)
    2750                      .dwattr $C$DW$T$53, DW_AT_language(DW_LANG_C)
    2751              $C$DW$T$4       .dwtag  DW_TAG_base_type
    2752                      .dwattr $C$DW$T$4, DW_AT_encoding(DW_ATE_boolean)
    2753                      .dwattr $C$DW$T$4, DW_AT_name("bool")
    2754                      .dwattr $C$DW$T$4, DW_AT_byte_size(0x01)
    2755              $C$DW$T$5       .dwtag  DW_TAG_base_type
    2756                      .dwattr $C$DW$T$5, DW_AT_encoding(DW_ATE_signed_char)
    2757                      .dwattr $C$DW$T$5, DW_AT_name("signed char")
    2758                      .dwattr $C$DW$T$5, DW_AT_byte_size(0x01)
    2759              $C$DW$T$6       .dwtag  DW_TAG_base_type
    2760                      .dwattr $C$DW$T$6, DW_AT_encoding(DW_ATE_unsigned_char)
    2761                      .dwattr $C$DW$T$6, DW_AT_name("unsigned char")
    2762                      .dwattr $C$DW$T$6, DW_AT_byte_size(0x01)
    2763              $C$DW$T$7       .dwtag  DW_TAG_base_type
    2764                      .dwattr $C$DW$T$7, DW_AT_encoding(DW_ATE_signed_char)
    2765                      .dwattr $C$DW$T$7, DW_AT_name("wchar_t")
    2766                      .dwattr $C$DW$T$7, DW_AT_byte_size(0x01)
    2767              $C$DW$T$8       .dwtag  DW_TAG_base_type
    2768                      .dwattr $C$DW$T$8, DW_AT_encoding(DW_ATE_signed)
    2769                      .dwattr $C$DW$T$8, DW_AT_name("short")
    2770                      .dwattr $C$DW$T$8, DW_AT_byte_size(0x01)
    2771              $C$DW$T$55      .dwtag  DW_TAG_typedef, DW_AT_name("Int16")
    2772                      .dwattr $C$DW$T$55, DW_AT_type(*$C$DW$T$8)
    2773                      .dwattr $C$DW$T$55, DW_AT_language(DW_LANG_C)
TMS320C55x Assembler PC v4.4.1 Sat Sep 29 23:08:45 2018

Tools Copyright (c) 1996-2012 Texas Instruments Incorporated
csl_uart_intc_example.asm                                            PAGE   70

    2774              $C$DW$T$56      .dwtag  DW_TAG_typedef, DW_AT_name("CSL_Status")
    2775                      .dwattr $C$DW$T$56, DW_AT_type(*$C$DW$T$55)
    2776                      .dwattr $C$DW$T$56, DW_AT_language(DW_LANG_C)
    2777              $C$DW$257       .dwtag  DW_TAG_TI_far_type
    2778                      .dwattr $C$DW$257, DW_AT_type(*$C$DW$T$55)
    2779              $C$DW$T$78      .dwtag  DW_TAG_volatile_type
    2780                      .dwattr $C$DW$T$78, DW_AT_type(*$C$DW$257)
    2781              $C$DW$T$9       .dwtag  DW_TAG_base_type
    2782                      .dwattr $C$DW$T$9, DW_AT_encoding(DW_ATE_unsigned)
    2783                      .dwattr $C$DW$T$9, DW_AT_name("unsigned short")
    2784                      .dwattr $C$DW$T$9, DW_AT_byte_size(0x01)
    2785              $C$DW$T$19      .dwtag  DW_TAG_typedef, DW_AT_name("Uint16")
    2786                      .dwattr $C$DW$T$19, DW_AT_type(*$C$DW$T$9)
    2787                      .dwattr $C$DW$T$19, DW_AT_language(DW_LANG_C)
    2788              $C$DW$258       .dwtag  DW_TAG_TI_far_type
    2789                      .dwattr $C$DW$258, DW_AT_type(*$C$DW$T$19)
    2790              $C$DW$T$20      .dwtag  DW_TAG_volatile_type
    2791                      .dwattr $C$DW$T$20, DW_AT_type(*$C$DW$258)
    2792              
    2793              $C$DW$T$21      .dwtag  DW_TAG_array_type
    2794                      .dwattr $C$DW$T$21, DW_AT_type(*$C$DW$T$20)
    2795                      .dwattr $C$DW$T$21, DW_AT_language(DW_LANG_C)
    2796                      .dwattr $C$DW$T$21, DW_AT_byte_size(0x03)
    2797              $C$DW$259       .dwtag  DW_TAG_subrange_type
    2798                      .dwattr $C$DW$259, DW_AT_upper_bound(0x02)
    2799                      .dwendtag $C$DW$T$21
    2800              
    2801              
    2802              $C$DW$T$22      .dwtag  DW_TAG_array_type
    2803                      .dwattr $C$DW$T$22, DW_AT_type(*$C$DW$T$20)
    2804                      .dwattr $C$DW$T$22, DW_AT_language(DW_LANG_C)
    2805                      .dwattr $C$DW$T$22, DW_AT_byte_size(0x05)
    2806              $C$DW$260       .dwtag  DW_TAG_subrange_type
    2807                      .dwattr $C$DW$260, DW_AT_upper_bound(0x04)
    2808                      .dwendtag $C$DW$T$22
    2809              
    2810              
    2811              $C$DW$T$24      .dwtag  DW_TAG_array_type
    2812                      .dwattr $C$DW$T$24, DW_AT_type(*$C$DW$T$20)
    2813                      .dwattr $C$DW$T$24, DW_AT_language(DW_LANG_C)
    2814                      .dwattr $C$DW$T$24, DW_AT_byte_size(0x0e)
    2815              $C$DW$261       .dwtag  DW_TAG_subrange_type
    2816                      .dwattr $C$DW$261, DW_AT_upper_bound(0x0d)
    2817                      .dwendtag $C$DW$T$24
    2818              
    2819              
    2820              $C$DW$T$25      .dwtag  DW_TAG_array_type
    2821                      .dwattr $C$DW$T$25, DW_AT_type(*$C$DW$T$20)
    2822                      .dwattr $C$DW$T$25, DW_AT_language(DW_LANG_C)
    2823                      .dwattr $C$DW$T$25, DW_AT_byte_size(0x02)
    2824              $C$DW$262       .dwtag  DW_TAG_subrange_type
    2825                      .dwattr $C$DW$262, DW_AT_upper_bound(0x01)
    2826                      .dwendtag $C$DW$T$25
    2827              
    2828              
TMS320C55x Assembler PC v4.4.1 Sat Sep 29 23:08:45 2018

Tools Copyright (c) 1996-2012 Texas Instruments Incorporated
csl_uart_intc_example.asm                                            PAGE   71

    2829              $C$DW$T$82      .dwtag  DW_TAG_array_type
    2830                      .dwattr $C$DW$T$82, DW_AT_type(*$C$DW$T$19)
    2831                      .dwattr $C$DW$T$82, DW_AT_language(DW_LANG_C)
    2832                      .dwattr $C$DW$T$82, DW_AT_byte_size(0x04)
    2833              $C$DW$263       .dwtag  DW_TAG_subrange_type
    2834                      .dwattr $C$DW$263, DW_AT_upper_bound(0x03)
    2835                      .dwendtag $C$DW$T$82
    2836              
    2837              $C$DW$T$10      .dwtag  DW_TAG_base_type
    2838                      .dwattr $C$DW$T$10, DW_AT_encoding(DW_ATE_signed)
    2839                      .dwattr $C$DW$T$10, DW_AT_name("int")
    2840                      .dwattr $C$DW$T$10, DW_AT_byte_size(0x01)
    2841              $C$DW$T$83      .dwtag  DW_TAG_typedef, DW_AT_name("Bool")
    2842                      .dwattr $C$DW$T$83, DW_AT_type(*$C$DW$T$10)
    2843                      .dwattr $C$DW$T$83, DW_AT_language(DW_LANG_C)
    2844              $C$DW$264       .dwtag  DW_TAG_TI_far_type
    2845                      .dwattr $C$DW$264, DW_AT_type(*$C$DW$T$83)
    2846              $C$DW$T$84      .dwtag  DW_TAG_volatile_type
    2847                      .dwattr $C$DW$T$84, DW_AT_type(*$C$DW$264)
    2848              $C$DW$T$11      .dwtag  DW_TAG_base_type
    2849                      .dwattr $C$DW$T$11, DW_AT_encoding(DW_ATE_unsigned)
    2850                      .dwattr $C$DW$T$11, DW_AT_name("unsigned int")
    2851                      .dwattr $C$DW$T$11, DW_AT_byte_size(0x01)
    2852              $C$DW$T$12      .dwtag  DW_TAG_base_type
    2853                      .dwattr $C$DW$T$12, DW_AT_encoding(DW_ATE_signed)
    2854                      .dwattr $C$DW$T$12, DW_AT_name("long")
    2855                      .dwattr $C$DW$T$12, DW_AT_byte_size(0x02)
    2856              $C$DW$T$13      .dwtag  DW_TAG_base_type
    2857                      .dwattr $C$DW$T$13, DW_AT_encoding(DW_ATE_unsigned)
    2858                      .dwattr $C$DW$T$13, DW_AT_name("unsigned long")
    2859                      .dwattr $C$DW$T$13, DW_AT_byte_size(0x02)
    2860              $C$DW$T$27      .dwtag  DW_TAG_typedef, DW_AT_name("Uint32")
    2861                      .dwattr $C$DW$T$27, DW_AT_type(*$C$DW$T$13)
    2862                      .dwattr $C$DW$T$27, DW_AT_language(DW_LANG_C)
    2863              
    2864              $C$DW$T$42      .dwtag  DW_TAG_array_type
    2865                      .dwattr $C$DW$T$42, DW_AT_type(*$C$DW$T$27)
    2866                      .dwattr $C$DW$T$42, DW_AT_language(DW_LANG_C)
    2867                      .dwattr $C$DW$T$42, DW_AT_byte_size(0x0e)
    2868              $C$DW$265       .dwtag  DW_TAG_subrange_type
    2869                      .dwattr $C$DW$265, DW_AT_upper_bound(0x06)
    2870                      .dwendtag $C$DW$T$42
    2871              
    2872              $C$DW$T$14      .dwtag  DW_TAG_base_type
    2873                      .dwattr $C$DW$T$14, DW_AT_encoding(DW_ATE_signed)
    2874                      .dwattr $C$DW$T$14, DW_AT_name("long long")
    2875                      .dwattr $C$DW$T$14, DW_AT_byte_size(0x04)
    2876                      .dwattr $C$DW$T$14, DW_AT_bit_size(0x28)
    2877                      .dwattr $C$DW$T$14, DW_AT_bit_offset(0x18)
    2878              $C$DW$T$15      .dwtag  DW_TAG_base_type
    2879                      .dwattr $C$DW$T$15, DW_AT_encoding(DW_ATE_unsigned)
    2880                      .dwattr $C$DW$T$15, DW_AT_name("unsigned long long")
    2881                      .dwattr $C$DW$T$15, DW_AT_byte_size(0x04)
    2882                      .dwattr $C$DW$T$15, DW_AT_bit_size(0x28)
    2883                      .dwattr $C$DW$T$15, DW_AT_bit_offset(0x18)
TMS320C55x Assembler PC v4.4.1 Sat Sep 29 23:08:45 2018

Tools Copyright (c) 1996-2012 Texas Instruments Incorporated
csl_uart_intc_example.asm                                            PAGE   72

    2884              $C$DW$T$16      .dwtag  DW_TAG_base_type
    2885                      .dwattr $C$DW$T$16, DW_AT_encoding(DW_ATE_float)
    2886                      .dwattr $C$DW$T$16, DW_AT_name("float")
    2887                      .dwattr $C$DW$T$16, DW_AT_byte_size(0x02)
    2888              $C$DW$T$17      .dwtag  DW_TAG_base_type
    2889                      .dwattr $C$DW$T$17, DW_AT_encoding(DW_ATE_float)
    2890                      .dwattr $C$DW$T$17, DW_AT_name("double")
    2891                      .dwattr $C$DW$T$17, DW_AT_byte_size(0x02)
    2892              $C$DW$T$18      .dwtag  DW_TAG_base_type
    2893                      .dwattr $C$DW$T$18, DW_AT_encoding(DW_ATE_float)
    2894                      .dwattr $C$DW$T$18, DW_AT_name("long double")
    2895                      .dwattr $C$DW$T$18, DW_AT_byte_size(0x02)
    2896              $C$DW$T$65      .dwtag  DW_TAG_base_type
    2897                      .dwattr $C$DW$T$65, DW_AT_encoding(DW_ATE_signed_char)
    2898                      .dwattr $C$DW$T$65, DW_AT_name("signed char")
    2899                      .dwattr $C$DW$T$65, DW_AT_byte_size(0x01)
    2900              $C$DW$T$66      .dwtag  DW_TAG_typedef, DW_AT_name("Char")
    2901                      .dwattr $C$DW$T$66, DW_AT_type(*$C$DW$T$65)
    2902                      .dwattr $C$DW$T$66, DW_AT_language(DW_LANG_C)
    2903              $C$DW$266       .dwtag  DW_TAG_TI_far_type
    2904                      .dwattr $C$DW$266, DW_AT_type(*$C$DW$T$66)
    2905              $C$DW$T$70      .dwtag  DW_TAG_const_type
    2906                      .dwattr $C$DW$T$70, DW_AT_type(*$C$DW$266)
    2907              $C$DW$T$71      .dwtag  DW_TAG_pointer_type
    2908                      .dwattr $C$DW$T$71, DW_AT_type(*$C$DW$T$70)
    2909                      .dwattr $C$DW$T$71, DW_AT_address_class(0x17)
    2910              $C$DW$T$67      .dwtag  DW_TAG_pointer_type
    2911                      .dwattr $C$DW$T$67, DW_AT_type(*$C$DW$T$66)
    2912                      .dwattr $C$DW$T$67, DW_AT_address_class(0x17)
    2913              $C$DW$267       .dwtag  DW_TAG_TI_far_type
    2914                      .dwattr $C$DW$267, DW_AT_type(*$C$DW$T$65)
    2915              $C$DW$T$87      .dwtag  DW_TAG_const_type
    2916                      .dwattr $C$DW$T$87, DW_AT_type(*$C$DW$267)
    2917              $C$DW$T$88      .dwtag  DW_TAG_pointer_type
    2918                      .dwattr $C$DW$T$88, DW_AT_type(*$C$DW$T$87)
    2919                      .dwattr $C$DW$T$88, DW_AT_address_class(0x17)
    2920              
    2921              $C$DW$T$99      .dwtag  DW_TAG_array_type
    2922                      .dwattr $C$DW$T$99, DW_AT_type(*$C$DW$T$65)
    2923                      .dwattr $C$DW$T$99, DW_AT_language(DW_LANG_C)
    2924                      .dwattr $C$DW$T$99, DW_AT_byte_size(0x1e)
    2925              $C$DW$268       .dwtag  DW_TAG_subrange_type
    2926                      .dwattr $C$DW$268, DW_AT_upper_bound(0x1d)
    2927                      .dwendtag $C$DW$T$99
    2928              
    2929              
    2930              $C$DW$T$101     .dwtag  DW_TAG_array_type
    2931                      .dwattr $C$DW$T$101, DW_AT_type(*$C$DW$T$65)
    2932                      .dwattr $C$DW$T$101, DW_AT_language(DW_LANG_C)
    2933                      .dwattr $C$DW$T$101, DW_AT_byte_size(0x0a)
    2934              $C$DW$269       .dwtag  DW_TAG_subrange_type
    2935                      .dwattr $C$DW$269, DW_AT_upper_bound(0x09)
    2936                      .dwendtag $C$DW$T$101
    2937              
    2938              $C$DW$T$102     .dwtag  DW_TAG_pointer_type
TMS320C55x Assembler PC v4.4.1 Sat Sep 29 23:08:45 2018

Tools Copyright (c) 1996-2012 Texas Instruments Incorporated
csl_uart_intc_example.asm                                            PAGE   73

    2939                      .dwattr $C$DW$T$102, DW_AT_type(*$C$DW$T$65)
    2940                      .dwattr $C$DW$T$102, DW_AT_address_class(0x17)
    2941                      .dwattr $C$DW$CU, DW_AT_language(DW_LANG_C)
    2942              
    2943              ;***************************************************************
    2944              ;* DWARF CIE ENTRIES                                           *
    2945              ;***************************************************************
    2946              
    2947              $C$DW$CIE       .dwcie 91
    2948                      .dwcfi  cfa_register, 36
    2949                      .dwcfi  cfa_offset, 0
    2950                      .dwcfi  undefined, 0
    2951                      .dwcfi  undefined, 1
    2952                      .dwcfi  undefined, 2
    2953                      .dwcfi  undefined, 3
    2954                      .dwcfi  undefined, 4
    2955                      .dwcfi  undefined, 5
    2956                      .dwcfi  undefined, 6
    2957                      .dwcfi  undefined, 7
    2958                      .dwcfi  undefined, 8
    2959                      .dwcfi  undefined, 9
    2960                      .dwcfi  undefined, 10
    2961                      .dwcfi  undefined, 11
    2962                      .dwcfi  undefined, 12
    2963                      .dwcfi  undefined, 13
    2964                      .dwcfi  same_value, 14
    2965                      .dwcfi  same_value, 15
    2966                      .dwcfi  undefined, 16
    2967                      .dwcfi  undefined, 17
    2968                      .dwcfi  undefined, 18
    2969                      .dwcfi  undefined, 19
    2970                      .dwcfi  undefined, 20
    2971                      .dwcfi  undefined, 21
    2972                      .dwcfi  undefined, 22
    2973                      .dwcfi  undefined, 23
    2974                      .dwcfi  undefined, 24
    2975                      .dwcfi  undefined, 25
    2976                      .dwcfi  same_value, 26
    2977                      .dwcfi  same_value, 27
    2978                      .dwcfi  same_value, 28
    2979                      .dwcfi  same_value, 29
    2980                      .dwcfi  same_value, 30
    2981                      .dwcfi  same_value, 31
    2982                      .dwcfi  undefined, 32
    2983                      .dwcfi  undefined, 33
    2984                      .dwcfi  undefined, 34
    2985                      .dwcfi  undefined, 35
    2986                      .dwcfi  undefined, 36
    2987                      .dwcfi  undefined, 37
    2988                      .dwcfi  undefined, 38
    2989                      .dwcfi  undefined, 39
    2990                      .dwcfi  undefined, 40
    2991                      .dwcfi  undefined, 41
    2992                      .dwcfi  undefined, 42
    2993                      .dwcfi  undefined, 43
TMS320C55x Assembler PC v4.4.1 Sat Sep 29 23:08:45 2018

Tools Copyright (c) 1996-2012 Texas Instruments Incorporated
csl_uart_intc_example.asm                                            PAGE   74

    2994                      .dwcfi  undefined, 44
    2995                      .dwcfi  undefined, 45
    2996                      .dwcfi  undefined, 46
    2997                      .dwcfi  undefined, 47
    2998                      .dwcfi  undefined, 48
    2999                      .dwcfi  undefined, 49
    3000                      .dwcfi  undefined, 50
    3001                      .dwcfi  undefined, 51
    3002                      .dwcfi  undefined, 52
    3003                      .dwcfi  undefined, 53
    3004                      .dwcfi  undefined, 54
    3005                      .dwcfi  undefined, 55
    3006                      .dwcfi  undefined, 56
    3007                      .dwcfi  undefined, 57
    3008                      .dwcfi  undefined, 58
    3009                      .dwcfi  undefined, 59
    3010                      .dwcfi  undefined, 60
    3011                      .dwcfi  undefined, 61
    3012                      .dwcfi  undefined, 62
    3013                      .dwcfi  undefined, 63
    3014                      .dwcfi  undefined, 64
    3015                      .dwcfi  undefined, 65
    3016                      .dwcfi  undefined, 66
    3017                      .dwcfi  undefined, 67
    3018                      .dwcfi  undefined, 68
    3019                      .dwcfi  undefined, 69
    3020                      .dwcfi  undefined, 70
    3021                      .dwcfi  undefined, 71
    3022                      .dwcfi  undefined, 72
    3023                      .dwcfi  undefined, 73
    3024                      .dwcfi  undefined, 74
    3025                      .dwcfi  undefined, 75
    3026                      .dwcfi  undefined, 76
    3027                      .dwcfi  undefined, 77
    3028                      .dwcfi  undefined, 78
    3029                      .dwcfi  undefined, 79
    3030                      .dwcfi  undefined, 80
    3031                      .dwcfi  undefined, 81
    3032                      .dwcfi  undefined, 82
    3033                      .dwcfi  undefined, 83
    3034                      .dwcfi  undefined, 84
    3035                      .dwcfi  undefined, 85
    3036                      .dwcfi  undefined, 86
    3037                      .dwcfi  undefined, 87
    3038                      .dwcfi  undefined, 88
    3039                      .dwcfi  undefined, 89
    3040                      .dwcfi  undefined, 90
    3041                      .dwcfi  undefined, 91
    3042                      .dwendentry
    3043              
    3044              ;***************************************************************
    3045              ;* DWARF REGISTER MAP                                          *
    3046              ;***************************************************************
    3047              
    3048              $C$DW$270       .dwtag  DW_TAG_TI_assign_register, DW_AT_name("AC0")
TMS320C55x Assembler PC v4.4.1 Sat Sep 29 23:08:45 2018

Tools Copyright (c) 1996-2012 Texas Instruments Incorporated
csl_uart_intc_example.asm                                            PAGE   75

    3049                      .dwattr $C$DW$270, DW_AT_location[DW_OP_reg0]
    3050              $C$DW$271       .dwtag  DW_TAG_TI_assign_register, DW_AT_name("AC0")
    3051                      .dwattr $C$DW$271, DW_AT_location[DW_OP_reg1]
    3052              $C$DW$272       .dwtag  DW_TAG_TI_assign_register, DW_AT_name("AC0_G")
    3053                      .dwattr $C$DW$272, DW_AT_location[DW_OP_reg2]
    3054              $C$DW$273       .dwtag  DW_TAG_TI_assign_register, DW_AT_name("AC1")
    3055                      .dwattr $C$DW$273, DW_AT_location[DW_OP_reg3]
    3056              $C$DW$274       .dwtag  DW_TAG_TI_assign_register, DW_AT_name("AC1")
    3057                      .dwattr $C$DW$274, DW_AT_location[DW_OP_reg4]
    3058              $C$DW$275       .dwtag  DW_TAG_TI_assign_register, DW_AT_name("AC1_G")
    3059                      .dwattr $C$DW$275, DW_AT_location[DW_OP_reg5]
    3060              $C$DW$276       .dwtag  DW_TAG_TI_assign_register, DW_AT_name("AC2")
    3061                      .dwattr $C$DW$276, DW_AT_location[DW_OP_reg6]
    3062              $C$DW$277       .dwtag  DW_TAG_TI_assign_register, DW_AT_name("AC2")
    3063                      .dwattr $C$DW$277, DW_AT_location[DW_OP_reg7]
    3064              $C$DW$278       .dwtag  DW_TAG_TI_assign_register, DW_AT_name("AC2_G")
    3065                      .dwattr $C$DW$278, DW_AT_location[DW_OP_reg8]
    3066              $C$DW$279       .dwtag  DW_TAG_TI_assign_register, DW_AT_name("AC3")
    3067                      .dwattr $C$DW$279, DW_AT_location[DW_OP_reg9]
    3068              $C$DW$280       .dwtag  DW_TAG_TI_assign_register, DW_AT_name("AC3")
