TMS320C55x Assembler PC v4.4.1 Sat Sep 29 23:09:15 2018

Tools Copyright (c) 1996-2012 Texas Instruments Incorporated
csl_lcdc_DmaIntcExample.asm                                          PAGE    1

    2978              ; Temporary Registers Used: None
       1              ;*******************************************************************************
       2              ;* TMS320C55x C/C++ Codegen                                          PC v4.4.1 *
       3              ;* Date/Time created: Sat Sep 29 23:09:15 2018                                 *
       4              ;*******************************************************************************
       5                      .compiler_opts --hll_source=on --mem_model:code=flat --mem_model:data=large --object_format=coff --si
       6                      .mmregs
       7                      .cpl_on
       8                      .arms_on
       9                      .c54cm_off
      10                      .asg AR6, FP
      11                      .asg XAR6, XFP
      12                      .asg DPH, MDP
      13                      .model call=c55_std
      14                      .model mem=large
      15                      .noremark 5002  ; code respects overwrite rules
      16              ;*******************************************************************************
      17              ;* GLOBAL FILE PARAMETERS                                                      *
      18              ;*                                                                             *
      19              ;*   Architecture       : TMS320C55x                                           *
      20              ;*   Optimizing for     : Speed                                                *
      21              ;*   Memory             : Large Model (23-Bit Data Pointers)                   *
      22              ;*   Calls              : Normal Library ASM calls                             *
      23              ;*   Debug Info         : Standard TI Debug Information                        *
      24              ;*******************************************************************************
      25              
      26              $C$DW$CU        .dwtag  DW_TAG_compile_unit
      27                      .dwattr $C$DW$CU, DW_AT_name("../c5535_bsl_revc/ezdsp5535_v1/c55xx_csl/ccs_v4.0_examples/lcd/CSL_LCDC
      28                      .dwattr $C$DW$CU, DW_AT_producer("TMS320C55x C/C++ Codegen PC v4.4.1 Copyright (c) 1996-2012 Texas In
      29                      .dwattr $C$DW$CU, DW_AT_TI_version(0x01)
      30                      .dwattr $C$DW$CU, DW_AT_comp_dir("F:\eZdsp_DBG\tmp1\c55x-sim2\foo\Debug")
      31              ;******************************************************************************
      32              ;* CINIT RECORDS                                                              *
      33              ;******************************************************************************
      34 000000               .sect   ".cinit"
      35                      .align  1
      36 000000 0001          .field          1,16
      37 000001 0000-         .field          _cnt_lcd+0,24
         000002 0000 
      38 000002 0000          .field          0,8
      39 000003 0000          .field  0,16                    ; _cnt_lcd @ 0
      40              
      41 000004               .sect   ".cinit"
      42                      .align  1
      43 000004 0001          .field          1,16
      44 000005 0000-         .field          _PaSs_StAtE+0,24
         000006 0100 
      45 000006 0100          .field          0,8
      46 000007 0001          .field  1,16                    ; _PaSs_StAtE @ 0
      47              
      48 000008               .sect   ".cinit"
      49                      .align  1
      50 000008 0001          .field          1,16
      51 000009 0000-         .field          _PaSs+0,24
         00000a 1000 
TMS320C55x Assembler PC v4.4.1 Sat Sep 29 23:09:15 2018

Tools Copyright (c) 1996-2012 Texas Instruments Incorporated
csl_lcdc_DmaIntcExample.asm                                          PAGE    2

      52 00000a 1000          .field          0,8
      53 00000b 0000          .field  0,16                    ; _PaSs @ 0
      54              
      55              
      56              $C$DW$1 .dwtag  DW_TAG_subprogram, DW_AT_name("printf")
      57                      .dwattr $C$DW$1, DW_AT_TI_symbol_name("_printf")
      58                      .dwattr $C$DW$1, DW_AT_type(*$C$DW$T$10)
      59                      .dwattr $C$DW$1, DW_AT_declaration
      60                      .dwattr $C$DW$1, DW_AT_external
      61              $C$DW$2 .dwtag  DW_TAG_formal_parameter
      62                      .dwattr $C$DW$2, DW_AT_type(*$C$DW$T$115)
      63              $C$DW$3 .dwtag  DW_TAG_unspecified_parameters
      64                      .dwendtag $C$DW$1
      65              
      66              
      67              $C$DW$4 .dwtag  DW_TAG_subprogram, DW_AT_name("LCD_init")
      68                      .dwattr $C$DW$4, DW_AT_TI_symbol_name("_LCD_init")
      69                      .dwattr $C$DW$4, DW_AT_type(*$C$DW$T$78)
      70                      .dwattr $C$DW$4, DW_AT_declaration
      71                      .dwattr $C$DW$4, DW_AT_external
      72              
      73              $C$DW$5 .dwtag  DW_TAG_subprogram, DW_AT_name("LCD_open")
      74                      .dwattr $C$DW$5, DW_AT_TI_symbol_name("_LCD_open")
      75                      .dwattr $C$DW$5, DW_AT_type(*$C$DW$T$77)
      76                      .dwattr $C$DW$5, DW_AT_declaration
      77                      .dwattr $C$DW$5, DW_AT_external
      78              $C$DW$6 .dwtag  DW_TAG_formal_parameter
      79                      .dwattr $C$DW$6, DW_AT_type(*$C$DW$T$19)
      80              $C$DW$7 .dwtag  DW_TAG_formal_parameter
      81                      .dwattr $C$DW$7, DW_AT_type(*$C$DW$T$76)
      82              $C$DW$8 .dwtag  DW_TAG_formal_parameter
      83                      .dwattr $C$DW$8, DW_AT_type(*$C$DW$T$79)
      84                      .dwendtag $C$DW$5
      85              
      86              
      87              $C$DW$9 .dwtag  DW_TAG_subprogram, DW_AT_name("LCD_setup")
      88                      .dwattr $C$DW$9, DW_AT_TI_symbol_name("_LCD_setup")
      89                      .dwattr $C$DW$9, DW_AT_type(*$C$DW$T$78)
      90                      .dwattr $C$DW$9, DW_AT_declaration
      91                      .dwattr $C$DW$9, DW_AT_external
      92              $C$DW$10        .dwtag  DW_TAG_formal_parameter
      93                      .dwattr $C$DW$10, DW_AT_type(*$C$DW$T$77)
      94              $C$DW$11        .dwtag  DW_TAG_formal_parameter
      95                      .dwattr $C$DW$11, DW_AT_type(*$C$DW$T$64)
      96                      .dwendtag $C$DW$9
      97              
      98              
      99              $C$DW$12        .dwtag  DW_TAG_subprogram, DW_AT_name("LCD_configDMA")
     100                      .dwattr $C$DW$12, DW_AT_TI_symbol_name("_LCD_configDMA")
     101                      .dwattr $C$DW$12, DW_AT_type(*$C$DW$T$78)
     102                      .dwattr $C$DW$12, DW_AT_declaration
     103                      .dwattr $C$DW$12, DW_AT_external
     104              $C$DW$13        .dwtag  DW_TAG_formal_parameter
     105                      .dwattr $C$DW$13, DW_AT_type(*$C$DW$T$77)
     106              $C$DW$14        .dwtag  DW_TAG_formal_parameter
TMS320C55x Assembler PC v4.4.1 Sat Sep 29 23:09:15 2018

Tools Copyright (c) 1996-2012 Texas Instruments Incorporated
csl_lcdc_DmaIntcExample.asm                                          PAGE    3

     107                      .dwattr $C$DW$14, DW_AT_type(*$C$DW$T$66)
     108                      .dwendtag $C$DW$12
     109              
     110              
     111              $C$DW$15        .dwtag  DW_TAG_subprogram, DW_AT_name("LCD_close")
     112                      .dwattr $C$DW$15, DW_AT_TI_symbol_name("_LCD_close")
     113                      .dwattr $C$DW$15, DW_AT_type(*$C$DW$T$78)
     114                      .dwattr $C$DW$15, DW_AT_declaration
     115                      .dwattr $C$DW$15, DW_AT_external
     116              $C$DW$16        .dwtag  DW_TAG_formal_parameter
     117                      .dwattr $C$DW$16, DW_AT_type(*$C$DW$T$77)
     118                      .dwendtag $C$DW$15
     119              
     120              
     121              $C$DW$17        .dwtag  DW_TAG_subprogram, DW_AT_name("cmdWrite")
     122                      .dwattr $C$DW$17, DW_AT_TI_symbol_name("_cmdWrite")
     123                      .dwattr $C$DW$17, DW_AT_declaration
     124                      .dwattr $C$DW$17, DW_AT_external
     125              $C$DW$18        .dwtag  DW_TAG_formal_parameter
     126                      .dwattr $C$DW$18, DW_AT_type(*$C$DW$T$19)
     127              $C$DW$19        .dwtag  DW_TAG_formal_parameter
     128                      .dwattr $C$DW$19, DW_AT_type(*$C$DW$T$19)
     129                      .dwendtag $C$DW$17
     130              
     131              
     132              $C$DW$20        .dwtag  DW_TAG_subprogram, DW_AT_name("windowSetup")
     133                      .dwattr $C$DW$20, DW_AT_TI_symbol_name("_windowSetup")
     134                      .dwattr $C$DW$20, DW_AT_type(*$C$DW$T$60)
     135                      .dwattr $C$DW$20, DW_AT_declaration
     136                      .dwattr $C$DW$20, DW_AT_external
     137              $C$DW$21        .dwtag  DW_TAG_formal_parameter
     138                      .dwattr $C$DW$21, DW_AT_type(*$C$DW$T$19)
     139              $C$DW$22        .dwtag  DW_TAG_formal_parameter
     140                      .dwattr $C$DW$22, DW_AT_type(*$C$DW$T$19)
     141              $C$DW$23        .dwtag  DW_TAG_formal_parameter
     142                      .dwattr $C$DW$23, DW_AT_type(*$C$DW$T$19)
     143              $C$DW$24        .dwtag  DW_TAG_formal_parameter
     144                      .dwattr $C$DW$24, DW_AT_type(*$C$DW$T$19)
     145              $C$DW$25        .dwtag  DW_TAG_formal_parameter
     146                      .dwattr $C$DW$25, DW_AT_type(*$C$DW$T$19)
     147                      .dwendtag $C$DW$20
     148              
     149              
     150              $C$DW$26        .dwtag  DW_TAG_subprogram, DW_AT_name("panelSetup")
     151                      .dwattr $C$DW$26, DW_AT_TI_symbol_name("_panelSetup")
     152                      .dwattr $C$DW$26, DW_AT_declaration
     153                      .dwattr $C$DW$26, DW_AT_external
     154              $C$DW$27        .dwtag  DW_TAG_formal_parameter
     155                      .dwattr $C$DW$27, DW_AT_type(*$C$DW$T$19)
     156                      .dwendtag $C$DW$26
     157              
     158              
     159              $C$DW$28        .dwtag  DW_TAG_subprogram, DW_AT_name("IRQ_plug")
     160                      .dwattr $C$DW$28, DW_AT_TI_symbol_name("_IRQ_plug")
     161                      .dwattr $C$DW$28, DW_AT_type(*$C$DW$T$10)
TMS320C55x Assembler PC v4.4.1 Sat Sep 29 23:09:15 2018

Tools Copyright (c) 1996-2012 Texas Instruments Incorporated
csl_lcdc_DmaIntcExample.asm                                          PAGE    4

     162                      .dwattr $C$DW$28, DW_AT_declaration
     163                      .dwattr $C$DW$28, DW_AT_external
     164              $C$DW$29        .dwtag  DW_TAG_formal_parameter
     165                      .dwattr $C$DW$29, DW_AT_type(*$C$DW$T$19)
     166              $C$DW$30        .dwtag  DW_TAG_formal_parameter
     167                      .dwattr $C$DW$30, DW_AT_type(*$C$DW$T$90)
     168                      .dwendtag $C$DW$28
     169              
     170              
     171              $C$DW$31        .dwtag  DW_TAG_subprogram, DW_AT_name("IRQ_clear")
     172                      .dwattr $C$DW$31, DW_AT_TI_symbol_name("_IRQ_clear")
     173                      .dwattr $C$DW$31, DW_AT_type(*$C$DW$T$78)
     174                      .dwattr $C$DW$31, DW_AT_declaration
     175                      .dwattr $C$DW$31, DW_AT_external
     176              $C$DW$32        .dwtag  DW_TAG_formal_parameter
     177                      .dwattr $C$DW$32, DW_AT_type(*$C$DW$T$19)
     178                      .dwendtag $C$DW$31
     179              
     180              
     181              $C$DW$33        .dwtag  DW_TAG_subprogram, DW_AT_name("IRQ_clearAll")
     182                      .dwattr $C$DW$33, DW_AT_TI_symbol_name("_IRQ_clearAll")
     183                      .dwattr $C$DW$33, DW_AT_declaration
     184                      .dwattr $C$DW$33, DW_AT_external
     185              
     186              $C$DW$34        .dwtag  DW_TAG_subprogram, DW_AT_name("IRQ_disableAll")
     187                      .dwattr $C$DW$34, DW_AT_TI_symbol_name("_IRQ_disableAll")
     188                      .dwattr $C$DW$34, DW_AT_declaration
     189                      .dwattr $C$DW$34, DW_AT_external
     190              
     191              $C$DW$35        .dwtag  DW_TAG_subprogram, DW_AT_name("IRQ_enable")
     192                      .dwattr $C$DW$35, DW_AT_TI_symbol_name("_IRQ_enable")
     193                      .dwattr $C$DW$35, DW_AT_type(*$C$DW$T$10)
     194                      .dwattr $C$DW$35, DW_AT_declaration
     195                      .dwattr $C$DW$35, DW_AT_external
     196              $C$DW$36        .dwtag  DW_TAG_formal_parameter
     197                      .dwattr $C$DW$36, DW_AT_type(*$C$DW$T$19)
     198                      .dwendtag $C$DW$35
     199              
     200              
     201              $C$DW$37        .dwtag  DW_TAG_subprogram, DW_AT_name("IRQ_setVecs")
     202                      .dwattr $C$DW$37, DW_AT_TI_symbol_name("_IRQ_setVecs")
     203                      .dwattr $C$DW$37, DW_AT_type(*$C$DW$T$78)
     204                      .dwattr $C$DW$37, DW_AT_declaration
     205                      .dwattr $C$DW$37, DW_AT_external
     206              $C$DW$38        .dwtag  DW_TAG_formal_parameter
     207                      .dwattr $C$DW$38, DW_AT_type(*$C$DW$T$49)
     208                      .dwendtag $C$DW$37
     209              
     210              
     211              $C$DW$39        .dwtag  DW_TAG_subprogram, DW_AT_name("IRQ_globalDisable")
     212                      .dwattr $C$DW$39, DW_AT_TI_symbol_name("_IRQ_globalDisable")
     213                      .dwattr $C$DW$39, DW_AT_type(*$C$DW$T$110)
     214                      .dwattr $C$DW$39, DW_AT_declaration
     215                      .dwattr $C$DW$39, DW_AT_external
     216              
TMS320C55x Assembler PC v4.4.1 Sat Sep 29 23:09:15 2018

Tools Copyright (c) 1996-2012 Texas Instruments Incorporated
csl_lcdc_DmaIntcExample.asm                                          PAGE    5

     217              $C$DW$40        .dwtag  DW_TAG_subprogram, DW_AT_name("IRQ_globalEnable")
     218                      .dwattr $C$DW$40, DW_AT_TI_symbol_name("_IRQ_globalEnable")
     219                      .dwattr $C$DW$40, DW_AT_type(*$C$DW$T$110)
     220                      .dwattr $C$DW$40, DW_AT_declaration
     221                      .dwattr $C$DW$40, DW_AT_external
     222              
     223              $C$DW$41        .dwtag  DW_TAG_subprogram, DW_AT_name("VECSTART")
     224                      .dwattr $C$DW$41, DW_AT_TI_symbol_name("_VECSTART")
     225                      .dwattr $C$DW$41, DW_AT_declaration
     226                      .dwattr $C$DW$41, DW_AT_external
     227                      .global _cnt_lcd
     228 000000               .bss    _cnt_lcd,1,0,0
     229              $C$DW$42        .dwtag  DW_TAG_variable, DW_AT_name("cnt_lcd")
     230                      .dwattr $C$DW$42, DW_AT_TI_symbol_name("_cnt_lcd")
     231                      .dwattr $C$DW$42, DW_AT_location[DW_OP_addr _cnt_lcd]
     232                      .dwattr $C$DW$42, DW_AT_type(*$C$DW$T$19)
     233                      .dwattr $C$DW$42, DW_AT_external
     234                      .global _hLcdc
     235 000002               .bss    _hLcdc,2,0,2
     236              $C$DW$43        .dwtag  DW_TAG_variable, DW_AT_name("hLcdc")
     237                      .dwattr $C$DW$43, DW_AT_TI_symbol_name("_hLcdc")
     238                      .dwattr $C$DW$43, DW_AT_location[DW_OP_addr _hLcdc]
     239                      .dwattr $C$DW$43, DW_AT_type(*$C$DW$T$77)
     240                      .dwattr $C$DW$43, DW_AT_external
     241                      .global _getConfigDma
     242 000004               .bss    _getConfigDma,12,0,2
     243              $C$DW$44        .dwtag  DW_TAG_variable, DW_AT_name("getConfigDma")
     244                      .dwattr $C$DW$44, DW_AT_TI_symbol_name("_getConfigDma")
     245                      .dwattr $C$DW$44, DW_AT_location[DW_OP_addr _getConfigDma]
     246                      .dwattr $C$DW$44, DW_AT_type(*$C$DW$T$65)
     247                      .dwattr $C$DW$44, DW_AT_external
     248                      .global _gLcdBuf
     249 000000       _gLcdBuf:       .usect  ".buffer2",16384,0,0
     250              $C$DW$45        .dwtag  DW_TAG_variable, DW_AT_name("gLcdBuf")
     251                      .dwattr $C$DW$45, DW_AT_TI_symbol_name("_gLcdBuf")
     252                      .dwattr $C$DW$45, DW_AT_location[DW_OP_addr _gLcdBuf]
     253                      .dwattr $C$DW$45, DW_AT_type(*$C$DW$T$107)
     254                      .dwattr $C$DW$45, DW_AT_external
     255                      .global _PaSs_StAtE
     256 000001               .bss    _PaSs_StAtE,1,0,0
     257              $C$DW$46        .dwtag  DW_TAG_variable, DW_AT_name("PaSs_StAtE")
     258                      .dwattr $C$DW$46, DW_AT_TI_symbol_name("_PaSs_StAtE")
     259                      .dwattr $C$DW$46, DW_AT_location[DW_OP_addr _PaSs_StAtE]
     260                      .dwattr $C$DW$46, DW_AT_type(*$C$DW$T$103)
     261                      .dwattr $C$DW$46, DW_AT_external
     262                      .global _PaSs
     263 000010               .bss    _PaSs,1,0,0
     264              $C$DW$47        .dwtag  DW_TAG_variable, DW_AT_name("PaSs")
     265                      .dwattr $C$DW$47, DW_AT_TI_symbol_name("_PaSs")
     266                      .dwattr $C$DW$47, DW_AT_location[DW_OP_addr _PaSs]
     267                      .dwattr $C$DW$47, DW_AT_type(*$C$DW$T$103)
     268                      .dwattr $C$DW$47, DW_AT_external
     269              ;       F:\t\cc5p5\ccsv5\tools\compiler\c5500_4.4.1\bin\acp55.exe -@f:\\AppData\\Local\\Temp\\0780012 
     270 000000               .sect   ".text"
     271                      .align 4
TMS320C55x Assembler PC v4.4.1 Sat Sep 29 23:09:15 2018

Tools Copyright (c) 1996-2012 Texas Instruments Incorporated
csl_lcdc_DmaIntcExample.asm                                          PAGE    6

     272              
     273              $C$DW$48        .dwtag  DW_TAG_subprogram, DW_AT_name("CSL_lcdcEnableLiddDMA")
     274                      .dwattr $C$DW$48, DW_AT_low_pc(_CSL_lcdcEnableLiddDMA)
     275                      .dwattr $C$DW$48, DW_AT_high_pc(0x00)
     276                      .dwattr $C$DW$48, DW_AT_TI_symbol_name("_CSL_lcdcEnableLiddDMA")
     277                      .dwattr $C$DW$48, DW_AT_TI_begin_file("F:/eZdsp_DBG/tmp1/c55x-sim2/foo/c5535_bsl_revc/ezdsp5535_v1/c5
     278                      .dwattr $C$DW$48, DW_AT_TI_begin_line(0x4e)
     279                      .dwattr $C$DW$48, DW_AT_TI_begin_column(0x06)
     280                      .dwattr $C$DW$48, DW_AT_TI_max_frame_size(0x04)
     281                      .dwpsn  file "F:/eZdsp_DBG/tmp1/c55x-sim2/foo/c5535_bsl_revc/ezdsp5535_v1/c55xx_csl/inc/csl_lcdcAux.h
     282              
     283                      .dwfde $C$DW$CIE, _CSL_lcdcEnableLiddDMA
     284              $C$DW$49        .dwtag  DW_TAG_formal_parameter, DW_AT_name("hLcdc")
     285                      .dwattr $C$DW$49, DW_AT_TI_symbol_name("_hLcdc")
     286                      .dwattr $C$DW$49, DW_AT_type(*$C$DW$T$77)
     287                      .dwattr $C$DW$49, DW_AT_location[DW_OP_reg17]
     288              ;*******************************************************************************
     289              ;* FUNCTION NAME: CSL_lcdcEnableLiddDMA                                        *
     290              ;*                                                                             *
     291              ;*   Function Uses Regs : T0,AR0,XAR0,AR1,AR3,XAR3,SP,M40,SATA,SATD,RDM,FRCT,  *
     292              ;*                        SMUL                                                 *
     293              ;*   Stack Frame        : Compact (No Frame Pointer, w/ debug)                 *
     294              ;*   Total Frame Size   : 4 words                                              *
     295              ;*                        (2 return address/alignment)                         *
     296              ;*                        (2 local values)                                     *
     297              ;*   Min System Stack   : 1 word                                               *
     298              ;*******************************************************************************
     299 000000       _CSL_lcdcEnableLiddDMA:
     300                      .dwcfi  cfa_offset, 1
     301                      .dwcfi  save_reg_to_mem, 91, -1
     302 000000 4EFD          AADD #-3, SP
     303                      .dwcfi  cfa_offset, 4
     304              $C$DW$50        .dwtag  DW_TAG_variable, DW_AT_name("hLcdc")
     305                      .dwattr $C$DW$50, DW_AT_TI_symbol_name("_hLcdc")
     306                      .dwattr $C$DW$50, DW_AT_type(*$C$DW$T$77)
     307                      .dwattr $C$DW$50, DW_AT_location[DW_OP_bregx 0x24 0]
     308 000002 EB00          MOV XAR0, dbl(*SP(#0))
         000004 85   
     309                      .dwpsn  file "F:/eZdsp_DBG/tmp1/c55x-sim2/foo/c5535_bsl_revc/ezdsp5535_v1/c55xx_csl/inc/csl_lcdcAux.h
     310 000005 ED00          MOV dbl(*SP(#0)), XAR3
         000007 BF   
     311 000008 AB61          MOV *AR3, AR3 ; |85| 
     312 00000a 140C          AMOV #12, T0
         00000c 45   
     313 00000d A96B          MOV port(*AR3(T0)), AR1 ; |85| 
         00000f 99   
     314 000010 ED00          MOV dbl(*SP(#0)), XAR3
         000012 BF   
     315 000013 AB61          MOV *AR3, AR3 ; |85| 
     316 000015 EC10          BCLR @#8, AR1 ; |85| 
         000017 92   
     317 000018 EC10          BSET @#8, AR1 ; |85| 
         00001a 90   
     318 00001b C96B          MOV AR1, port(*AR3(T0)) ; |85| 
         00001d 9A   
TMS320C55x Assembler PC v4.4.1 Sat Sep 29 23:09:15 2018

Tools Copyright (c) 1996-2012 Texas Instruments Incorporated
csl_lcdc_DmaIntcExample.asm                                          PAGE    7

     319                      .dwpsn  file "F:/eZdsp_DBG/tmp1/c55x-sim2/foo/c5535_bsl_revc/ezdsp5535_v1/c55xx_csl/inc/csl_lcdcAux.h
     320 00001e 4E03          AADD #3, SP
     321                      .dwcfi  cfa_offset, 1
     322              $C$DW$51        .dwtag  DW_TAG_TI_branch
     323                      .dwattr $C$DW$51, DW_AT_low_pc(0x00)
     324                      .dwattr $C$DW$51, DW_AT_TI_return
     325 000020 4804          RET
     326                                                      ; return occurs
     327                      .dwattr $C$DW$48, DW_AT_TI_end_file("F:/eZdsp_DBG/tmp1/c55x-sim2/foo/c5535_bsl_revc/ezdsp5535_v1/c55x
     328                      .dwattr $C$DW$48, DW_AT_TI_end_line(0x56)
     329                      .dwattr $C$DW$48, DW_AT_TI_end_column(0x01)
     330                      .dwendentry
     331                      .dwendtag $C$DW$48
     332              
     333 000022               .sect   ".text"
     334                      .align 4
     335              
     336              $C$DW$52        .dwtag  DW_TAG_subprogram, DW_AT_name("CSL_lcdcDisableLiddDMA")
     337                      .dwattr $C$DW$52, DW_AT_low_pc(_CSL_lcdcDisableLiddDMA)
     338                      .dwattr $C$DW$52, DW_AT_high_pc(0x00)
     339                      .dwattr $C$DW$52, DW_AT_TI_symbol_name("_CSL_lcdcDisableLiddDMA")
     340                      .dwattr $C$DW$52, DW_AT_TI_begin_file("F:/eZdsp_DBG/tmp1/c55x-sim2/foo/c5535_bsl_revc/ezdsp5535_v1/c5
     341                      .dwattr $C$DW$52, DW_AT_TI_begin_line(0x7c)
     342                      .dwattr $C$DW$52, DW_AT_TI_begin_column(0x06)
     343                      .dwattr $C$DW$52, DW_AT_TI_max_frame_size(0x04)
     344                      .dwpsn  file "F:/eZdsp_DBG/tmp1/c55x-sim2/foo/c5535_bsl_revc/ezdsp5535_v1/c55xx_csl/inc/csl_lcdcAux.h
     345              
     346                      .dwfde $C$DW$CIE, _CSL_lcdcDisableLiddDMA
     347              $C$DW$53        .dwtag  DW_TAG_formal_parameter, DW_AT_name("hLcdc")
     348                      .dwattr $C$DW$53, DW_AT_TI_symbol_name("_hLcdc")
     349                      .dwattr $C$DW$53, DW_AT_type(*$C$DW$T$77)
     350                      .dwattr $C$DW$53, DW_AT_location[DW_OP_reg17]
     351              ;*******************************************************************************
     352              ;* FUNCTION NAME: CSL_lcdcDisableLiddDMA                                       *
     353              ;*                                                                             *
     354              ;*   Function Uses Regs : T0,AR0,XAR0,AR1,AR3,XAR3,SP,M40,SATA,SATD,RDM,FRCT,  *
     355              ;*                        SMUL                                                 *
     356              ;*   Stack Frame        : Compact (No Frame Pointer, w/ debug)                 *
     357              ;*   Total Frame Size   : 4 words                                              *
     358              ;*                        (2 return address/alignment)                         *
     359              ;*                        (2 local values)                                     *
     360              ;*   Min System Stack   : 1 word                                               *
     361              ;*******************************************************************************
     362 000024       _CSL_lcdcDisableLiddDMA:
     363                      .dwcfi  cfa_offset, 1
     364                      .dwcfi  save_reg_to_mem, 91, -1
     365 000024 4EFD          AADD #-3, SP
     366                      .dwcfi  cfa_offset, 4
     367              $C$DW$54        .dwtag  DW_TAG_variable, DW_AT_name("hLcdc")
     368                      .dwattr $C$DW$54, DW_AT_TI_symbol_name("_hLcdc")
     369                      .dwattr $C$DW$54, DW_AT_type(*$C$DW$T$77)
     370                      .dwattr $C$DW$54, DW_AT_location[DW_OP_bregx 0x24 0]
     371 000026 EB00          MOV XAR0, dbl(*SP(#0))
         000028 85   
     372                      .dwpsn  file "F:/eZdsp_DBG/tmp1/c55x-sim2/foo/c5535_bsl_revc/ezdsp5535_v1/c55xx_csl/inc/csl_lcdcAux.h
TMS320C55x Assembler PC v4.4.1 Sat Sep 29 23:09:15 2018

Tools Copyright (c) 1996-2012 Texas Instruments Incorporated
csl_lcdc_DmaIntcExample.asm                                          PAGE    8

     373 000029 ED00          MOV dbl(*SP(#0)), XAR3
         00002b BF   
     374 00002c AB61          MOV *AR3, AR3 ; |131| 
     375 00002e 140C          AMOV #12, T0
         000030 45   
     376 000031 A96B          MOV port(*AR3(T0)), AR1 ; |131| 
         000033 99   
     377 000034 ED00          MOV dbl(*SP(#0)), XAR3
         000036 BF   
     378 000037 AB61          MOV *AR3, AR3 ; |131| 
     379 000039 EC10          BCLR @#8, AR1 ; |131| 
         00003b 92   
     380 00003c C96B          MOV AR1, port(*AR3(T0)) ; |131| 
         00003e 9A   
     381                      .dwpsn  file "F:/eZdsp_DBG/tmp1/c55x-sim2/foo/c5535_bsl_revc/ezdsp5535_v1/c55xx_csl/inc/csl_lcdcAux.h
     382 00003f 4E03          AADD #3, SP
     383                      .dwcfi  cfa_offset, 1
     384              $C$DW$55        .dwtag  DW_TAG_TI_branch
     385                      .dwattr $C$DW$55, DW_AT_low_pc(0x00)
     386                      .dwattr $C$DW$55, DW_AT_TI_return
     387 000041 4804          RET
     388                                                      ; return occurs
     389                      .dwattr $C$DW$52, DW_AT_TI_end_file("F:/eZdsp_DBG/tmp1/c55x-sim2/foo/c5535_bsl_revc/ezdsp5535_v1/c55x
     390                      .dwattr $C$DW$52, DW_AT_TI_end_line(0x84)
     391                      .dwattr $C$DW$52, DW_AT_TI_end_column(0x01)
     392                      .dwendentry
     393                      .dwendtag $C$DW$52
     394              
     395 000043               .sect   ".text"
     396                      .align 4
     397                      .global _main
     398              
     399              $C$DW$56        .dwtag  DW_TAG_subprogram, DW_AT_name("main")
     400                      .dwattr $C$DW$56, DW_AT_low_pc(_main)
     401                      .dwattr $C$DW$56, DW_AT_high_pc(0x00)
     402                      .dwattr $C$DW$56, DW_AT_TI_symbol_name("_main")
     403                      .dwattr $C$DW$56, DW_AT_external
     404                      .dwattr $C$DW$56, DW_AT_TI_begin_file("../c5535_bsl_revc/ezdsp5535_v1/c55xx_csl/ccs_v4.0_examples/lcd
     405                      .dwattr $C$DW$56, DW_AT_TI_begin_line(0x8b)
     406                      .dwattr $C$DW$56, DW_AT_TI_begin_column(0x06)
     407                      .dwattr $C$DW$56, DW_AT_TI_max_frame_size(0x04)
     408                      .dwpsn  file "../c5535_bsl_revc/ezdsp5535_v1/c55xx_csl/ccs_v4.0_examples/lcd/CSL_LCDC_DmaIntcExample/
     409              
     410                      .dwfde $C$DW$CIE, _main
     411              ;*******************************************************************************
     412              ;* FUNCTION NAME: main                                                         *
     413              ;*                                                                             *
     414              ;*   Function Uses Regs : T0,AR1,AR3,XAR3,SP,M40,SATA,SATD,RDM,FRCT,SMUL       *
     415              ;*   Stack Frame        : Compact (No Frame Pointer, w/ debug)                 *
     416              ;*   Total Frame Size   : 4 words                                              *
     417              ;*                        (1 return address/alignment)                         *
     418              ;*                        (2 function parameters)                              *
     419              ;*                        (1 local values)                                     *
     420              ;*   Min System Stack   : 1 word                                               *
     421              ;*******************************************************************************
TMS320C55x Assembler PC v4.4.1 Sat Sep 29 23:09:15 2018

Tools Copyright (c) 1996-2012 Texas Instruments Incorporated
csl_lcdc_DmaIntcExample.asm                                          PAGE    9

     422 000044       _main:
     423                      .dwcfi  cfa_offset, 1
     424                      .dwcfi  save_reg_to_mem, 91, -1
     425 000044 4EFD          AADD #-3, SP
     426                      .dwcfi  cfa_offset, 4
     427              $C$DW$57        .dwtag  DW_TAG_variable, DW_AT_name("status")
     428                      .dwattr $C$DW$57, DW_AT_TI_symbol_name("_status")
     429                      .dwattr $C$DW$57, DW_AT_type(*$C$DW$T$78)
     430                      .dwattr $C$DW$57, DW_AT_location[DW_OP_bregx 0x24 2]
     431                      .dwpsn  file "../c5535_bsl_revc/ezdsp5535_v1/c55xx_csl/ccs_v4.0_examples/lcd/CSL_LCDC_DmaIntcExample/
     432 000046 EC31          AMOV #$C$FSL1, XAR3 ; |143| 
         000048 BE00 
         00004a 0000+
     433 00004c EB00          MOV XAR3, dbl(*SP(#0))
         00004e B5   
     434              $C$DW$58        .dwtag  DW_TAG_TI_branch
     435                      .dwattr $C$DW$58, DW_AT_low_pc(0x00)
     436                      .dwattr $C$DW$58, DW_AT_name("_printf")
     437                      .dwattr $C$DW$58, DW_AT_TI_call
     438 00004f 6C00          CALL #_printf ; |143| 
         000051 0000!
     439                                                      ; call occurs [#_printf] ; |143| 
     440                      .dwpsn  file "../c5535_bsl_revc/ezdsp5535_v1/c55xx_csl/ccs_v4.0_examples/lcd/CSL_LCDC_DmaIntcExample/
     441              $C$DW$59        .dwtag  DW_TAG_TI_branch
     442                      .dwattr $C$DW$59, DW_AT_low_pc(0x00)
     443                      .dwattr $C$DW$59, DW_AT_name("_CSL_lcdcDmaIntcTest")
     444                      .dwattr $C$DW$59, DW_AT_TI_call
     445 000053 0800          CALL #_CSL_lcdcDmaIntcTest ; |145| 
         000055 36   
     446                                                      ; call occurs [#_CSL_lcdcDmaIntcTest] ; |145| 
     447 000056 C404          MOV T0, *SP(#2) ; |145| 
     448                      .dwpsn  file "../c5535_bsl_revc/ezdsp5535_v1/c55xx_csl/ccs_v4.0_examples/lcd/CSL_LCDC_DmaIntcExample/
     449 000058 2249          MOV T0, AR1
     450 00005a 6799          BCC $C$L1,AR1 != #0 ; |146| 
     451                                                      ; branchcc occurs ; |146| 
     452                      .dwpsn  file "../c5535_bsl_revc/ezdsp5535_v1/c55xx_csl/ccs_v4.0_examples/lcd/CSL_LCDC_DmaIntcExample/
     453 00005c EC31          AMOV #$C$FSL2, XAR3 ; |148| 
         00005e BE00 
         000060 002A+
     454 000062 EB00          MOV XAR3, dbl(*SP(#0))
         000064 B5   
     455              $C$DW$60        .dwtag  DW_TAG_TI_branch
     456                      .dwattr $C$DW$60, DW_AT_low_pc(0x00)
     457                      .dwattr $C$DW$60, DW_AT_name("_printf")
     458                      .dwattr $C$DW$60, DW_AT_TI_call
     459 000065 6C00          CALL #_printf ; |148| 
         000067 0000!
     460                                                      ; call occurs [#_printf] ; |148| 
     461                      .dwpsn  file "../c5535_bsl_revc/ezdsp5535_v1/c55xx_csl/ccs_v4.0_examples/lcd/CSL_LCDC_DmaIntcExample/
     462 000069 4A13          B $C$L2   ; |149| 
     463                                                      ; branch occurs ; |149| 
     464 00006b       $C$L1:    
     465                      .dwpsn  file "../c5535_bsl_revc/ezdsp5535_v1/c55xx_csl/ccs_v4.0_examples/lcd/CSL_LCDC_DmaIntcExample/
     466 00006b EC31          AMOV #$C$FSL3, XAR3 ; |152| 
         00006d BE00 
TMS320C55x Assembler PC v4.4.1 Sat Sep 29 23:09:15 2018

Tools Copyright (c) 1996-2012 Texas Instruments Incorporated
csl_lcdc_DmaIntcExample.asm                                          PAGE   10

         00006f 0060+
     467 000071 EB00          MOV XAR3, dbl(*SP(#0))
         000073 B5   
     468              $C$DW$61        .dwtag  DW_TAG_TI_branch
     469                      .dwattr $C$DW$61, DW_AT_low_pc(0x00)
     470                      .dwattr $C$DW$61, DW_AT_name("_printf")
     471                      .dwattr $C$DW$61, DW_AT_TI_call
     472 000074 6C00          CALL #_printf ; |152| 
         000076 0000!
     473                                                      ; call occurs [#_printf] ; |152| 
     474                      .dwpsn  file "../c5535_bsl_revc/ezdsp5535_v1/c55xx_csl/ccs_v4.0_examples/lcd/CSL_LCDC_DmaIntcExample/
     475 000078 E631          MOV #0, *(#_PaSs_StAtE) ; |155| 
         00007a 0000 
         00007c 0001-
     476 00007e       $C$L2:    
     477                      .dwpsn  file "../c5535_bsl_revc/ezdsp5535_v1/c55xx_csl/ccs_v4.0_examples/lcd/CSL_LCDC_DmaIntcExample/
     478 00007e A931          MOV *(#_PaSs_StAtE), AR1 ; |161| 
         000080 0000 
         000082 01-  
     479 000083 C931          MOV AR1, *(#_PaSs) ; |161| 
         000085 0000 
         000087 10-  
     480                      .dwpsn  file "../c5535_bsl_revc/ezdsp5535_v1/c55xx_csl/ccs_v4.0_examples/lcd/CSL_LCDC_DmaIntcExample/
     481 000088 4E03          AADD #3, SP
     482                      .dwcfi  cfa_offset, 1
     483              $C$DW$62        .dwtag  DW_TAG_TI_branch
     484                      .dwattr $C$DW$62, DW_AT_low_pc(0x00)
     485                      .dwattr $C$DW$62, DW_AT_TI_return
     486 00008a 4804          RET
     487                                                      ; return occurs
     488                      .dwattr $C$DW$56, DW_AT_TI_end_file("../c5535_bsl_revc/ezdsp5535_v1/c55xx_csl/ccs_v4.0_examples/lcd/C
     489                      .dwattr $C$DW$56, DW_AT_TI_end_line(0xa6)
     490                      .dwattr $C$DW$56, DW_AT_TI_end_column(0x01)
     491                      .dwendentry
     492                      .dwendtag $C$DW$56
     493              
     494 00008c               .sect   ".text"
     495                      .align 4
     496                      .global _CSL_lcdcDmaIntcTest
     497              
     498              $C$DW$63        .dwtag  DW_TAG_subprogram, DW_AT_name("CSL_lcdcDmaIntcTest")
     499                      .dwattr $C$DW$63, DW_AT_low_pc(_CSL_lcdcDmaIntcTest)
     500                      .dwattr $C$DW$63, DW_AT_high_pc(0x00)
     501                      .dwattr $C$DW$63, DW_AT_TI_symbol_name("_CSL_lcdcDmaIntcTest")
     502                      .dwattr $C$DW$63, DW_AT_external
     503                      .dwattr $C$DW$63, DW_AT_type(*$C$DW$T$78)
     504                      .dwattr $C$DW$63, DW_AT_TI_begin_file("../c5535_bsl_revc/ezdsp5535_v1/c55xx_csl/ccs_v4.0_examples/lcd
     505                      .dwattr $C$DW$63, DW_AT_TI_begin_line(0xb5)
     506                      .dwattr $C$DW$63, DW_AT_TI_begin_column(0x0c)
     507                      .dwattr $C$DW$63, DW_AT_TI_max_frame_size(0x3c)
     508                      .dwpsn  file "../c5535_bsl_revc/ezdsp5535_v1/c55xx_csl/ccs_v4.0_examples/lcd/CSL_LCDC_DmaIntcExample/
     509              
     510                      .dwfde $C$DW$CIE, _CSL_lcdcDmaIntcTest
     511              ;*******************************************************************************
     512              ;* FUNCTION NAME: CSL_lcdcDmaIntcTest                                          *
TMS320C55x Assembler PC v4.4.1 Sat Sep 29 23:09:15 2018

Tools Copyright (c) 1996-2012 Texas Instruments Incorporated
csl_lcdc_DmaIntcExample.asm                                          PAGE   11

     513              ;*                                                                             *
     514              ;*   Function Uses Regs : AC0,AC0,T0,T1,AR0,XAR0,AR1,XAR1,AR2,XAR2,AR3,XAR3,SP,*
     515              ;*                        CSR,RPTC,CARRY,TC1,M40,SATA,SATD,RDM,FRCT,SMUL       *
     516              ;*   Stack Frame        : Compact (No Frame Pointer, w/ debug)                 *
     517              ;*   Total Frame Size   : 60 words                                             *
     518              ;*                        (2 return address/alignment)                         *
     519              ;*                        (2 function parameters)                              *
     520              ;*                        (56 local values)                                    *
     521              ;*   Min System Stack   : 1 word                                               *
     522              ;*******************************************************************************
     523 00008c       _CSL_lcdcDmaIntcTest:
     524                      .dwcfi  cfa_offset, 1
     525                      .dwcfi  save_reg_to_mem, 91, -1
     526 00008c 4EC5          AADD #-59, SP
     527                      .dwcfi  cfa_offset, 60
     528              $C$DW$64        .dwtag  DW_TAG_variable, DW_AT_name("status")
     529                      .dwattr $C$DW$64, DW_AT_TI_symbol_name("_status")
     530                      .dwattr $C$DW$64, DW_AT_type(*$C$DW$T$78)
     531                      .dwattr $C$DW$64, DW_AT_location[DW_OP_bregx 0x24 2]
     532              $C$DW$65        .dwtag  DW_TAG_variable, DW_AT_name("lcdcObj")
     533                      .dwattr $C$DW$65, DW_AT_TI_symbol_name("_lcdcObj")
     534                      .dwattr $C$DW$65, DW_AT_type(*$C$DW$T$75)
     535                      .dwattr $C$DW$65, DW_AT_location[DW_OP_bregx 0x24 3]
     536              $C$DW$66        .dwtag  DW_TAG_variable, DW_AT_name("lcdcLiddSetup")
     537                      .dwattr $C$DW$66, DW_AT_TI_symbol_name("_lcdcLiddSetup")
     538                      .dwattr $C$DW$66, DW_AT_type(*$C$DW$T$63)
     539                      .dwattr $C$DW$66, DW_AT_location[DW_OP_bregx 0x24 6]
     540              $C$DW$67        .dwtag  DW_TAG_variable, DW_AT_name("configLIDD")
     541                      .dwattr $C$DW$67, DW_AT_TI_symbol_name("_configLIDD")
     542                      .dwattr $C$DW$67, DW_AT_type(*$C$DW$T$36)
     543                      .dwattr $C$DW$67, DW_AT_location[DW_OP_bregx 0x24 30]
     544              $C$DW$68        .dwtag  DW_TAG_variable, DW_AT_name("timingCs0LIDD")
     545                      .dwattr $C$DW$68, DW_AT_TI_symbol_name("_timingCs0LIDD")
     546                      .dwattr $C$DW$68, DW_AT_type(*$C$DW$T$37)
     547                      .dwattr $C$DW$68, DW_AT_location[DW_OP_bregx 0x24 36]
     548              $C$DW$69        .dwtag  DW_TAG_variable, DW_AT_name("configDma")
     549                      .dwattr $C$DW$69, DW_AT_TI_symbol_name("_configDma")
     550                      .dwattr $C$DW$69, DW_AT_type(*$C$DW$T$65)
     551                      .dwattr $C$DW$69, DW_AT_location[DW_OP_bregx 0x24 44]
     552              $C$DW$70        .dwtag  DW_TAG_variable, DW_AT_name("retVal")
     553                      .dwattr $C$DW$70, DW_AT_TI_symbol_name("_retVal")
     554                      .dwattr $C$DW$70, DW_AT_type(*$C$DW$T$19)
     555                      .dwattr $C$DW$70, DW_AT_location[DW_OP_bregx 0x24 56]
     556              $C$DW$71        .dwtag  DW_TAG_variable, DW_AT_name("i")
     557                      .dwattr $C$DW$71, DW_AT_TI_symbol_name("_i")
     558                      .dwattr $C$DW$71, DW_AT_type(*$C$DW$T$19)
     559                      .dwattr $C$DW$71, DW_AT_location[DW_OP_bregx 0x24 57]
     560                      .dwpsn  file "../c5535_bsl_revc/ezdsp5535_v1/c55xx_csl/ccs_v4.0_examples/lcd/CSL_LCDC_DmaIntcExample/
     561 00008e E63C          MOV #3, *SP(#30) ; |191| 
         000090 03   
     562                      .dwpsn  file "../c5535_bsl_revc/ezdsp5535_v1/c55xx_csl/ccs_v4.0_examples/lcd/CSL_LCDC_DmaIntcExample/
     563 000091 E63E          MOV #1, *SP(#31) ; |192| 
         000093 01   
     564                      .dwpsn  file "../c5535_bsl_revc/ezdsp5535_v1/c55xx_csl/ccs_v4.0_examples/lcd/CSL_LCDC_DmaIntcExample/
     565 000094 E640          MOV #0, *SP(#32) ; |193| 
TMS320C55x Assembler PC v4.4.1 Sat Sep 29 23:09:15 2018

Tools Copyright (c) 1996-2012 Texas Instruments Incorporated
csl_lcdc_DmaIntcExample.asm                                          PAGE   12

         000096 00   
     566                      .dwpsn  file "../c5535_bsl_revc/ezdsp5535_v1/c55xx_csl/ccs_v4.0_examples/lcd/CSL_LCDC_DmaIntcExample/
     567 000097 E642          MOV #0, *SP(#33) ; |194| 
         000099 00   
     568                      .dwpsn  file "../c5535_bsl_revc/ezdsp5535_v1/c55xx_csl/ccs_v4.0_examples/lcd/CSL_LCDC_DmaIntcExample/
     569 00009a E644          MOV #0, *SP(#34) ; |195| 
         00009c 00   
     570                      .dwpsn  file "../c5535_bsl_revc/ezdsp5535_v1/c55xx_csl/ccs_v4.0_examples/lcd/CSL_LCDC_DmaIntcExample/
     571 00009d E646          MOV #3, *SP(#35) ; |196| 
         00009f 03   
     572                      .dwpsn  file "../c5535_bsl_revc/ezdsp5535_v1/c55xx_csl/ccs_v4.0_examples/lcd/CSL_LCDC_DmaIntcExample/
     573 0000a0 E648          MOV #31, *SP(#36) ; |198| 
         0000a2 1F   
     574                      .dwpsn  file "../c5535_bsl_revc/ezdsp5535_v1/c55xx_csl/ccs_v4.0_examples/lcd/CSL_LCDC_DmaIntcExample/
     575 0000a3 E64A          MOV #63, *SP(#37) ; |199| 
         0000a5 3F   
     576                      .dwpsn  file "../c5535_bsl_revc/ezdsp5535_v1/c55xx_csl/ccs_v4.0_examples/lcd/CSL_LCDC_DmaIntcExample/
     577 0000a6 E64C          MOV #15, *SP(#38) ; |200| 
         0000a8 0F   
     578                      .dwpsn  file "../c5535_bsl_revc/ezdsp5535_v1/c55xx_csl/ccs_v4.0_examples/lcd/CSL_LCDC_DmaIntcExample/
     579 0000a9 E64E          MOV #31, *SP(#39) ; |201| 
         0000ab 1F   
     580                      .dwpsn  file "../c5535_bsl_revc/ezdsp5535_v1/c55xx_csl/ccs_v4.0_examples/lcd/CSL_LCDC_DmaIntcExample/
     581 0000ac E650          MOV #63, *SP(#40) ; |202| 
         0000ae 3F   
     582                      .dwpsn  file "../c5535_bsl_revc/ezdsp5535_v1/c55xx_csl/ccs_v4.0_examples/lcd/CSL_LCDC_DmaIntcExample/
     583 0000af E652          MOV #15, *SP(#41) ; |203| 
         0000b1 0F   
     584                      .dwpsn  file "../c5535_bsl_revc/ezdsp5535_v1/c55xx_csl/ccs_v4.0_examples/lcd/CSL_LCDC_DmaIntcExample/
     585 0000b2 E654          MOV #1, *SP(#42) ; |204| 
         0000b4 01   
     586                      .dwpsn  file "../c5535_bsl_revc/ezdsp5535_v1/c55xx_csl/ccs_v4.0_examples/lcd/CSL_LCDC_DmaIntcExample/
     587 0000b5 EC10          AMAR *SP(#8), XAR2
         0000b7 AE   
     588              
     589 0000bb 4D05          RPT #5    ; |207| 
     590 0000b8 EC3C  ||      AMAR *SP(#30), XAR3
         0000ba BE   
     591              
     592                                                          ; loop starts ; |207| 
     593 0000bd       $C$L3:    
     594 0000bd       $C$DW$L$_CSL_lcdcDmaIntcTest$2$B:
     595 0000bd 8065              MOV *AR3+, *AR2+ ; |207| 
         0000bf 14   
     596                                                      ; loop ends ; |207| 
     597 0000c0       $C$DW$L$_CSL_lcdcDmaIntcTest$2$E:
     598 0000c0       $C$L4:    
     599                      .dwpsn  file "../c5535_bsl_revc/ezdsp5535_v1/c55xx_csl/ccs_v4.0_examples/lcd/CSL_LCDC_DmaIntcExample/
     600 0000c0 E62A          MOV #0, *SP(#21) ; |209| 
         0000c2 00   
     601                      .dwpsn  file "../c5535_bsl_revc/ezdsp5535_v1/c55xx_csl/ccs_v4.0_examples/lcd/CSL_LCDC_DmaIntcExample/
     602 0000c3 EC1C          AMAR *SP(#14), XAR2
         0000c5 AE   
     603              
     604 0000c9 4D06          RPT #6    ; |211| 
TMS320C55x Assembler PC v4.4.1 Sat Sep 29 23:09:15 2018

Tools Copyright (c) 1996-2012 Texas Instruments Incorporated
csl_lcdc_DmaIntcExample.asm                                          PAGE   13

     605 0000c6 EC48  ||      AMAR *SP(#36), XAR3
         0000c8 BE   
     606              
     607                                                          ; loop starts ; |211| 
     608 0000cb       $C$L5:    
     609 0000cb       $C$DW$L$_CSL_lcdcDmaIntcTest$4$B:
     610 0000cb 8065              MOV *AR3+, *AR2+ ; |211| 
         0000cd 14   
     611                                                      ; loop ends ; |211| 
     612 0000ce       $C$DW$L$_CSL_lcdcDmaIntcTest$4$E:
     613 0000ce       $C$L6:    
     614                      .dwpsn  file "../c5535_bsl_revc/ezdsp5535_v1/c55xx_csl/ccs_v4.0_examples/lcd/CSL_LCDC_DmaIntcExample/
     615 0000ce 3C00          MOV #0, AC0 ; |213| 
     616 0000d0 EB0C          MOV AC0, dbl(*SP(#6))
         0000d2 08   
     617                      .dwpsn  file "../c5535_bsl_revc/ezdsp5535_v1/c55xx_csl/ccs_v4.0_examples/lcd/CSL_LCDC_DmaIntcExample/
     618 0000d3 E658          MOV #2, *SP(#44) ; |216| 
         0000d5 02   
     619                      .dwpsn  file "../c5535_bsl_revc/ezdsp5535_v1/c55xx_csl/ccs_v4.0_examples/lcd/CSL_LCDC_DmaIntcExample/
     620 0000d6 E65A          MOV #1, *SP(#45) ; |217| 
         0000d8 01   
     621                      .dwpsn  file "../c5535_bsl_revc/ezdsp5535_v1/c55xx_csl/ccs_v4.0_examples/lcd/CSL_LCDC_DmaIntcExample/
     622 0000d9 E65C          MOV #0, *SP(#46) ; |218| 
         0000db 00   
     623                      .dwpsn  file "../c5535_bsl_revc/ezdsp5535_v1/c55xx_csl/ccs_v4.0_examples/lcd/CSL_LCDC_DmaIntcExample/
     624 0000dc E65E          MOV #0, *SP(#47) ; |219| 
         0000de 00   
     625                      .dwpsn  file "../c5535_bsl_revc/ezdsp5535_v1/c55xx_csl/ccs_v4.0_examples/lcd/CSL_LCDC_DmaIntcExample/
     626 0000df 7A00          MOV #(_gLcdBuf >> 16) << #16, AC0 ; |220| 
         0000e1 000A%
     627 0000e3 7E00          OR #(_gLcdBuf & 0xffff), AC0, AC0 ; |220| 
         0000e5 0000%
     628 0000e7 EB60          MOV AC0, dbl(*SP(#48)) ; |220| 
         0000e9 08   
     629                      .dwpsn  file "../c5535_bsl_revc/ezdsp5535_v1/c55xx_csl/ccs_v4.0_examples/lcd/CSL_LCDC_DmaIntcExample/
     630 0000ea 7A00          MOV #((_gLcdBuf+16384) >> 16) << #16, AC0 ; |221| 
         0000ec 000A%
     631 0000ee 7E00          OR #((_gLcdBuf+16384) & 0xffff), AC0, AC0 ; |221| 
         0000f0 0000%
     632 0000f2 EB64          MOV AC0, dbl(*SP(#50)) ; |221| 
         0000f4 08   
     633                      .dwpsn  file "../c5535_bsl_revc/ezdsp5535_v1/c55xx_csl/ccs_v4.0_examples/lcd/CSL_LCDC_DmaIntcExample/
     634 0000f5 7A00          MOV #(_gLcdBuf >> 16) << #16, AC0 ; |222| 
         0000f7 000A%
     635 0000f9 7E00          OR #(_gLcdBuf & 0xffff), AC0, AC0 ; |222| 
         0000fb 0000%
     636 0000fd EB68          MOV AC0, dbl(*SP(#52)) ; |222| 
         0000ff 08   
     637                      .dwpsn  file "../c5535_bsl_revc/ezdsp5535_v1/c55xx_csl/ccs_v4.0_examples/lcd/CSL_LCDC_DmaIntcExample/
     638 000100 7A00          MOV #((_gLcdBuf+16384) >> 16) << #16, AC0 ; |223| 
         000102 000A%
     639 000104 7E00          OR #((_gLcdBuf+16384) & 0xffff), AC0, AC0 ; |223| 
         000106 0000%
     640 000108 EB6C          MOV AC0, dbl(*SP(#54)) ; |223| 
         00010a 08   
TMS320C55x Assembler PC v4.4.1 Sat Sep 29 23:09:15 2018

Tools Copyright (c) 1996-2012 Texas Instruments Incorporated
csl_lcdc_DmaIntcExample.asm                                          PAGE   14

     641                      .dwpsn  file "../c5535_bsl_revc/ezdsp5535_v1/c55xx_csl/ccs_v4.0_examples/lcd/CSL_LCDC_DmaIntcExample/
     642              $C$DW$72        .dwtag  DW_TAG_TI_branch
     643                      .dwattr $C$DW$72, DW_AT_low_pc(0x00)
     644                      .dwattr $C$DW$72, DW_AT_name("_LCD_init")
     645                      .dwattr $C$DW$72, DW_AT_TI_call
     646 00010b 6C00          CALL #_LCD_init ; |226| 
         00010d 0000!
     647                                                      ; call occurs [#_LCD_init] ; |226| 
     648 00010f C404          MOV T0, *SP(#2) ; |226| 
     649                      .dwpsn  file "../c5535_bsl_revc/ezdsp5535_v1/c55xx_csl/ccs_v4.0_examples/lcd/CSL_LCDC_DmaIntcExample/
     650 000111 2249          MOV T0, AR1
     651 000113 0409          BCC $C$L7,AR1 == #0 ; |227| 
         000115 12   
     652                                                      ; branchcc occurs ; |227| 
     653                      .dwpsn  file "../c5535_bsl_revc/ezdsp5535_v1/c55xx_csl/ccs_v4.0_examples/lcd/CSL_LCDC_DmaIntcExample/
     654 000116 EC31          AMOV #$C$FSL4, XAR3 ; |229| 
         000118 BE00 
         00011a 0092+
     655 00011c EB00          MOV XAR3, dbl(*SP(#0))
         00011e B5   
     656              $C$DW$73        .dwtag  DW_TAG_TI_branch
     657                      .dwattr $C$DW$73, DW_AT_low_pc(0x00)
     658                      .dwattr $C$DW$73, DW_AT_name("_printf")
     659                      .dwattr $C$DW$73, DW_AT_TI_call
     660 00011f 6C00          CALL #_printf ; |229| 
         000121 0000!
     661                                                      ; call occurs [#_printf] ; |229| 
     662                      .dwpsn  file "../c5535_bsl_revc/ezdsp5535_v1/c55xx_csl/ccs_v4.0_examples/lcd/CSL_LCDC_DmaIntcExample/
     663 000123 A404          MOV *SP(#2), T0 ; |230| 
     664 000125 0602          B $C$L23  ; |230| 
         000127 BD   
     665                                                      ; branch occurs ; |230| 
     666 000128       $C$L7:    
     667                      .dwpsn  file "../c5535_bsl_revc/ezdsp5535_v1/c55xx_csl/ccs_v4.0_examples/lcd/CSL_LCDC_DmaIntcExample/
     668 000128 EC31          AMOV #$C$FSL5, XAR3 ; |234| 
         00012a BE00 
         00012c 00A4+
     669 00012e EB00          MOV XAR3, dbl(*SP(#0))
         000130 B5   
     670              $C$DW$74        .dwtag  DW_TAG_TI_branch
     671                      .dwattr $C$DW$74, DW_AT_low_pc(0x00)
     672                      .dwattr $C$DW$74, DW_AT_name("_printf")
     673                      .dwattr $C$DW$74, DW_AT_TI_call
     674 000131 6C00          CALL #_printf ; |234| 
         000133 0000!
     675                                                      ; call occurs [#_printf] ; |234| 
     676                      .dwpsn  file "../c5535_bsl_revc/ezdsp5535_v1/c55xx_csl/ccs_v4.0_examples/lcd/CSL_LCDC_DmaIntcExample/
     677 000135 A951          MOV *port(#7168), AR1 ; |238| 
         000137 1C00 
     678 000139 7D8F          AND #0x8fff, AR1, AC0 ; |238| 
         00013b FF09 
     679 00013d EC1A          BSET @#13, AC0 ; |238| 
         00013f 00   
     680 000140 C051          MOV AC0, *port(#7168) ; |238| 
         000142 1C00 
TMS320C55x Assembler PC v4.4.1 Sat Sep 29 23:09:15 2018

Tools Copyright (c) 1996-2012 Texas Instruments Incorporated
csl_lcdc_DmaIntcExample.asm                                          PAGE   15

     681                      .dwpsn  file "../c5535_bsl_revc/ezdsp5535_v1/c55xx_csl/ccs_v4.0_examples/lcd/CSL_LCDC_DmaIntcExample/
     682 000144 A951          MOV *port(#7168), AR1 ; |239| 
         000146 1C00 
     683 000148 7DF3          AND #0xf3ff, AR1, AC0 ; |239| 
         00014a FF09 
     684 00014c EC16          BSET @#11, AC0 ; |239| 
         00014e 00   
     685 00014f C051          MOV AC0, *port(#7168) ; |239| 
         000151 1C00 
     686                      .dwpsn  file "../c5535_bsl_revc/ezdsp5535_v1/c55xx_csl/ccs_v4.0_examples/lcd/CSL_LCDC_DmaIntcExample/
     687 000153 FB51          MOV #2048, *port(#7174) ; |240| 
         000155 0800 
         000157 1C06 
     688                      .dwpsn  file "../c5535_bsl_revc/ezdsp5535_v1/c55xx_csl/ccs_v4.0_examples/lcd/CSL_LCDC_DmaIntcExample/
     689 000159 FB51          MOV #2048, *port(#7178) ; |241| 
         00015b 0800 
         00015d 1C0A 
     690                      .dwpsn  file "../c5535_bsl_revc/ezdsp5535_v1/c55xx_csl/ccs_v4.0_examples/lcd/CSL_LCDC_DmaIntcExample/
     691              $C$DW$75        .dwtag  DW_TAG_TI_branch
     692                      .dwattr $C$DW$75, DW_AT_low_pc(0x00)
     693                      .dwattr $C$DW$75, DW_AT_name("_IRQ_globalDisable")
     694                      .dwattr $C$DW$75, DW_AT_TI_call
     695 00015f 6C00          CALL #_IRQ_globalDisable ; |244| 
         000161 0000!
     696                                                      ; call occurs [#_IRQ_globalDisable] ; |244| 
     697                      .dwpsn  file "../c5535_bsl_revc/ezdsp5535_v1/c55xx_csl/ccs_v4.0_examples/lcd/CSL_LCDC_DmaIntcExample/
     698              $C$DW$76        .dwtag  DW_TAG_TI_branch
     699                      .dwattr $C$DW$76, DW_AT_low_pc(0x00)
     700                      .dwattr $C$DW$76, DW_AT_name("_IRQ_clearAll")
     701                      .dwattr $C$DW$76, DW_AT_TI_call
     702 000163 6C00          CALL #_IRQ_clearAll ; |247| 
         000165 0000!
     703                                                      ; call occurs [#_IRQ_clearAll] ; |247| 
     704                      .dwpsn  file "../c5535_bsl_revc/ezdsp5535_v1/c55xx_csl/ccs_v4.0_examples/lcd/CSL_LCDC_DmaIntcExample/
     705              $C$DW$77        .dwtag  DW_TAG_TI_branch
     706                      .dwattr $C$DW$77, DW_AT_low_pc(0x00)
     707                      .dwattr $C$DW$77, DW_AT_name("_IRQ_disableAll")
     708                      .dwattr $C$DW$77, DW_AT_TI_call
     709 000167 6C00          CALL #_IRQ_disableAll ; |250| 
         000169 0000!
     710                                                      ; call occurs [#_IRQ_disableAll] ; |250| 
     711                      .dwpsn  file "../c5535_bsl_revc/ezdsp5535_v1/c55xx_csl/ccs_v4.0_examples/lcd/CSL_LCDC_DmaIntcExample/
     712 00016b 7A00          MOV #(_VECSTART >> 16) << #16, AC0 ; |252| 
         00016d 000A%
     713 00016f 7E00          OR #(_VECSTART & 0xffff), AC0, AC0 ; |252| 
         000171 0000%
     714              $C$DW$78        .dwtag  DW_TAG_TI_branch
     715                      .dwattr $C$DW$78, DW_AT_low_pc(0x00)
     716                      .dwattr $C$DW$78, DW_AT_name("_IRQ_setVecs")
     717                      .dwattr $C$DW$78, DW_AT_TI_call
     718 000173 6C00          CALL #_IRQ_setVecs ; |252| 
         000175 0000!
     719                                                      ; call occurs [#_IRQ_setVecs] ; |252| 
     720                      .dwpsn  file "../c5535_bsl_revc/ezdsp5535_v1/c55xx_csl/ccs_v4.0_examples/lcd/CSL_LCDC_DmaIntcExample/
     721              $C$DW$79        .dwtag  DW_TAG_TI_branch
TMS320C55x Assembler PC v4.4.1 Sat Sep 29 23:09:15 2018

Tools Copyright (c) 1996-2012 Texas Instruments Incorporated
csl_lcdc_DmaIntcExample.asm                                          PAGE   16

     722                      .dwattr $C$DW$79, DW_AT_low_pc(0x00)
     723                      .dwattr $C$DW$79, DW_AT_name("_IRQ_clear")
     724                      .dwattr $C$DW$79, DW_AT_TI_call
     725              
     726 000177 6C00          CALL #_IRQ_clear ; |253| 
         000179 0000!
     727 00017b 3DC4  ||      MOV #12, T0
     728              
     729                                                      ; call occurs [#_IRQ_clear] ; |253| 
     730                      .dwpsn  file "../c5535_bsl_revc/ezdsp5535_v1/c55xx_csl/ccs_v4.0_examples/lcd/CSL_LCDC_DmaIntcExample/
     731 00017d 7A00          MOV #(_lcd_isr >> 16) << #16, AC0 ; |255| 
         00017f 000A%
     732 000181 7E00          OR #(_lcd_isr & 0xffff), AC0, AC0 ; |255| 
         000183 0000%
     733              $C$DW$80        .dwtag  DW_TAG_TI_branch
     734                      .dwattr $C$DW$80, DW_AT_low_pc(0x00)
     735                      .dwattr $C$DW$80, DW_AT_name("_IRQ_plug")
     736                      .dwattr $C$DW$80, DW_AT_TI_call
     737              
     738 000185 6C00          CALL #_IRQ_plug ; |255| 
         000187 0000!
     739 000189 3DC4  ||      MOV #12, T0
     740              
     741                                                      ; call occurs [#_IRQ_plug] ; |255| 
     742                      .dwpsn  file "../c5535_bsl_revc/ezdsp5535_v1/c55xx_csl/ccs_v4.0_examples/lcd/CSL_LCDC_DmaIntcExample/
     743              $C$DW$81        .dwtag  DW_TAG_TI_branch
     744                      .dwattr $C$DW$81, DW_AT_low_pc(0x00)
     745                      .dwattr $C$DW$81, DW_AT_name("_IRQ_enable")
     746                      .dwattr $C$DW$81, DW_AT_TI_call
     747              
     748 00018b 6C00          CALL #_IRQ_enable ; |257| 
         00018d 0000!
     749 00018f 3DC4  ||      MOV #12, T0
     750              
     751                                                      ; call occurs [#_IRQ_enable] ; |257| 
     752                      .dwpsn  file "../c5535_bsl_revc/ezdsp5535_v1/c55xx_csl/ccs_v4.0_examples/lcd/CSL_LCDC_DmaIntcExample/
     753              $C$DW$82        .dwtag  DW_TAG_TI_branch
     754                      .dwattr $C$DW$82, DW_AT_low_pc(0x00)
     755                      .dwattr $C$DW$82, DW_AT_name("_IRQ_globalEnable")
     756                      .dwattr $C$DW$82, DW_AT_TI_call
     757 000191 6C00          CALL #_IRQ_globalEnable ; |259| 
         000193 0000!
     758                                                      ; call occurs [#_IRQ_globalEnable] ; |259| 
     759                      .dwpsn  file "../c5535_bsl_revc/ezdsp5535_v1/c55xx_csl/ccs_v4.0_examples/lcd/CSL_LCDC_DmaIntcExample/
     760 000195 EC06          AMAR *SP(#3), XAR0
         000197 8E   
     761 000198 EC04          AMAR *SP(#2), XAR1
         00019a 9E   
     762              $C$DW$83        .dwtag  DW_TAG_TI_branch
     763                      .dwattr $C$DW$83, DW_AT_low_pc(0x00)
     764                      .dwattr $C$DW$83, DW_AT_name("_LCD_open")
     765                      .dwattr $C$DW$83, DW_AT_TI_call
     766              
     767 00019b 6C00          CALL #_LCD_open ; |262| 
         00019d 0000!
TMS320C55x Assembler PC v4.4.1 Sat Sep 29 23:09:15 2018

Tools Copyright (c) 1996-2012 Texas Instruments Incorporated
csl_lcdc_DmaIntcExample.asm                                          PAGE   17

     768 00019f 3D04  ||      MOV #0, T0
     769              
     770                                                      ; call occurs [#_LCD_open] ; |262| 
     771 0001a1 EB31          MOV XAR0, dbl(*(#_hLcdc))
         0001a3 8500 
         0001a5 0002-
     772                      .dwpsn  file "../c5535_bsl_revc/ezdsp5535_v1/c55xx_csl/ccs_v4.0_examples/lcd/CSL_LCDC_DmaIntcExample/
     773 0001a7 ED31          MOV dbl(*(#_hLcdc)), XAR3
         0001a9 BF00 
         0001ab 0002-
     774 0001ad 90B0          MOV XAR3, AC0
     775 0001af 0410          BCC $C$L8,AC0 != #0 ; |263| 
         0001b1 12   
     776                                                      ; branchcc occurs ; |263| 
     777                      .dwpsn  file "../c5535_bsl_revc/ezdsp5535_v1/c55xx_csl/ccs_v4.0_examples/lcd/CSL_LCDC_DmaIntcExample/
     778 0001b2 EC31          AMOV #$C$FSL6, XAR3 ; |265| 
         0001b4 BE00 
         0001b6 00BA+
     779 0001b8 EB00          MOV XAR3, dbl(*SP(#0))
         0001ba B5   
     780              $C$DW$84        .dwtag  DW_TAG_TI_branch
     781                      .dwattr $C$DW$84, DW_AT_low_pc(0x00)
     782                      .dwattr $C$DW$84, DW_AT_name("_printf")
     783                      .dwattr $C$DW$84, DW_AT_TI_call
     784 0001bb 6C00          CALL #_printf ; |265| 
         0001bd 0000!
     785                                                      ; call occurs [#_printf] ; |265| 
     786                      .dwpsn  file "../c5535_bsl_revc/ezdsp5535_v1/c55xx_csl/ccs_v4.0_examples/lcd/CSL_LCDC_DmaIntcExample/
     787 0001bf 3E14          MOV #-1, T0
     788 0001c1 0602          B $C$L23  ; |266| 
         0001c3 21   
     789                                                      ; branch occurs ; |266| 
     790 0001c4       $C$L8:    
     791                      .dwpsn  file "../c5535_bsl_revc/ezdsp5535_v1/c55xx_csl/ccs_v4.0_examples/lcd/CSL_LCDC_DmaIntcExample/
     792 0001c4 EC31          AMOV #$C$FSL7, XAR3 ; |270| 
         0001c6 BE00 
         0001c8 00CC+
     793 0001ca EB00          MOV XAR3, dbl(*SP(#0))
         0001cc B5   
     794              $C$DW$85        .dwtag  DW_TAG_TI_branch
     795                      .dwattr $C$DW$85, DW_AT_low_pc(0x00)
     796                      .dwattr $C$DW$85, DW_AT_name("_printf")
     797                      .dwattr $C$DW$85, DW_AT_TI_call
     798 0001cd 6C00          CALL #_printf ; |270| 
         0001cf 0000!
     799                                                      ; call occurs [#_printf] ; |270| 
     800                      .dwpsn  file "../c5535_bsl_revc/ezdsp5535_v1/c55xx_csl/ccs_v4.0_examples/lcd/CSL_LCDC_DmaIntcExample/
     801 0001d1 EC0C          AMAR *SP(#6), XAR1
         0001d3 9E   
     802 0001d4 ED31          MOV dbl(*(#_hLcdc)), XAR0
         0001d6 8F00 
         0001d8 0002-
     803              $C$DW$86        .dwtag  DW_TAG_TI_branch
     804                      .dwattr $C$DW$86, DW_AT_low_pc(0x00)
     805                      .dwattr $C$DW$86, DW_AT_name("_LCD_setup")
TMS320C55x Assembler PC v4.4.1 Sat Sep 29 23:09:15 2018

Tools Copyright (c) 1996-2012 Texas Instruments Incorporated
csl_lcdc_DmaIntcExample.asm                                          PAGE   18

     806                      .dwattr $C$DW$86, DW_AT_TI_call
     807 0001da 6C00          CALL #_LCD_setup ; |274| 
         0001dc 0000!
     808                                                      ; call occurs [#_LCD_setup] ; |274| 
     809 0001de C404          MOV T0, *SP(#2) ; |274| 
     810                      .dwpsn  file "../c5535_bsl_revc/ezdsp5535_v1/c55xx_csl/ccs_v4.0_examples/lcd/CSL_LCDC_DmaIntcExample/
     811 0001e0 2249          MOV T0, AR1
     812 0001e2 0409          BCC $C$L9,AR1 == #0 ; |275| 
         0001e4 12   
     813                                                      ; branchcc occurs ; |275| 
     814                      .dwpsn  file "../c5535_bsl_revc/ezdsp5535_v1/c55xx_csl/ccs_v4.0_examples/lcd/CSL_LCDC_DmaIntcExample/
     815 0001e5 EC31          AMOV #$C$FSL8, XAR3 ; |277| 
         0001e7 BE00 
         0001e9 00E2+
     816 0001eb EB00          MOV XAR3, dbl(*SP(#0))
         0001ed B5   
     817              $C$DW$87        .dwtag  DW_TAG_TI_branch
     818                      .dwattr $C$DW$87, DW_AT_low_pc(0x00)
     819                      .dwattr $C$DW$87, DW_AT_name("_printf")
     820                      .dwattr $C$DW$87, DW_AT_TI_call
     821 0001ee 6C00          CALL #_printf ; |277| 
         0001f0 0000!
     822                                                      ; call occurs [#_printf] ; |277| 
     823                      .dwpsn  file "../c5535_bsl_revc/ezdsp5535_v1/c55xx_csl/ccs_v4.0_examples/lcd/CSL_LCDC_DmaIntcExample/
     824 0001f2 A404          MOV *SP(#2), T0 ; |278| 
     825 0001f4 0601          B $C$L23  ; |278| 
         0001f6 EE   
     826                                                      ; branch occurs ; |278| 
     827 0001f7       $C$L9:    
     828                      .dwpsn  file "../c5535_bsl_revc/ezdsp5535_v1/c55xx_csl/ccs_v4.0_examples/lcd/CSL_LCDC_DmaIntcExample/
     829 0001f7 EC31          AMOV #$C$FSL9, XAR3 ; |282| 
         0001f9 BE00 
         0001fb 00F4+
     830 0001fd EB00          MOV XAR3, dbl(*SP(#0))
         0001ff B5   
     831              $C$DW$88        .dwtag  DW_TAG_TI_branch
     832                      .dwattr $C$DW$88, DW_AT_low_pc(0x00)
     833                      .dwattr $C$DW$88, DW_AT_name("_printf")
     834                      .dwattr $C$DW$88, DW_AT_TI_call
     835 000200 6C00          CALL #_printf ; |282| 
         000202 0000!
     836                                                      ; call occurs [#_printf] ; |282| 
     837                      .dwpsn  file "../c5535_bsl_revc/ezdsp5535_v1/c55xx_csl/ccs_v4.0_examples/lcd/CSL_LCDC_DmaIntcExample/
     838              $C$DW$89        .dwtag  DW_TAG_TI_branch
     839                      .dwattr $C$DW$89, DW_AT_low_pc(0x00)
     840                      .dwattr $C$DW$89, DW_AT_name("_panelSetup")
     841                      .dwattr $C$DW$89, DW_AT_TI_call
     842              
     843 000204 6C00          CALL #_panelSetup ; |286| 
         000206 0000!
     844 000208 3D04  ||      MOV #0, T0
     845              
     846                                                      ; call occurs [#_panelSetup] ; |286| 
     847                      .dwpsn  file "../c5535_bsl_revc/ezdsp5535_v1/c55xx_csl/ccs_v4.0_examples/lcd/CSL_LCDC_DmaIntcExample/
     848 00020a 7600          MOV #60, AR1 ; |289| 
TMS320C55x Assembler PC v4.4.1 Sat Sep 29 23:09:15 2018

Tools Copyright (c) 1996-2012 Texas Instruments Incorporated
csl_lcdc_DmaIntcExample.asm                                          PAGE   19

         00020c 3C98 
     849 00020e 7600          MOV #120, AR0 ; |289| 
         000210 7888 
     850              
     851 000212 3C05          MOV #0, T1
     852 000214 3D0A  ||      MOV #0, AR2
     853              
     854              $C$DW$90        .dwtag  DW_TAG_TI_branch
     855                      .dwattr $C$DW$90, DW_AT_low_pc(0x00)
     856                      .dwattr $C$DW$90, DW_AT_name("_windowSetup")
     857                      .dwattr $C$DW$90, DW_AT_TI_call
     858              
     859 000216 6C00          CALL #_windowSetup ; |289| 
         000218 0000!
     860 00021a 3D04  ||      MOV #0, T0
     861              
     862                                                      ; call occurs [#_windowSetup] ; |289| 
     863 00021c C470          MOV T0, *SP(#56) ; |289| 
     864                      .dwpsn  file "../c5535_bsl_revc/ezdsp5535_v1/c55xx_csl/ccs_v4.0_examples/lcd/CSL_LCDC_DmaIntcExample/
     865 00021e 2249          MOV T0, AR1
     866 000220 0409          BCC $C$L10,AR1 == #0 ; |290| 
         000222 12   
     867                                                      ; branchcc occurs ; |290| 
     868                      .dwpsn  file "../c5535_bsl_revc/ezdsp5535_v1/c55xx_csl/ccs_v4.0_examples/lcd/CSL_LCDC_DmaIntcExample/
     869 000223 EC31          AMOV #$C$FSL10, XAR3 ; |292| 
         000225 BE00 
         000227 010A+
     870 000229 EB00          MOV XAR3, dbl(*SP(#0))
         00022b B5   
     871              $C$DW$91        .dwtag  DW_TAG_TI_branch
     872                      .dwattr $C$DW$91, DW_AT_low_pc(0x00)
     873                      .dwattr $C$DW$91, DW_AT_name("_printf")
     874                      .dwattr $C$DW$91, DW_AT_TI_call
     875 00022c 6C00          CALL #_printf ; |292| 
         00022e 0000!
     876                                                      ; call occurs [#_printf] ; |292| 
     877                      .dwpsn  file "../c5535_bsl_revc/ezdsp5535_v1/c55xx_csl/ccs_v4.0_examples/lcd/CSL_LCDC_DmaIntcExample/
     878 000230 3E14          MOV #-1, T0
     879 000232 0601          B $C$L23  ; |293| 
         000234 B0   
     880                                                      ; branch occurs ; |293| 
     881 000235       $C$L10:    
     882                      .dwpsn  file "../c5535_bsl_revc/ezdsp5535_v1/c55xx_csl/ccs_v4.0_examples/lcd/CSL_LCDC_DmaIntcExample/
     883 000235 EC31          AMOV #$C$FSL11, XAR3 ; |297| 
         000237 BE00 
         000239 011E+
     884 00023b EB00          MOV XAR3, dbl(*SP(#0))
         00023d B5   
     885              $C$DW$92        .dwtag  DW_TAG_TI_branch
     886                      .dwattr $C$DW$92, DW_AT_low_pc(0x00)
     887                      .dwattr $C$DW$92, DW_AT_name("_printf")
     888                      .dwattr $C$DW$92, DW_AT_TI_call
     889 00023e 6C00          CALL #_printf ; |297| 
         000240 0000!
     890                                                      ; call occurs [#_printf] ; |297| 
TMS320C55x Assembler PC v4.4.1 Sat Sep 29 23:09:15 2018

Tools Copyright (c) 1996-2012 Texas Instruments Incorporated
csl_lcdc_DmaIntcExample.asm                                          PAGE   20

     891                      .dwpsn  file "../c5535_bsl_revc/ezdsp5535_v1/c55xx_csl/ccs_v4.0_examples/lcd/CSL_LCDC_DmaIntcExample/
     892 000242 E672          MOV #0, *SP(#57) ; |303| 
         000244 00   
     893                      .dwpsn  file "../c5535_bsl_revc/ezdsp5535_v1/c55xx_csl/ccs_v4.0_examples/lcd/CSL_LCDC_DmaIntcExample/
     894 000245 7640          MOV #16384, AR2 ; |303| 
         000247 00A8 
     895 000249 A972          MOV *SP(#57), AR1 ; |303| 
     896 00024b 1298          CMPU AR1 >= AR2, TC1 ; |303| 
         00024d A4   
     897 00024e 0464          BCC $C$L12,TC1 ; |303| 
         000250 1F   
     898                                                      ; branchcc occurs ; |303| 
     899 000251       $C$L11:    
     900 000251       $C$DW$L$_CSL_lcdcDmaIntcTest$18$B:
     901                      .dwpsn  file "../c5535_bsl_revc/ezdsp5535_v1/c55xx_csl/ccs_v4.0_examples/lcd/CSL_LCDC_DmaIntcExample/
     902 000251 A472          MOV *SP(#57), T0 ; |304| 
     903 000253 EC31          AMOV #_gLcdBuf, XAR3 ; |304| 
         000255 BE00 
         000257 0000-
     904 000259 E66B          MOV #0, *AR3(T0) ; |304| 
         00025b 00   
     905                      .dwpsn  file "../c5535_bsl_revc/ezdsp5535_v1/c55xx_csl/ccs_v4.0_examples/lcd/CSL_LCDC_DmaIntcExample/
     906 00025c A472          MOV *SP(#57), T0 ; |305| 
     907 00025e 4014          ADD #1, T0 ; |305| 
     908 000260 FB6B          MOV #248, *AR3(T0) ; |305| 
         000262 00F8 
     909                      .dwpsn  file "../c5535_bsl_revc/ezdsp5535_v1/c55xx_csl/ccs_v4.0_examples/lcd/CSL_LCDC_DmaIntcExample/
     910 000264 F772          ADD #2, *SP(#57) ; |303| 
         000266 0002 
     911                      .dwpsn  file "../c5535_bsl_revc/ezdsp5535_v1/c55xx_csl/ccs_v4.0_examples/lcd/CSL_LCDC_DmaIntcExample/
     912 000268 A972          MOV *SP(#57), AR1 ; |303| 
     913 00026a 1294          CMPU AR1 < AR2, TC1 ; |303| 
         00026c A4   
     914 00026d 0464          BCC $C$L11,TC1 ; |303| 
         00026f E1   
     915                                                      ; branchcc occurs ; |303| 
     916 000270       $C$DW$L$_CSL_lcdcDmaIntcTest$18$E:
     917 000270       $C$L12:    
     918                      .dwpsn  file "../c5535_bsl_revc/ezdsp5535_v1/c55xx_csl/ccs_v4.0_examples/lcd/CSL_LCDC_DmaIntcExample/
     919 000270 E631          MOV #0, *(#_cnt_lcd) ; |308| 
         000272 0000 
         000274 0000-
     920                      .dwpsn  file "../c5535_bsl_revc/ezdsp5535_v1/c55xx_csl/ccs_v4.0_examples/lcd/CSL_LCDC_DmaIntcExample/
     921 000276 7600          MOV #92, T0 ; |309| 
         000278 5C48 
     922              $C$DW$93        .dwtag  DW_TAG_TI_branch
     923                      .dwattr $C$DW$93, DW_AT_low_pc(0x00)
     924                      .dwattr $C$DW$93, DW_AT_name("_cmdWrite")
     925                      .dwattr $C$DW$93, DW_AT_TI_call
     926              
     927 00027a 6C00          CALL #_cmdWrite ; |309| 
         00027c 0000!
     928 00027e 3D05  ||      MOV #0, T1
     929              
     930                                                      ; call occurs [#_cmdWrite] ; |309| 
TMS320C55x Assembler PC v4.4.1 Sat Sep 29 23:09:15 2018

Tools Copyright (c) 1996-2012 Texas Instruments Incorporated
csl_lcdc_DmaIntcExample.asm                                          PAGE   21

     931                      .dwpsn  file "../c5535_bsl_revc/ezdsp5535_v1/c55xx_csl/ccs_v4.0_examples/lcd/CSL_LCDC_DmaIntcExample/
     932 000280 EC58          AMAR *SP(#44), XAR1
         000282 9E   
     933 000283 ED31          MOV dbl(*(#_hLcdc)), XAR0
         000285 8F00 
         000287 0002-
     934              $C$DW$94        .dwtag  DW_TAG_TI_branch
     935                      .dwattr $C$DW$94, DW_AT_low_pc(0x00)
     936                      .dwattr $C$DW$94, DW_AT_name("_LCD_configDMA")
     937                      .dwattr $C$DW$94, DW_AT_TI_call
     938 000289 6C00          CALL #_LCD_configDMA ; |311| 
         00028b 0000!
     939                                                      ; call occurs [#_LCD_configDMA] ; |311| 
     940 00028d C404          MOV T0, *SP(#2) ; |311| 
     941                      .dwpsn  file "../c5535_bsl_revc/ezdsp5535_v1/c55xx_csl/ccs_v4.0_examples/lcd/CSL_LCDC_DmaIntcExample/
     942 00028f 2249          MOV T0, AR1
     943 000291 0409          BCC $C$L13,AR1 == #0 ; |312| 
         000293 12   
     944                                                      ; branchcc occurs ; |312| 
     945                      .dwpsn  file "../c5535_bsl_revc/ezdsp5535_v1/c55xx_csl/ccs_v4.0_examples/lcd/CSL_LCDC_DmaIntcExample/
     946 000294 EC31          AMOV #$C$FSL12, XAR3 ; |314| 
         000296 BE00 
         000298 0136+
     947 00029a EB00          MOV XAR3, dbl(*SP(#0))
         00029c B5   
     948              $C$DW$95        .dwtag  DW_TAG_TI_branch
     949                      .dwattr $C$DW$95, DW_AT_low_pc(0x00)
     950                      .dwattr $C$DW$95, DW_AT_name("_printf")
     951                      .dwattr $C$DW$95, DW_AT_TI_call
     952 00029d 6C00          CALL #_printf ; |314| 
         00029f 0000!
     953                                                      ; call occurs [#_printf] ; |314| 
     954                      .dwpsn  file "../c5535_bsl_revc/ezdsp5535_v1/c55xx_csl/ccs_v4.0_examples/lcd/CSL_LCDC_DmaIntcExample/
     955 0002a1 A404          MOV *SP(#2), T0 ; |315| 
     956 0002a3 0601          B $C$L23  ; |315| 
         0002a5 3F   
     957                                                      ; branch occurs ; |315| 
     958 0002a6       $C$L13:    
     959                      .dwpsn  file "../c5535_bsl_revc/ezdsp5535_v1/c55xx_csl/ccs_v4.0_examples/lcd/CSL_LCDC_DmaIntcExample/
     960 0002a6 EC31          AMOV #$C$FSL13, XAR3 ; |319| 
         0002a8 BE00 
         0002aa 014C+
     961 0002ac EB00          MOV XAR3, dbl(*SP(#0))
         0002ae B5   
     962              $C$DW$96        .dwtag  DW_TAG_TI_branch
     963                      .dwattr $C$DW$96, DW_AT_low_pc(0x00)
     964                      .dwattr $C$DW$96, DW_AT_name("_printf")
     965                      .dwattr $C$DW$96, DW_AT_TI_call
     966 0002af 6C00          CALL #_printf ; |319| 
         0002b1 0000!
     967                                                      ; call occurs [#_printf] ; |319| 
     968                      .dwpsn  file "../c5535_bsl_revc/ezdsp5535_v1/c55xx_csl/ccs_v4.0_examples/lcd/CSL_LCDC_DmaIntcExample/
     969 0002b3 ED31          MOV dbl(*(#_hLcdc)), XAR0
         0002b5 8F00 
         0002b7 0002-
TMS320C55x Assembler PC v4.4.1 Sat Sep 29 23:09:15 2018

Tools Copyright (c) 1996-2012 Texas Instruments Incorporated
csl_lcdc_DmaIntcExample.asm                                          PAGE   22

     970              $C$DW$97        .dwtag  DW_TAG_TI_branch
     971                      .dwattr $C$DW$97, DW_AT_low_pc(0x00)
     972                      .dwattr $C$DW$97, DW_AT_name("_CSL_lcdcEnableLiddDMA")
     973                      .dwattr $C$DW$97, DW_AT_TI_call
     974 0002b9 08FD          CALL #_CSL_lcdcEnableLiddDMA ; |323| 
         0002bb 44   
     975                                                      ; call occurs [#_CSL_lcdcEnableLiddDMA] ; |323| 
     976                      .dwpsn  file "../c5535_bsl_revc/ezdsp5535_v1/c55xx_csl/ccs_v4.0_examples/lcd/CSL_LCDC_DmaIntcExample/
     977 0002bc F031          CMP *(#_cnt_lcd) == #2, TC1 ; |326| 
         0002be 0002 
         0002c0 0000 
         0002c2 00-  
     978 0002c3 6564          BCC $C$L15,TC1 ; |326| 
     979                                                      ; branchcc occurs ; |326| 
     980 0002c5       $C$L14:    
     981 0002c5       $C$DW$L$_CSL_lcdcDmaIntcTest$23$B:
     982 0002c5 F031          CMP *(#_cnt_lcd) == #2, TC1 ; |326| 
         0002c7 0002 
         0002c9 0000 
         0002cb 00-  
     983 0002cc 0474          BCC $C$L14,!TC1 ; |326| 
         0002ce F6   
     984                                                      ; branchcc occurs ; |326| 
     985 0002cf       $C$DW$L$_CSL_lcdcDmaIntcTest$23$E:
     986 0002cf       $C$L15:    
     987                      .dwpsn  file "../c5535_bsl_revc/ezdsp5535_v1/c55xx_csl/ccs_v4.0_examples/lcd/CSL_LCDC_DmaIntcExample/
     988 0002cf ED31          MOV dbl(*(#_hLcdc)), XAR0
         0002d1 8F00 
         0002d3 0002-
     989              $C$DW$98        .dwtag  DW_TAG_TI_branch
     990                      .dwattr $C$DW$98, DW_AT_low_pc(0x00)
     991                      .dwattr $C$DW$98, DW_AT_name("_CSL_lcdcDisableLiddDMA")
     992                      .dwattr $C$DW$98, DW_AT_TI_call
     993 0002d5 08FD          CALL #_CSL_lcdcDisableLiddDMA ; |329| 
         0002d7 4C   
     994                                                      ; call occurs [#_CSL_lcdcDisableLiddDMA] ; |329| 
     995                      .dwpsn  file "../c5535_bsl_revc/ezdsp5535_v1/c55xx_csl/ccs_v4.0_examples/lcd/CSL_LCDC_DmaIntcExample/
     996 0002d8 E631          MOV #0, *(#_cnt_lcd) ; |330| 
         0002da 0000 
         0002dc 0000-
     997                      .dwpsn  file "../c5535_bsl_revc/ezdsp5535_v1/c55xx_csl/ccs_v4.0_examples/lcd/CSL_LCDC_DmaIntcExample/
     998 0002de 7600          MOV #60, T1 ; |333| 
         0002e0 3C58 
     999 0002e2 7600          MOV #120, AR1 ; |333| 
         0002e4 7898 
    1000              
    1001 0002e6 7600          MOV #120, AR0 ; |333| 
         0002e8 7888 
    1002 0002ea 3D0A  ||      MOV #0, AR2
    1003              
    1004              $C$DW$99        .dwtag  DW_TAG_TI_branch
    1005                      .dwattr $C$DW$99, DW_AT_low_pc(0x00)
    1006                      .dwattr $C$DW$99, DW_AT_name("_windowSetup")
    1007                      .dwattr $C$DW$99, DW_AT_TI_call
    1008              
TMS320C55x Assembler PC v4.4.1 Sat Sep 29 23:09:15 2018

Tools Copyright (c) 1996-2012 Texas Instruments Incorporated
csl_lcdc_DmaIntcExample.asm                                          PAGE   23

    1009 0002ec 6C00          CALL #_windowSetup ; |333| 
         0002ee 0000!
    1010 0002f0 3D04  ||      MOV #0, T0
    1011              
    1012                                                      ; call occurs [#_windowSetup] ; |333| 
    1013 0002f2 C470          MOV T0, *SP(#56) ; |333| 
    1014                      .dwpsn  file "../c5535_bsl_revc/ezdsp5535_v1/c55xx_csl/ccs_v4.0_examples/lcd/CSL_LCDC_DmaIntcExample/
    1015 0002f4 2249          MOV T0, AR1
    1016 0002f6 0409          BCC $C$L16,AR1 == #0 ; |334| 
         0002f8 12   
    1017                                                      ; branchcc occurs ; |334| 
    1018                      .dwpsn  file "../c5535_bsl_revc/ezdsp5535_v1/c55xx_csl/ccs_v4.0_examples/lcd/CSL_LCDC_DmaIntcExample/
    1019 0002f9 EC31          AMOV #$C$FSL10, XAR3 ; |336| 
         0002fb BE00 
         0002fd 010A+
    1020 0002ff EB00          MOV XAR3, dbl(*SP(#0))
         000301 B5   
    1021              $C$DW$100       .dwtag  DW_TAG_TI_branch
    1022                      .dwattr $C$DW$100, DW_AT_low_pc(0x00)
    1023                      .dwattr $C$DW$100, DW_AT_name("_printf")
    1024                      .dwattr $C$DW$100, DW_AT_TI_call
    1025 000302 6C00          CALL #_printf ; |336| 
         000304 0000!
    1026                                                      ; call occurs [#_printf] ; |336| 
    1027                      .dwpsn  file "../c5535_bsl_revc/ezdsp5535_v1/c55xx_csl/ccs_v4.0_examples/lcd/CSL_LCDC_DmaIntcExample/
    1028 000306 3E14          MOV #-1, T0
    1029 000308 0600          B $C$L23  ; |337| 
         00030a DA   
    1030                                                      ; branch occurs ; |337| 
    1031 00030b       $C$L16:    
    1032                      .dwpsn  file "../c5535_bsl_revc/ezdsp5535_v1/c55xx_csl/ccs_v4.0_examples/lcd/CSL_LCDC_DmaIntcExample/
    1033 00030b EC31          AMOV #$C$FSL11, XAR3 ; |341| 
         00030d BE00 
         00030f 011E+
    1034 000311 EB00          MOV XAR3, dbl(*SP(#0))
         000313 B5   
    1035              $C$DW$101       .dwtag  DW_TAG_TI_branch
    1036                      .dwattr $C$DW$101, DW_AT_low_pc(0x00)
    1037                      .dwattr $C$DW$101, DW_AT_name("_printf")
    1038                      .dwattr $C$DW$101, DW_AT_TI_call
    1039 000314 6C00          CALL #_printf ; |341| 
         000316 0000!
    1040                                                      ; call occurs [#_printf] ; |341| 
    1041                      .dwpsn  file "../c5535_bsl_revc/ezdsp5535_v1/c55xx_csl/ccs_v4.0_examples/lcd/CSL_LCDC_DmaIntcExample/
    1042 000318 E672          MOV #0, *SP(#57) ; |347| 
         00031a 00   
    1043                      .dwpsn  file "../c5535_bsl_revc/ezdsp5535_v1/c55xx_csl/ccs_v4.0_examples/lcd/CSL_LCDC_DmaIntcExample/
    1044 00031b 7640          MOV #16384, AR2 ; |347| 
         00031d 00A8 
    1045 00031f A972          MOV *SP(#57), AR1 ; |347| 
    1046 000321 1298          CMPU AR1 >= AR2, TC1 ; |347| 
         000323 A4   
    1047 000324 0464          BCC $C$L18,TC1 ; |347| 
         000326 1F   
    1048                                                      ; branchcc occurs ; |347| 
TMS320C55x Assembler PC v4.4.1 Sat Sep 29 23:09:15 2018

Tools Copyright (c) 1996-2012 Texas Instruments Incorporated
csl_lcdc_DmaIntcExample.asm                                          PAGE   24

    1049 000327       $C$L17:    
    1050 000327       $C$DW$L$_CSL_lcdcDmaIntcTest$28$B:
    1051                      .dwpsn  file "../c5535_bsl_revc/ezdsp5535_v1/c55xx_csl/ccs_v4.0_examples/lcd/CSL_LCDC_DmaIntcExample/
    1052 000327 A472          MOV *SP(#57), T0 ; |348| 
    1053 000329 EC31          AMOV #_gLcdBuf, XAR3 ; |348| 
         00032b BE00 
         00032d 0000-
    1054 00032f FB6B          MOV #224, *AR3(T0) ; |348| 
         000331 00E0 
    1055                      .dwpsn  file "../c5535_bsl_revc/ezdsp5535_v1/c55xx_csl/ccs_v4.0_examples/lcd/CSL_LCDC_DmaIntcExample/
    1056 000333 A472          MOV *SP(#57), T0 ; |349| 
    1057 000335 4014          ADD #1, T0 ; |349| 
    1058 000337 E66B          MOV #7, *AR3(T0) ; |349| 
         000339 07   
    1059                      .dwpsn  file "../c5535_bsl_revc/ezdsp5535_v1/c55xx_csl/ccs_v4.0_examples/lcd/CSL_LCDC_DmaIntcExample/
    1060 00033a F772          ADD #2, *SP(#57) ; |347| 
         00033c 0002 
    1061                      .dwpsn  file "../c5535_bsl_revc/ezdsp5535_v1/c55xx_csl/ccs_v4.0_examples/lcd/CSL_LCDC_DmaIntcExample/
    1062 00033e A972          MOV *SP(#57), AR1 ; |347| 
    1063 000340 1294          CMPU AR1 < AR2, TC1 ; |347| 
         000342 A4   
    1064 000343 0464          BCC $C$L17,TC1 ; |347| 
         000345 E1   
    1065                                                      ; branchcc occurs ; |347| 
    1066 000346       $C$DW$L$_CSL_lcdcDmaIntcTest$28$E:
    1067 000346       $C$L18:    
    1068                      .dwpsn  file "../c5535_bsl_revc/ezdsp5535_v1/c55xx_csl/ccs_v4.0_examples/lcd/CSL_LCDC_DmaIntcExample/
    1069 000346 7600          MOV #92, T0 ; |352| 
         000348 5C48 
    1070              $C$DW$102       .dwtag  DW_TAG_TI_branch
    1071                      .dwattr $C$DW$102, DW_AT_low_pc(0x00)
    1072                      .dwattr $C$DW$102, DW_AT_name("_cmdWrite")
    1073                      .dwattr $C$DW$102, DW_AT_TI_call
    1074              
    1075 00034a 6C00          CALL #_cmdWrite ; |352| 
         00034c 0000!
    1076 00034e 3D05  ||      MOV #0, T1
    1077              
    1078                                                      ; call occurs [#_cmdWrite] ; |352| 
    1079                      .dwpsn  file "../c5535_bsl_revc/ezdsp5535_v1/c55xx_csl/ccs_v4.0_examples/lcd/CSL_LCDC_DmaIntcExample/
    1080 000350 EC58          AMAR *SP(#44), XAR1
         000352 9E   
    1081 000353 ED31          MOV dbl(*(#_hLcdc)), XAR0
         000355 8F00 
         000357 0002-
    1082              $C$DW$103       .dwtag  DW_TAG_TI_branch
    1083                      .dwattr $C$DW$103, DW_AT_low_pc(0x00)
    1084                      .dwattr $C$DW$103, DW_AT_name("_LCD_configDMA")
    1085                      .dwattr $C$DW$103, DW_AT_TI_call
    1086 000359 6C00          CALL #_LCD_configDMA ; |354| 
         00035b 0000!
    1087                                                      ; call occurs [#_LCD_configDMA] ; |354| 
    1088 00035d C404          MOV T0, *SP(#2) ; |354| 
    1089                      .dwpsn  file "../c5535_bsl_revc/ezdsp5535_v1/c55xx_csl/ccs_v4.0_examples/lcd/CSL_LCDC_DmaIntcExample/
    1090 00035f 2249          MOV T0, AR1
TMS320C55x Assembler PC v4.4.1 Sat Sep 29 23:09:15 2018

Tools Copyright (c) 1996-2012 Texas Instruments Incorporated
csl_lcdc_DmaIntcExample.asm                                          PAGE   25

    1091 000361 0409          BCC $C$L19,AR1 == #0 ; |355| 
         000363 12   
    1092                                                      ; branchcc occurs ; |355| 
    1093                      .dwpsn  file "../c5535_bsl_revc/ezdsp5535_v1/c55xx_csl/ccs_v4.0_examples/lcd/CSL_LCDC_DmaIntcExample/
    1094 000364 EC31          AMOV #$C$FSL12, XAR3 ; |357| 
         000366 BE00 
         000368 0136+
    1095 00036a EB00          MOV XAR3, dbl(*SP(#0))
         00036c B5   
    1096              $C$DW$104       .dwtag  DW_TAG_TI_branch
    1097                      .dwattr $C$DW$104, DW_AT_low_pc(0x00)
    1098                      .dwattr $C$DW$104, DW_AT_name("_printf")
    1099                      .dwattr $C$DW$104, DW_AT_TI_call
    1100 00036d 6C00          CALL #_printf ; |357| 
         00036f 0000!
    1101                                                      ; call occurs [#_printf] ; |357| 
    1102                      .dwpsn  file "../c5535_bsl_revc/ezdsp5535_v1/c55xx_csl/ccs_v4.0_examples/lcd/CSL_LCDC_DmaIntcExample/
    1103 000371 A404          MOV *SP(#2), T0 ; |358| 
    1104 000373 0600          B $C$L23  ; |358| 
         000375 6F   
    1105                                                      ; branch occurs ; |358| 
    1106 000376       $C$L19:    
    1107                      .dwpsn  file "../c5535_bsl_revc/ezdsp5535_v1/c55xx_csl/ccs_v4.0_examples/lcd/CSL_LCDC_DmaIntcExample/
    1108 000376 EC31          AMOV #$C$FSL13, XAR3 ; |362| 
         000378 BE00 
         00037a 014C+
    1109 00037c EB00          MOV XAR3, dbl(*SP(#0))
         00037e B5   
    1110              $C$DW$105       .dwtag  DW_TAG_TI_branch
    1111                      .dwattr $C$DW$105, DW_AT_low_pc(0x00)
    1112                      .dwattr $C$DW$105, DW_AT_name("_printf")
    1113                      .dwattr $C$DW$105, DW_AT_TI_call
    1114 00037f 6C00          CALL #_printf ; |362| 
         000381 0000!
    1115                                                      ; call occurs [#_printf] ; |362| 
    1116                      .dwpsn  file "../c5535_bsl_revc/ezdsp5535_v1/c55xx_csl/ccs_v4.0_examples/lcd/CSL_LCDC_DmaIntcExample/
    1117 000383 ED31          MOV dbl(*(#_hLcdc)), XAR0
         000385 8F00 
         000387 0002-
    1118              $C$DW$106       .dwtag  DW_TAG_TI_branch
    1119                      .dwattr $C$DW$106, DW_AT_low_pc(0x00)
    1120                      .dwattr $C$DW$106, DW_AT_name("_CSL_lcdcEnableLiddDMA")
    1121                      .dwattr $C$DW$106, DW_AT_TI_call
    1122 000389 08FC          CALL #_CSL_lcdcEnableLiddDMA ; |366| 
         00038b 74   
    1123                                                      ; call occurs [#_CSL_lcdcEnableLiddDMA] ; |366| 
    1124                      .dwpsn  file "../c5535_bsl_revc/ezdsp5535_v1/c55xx_csl/ccs_v4.0_examples/lcd/CSL_LCDC_DmaIntcExample/
    1125 00038c F031          CMP *(#_cnt_lcd) == #2, TC1 ; |369| 
         00038e 0002 
         000390 0000 
         000392 00-  
    1126 000393 6564          BCC $C$L21,TC1 ; |369| 
    1127                                                      ; branchcc occurs ; |369| 
    1128 000395       $C$L20:    
    1129 000395       $C$DW$L$_CSL_lcdcDmaIntcTest$33$B:
TMS320C55x Assembler PC v4.4.1 Sat Sep 29 23:09:15 2018

Tools Copyright (c) 1996-2012 Texas Instruments Incorporated
csl_lcdc_DmaIntcExample.asm                                          PAGE   26

    1130 000395 F031          CMP *(#_cnt_lcd) == #2, TC1 ; |369| 
         000397 0002 
         000399 0000 
         00039b 00-  
    1131 00039c 0474          BCC $C$L20,!TC1 ; |369| 
         00039e F6   
    1132                                                      ; branchcc occurs ; |369| 
    1133 00039f       $C$DW$L$_CSL_lcdcDmaIntcTest$33$E:
    1134 00039f       $C$L21:    
    1135                      .dwpsn  file "../c5535_bsl_revc/ezdsp5535_v1/c55xx_csl/ccs_v4.0_examples/lcd/CSL_LCDC_DmaIntcExample/
    1136 00039f ED31          MOV dbl(*(#_hLcdc)), XAR0
         0003a1 8F00 
         0003a3 0002-
    1137              $C$DW$107       .dwtag  DW_TAG_TI_branch
    1138                      .dwattr $C$DW$107, DW_AT_low_pc(0x00)
    1139                      .dwattr $C$DW$107, DW_AT_name("_CSL_lcdcDisableLiddDMA")
    1140                      .dwattr $C$DW$107, DW_AT_TI_call
    1141 0003a5 08FC          CALL #_CSL_lcdcDisableLiddDMA ; |372| 
         0003a7 7C   
    1142                                                      ; call occurs [#_CSL_lcdcDisableLiddDMA] ; |372| 
    1143                      .dwpsn  file "../c5535_bsl_revc/ezdsp5535_v1/c55xx_csl/ccs_v4.0_examples/lcd/CSL_LCDC_DmaIntcExample/
    1144              $C$DW$108       .dwtag  DW_TAG_TI_branch
    1145                      .dwattr $C$DW$108, DW_AT_low_pc(0x00)
    1146                      .dwattr $C$DW$108, DW_AT_name("_IRQ_globalDisable")
    1147                      .dwattr $C$DW$108, DW_AT_TI_call
    1148 0003a8 6C00          CALL #_IRQ_globalDisable ; |375| 
         0003aa 0000!
    1149                                                      ; call occurs [#_IRQ_globalDisable] ; |375| 
    1150                      .dwpsn  file "../c5535_bsl_revc/ezdsp5535_v1/c55xx_csl/ccs_v4.0_examples/lcd/CSL_LCDC_DmaIntcExample/
    1151              $C$DW$109       .dwtag  DW_TAG_TI_branch
    1152                      .dwattr $C$DW$109, DW_AT_low_pc(0x00)
    1153                      .dwattr $C$DW$109, DW_AT_name("_IRQ_clearAll")
    1154                      .dwattr $C$DW$109, DW_AT_TI_call
    1155 0003ac 6C00          CALL #_IRQ_clearAll ; |378| 
         0003ae 0000!
    1156                                                      ; call occurs [#_IRQ_clearAll] ; |378| 
    1157                      .dwpsn  file "../c5535_bsl_revc/ezdsp5535_v1/c55xx_csl/ccs_v4.0_examples/lcd/CSL_LCDC_DmaIntcExample/
    1158              $C$DW$110       .dwtag  DW_TAG_TI_branch
    1159                      .dwattr $C$DW$110, DW_AT_low_pc(0x00)
    1160                      .dwattr $C$DW$110, DW_AT_name("_IRQ_disableAll")
    1161                      .dwattr $C$DW$110, DW_AT_TI_call
    1162 0003b0 6C00          CALL #_IRQ_disableAll ; |381| 
         0003b2 0000!
    1163                                                      ; call occurs [#_IRQ_disableAll] ; |381| 
    1164                      .dwpsn  file "../c5535_bsl_revc/ezdsp5535_v1/c55xx_csl/ccs_v4.0_examples/lcd/CSL_LCDC_DmaIntcExample/
    1165 0003b4 ED31          MOV dbl(*(#_hLcdc)), XAR0
         0003b6 8F00 
         0003b8 0002-
    1166              $C$DW$111       .dwtag  DW_TAG_TI_branch
    1167                      .dwattr $C$DW$111, DW_AT_low_pc(0x00)
    1168                      .dwattr $C$DW$111, DW_AT_name("_LCD_close")
    1169                      .dwattr $C$DW$111, DW_AT_TI_call
    1170 0003ba 6C00          CALL #_LCD_close ; |384| 
         0003bc 0000!
    1171                                                      ; call occurs [#_LCD_close] ; |384| 
TMS320C55x Assembler PC v4.4.1 Sat Sep 29 23:09:15 2018

Tools Copyright (c) 1996-2012 Texas Instruments Incorporated
csl_lcdc_DmaIntcExample.asm                                          PAGE   27

    1172 0003be C404          MOV T0, *SP(#2) ; |384| 
    1173                      .dwpsn  file "../c5535_bsl_revc/ezdsp5535_v1/c55xx_csl/ccs_v4.0_examples/lcd/CSL_LCDC_DmaIntcExample/
    1174 0003c0 2249          MOV T0, AR1
    1175 0003c2 0409          BCC $C$L22,AR1 == #0 ; |385| 
         0003c4 11   
    1176                                                      ; branchcc occurs ; |385| 
    1177                      .dwpsn  file "../c5535_bsl_revc/ezdsp5535_v1/c55xx_csl/ccs_v4.0_examples/lcd/CSL_LCDC_DmaIntcExample/
    1178 0003c5 EC31          AMOV #$C$FSL14, XAR3 ; |387| 
         0003c7 BE00 
         0003c9 0166+
    1179 0003cb EB00          MOV XAR3, dbl(*SP(#0))
         0003cd B5   
    1180              $C$DW$112       .dwtag  DW_TAG_TI_branch
    1181                      .dwattr $C$DW$112, DW_AT_low_pc(0x00)
    1182                      .dwattr $C$DW$112, DW_AT_name("_printf")
    1183                      .dwattr $C$DW$112, DW_AT_TI_call
    1184 0003ce 6C00          CALL #_printf ; |387| 
         0003d0 0000!
    1185                                                      ; call occurs [#_printf] ; |387| 
    1186                      .dwpsn  file "../c5535_bsl_revc/ezdsp5535_v1/c55xx_csl/ccs_v4.0_examples/lcd/CSL_LCDC_DmaIntcExample/
    1187 0003d2 A404          MOV *SP(#2), T0 ; |388| 
    1188 0003d4 4A0F          B $C$L23  ; |388| 
    1189                                                      ; branch occurs ; |388| 
    1190 0003d6       $C$L22:    
    1191                      .dwpsn  file "../c5535_bsl_revc/ezdsp5535_v1/c55xx_csl/ccs_v4.0_examples/lcd/CSL_LCDC_DmaIntcExample/
    1192 0003d6 EC31          AMOV #$C$FSL15, XAR3 ; |392| 
         0003d8 BE00 
         0003da 0178+
    1193 0003dc EB00          MOV XAR3, dbl(*SP(#0))
         0003de B5   
    1194              $C$DW$113       .dwtag  DW_TAG_TI_branch
    1195                      .dwattr $C$DW$113, DW_AT_low_pc(0x00)
    1196                      .dwattr $C$DW$113, DW_AT_name("_printf")
    1197                      .dwattr $C$DW$113, DW_AT_TI_call
    1198 0003df 6C00          CALL #_printf ; |392| 
         0003e1 0000!
    1199                                                      ; call occurs [#_printf] ; |392| 
    1200                      .dwpsn  file "../c5535_bsl_revc/ezdsp5535_v1/c55xx_csl/ccs_v4.0_examples/lcd/CSL_LCDC_DmaIntcExample/
    1201 0003e3 3C04          MOV #0, T0
    1202 0003e5       $C$L23:    
    1203                      .dwpsn  file "../c5535_bsl_revc/ezdsp5535_v1/c55xx_csl/ccs_v4.0_examples/lcd/CSL_LCDC_DmaIntcExample/
    1204 0003e5 4E3B          AADD #59, SP
    1205                      .dwcfi  cfa_offset, 1
    1206              $C$DW$114       .dwtag  DW_TAG_TI_branch
    1207                      .dwattr $C$DW$114, DW_AT_low_pc(0x00)
    1208                      .dwattr $C$DW$114, DW_AT_TI_return
    1209 0003e7 4804          RET
    1210                                                      ; return occurs
    1211              
    1212              $C$DW$115       .dwtag  DW_TAG_TI_loop
    1213                      .dwattr $C$DW$115, DW_AT_name("F:\eZdsp_DBG\tmp1\c55x-sim2\foo\Debug\csl_lcdc_DmaIntcExample.asm:$C$L
    1214                      .dwattr $C$DW$115, DW_AT_TI_begin_file("../c5535_bsl_revc/ezdsp5535_v1/c55xx_csl/ccs_v4.0_examples/lc
    1215                      .dwattr $C$DW$115, DW_AT_TI_begin_line(0x171)
    1216                      .dwattr $C$DW$115, DW_AT_TI_end_line(0x171)
    1217              $C$DW$116       .dwtag  DW_TAG_TI_loop_range
TMS320C55x Assembler PC v4.4.1 Sat Sep 29 23:09:15 2018

Tools Copyright (c) 1996-2012 Texas Instruments Incorporated
csl_lcdc_DmaIntcExample.asm                                          PAGE   28

    1218                      .dwattr $C$DW$116, DW_AT_low_pc($C$DW$L$_CSL_lcdcDmaIntcTest$33$B)
    1219                      .dwattr $C$DW$116, DW_AT_high_pc($C$DW$L$_CSL_lcdcDmaIntcTest$33$E)
    1220                      .dwendtag $C$DW$115
    1221              
    1222              
    1223              $C$DW$117       .dwtag  DW_TAG_TI_loop
    1224                      .dwattr $C$DW$117, DW_AT_name("F:\eZdsp_DBG\tmp1\c55x-sim2\foo\Debug\csl_lcdc_DmaIntcExample.asm:$C$L
    1225                      .dwattr $C$DW$117, DW_AT_TI_begin_file("../c5535_bsl_revc/ezdsp5535_v1/c55xx_csl/ccs_v4.0_examples/lc
    1226                      .dwattr $C$DW$117, DW_AT_TI_begin_line(0x15b)
    1227                      .dwattr $C$DW$117, DW_AT_TI_end_line(0x15e)
    1228              $C$DW$118       .dwtag  DW_TAG_TI_loop_range
    1229                      .dwattr $C$DW$118, DW_AT_low_pc($C$DW$L$_CSL_lcdcDmaIntcTest$28$B)
    1230                      .dwattr $C$DW$118, DW_AT_high_pc($C$DW$L$_CSL_lcdcDmaIntcTest$28$E)
    1231                      .dwendtag $C$DW$117
    1232              
    1233              
    1234              $C$DW$119       .dwtag  DW_TAG_TI_loop
    1235                      .dwattr $C$DW$119, DW_AT_name("F:\eZdsp_DBG\tmp1\c55x-sim2\foo\Debug\csl_lcdc_DmaIntcExample.asm:$C$L
    1236                      .dwattr $C$DW$119, DW_AT_TI_begin_file("../c5535_bsl_revc/ezdsp5535_v1/c55xx_csl/ccs_v4.0_examples/lc
    1237                      .dwattr $C$DW$119, DW_AT_TI_begin_line(0x146)
    1238                      .dwattr $C$DW$119, DW_AT_TI_end_line(0x146)
    1239              $C$DW$120       .dwtag  DW_TAG_TI_loop_range
    1240                      .dwattr $C$DW$120, DW_AT_low_pc($C$DW$L$_CSL_lcdcDmaIntcTest$23$B)
    1241                      .dwattr $C$DW$120, DW_AT_high_pc($C$DW$L$_CSL_lcdcDmaIntcTest$23$E)
    1242                      .dwendtag $C$DW$119
    1243              
    1244              
    1245              $C$DW$121       .dwtag  DW_TAG_TI_loop
    1246                      .dwattr $C$DW$121, DW_AT_name("F:\eZdsp_DBG\tmp1\c55x-sim2\foo\Debug\csl_lcdc_DmaIntcExample.asm:$C$L
    1247                      .dwattr $C$DW$121, DW_AT_TI_begin_file("../c5535_bsl_revc/ezdsp5535_v1/c55xx_csl/ccs_v4.0_examples/lc
    1248                      .dwattr $C$DW$121, DW_AT_TI_begin_line(0x12f)
    1249                      .dwattr $C$DW$121, DW_AT_TI_end_line(0x132)
    1250              $C$DW$122       .dwtag  DW_TAG_TI_loop_range
    1251                      .dwattr $C$DW$122, DW_AT_low_pc($C$DW$L$_CSL_lcdcDmaIntcTest$18$B)
    1252                      .dwattr $C$DW$122, DW_AT_high_pc($C$DW$L$_CSL_lcdcDmaIntcTest$18$E)
    1253                      .dwendtag $C$DW$121
    1254              
    1255              
    1256              $C$DW$123       .dwtag  DW_TAG_TI_loop
    1257                      .dwattr $C$DW$123, DW_AT_name("F:\eZdsp_DBG\tmp1\c55x-sim2\foo\Debug\csl_lcdc_DmaIntcExample.asm:$C$L
    1258                      .dwattr $C$DW$123, DW_AT_TI_begin_file("../c5535_bsl_revc/ezdsp5535_v1/c55xx_csl/ccs_v4.0_examples/lc
    1259                      .dwattr $C$DW$123, DW_AT_TI_begin_line(0xd3)
    1260                      .dwattr $C$DW$123, DW_AT_TI_end_line(0xd3)
    1261              $C$DW$124       .dwtag  DW_TAG_TI_loop_range
    1262                      .dwattr $C$DW$124, DW_AT_low_pc($C$DW$L$_CSL_lcdcDmaIntcTest$4$B)
    1263                      .dwattr $C$DW$124, DW_AT_high_pc($C$DW$L$_CSL_lcdcDmaIntcTest$4$E)
    1264                      .dwendtag $C$DW$123
    1265              
    1266              
    1267              $C$DW$125       .dwtag  DW_TAG_TI_loop
    1268                      .dwattr $C$DW$125, DW_AT_name("F:\eZdsp_DBG\tmp1\c55x-sim2\foo\Debug\csl_lcdc_DmaIntcExample.asm:$C$L
    1269                      .dwattr $C$DW$125, DW_AT_TI_begin_file("../c5535_bsl_revc/ezdsp5535_v1/c55xx_csl/ccs_v4.0_examples/lc
    1270                      .dwattr $C$DW$125, DW_AT_TI_begin_line(0xcf)
    1271                      .dwattr $C$DW$125, DW_AT_TI_end_line(0xcf)
    1272              $C$DW$126       .dwtag  DW_TAG_TI_loop_range
TMS320C55x Assembler PC v4.4.1 Sat Sep 29 23:09:15 2018

Tools Copyright (c) 1996-2012 Texas Instruments Incorporated
csl_lcdc_DmaIntcExample.asm                                          PAGE   29

    1273                      .dwattr $C$DW$126, DW_AT_low_pc($C$DW$L$_CSL_lcdcDmaIntcTest$2$B)
    1274                      .dwattr $C$DW$126, DW_AT_high_pc($C$DW$L$_CSL_lcdcDmaIntcTest$2$E)
    1275                      .dwendtag $C$DW$125
    1276              
    1277                      .dwattr $C$DW$63, DW_AT_TI_end_file("../c5535_bsl_revc/ezdsp5535_v1/c55xx_csl/ccs_v4.0_examples/lcd/C
    1278                      .dwattr $C$DW$63, DW_AT_TI_end_line(0x18c)
    1279                      .dwattr $C$DW$63, DW_AT_TI_end_column(0x01)
    1280                      .dwendentry
    1281                      .dwendtag $C$DW$63
    1282              
    1283 000000               .sect   ".text:retain"
    1284                      .align 4
    1285                      .global _lcd_isr
    1286              
    1287              $C$DW$127       .dwtag  DW_TAG_subprogram, DW_AT_name("lcd_isr")
    1288                      .dwattr $C$DW$127, DW_AT_low_pc(_lcd_isr)
    1289                      .dwattr $C$DW$127, DW_AT_high_pc(0x00)
    1290                      .dwattr $C$DW$127, DW_AT_TI_symbol_name("_lcd_isr")
    1291                      .dwattr $C$DW$127, DW_AT_external
    1292                      .dwattr $C$DW$127, DW_AT_TI_begin_file("../c5535_bsl_revc/ezdsp5535_v1/c55xx_csl/ccs_v4.0_examples/lc
    1293                      .dwattr $C$DW$127, DW_AT_TI_begin_line(0x194)
    1294                      .dwattr $C$DW$127, DW_AT_TI_begin_column(0x10)
    1295                      .dwattr $C$DW$127, DW_AT_TI_interrupt
    1296                      .dwattr $C$DW$127, DW_AT_TI_max_frame_size(0x08)
    1297                      .dwpsn  file "../c5535_bsl_revc/ezdsp5535_v1/c55xx_csl/ccs_v4.0_examples/lcd/CSL_LCDC_DmaIntcExample/
    1298              
    1299                      .dwfde $C$DW$CIE, _lcd_isr
    1300              ;*******************************************************************************
    1301              ;* INTERRUPT NAME: lcd_isr                                                     *
    1302              ;*                                                                             *
    1303              ;*   Function Uses Regs : AC0,AC0,AR1,AR2,SP,ST1,ST2,ST3,CARRY,TC1,M40,SATA,   *
    1304              ;*                        SATD,RDM,FRCT,SMUL                                   *
    1305              ;*   Save On Entry Regs : AC0,AC0,AR1,AR2                                      *
    1306              ;*******************************************************************************
    1307 000000       _lcd_isr:
    1308                      .dwcfi  cfa_offset, 3
    1309                      .dwcfi  save_reg_to_mem, 91, -3
    1310 000000 F406          AND #0xf91f, mmap(ST1_55)
         000002 F91F 
         000004 98   
    1311 000005 F506          OR #0x4100, mmap(ST1_55)
         000007 4100 
         000009 98   
    1312 00000a F496          AND #0xfa00, mmap(ST2_55)
         00000c FA00 
         00000e 98   
    1313 00000f F596          OR #0x8000, mmap(ST2_55)
         000011 8000 
         000013 98   
    1314 000014 B508          PSH mmap(ST3_55)
         000016 98   
    1315                      .dwcfi  cfa_offset, 4
    1316                      .dwcfi  save_reg_to_mem, 42, -4
    1317 000017 5007          PSH dbl(AC0)
    1318                      .dwcfi  cfa_offset, 5
TMS320C55x Assembler PC v4.4.1 Sat Sep 29 23:09:15 2018

Tools Copyright (c) 1996-2012 Texas Instruments Incorporated
csl_lcdc_DmaIntcExample.asm                                          PAGE   30

    1319                      .dwcfi  save_reg_to_mem, 0, -5
    1320                      .dwcfi  cfa_offset, 6
    1321                      .dwcfi  save_reg_to_mem, 1, -6
    1322 000019 B514          PSH mmap(AC0G)
         00001b 98   
    1323                      .dwcfi  cfa_offset, 7
    1324                      .dwcfi  save_reg_to_mem, 2, -7
    1325 00001c 5095          PSHBOTH XAR1
    1326                      .dwcfi  cfa_offset, 8
    1327                      .dwcfi  save_reg_to_mem, 18, -8
    1328 00001e 50A5          PSHBOTH XAR2
    1329                      .dwcfi  cfa_offset, 9
    1330                      .dwcfi  save_reg_to_mem, 20, -9
    1331                      .dwcfi  cfa_offset, 8
    1332                      .dwpsn  file "../c5535_bsl_revc/ezdsp5535_v1/c55xx_csl/ccs_v4.0_examples/lcd/CSL_LCDC_DmaIntcExample/
    1333 000020 F731          ADD #1, *(#_cnt_lcd) ; |406| 
         000022 0001 
         000024 0000 
         000026 00-  
    1334                      .dwpsn  file "../c5535_bsl_revc/ezdsp5535_v1/c55xx_csl/ccs_v4.0_examples/lcd/CSL_LCDC_DmaIntcExample/
    1335 000027 A951          MOV *port(#11784), AR1 ; |408| 
         000029 2E08 
    1336 00002b 7D02          AND #0x0200, AR1, AC0 ; |408| 
         00002d 0009 
    1337              
    1338 00002f 76FE          BFXTR #0xfe00, AC0, AR1 ; |408| 
         000031 0090 
    1339 000033 3D1A  ||      MOV #1, AR2
    1340              
    1341 000035 129C          CMPU AR1 != AR2, TC1 ; |408| 
         000037 A4   
    1342 000038 6764          BCC $C$L24,TC1 ; |408| 
    1343                                                      ; branchcc occurs ; |408| 
    1344                      .dwpsn  file "../c5535_bsl_revc/ezdsp5535_v1/c55xx_csl/ccs_v4.0_examples/lcd/CSL_LCDC_DmaIntcExample/
    1345 00003a A951          MOV *port(#11784), AR1 ; |410| 
         00003c 2E08 
    1346 00003e EC12          BCLR @#9, AR1 ; |410| 
         000040 92   
    1347 000041 EC12          BSET @#9, AR1 ; |410| 
         000043 90   
    1348 000044 C951          MOV AR1, *port(#11784) ; |410| 
         000046 2E08 
    1349 000048       $C$L24:    
    1350                      .dwpsn  file "../c5535_bsl_revc/ezdsp5535_v1/c55xx_csl/ccs_v4.0_examples/lcd/CSL_LCDC_DmaIntcExample/
    1351 000048 A951          MOV *port(#11784), AR1 ; |413| 
         00004a 2E08 
    1352 00004c 7D01          AND #0x0100, AR1, AC0 ; |413| 
         00004e 0009 
    1353 000050 76FF          BFXTR #0xff00, AC0, AR1 ; |413| 
         000052 0090 
    1354 000054 129C          CMPU AR1 != AR2, TC1 ; |413| 
         000056 A4   
    1355 000057 6764          BCC $C$L25,TC1 ; |413| 
    1356                                                      ; branchcc occurs ; |413| 
    1357                      .dwpsn  file "../c5535_bsl_revc/ezdsp5535_v1/c55xx_csl/ccs_v4.0_examples/lcd/CSL_LCDC_DmaIntcExample/
TMS320C55x Assembler PC v4.4.1 Sat Sep 29 23:09:15 2018

Tools Copyright (c) 1996-2012 Texas Instruments Incorporated
csl_lcdc_DmaIntcExample.asm                                          PAGE   31

    1358 000059 A951          MOV *port(#11784), AR1 ; |415| 
         00005b 2E08 
    1359 00005d EC10          BCLR @#8, AR1 ; |415| 
         00005f 92   
    1360 000060 EC10          BSET @#8, AR1 ; |415| 
         000062 90   
    1361 000063 C951          MOV AR1, *port(#11784) ; |415| 
         000065 2E08 
    1362 000067       $C$L25:    
    1363                      .dwpsn  file "../c5535_bsl_revc/ezdsp5535_v1/c55xx_csl/ccs_v4.0_examples/lcd/CSL_LCDC_DmaIntcExample/
    1364 000067 A951          MOV *port(#11784), AR1 ; |418| 
         000069 2E08 
    1365 00006b 1840          AND #0x0040, AR1, AC0 ; |418| 
         00006d 09   
    1366 00006e 76FF          BFXTR #0xffc0, AC0, AR1 ; |418| 
         000070 C090 
    1367 000072 129C          CMPU AR1 != AR2, TC1 ; |418| 
         000074 A4   
    1368 000075 6764          BCC $C$L26,TC1 ; |418| 
    1369                                                      ; branchcc occurs ; |418| 
    1370                      .dwpsn  file "../c5535_bsl_revc/ezdsp5535_v1/c55xx_csl/ccs_v4.0_examples/lcd/CSL_LCDC_DmaIntcExample/
    1371 000077 A951          MOV *port(#11784), AR1 ; |420| 
         000079 2E08 
    1372 00007b EC0C          BCLR @#6, AR1 ; |420| 
         00007d 92   
    1373 00007e EC0C          BSET @#6, AR1 ; |420| 
         000080 90   
    1374 000081 C951          MOV AR1, *port(#11784) ; |420| 
         000083 2E08 
    1375 000085       $C$L26:    
    1376                      .dwpsn  file "../c5535_bsl_revc/ezdsp5535_v1/c55xx_csl/ccs_v4.0_examples/lcd/CSL_LCDC_DmaIntcExample/
    1377 000085 A951          MOV *port(#11784), AR1 ; |423| 
         000087 2E08 
    1378 000089 1820          AND #0x0020, AR1, AC0 ; |423| 
         00008b 09   
    1379 00008c 76FF          BFXTR #0xffe0, AC0, AR1 ; |423| 
         00008e E090 
    1380 000090 129C          CMPU AR1 != AR2, TC1 ; |423| 
         000092 A4   
    1381 000093 6764          BCC $C$L27,TC1 ; |423| 
    1382                                                      ; branchcc occurs ; |423| 
    1383                      .dwpsn  file "../c5535_bsl_revc/ezdsp5535_v1/c55xx_csl/ccs_v4.0_examples/lcd/CSL_LCDC_DmaIntcExample/
    1384 000095 A951          MOV *port(#11784), AR1 ; |425| 
         000097 2E08 
    1385 000099 EC0A          BCLR @#5, AR1 ; |425| 
         00009b 92   
    1386 00009c EC0A          BSET @#5, AR1 ; |425| 
         00009e 90   
    1387 00009f C951          MOV AR1, *port(#11784) ; |425| 
         0000a1 2E08 
    1388 0000a3       $C$L27:    
    1389                      .dwpsn  file "../c5535_bsl_revc/ezdsp5535_v1/c55xx_csl/ccs_v4.0_examples/lcd/CSL_LCDC_DmaIntcExample/
    1390 0000a3 A951          MOV *port(#11784), AR1 ; |428| 
         0000a5 2E08 
    1391 0000a7 1808          AND #0x0008, AR1, AC0 ; |428| 
TMS320C55x Assembler PC v4.4.1 Sat Sep 29 23:09:15 2018

Tools Copyright (c) 1996-2012 Texas Instruments Incorporated
csl_lcdc_DmaIntcExample.asm                                          PAGE   32

         0000a9 09   
    1392 0000aa 76FF          BFXTR #0xfff8, AC0, AR1 ; |428| 
         0000ac F890 
    1393 0000ae 129C          CMPU AR1 != AR2, TC1 ; |428| 
         0000b0 A4   
    1394 0000b1 6764          BCC $C$L28,TC1 ; |428| 
    1395                                                      ; branchcc occurs ; |428| 
    1396                      .dwpsn  file "../c5535_bsl_revc/ezdsp5535_v1/c55xx_csl/ccs_v4.0_examples/lcd/CSL_LCDC_DmaIntcExample/
    1397 0000b3 A951          MOV *port(#11784), AR1 ; |430| 
         0000b5 2E08 
    1398 0000b7 EC06          BCLR @#3, AR1 ; |430| 
         0000b9 92   
    1399 0000ba EC06          BSET @#3, AR1 ; |430| 
         0000bc 90   
    1400 0000bd C951          MOV AR1, *port(#11784) ; |430| 
         0000bf 2E08 
    1401 0000c1       $C$L28:    
    1402                      .dwpsn  file "../c5535_bsl_revc/ezdsp5535_v1/c55xx_csl/ccs_v4.0_examples/lcd/CSL_LCDC_DmaIntcExample/
    1403 0000c1 A951          MOV *port(#11784), AR1 ; |433| 
         0000c3 2E08 
    1404 0000c5 1804          AND #0x0004, AR1, AC0 ; |433| 
         0000c7 09   
    1405 0000c8 76FF          BFXTR #0xfffc, AC0, AR1 ; |433| 
         0000ca FC90 
    1406 0000cc 129C          CMPU AR1 != AR2, TC1 ; |433| 
         0000ce A4   
    1407 0000cf 6764          BCC $C$L29,TC1 ; |433| 
    1408                                                      ; branchcc occurs ; |433| 
    1409                      .dwpsn  file "../c5535_bsl_revc/ezdsp5535_v1/c55xx_csl/ccs_v4.0_examples/lcd/CSL_LCDC_DmaIntcExample/
    1410 0000d1 A951          MOV *port(#11784), AR1 ; |435| 
         0000d3 2E08 
    1411 0000d5 EC04          BCLR @#2, AR1 ; |435| 
         0000d7 92   
    1412 0000d8 EC04          BSET @#2, AR1 ; |435| 
         0000da 90   
    1413 0000db C951          MOV AR1, *port(#11784) ; |435| 
         0000dd 2E08 
    1414 0000df       $C$L29:    
    1415                      .dwpsn  file "../c5535_bsl_revc/ezdsp5535_v1/c55xx_csl/ccs_v4.0_examples/lcd/CSL_LCDC_DmaIntcExample/
    1416 0000df A951          MOV *port(#11784), AR1 ; |438| 
         0000e1 2E08 
    1417 0000e3 1801          AND #0x0001, AR1, AR1 ; |438| 
         0000e5 99   
    1418 0000e6 129C          CMPU AR1 != AR2, TC1 ; |438| 
         0000e8 A4   
    1419 0000e9 6764          BCC $C$L30,TC1 ; |438| 
    1420                                                      ; branchcc occurs ; |438| 
    1421                      .dwpsn  file "../c5535_bsl_revc/ezdsp5535_v1/c55xx_csl/ccs_v4.0_examples/lcd/CSL_LCDC_DmaIntcExample/
    1422 0000eb A951          MOV *port(#11784), AR1 ; |440| 
         0000ed 2E08 
    1423 0000ef EC00          BCLR @#0, AR1 ; |440| 
         0000f1 92   
    1424 0000f2 EC00          BSET @#0, AR1 ; |440| 
         0000f4 90   
    1425 0000f5 C951          MOV AR1, *port(#11784) ; |440| 
TMS320C55x Assembler PC v4.4.1 Sat Sep 29 23:09:15 2018

Tools Copyright (c) 1996-2012 Texas Instruments Incorporated
csl_lcdc_DmaIntcExample.asm                                          PAGE   33

         0000f7 2E08 
    1426                      .dwpsn  file "../c5535_bsl_revc/ezdsp5535_v1/c55xx_csl/ccs_v4.0_examples/lcd/CSL_LCDC_DmaIntcExample/
    1427 0000f9       $C$L30:    
    1428                      .dwcfi  cfa_offset, 9
    1429 0000f9 50A4          POPBOTH XAR2
    1430                      .dwcfi  restore_reg, 20
    1431                      .dwcfi  cfa_offset, 8
    1432 0000fb 5094          POPBOTH XAR1
    1433                      .dwcfi  restore_reg, 18
    1434                      .dwcfi  cfa_offset, 7
    1435 0000fd BB14          POP mmap(AC0G)
         0000ff 98   
    1436                      .dwcfi  restore_reg, 2
    1437                      .dwcfi  cfa_offset, 6
    1438                      .dwcfi  restore_reg, 1
    1439                      .dwcfi  cfa_offset, 5
    1440 000100 5003          POP dbl(AC0)
    1441                      .dwcfi  restore_reg, 0
    1442                      .dwcfi  cfa_offset, 4
    1443 000102 BB08          POP mmap(ST3_55)
         000104 98   
    1444                      .dwcfi  restore_reg, 43
    1445                      .dwcfi  cfa_offset, 3
    1446              $C$DW$128       .dwtag  DW_TAG_TI_branch
    1447                      .dwattr $C$DW$128, DW_AT_low_pc(0x00)
    1448                      .dwattr $C$DW$128, DW_AT_TI_return
    1449 000105 4805          RETI
    1450                                                      ; return occurs
    1451                      .dwattr $C$DW$127, DW_AT_TI_end_file("../c5535_bsl_revc/ezdsp5535_v1/c55xx_csl/ccs_v4.0_examples/lcd/
    1452                      .dwattr $C$DW$127, DW_AT_TI_end_line(0x1ba)
    1453                      .dwattr $C$DW$127, DW_AT_TI_end_column(0x01)
    1454                      .dwendentry
    1455                      .dwendtag $C$DW$127
    1456              
    1457              ;*******************************************************************************
    1458              ;* FAR STRINGS                                                                 *
    1459              ;*******************************************************************************
    1460 000000               .sect   ".const:.string"
    1461                      .align  2
    1462 000000 0043  $C$FSL1:        .string "CSL LCD DMA MODE TEST USING INTERRUPTS!",10,10,0
         000001 0053 
         000002 004C 
         000003 0020 
         000004 004C 
         000005 0043 
         000006 0044 
         000007 0020 
         000008 0044 
         000009 004D 
         00000a 0041 
         00000b 0020 
         00000c 004D 
         00000d 004F 
         00000e 0044 
         00000f 0045 
TMS320C55x Assembler PC v4.4.1 Sat Sep 29 23:09:15 2018

Tools Copyright (c) 1996-2012 Texas Instruments Incorporated
csl_lcdc_DmaIntcExample.asm                                          PAGE   34

         000010 0020 
         000011 0054 
         000012 0045 
         000013 0053 
         000014 0054 
         000015 0020 
         000016 0055 
         000017 0053 
         000018 0049 
         000019 004E 
         00001a 0047 
         00001b 0020 
         00001c 0049 
         00001d 004E 
         00001e 0054 
         00001f 0045 
         000020 0052 
         000021 0052 
         000022 0055 
         000023 0050 
         000024 0054 
         000025 0053 
         000026 0021 
         000027 000A 
         000028 000A 
         000029 0000 
    1463                      .align  2
    1464 00002a 000A  $C$FSL2:        .string 10,"CSL LCD DMA MODE TEST USING INTERRUPTS COMPLETED!!",10,0
         00002b 0043 
         00002c 0053 
         00002d 004C 
         00002e 0020 
         00002f 004C 
         000030 0043 
         000031 0044 
         000032 0020 
         000033 0044 
         000034 004D 
         000035 0041 
         000036 0020 
         000037 004D 
         000038 004F 
         000039 0044 
         00003a 0045 
         00003b 0020 
         00003c 0054 
         00003d 0045 
         00003e 0053 
         00003f 0054 
         000040 0020 
         000041 0055 
         000042 0053 
         000043 0049 
         000044 004E 
         000045 0047 
TMS320C55x Assembler PC v4.4.1 Sat Sep 29 23:09:15 2018

Tools Copyright (c) 1996-2012 Texas Instruments Incorporated
csl_lcdc_DmaIntcExample.asm                                          PAGE   35

         000046 0020 
         000047 0049 
         000048 004E 
         000049 0054 
         00004a 0045 
         00004b 0052 
         00004c 0052 
         00004d 0055 
         00004e 0050 
         00004f 0054 
         000050 0053 
         000051 0020 
         000052 0043 
         000053 004F 
         000054 004D 
         000055 0050 
         000056 004C 
         000057 0045 
         000058 0054 
         000059 0045 
         00005a 0044 
         00005b 0021 
         00005c 0021 
         00005d 000A 
         00005e 0000 
    1465                      .align  2
    1466 000060 000A  $C$FSL3:        .string 10,"CSL LCD DMA MODE TEST USING INTERRUPTS FAILED!!",10,0
         000061 0043 
         000062 0053 
         000063 004C 
         000064 0020 
         000065 004C 
         000066 0043 
         000067 0044 
         000068 0020 
         000069 0044 
         00006a 004D 
         00006b 0041 
         00006c 0020 
         00006d 004D 
         00006e 004F 
         00006f 0044 
         000070 0045 
         000071 0020 
         000072 0054 
         000073 0045 
         000074 0053 
         000075 0054 
         000076 0020 
         000077 0055 
         000078 0053 
         000079 0049 
         00007a 004E 
         00007b 0047 
         00007c 0020 
TMS320C55x Assembler PC v4.4.1 Sat Sep 29 23:09:15 2018

Tools Copyright (c) 1996-2012 Texas Instruments Incorporated
csl_lcdc_DmaIntcExample.asm                                          PAGE   36

         00007d 0049 
         00007e 004E 
         00007f 0054 
         000080 0045 
         000081 0052 
         000082 0052 
         000083 0055 
         000084 0050 
         000085 0054 
         000086 0053 
         000087 0020 
         000088 0046 
         000089 0041 
         00008a 0049 
         00008b 004C 
         00008c 0045 
         00008d 0044 
         00008e 0021 
         00008f 0021 
         000090 000A 
         000091 0000 
    1467                      .align  2
    1468 000092 004C  $C$FSL4:        .string "LCD_init Failed",10,0
         000093 0043 
         000094 0044 
         000095 005F 
         000096 0069 
         000097 006E 
         000098 0069 
         000099 0074 
         00009a 0020 
         00009b 0046 
         00009c 0061 
         00009d 0069 
         00009e 006C 
         00009f 0065 
         0000a0 0064 
         0000a1 000A 
         0000a2 0000 
    1469                      .align  2
    1470 0000a4 004C  $C$FSL5:        .string "LCD_init Successful",10,0
         0000a5 0043 
         0000a6 0044 
         0000a7 005F 
         0000a8 0069 
         0000a9 006E 
         0000aa 0069 
         0000ab 0074 
         0000ac 0020 
         0000ad 0053 
         0000ae 0075 
         0000af 0063 
         0000b0 0063 
         0000b1 0065 
         0000b2 0073 
TMS320C55x Assembler PC v4.4.1 Sat Sep 29 23:09:15 2018

Tools Copyright (c) 1996-2012 Texas Instruments Incorporated
csl_lcdc_DmaIntcExample.asm                                          PAGE   37

         0000b3 0073 
         0000b4 0066 
         0000b5 0075 
         0000b6 006C 
         0000b7 000A 
         0000b8 0000 
    1471                      .align  2
    1472 0000ba 004C  $C$FSL6:        .string "LCD_open Failed",10,0
         0000bb 0043 
         0000bc 0044 
         0000bd 005F 
         0000be 006F 
         0000bf 0070 
         0000c0 0065 
         0000c1 006E 
         0000c2 0020 
         0000c3 0046 
         0000c4 0061 
         0000c5 0069 
         0000c6 006C 
         0000c7 0065 
         0000c8 0064 
         0000c9 000A 
         0000ca 0000 
    1473                      .align  2
    1474 0000cc 004C  $C$FSL7:        .string "LCD_open Successful",10,0
         0000cd 0043 
         0000ce 0044 
         0000cf 005F 
         0000d0 006F 
         0000d1 0070 
         0000d2 0065 
         0000d3 006E 
         0000d4 0020 
         0000d5 0053 
         0000d6 0075 
         0000d7 0063 
         0000d8 0063 
         0000d9 0065 
         0000da 0073 
         0000db 0073 
         0000dc 0066 
         0000dd 0075 
         0000de 006C 
         0000df 000A 
         0000e0 0000 
    1475                      .align  2
    1476 0000e2 004C  $C$FSL8:        .string "LCD_setup Failed",10,0
         0000e3 0043 
         0000e4 0044 
         0000e5 005F 
         0000e6 0073 
         0000e7 0065 
         0000e8 0074 
         0000e9 0075 
TMS320C55x Assembler PC v4.4.1 Sat Sep 29 23:09:15 2018

Tools Copyright (c) 1996-2012 Texas Instruments Incorporated
csl_lcdc_DmaIntcExample.asm                                          PAGE   38

         0000ea 0070 
         0000eb 0020 
         0000ec 0046 
         0000ed 0061 
         0000ee 0069 
         0000ef 006C 
         0000f0 0065 
         0000f1 0064 
         0000f2 000A 
         0000f3 0000 
    1477                      .align  2
    1478 0000f4 004C  $C$FSL9:        .string "LCD_setup Successful",10,0
         0000f5 0043 
         0000f6 0044 
         0000f7 005F 
         0000f8 0073 
         0000f9 0065 
         0000fa 0074 
         0000fb 0075 
         0000fc 0070 
         0000fd 0020 
         0000fe 0053 
         0000ff 0075 
         000100 0063 
         000101 0063 
         000102 0065 
         000103 0073 
         000104 0073 
         000105 0066 
         000106 0075 
         000107 006C 
         000108 000A 
         000109 0000 
    1479                      .align  2
    1480 00010a 0077  $C$FSL10:       .string "windowSetup Failed",10,0
         00010b 0069 
         00010c 006E 
         00010d 0064 
         00010e 006F 
         00010f 0077 
         000110 0053 
         000111 0065 
         000112 0074 
         000113 0075 
         000114 0070 
         000115 0020 
         000116 0046 
         000117 0061 
         000118 0069 
         000119 006C 
         00011a 0065 
         00011b 0064 
         00011c 000A 
         00011d 0000 
    1481                      .align  2
TMS320C55x Assembler PC v4.4.1 Sat Sep 29 23:09:15 2018

Tools Copyright (c) 1996-2012 Texas Instruments Incorporated
csl_lcdc_DmaIntcExample.asm                                          PAGE   39

    1482 00011e 0077  $C$FSL11:       .string "windowSetup Successful",10,0
         00011f 0069 
         000120 006E 
         000121 0064 
         000122 006F 
         000123 0077 
         000124 0053 
         000125 0065 
         000126 0074 
         000127 0075 
         000128 0070 
         000129 0020 
         00012a 0053 
         00012b 0075 
         00012c 0063 
         00012d 0063 
         00012e 0065 
         00012f 0073 
         000130 0073 
         000131 0066 
         000132 0075 
         000133 006C 
         000134 000A 
         000135 0000 
    1483                      .align  2
    1484 000136 004C  $C$FSL12:       .string "LCD_configDMA Failed",10,0
         000137 0043 
         000138 0044 
         000139 005F 
         00013a 0063 
         00013b 006F 
         00013c 006E 
         00013d 0066 
         00013e 0069 
         00013f 0067 
         000140 0044 
         000141 004D 
         000142 0041 
         000143 0020 
         000144 0046 
         000145 0061 
         000146 0069 
         000147 006C 
         000148 0065 
         000149 0064 
         00014a 000A 
         00014b 0000 
    1485                      .align  2
    1486 00014c 004C  $C$FSL13:       .string "LCD_configDMA Successful",10,0
         00014d 0043 
         00014e 0044 
         00014f 005F 
         000150 0063 
         000151 006F 
         000152 006E 
TMS320C55x Assembler PC v4.4.1 Sat Sep 29 23:09:15 2018

Tools Copyright (c) 1996-2012 Texas Instruments Incorporated
csl_lcdc_DmaIntcExample.asm                                          PAGE   40

         000153 0066 
         000154 0069 
         000155 0067 
         000156 0044 
         000157 004D 
         000158 0041 
         000159 0020 
         00015a 0053 
         00015b 0075 
         00015c 0063 
         00015d 0063 
         00015e 0065 
         00015f 0073 
         000160 0073 
         000161 0066 
         000162 0075 
         000163 006C 
         000164 000A 
         000165 0000 
    1487                      .align  2
    1488 000166 004C  $C$FSL14:       .string "LCD_close Failed",10,0
         000167 0043 
         000168 0044 
         000169 005F 
         00016a 0063 
         00016b 006C 
         00016c 006F 
         00016d 0073 
         00016e 0065 
         00016f 0020 
         000170 0046 
         000171 0061 
         000172 0069 
         000173 006C 
         000174 0065 
         000175 0064 
         000176 000A 
         000177 0000 
    1489                      .align  2
    1490 000178 004C  $C$FSL15:       .string "LCD_close Successful",10,0
         000179 0043 
         00017a 0044 
         00017b 005F 
         00017c 0063 
         00017d 006C 
         00017e 006F 
         00017f 0073 
         000180 0065 
         000181 0020 
         000182 0053 
         000183 0075 
         000184 0063 
         000185 0063 
         000186 0065 
         000187 0073 
TMS320C55x Assembler PC v4.4.1 Sat Sep 29 23:09:15 2018

Tools Copyright (c) 1996-2012 Texas Instruments Incorporated
csl_lcdc_DmaIntcExample.asm                                          PAGE   41

         000188 0073 
         000189 0066 
         00018a 0075 
         00018b 006C 
         00018c 000A 
         00018d 0000 
    1491              ;******************************************************************************
    1492              ;* UNDEFINED EXTERNAL REFERENCES                                              *
    1493              ;******************************************************************************
    1494                      .global _printf
    1495                      .global _LCD_init
    1496                      .global _LCD_open
    1497                      .global _LCD_setup
    1498                      .global _LCD_configDMA
    1499                      .global _LCD_close
    1500                      .global _cmdWrite
    1501                      .global _windowSetup
    1502                      .global _panelSetup
    1503                      .global _IRQ_plug
    1504                      .global _IRQ_clear
    1505                      .global _IRQ_clearAll
    1506                      .global _IRQ_disableAll
    1507                      .global _IRQ_enable
    1508                      .global _IRQ_setVecs
    1509                      .global _IRQ_globalDisable
    1510                      .global _IRQ_globalEnable
    1511                      .global _VECSTART
    1512              
    1513              ;*******************************************************************************
    1514              ;* TYPE INFORMATION                                                            *
    1515              ;*******************************************************************************
    1516              
    1517              $C$DW$T$25      .dwtag  DW_TAG_enumeration_type
    1518                      .dwattr $C$DW$T$25, DW_AT_byte_size(0x01)
    1519              $C$DW$129       .dwtag  DW_TAG_enumerator, DW_AT_name("CSL_LCDC_LIDD_FDONE_DISABLE"), DW_AT_const_value(0x00)
    1520              $C$DW$130       .dwtag  DW_TAG_enumerator, DW_AT_name("CSL_LCDC_LIDD_FDONE_ENABLE"), DW_AT_const_value(0x01)
    1521                      .dwendtag $C$DW$T$25
    1522              
    1523              $C$DW$T$26      .dwtag  DW_TAG_typedef, DW_AT_name("CSL_LcdcFdoneCtl")
    1524                      .dwattr $C$DW$T$26, DW_AT_type(*$C$DW$T$25)
    1525                      .dwattr $C$DW$T$26, DW_AT_language(DW_LANG_C)
    1526              
    1527              $C$DW$T$27      .dwtag  DW_TAG_enumeration_type
    1528                      .dwattr $C$DW$T$27, DW_AT_byte_size(0x01)
    1529              $C$DW$131       .dwtag  DW_TAG_enumerator, DW_AT_name("CSL_LCDC_LIDD_CS0"), DW_AT_const_value(0x00)
    1530              $C$DW$132       .dwtag  DW_TAG_enumerator, DW_AT_name("CSL_LCDC_LIDD_CS1"), DW_AT_const_value(0x01)
    1531                      .dwendtag $C$DW$T$27
    1532              
    1533              $C$DW$T$28      .dwtag  DW_TAG_typedef, DW_AT_name("CSL_LcdcChipSelect")
    1534                      .dwattr $C$DW$T$28, DW_AT_type(*$C$DW$T$27)
    1535                      .dwattr $C$DW$T$28, DW_AT_language(DW_LANG_C)
    1536              
    1537              $C$DW$T$29      .dwtag  DW_TAG_enumeration_type
    1538                      .dwattr $C$DW$T$29, DW_AT_byte_size(0x01)
    1539              $C$DW$133       .dwtag  DW_TAG_enumerator, DW_AT_name("CSL_LCDC_LIDD_DMA_DISABLE"), DW_AT_const_value(0x00)
TMS320C55x Assembler PC v4.4.1 Sat Sep 29 23:09:15 2018

Tools Copyright (c) 1996-2012 Texas Instruments Incorporated
csl_lcdc_DmaIntcExample.asm                                          PAGE   42

    1540              $C$DW$134       .dwtag  DW_TAG_enumerator, DW_AT_name("CSL_LCDC_LIDD_DMA_ENABLE"), DW_AT_const_value(0x01)
    1541                      .dwendtag $C$DW$T$29
    1542              
    1543              $C$DW$T$30      .dwtag  DW_TAG_typedef, DW_AT_name("CSL_LcdcDmaCtl")
    1544                      .dwattr $C$DW$T$30, DW_AT_type(*$C$DW$T$29)
    1545                      .dwattr $C$DW$T$30, DW_AT_language(DW_LANG_C)
    1546              
    1547              $C$DW$T$32      .dwtag  DW_TAG_enumeration_type
    1548                      .dwattr $C$DW$T$32, DW_AT_byte_size(0x01)
    1549              $C$DW$135       .dwtag  DW_TAG_enumerator, DW_AT_name("CSL_LCDC_LIDD_SYNC_MPU68"), DW_AT_const_value(0x00)
    1550              $C$DW$136       .dwtag  DW_TAG_enumerator, DW_AT_name("CSL_LCDC_LIDD_ASYNC_MPU68"), DW_AT_const_value(0x01)
    1551              $C$DW$137       .dwtag  DW_TAG_enumerator, DW_AT_name("CSL_LCDC_LIDD_SYNC_MPU80"), DW_AT_const_value(0x02)
    1552              $C$DW$138       .dwtag  DW_TAG_enumerator, DW_AT_name("CSL_LCDC_LIDD_ASYNC_MPU80"), DW_AT_const_value(0x03)
    1553              $C$DW$139       .dwtag  DW_TAG_enumerator, DW_AT_name("CSL_LCDC_LIDD_ASYNC_HITACHI"), DW_AT_const_value(0x04)
    1554                      .dwendtag $C$DW$T$32
    1555              
    1556              $C$DW$T$33      .dwtag  DW_TAG_typedef, DW_AT_name("CSL_LcdcLiddMode")
    1557                      .dwattr $C$DW$T$33, DW_AT_type(*$C$DW$T$32)
    1558                      .dwattr $C$DW$T$33, DW_AT_language(DW_LANG_C)
    1559              
    1560              $C$DW$T$38      .dwtag  DW_TAG_enumeration_type
    1561                      .dwattr $C$DW$T$38, DW_AT_byte_size(0x01)
    1562              $C$DW$140       .dwtag  DW_TAG_enumerator, DW_AT_name("CSL_LCDC_LIDD_NOT_USE_CS1"), DW_AT_const_value(0x00)
    1563              $C$DW$141       .dwtag  DW_TAG_enumerator, DW_AT_name("CSL_LCDC_LIDD_USE_CS1"), DW_AT_const_value(0x01)
    1564                      .dwendtag $C$DW$T$38
    1565              
    1566              $C$DW$T$39      .dwtag  DW_TAG_typedef, DW_AT_name("CSL_LcdcCs1Status")
    1567                      .dwattr $C$DW$T$39, DW_AT_type(*$C$DW$T$38)
    1568                      .dwattr $C$DW$T$39, DW_AT_language(DW_LANG_C)
    1569              
    1570              $C$DW$T$41      .dwtag  DW_TAG_enumeration_type
    1571                      .dwattr $C$DW$T$41, DW_AT_byte_size(0x01)
    1572              $C$DW$142       .dwtag  DW_TAG_enumerator, DW_AT_name("CSL_LCDC_DMA_BURST1"), DW_AT_const_value(0x00)
    1573              $C$DW$143       .dwtag  DW_TAG_enumerator, DW_AT_name("CSL_LCDC_DMA_BURST2"), DW_AT_const_value(0x01)
    1574              $C$DW$144       .dwtag  DW_TAG_enumerator, DW_AT_name("CSL_LCDC_DMA_BURST4"), DW_AT_const_value(0x02)
    1575              $C$DW$145       .dwtag  DW_TAG_enumerator, DW_AT_name("CSL_LCDC_DMA_BURST8"), DW_AT_const_value(0x03)
    1576              $C$DW$146       .dwtag  DW_TAG_enumerator, DW_AT_name("CSL_LCDC_DMA_BURST16"), DW_AT_const_value(0x04)
    1577                      .dwendtag $C$DW$T$41
    1578              
    1579              $C$DW$T$42      .dwtag  DW_TAG_typedef, DW_AT_name("CSL_LcdcDmaBurst")
    1580                      .dwattr $C$DW$T$42, DW_AT_type(*$C$DW$T$41)
    1581                      .dwattr $C$DW$T$42, DW_AT_language(DW_LANG_C)
    1582              
    1583              $C$DW$T$43      .dwtag  DW_TAG_enumeration_type
    1584                      .dwattr $C$DW$T$43, DW_AT_byte_size(0x01)
    1585              $C$DW$147       .dwtag  DW_TAG_enumerator, DW_AT_name("CSL_LCDC_EOFINT_DISABLE"), DW_AT_const_value(0x00)
    1586              $C$DW$148       .dwtag  DW_TAG_enumerator, DW_AT_name("CSL_LCDC_EOFINT_ENABLE"), DW_AT_const_value(0x01)
    1587                      .dwendtag $C$DW$T$43
    1588              
    1589              $C$DW$T$44      .dwtag  DW_TAG_typedef, DW_AT_name("CSL_LcdcEofIntCtl")
    1590                      .dwattr $C$DW$T$44, DW_AT_type(*$C$DW$T$43)
    1591                      .dwattr $C$DW$T$44, DW_AT_language(DW_LANG_C)
    1592              
    1593              $C$DW$T$45      .dwtag  DW_TAG_enumeration_type
    1594                      .dwattr $C$DW$T$45, DW_AT_byte_size(0x01)
TMS320C55x Assembler PC v4.4.1 Sat Sep 29 23:09:15 2018

Tools Copyright (c) 1996-2012 Texas Instruments Incorporated
csl_lcdc_DmaIntcExample.asm                                          PAGE   43

    1595              $C$DW$149       .dwtag  DW_TAG_enumerator, DW_AT_name("CSL_LCDC_ENDIANESS_LITTLE"), DW_AT_const_value(0x00)
    1596              $C$DW$150       .dwtag  DW_TAG_enumerator, DW_AT_name("CSL_LCDC_ENDIANESS_BIG"), DW_AT_const_value(0x01)
    1597                      .dwendtag $C$DW$T$45
    1598              
    1599              $C$DW$T$46      .dwtag  DW_TAG_typedef, DW_AT_name("CSL_LcdcEndianess")
    1600                      .dwattr $C$DW$T$46, DW_AT_type(*$C$DW$T$45)
    1601                      .dwattr $C$DW$T$46, DW_AT_language(DW_LANG_C)
    1602              
    1603              $C$DW$T$47      .dwtag  DW_TAG_enumeration_type
    1604                      .dwattr $C$DW$T$47, DW_AT_byte_size(0x01)
    1605              $C$DW$151       .dwtag  DW_TAG_enumerator, DW_AT_name("CSL_LCDC_FBMODE_SINGLE"), DW_AT_const_value(0x00)
    1606              $C$DW$152       .dwtag  DW_TAG_enumerator, DW_AT_name("CSL_LCDC_FBMODE_DOUBLE"), DW_AT_const_value(0x01)
    1607                      .dwendtag $C$DW$T$47
    1608              
    1609              $C$DW$T$48      .dwtag  DW_TAG_typedef, DW_AT_name("CSL_LcdcFrameMode")
    1610                      .dwattr $C$DW$T$48, DW_AT_type(*$C$DW$T$47)
    1611                      .dwattr $C$DW$T$48, DW_AT_language(DW_LANG_C)
    1612              
    1613              $C$DW$T$24      .dwtag  DW_TAG_structure_type
    1614                      .dwattr $C$DW$T$24, DW_AT_byte_size(0x52)
    1615              $C$DW$153       .dwtag  DW_TAG_member
    1616                      .dwattr $C$DW$153, DW_AT_type(*$C$DW$T$20)
    1617                      .dwattr $C$DW$153, DW_AT_name("LCDREVMIN")
    1618                      .dwattr $C$DW$153, DW_AT_TI_symbol_name("_LCDREVMIN")
    1619                      .dwattr $C$DW$153, DW_AT_data_member_location[DW_OP_plus_uconst 0x0]
    1620                      .dwattr $C$DW$153, DW_AT_accessibility(DW_ACCESS_public)
    1621              $C$DW$154       .dwtag  DW_TAG_member
    1622                      .dwattr $C$DW$154, DW_AT_type(*$C$DW$T$20)
    1623                      .dwattr $C$DW$154, DW_AT_name("LCDREVMAJ")
    1624                      .dwattr $C$DW$154, DW_AT_TI_symbol_name("_LCDREVMAJ")
    1625                      .dwattr $C$DW$154, DW_AT_data_member_location[DW_OP_plus_uconst 0x1]
    1626                      .dwattr $C$DW$154, DW_AT_accessibility(DW_ACCESS_public)
    1627              $C$DW$155       .dwtag  DW_TAG_member
    1628                      .dwattr $C$DW$155, DW_AT_type(*$C$DW$T$21)
    1629                      .dwattr $C$DW$155, DW_AT_name("RSVD0")
    1630                      .dwattr $C$DW$155, DW_AT_TI_symbol_name("_RSVD0")
    1631                      .dwattr $C$DW$155, DW_AT_data_member_location[DW_OP_plus_uconst 0x2]
    1632                      .dwattr $C$DW$155, DW_AT_accessibility(DW_ACCESS_public)
    1633              $C$DW$156       .dwtag  DW_TAG_member
    1634                      .dwattr $C$DW$156, DW_AT_type(*$C$DW$T$20)
    1635                      .dwattr $C$DW$156, DW_AT_name("LCDCR")
    1636                      .dwattr $C$DW$156, DW_AT_TI_symbol_name("_LCDCR")
    1637                      .dwattr $C$DW$156, DW_AT_data_member_location[DW_OP_plus_uconst 0x4]
    1638                      .dwattr $C$DW$156, DW_AT_accessibility(DW_ACCESS_public)
    1639              $C$DW$157       .dwtag  DW_TAG_member
    1640                      .dwattr $C$DW$157, DW_AT_type(*$C$DW$T$22)
    1641                      .dwattr $C$DW$157, DW_AT_name("RSVD1")
    1642                      .dwattr $C$DW$157, DW_AT_TI_symbol_name("_RSVD1")
    1643                      .dwattr $C$DW$157, DW_AT_data_member_location[DW_OP_plus_uconst 0x5]
    1644                      .dwattr $C$DW$157, DW_AT_accessibility(DW_ACCESS_public)
    1645              $C$DW$158       .dwtag  DW_TAG_member
    1646                      .dwattr $C$DW$158, DW_AT_type(*$C$DW$T$20)
    1647                      .dwattr $C$DW$158, DW_AT_name("LCDSR")
    1648                      .dwattr $C$DW$158, DW_AT_TI_symbol_name("_LCDSR")
    1649                      .dwattr $C$DW$158, DW_AT_data_member_location[DW_OP_plus_uconst 0x8]
TMS320C55x Assembler PC v4.4.1 Sat Sep 29 23:09:15 2018

Tools Copyright (c) 1996-2012 Texas Instruments Incorporated
csl_lcdc_DmaIntcExample.asm                                          PAGE   44

    1650                      .dwattr $C$DW$158, DW_AT_accessibility(DW_ACCESS_public)
    1651              $C$DW$159       .dwtag  DW_TAG_member
    1652                      .dwattr $C$DW$159, DW_AT_type(*$C$DW$T$22)
    1653                      .dwattr $C$DW$159, DW_AT_name("RSVD2")
    1654                      .dwattr $C$DW$159, DW_AT_TI_symbol_name("_RSVD2")
    1655                      .dwattr $C$DW$159, DW_AT_data_member_location[DW_OP_plus_uconst 0x9]
    1656                      .dwattr $C$DW$159, DW_AT_accessibility(DW_ACCESS_public)
    1657              $C$DW$160       .dwtag  DW_TAG_member
    1658                      .dwattr $C$DW$160, DW_AT_type(*$C$DW$T$20)
    1659                      .dwattr $C$DW$160, DW_AT_name("LCDLIDDCR")
    1660                      .dwattr $C$DW$160, DW_AT_TI_symbol_name("_LCDLIDDCR")
    1661                      .dwattr $C$DW$160, DW_AT_data_member_location[DW_OP_plus_uconst 0xc]
    1662                      .dwattr $C$DW$160, DW_AT_accessibility(DW_ACCESS_public)
    1663              $C$DW$161       .dwtag  DW_TAG_member
    1664                      .dwattr $C$DW$161, DW_AT_type(*$C$DW$T$22)
    1665                      .dwattr $C$DW$161, DW_AT_name("RSVD3")
    1666                      .dwattr $C$DW$161, DW_AT_TI_symbol_name("_RSVD3")
    1667                      .dwattr $C$DW$161, DW_AT_data_member_location[DW_OP_plus_uconst 0xd]
    1668                      .dwattr $C$DW$161, DW_AT_accessibility(DW_ACCESS_public)
    1669              $C$DW$162       .dwtag  DW_TAG_member
    1670                      .dwattr $C$DW$162, DW_AT_type(*$C$DW$T$20)
    1671                      .dwattr $C$DW$162, DW_AT_name("LCDLIDDCS0CONFIG0")
    1672                      .dwattr $C$DW$162, DW_AT_TI_symbol_name("_LCDLIDDCS0CONFIG0")
    1673                      .dwattr $C$DW$162, DW_AT_data_member_location[DW_OP_plus_uconst 0x10]
    1674                      .dwattr $C$DW$162, DW_AT_accessibility(DW_ACCESS_public)
    1675              $C$DW$163       .dwtag  DW_TAG_member
    1676                      .dwattr $C$DW$163, DW_AT_type(*$C$DW$T$20)
    1677                      .dwattr $C$DW$163, DW_AT_name("LCDLIDDCS0CONFIG1")
    1678                      .dwattr $C$DW$163, DW_AT_TI_symbol_name("_LCDLIDDCS0CONFIG1")
    1679                      .dwattr $C$DW$163, DW_AT_data_member_location[DW_OP_plus_uconst 0x11]
    1680                      .dwattr $C$DW$163, DW_AT_accessibility(DW_ACCESS_public)
    1681              $C$DW$164       .dwtag  DW_TAG_member
    1682                      .dwattr $C$DW$164, DW_AT_type(*$C$DW$T$21)
    1683                      .dwattr $C$DW$164, DW_AT_name("RSVD4")
    1684                      .dwattr $C$DW$164, DW_AT_TI_symbol_name("_RSVD4")
    1685                      .dwattr $C$DW$164, DW_AT_data_member_location[DW_OP_plus_uconst 0x12]
    1686                      .dwattr $C$DW$164, DW_AT_accessibility(DW_ACCESS_public)
    1687              $C$DW$165       .dwtag  DW_TAG_member
    1688                      .dwattr $C$DW$165, DW_AT_type(*$C$DW$T$20)
    1689                      .dwattr $C$DW$165, DW_AT_name("LCDLIDDCS0ADDR")
    1690                      .dwattr $C$DW$165, DW_AT_TI_symbol_name("_LCDLIDDCS0ADDR")
    1691                      .dwattr $C$DW$165, DW_AT_data_member_location[DW_OP_plus_uconst 0x14]
    1692                      .dwattr $C$DW$165, DW_AT_accessibility(DW_ACCESS_public)
    1693              $C$DW$166       .dwtag  DW_TAG_member
    1694                      .dwattr $C$DW$166, DW_AT_type(*$C$DW$T$22)
    1695                      .dwattr $C$DW$166, DW_AT_name("RSVD5")
    1696                      .dwattr $C$DW$166, DW_AT_TI_symbol_name("_RSVD5")
    1697                      .dwattr $C$DW$166, DW_AT_data_member_location[DW_OP_plus_uconst 0x15]
    1698                      .dwattr $C$DW$166, DW_AT_accessibility(DW_ACCESS_public)
    1699              $C$DW$167       .dwtag  DW_TAG_member
    1700                      .dwattr $C$DW$167, DW_AT_type(*$C$DW$T$20)
    1701                      .dwattr $C$DW$167, DW_AT_name("LCDLIDDCS0DATA")
    1702                      .dwattr $C$DW$167, DW_AT_TI_symbol_name("_LCDLIDDCS0DATA")
    1703                      .dwattr $C$DW$167, DW_AT_data_member_location[DW_OP_plus_uconst 0x18]
    1704                      .dwattr $C$DW$167, DW_AT_accessibility(DW_ACCESS_public)
TMS320C55x Assembler PC v4.4.1 Sat Sep 29 23:09:15 2018

Tools Copyright (c) 1996-2012 Texas Instruments Incorporated
csl_lcdc_DmaIntcExample.asm                                          PAGE   45

    1705              $C$DW$168       .dwtag  DW_TAG_member
    1706                      .dwattr $C$DW$168, DW_AT_type(*$C$DW$T$22)
    1707                      .dwattr $C$DW$168, DW_AT_name("RSVD6")
    1708                      .dwattr $C$DW$168, DW_AT_TI_symbol_name("_RSVD6")
    1709                      .dwattr $C$DW$168, DW_AT_data_member_location[DW_OP_plus_uconst 0x19]
    1710                      .dwattr $C$DW$168, DW_AT_accessibility(DW_ACCESS_public)
    1711              $C$DW$169       .dwtag  DW_TAG_member
    1712                      .dwattr $C$DW$169, DW_AT_type(*$C$DW$T$20)
    1713                      .dwattr $C$DW$169, DW_AT_name("LCDLIDDCS1CONFIG0")
    1714                      .dwattr $C$DW$169, DW_AT_TI_symbol_name("_LCDLIDDCS1CONFIG0")
    1715                      .dwattr $C$DW$169, DW_AT_data_member_location[DW_OP_plus_uconst 0x1c]
    1716                      .dwattr $C$DW$169, DW_AT_accessibility(DW_ACCESS_public)
    1717              $C$DW$170       .dwtag  DW_TAG_member
    1718                      .dwattr $C$DW$170, DW_AT_type(*$C$DW$T$20)
    1719                      .dwattr $C$DW$170, DW_AT_name("LCDLIDDCS1CONFIG1")
    1720                      .dwattr $C$DW$170, DW_AT_TI_symbol_name("_LCDLIDDCS1CONFIG1")
    1721                      .dwattr $C$DW$170, DW_AT_data_member_location[DW_OP_plus_uconst 0x1d]
    1722                      .dwattr $C$DW$170, DW_AT_accessibility(DW_ACCESS_public)
    1723              $C$DW$171       .dwtag  DW_TAG_member
    1724                      .dwattr $C$DW$171, DW_AT_type(*$C$DW$T$21)
    1725                      .dwattr $C$DW$171, DW_AT_name("RSVD7")
    1726                      .dwattr $C$DW$171, DW_AT_TI_symbol_name("_RSVD7")
    1727                      .dwattr $C$DW$171, DW_AT_data_member_location[DW_OP_plus_uconst 0x1e]
    1728                      .dwattr $C$DW$171, DW_AT_accessibility(DW_ACCESS_public)
    1729              $C$DW$172       .dwtag  DW_TAG_member
    1730                      .dwattr $C$DW$172, DW_AT_type(*$C$DW$T$20)
    1731                      .dwattr $C$DW$172, DW_AT_name("LCDLIDDCS1ADDR")
    1732                      .dwattr $C$DW$172, DW_AT_TI_symbol_name("_LCDLIDDCS1ADDR")
    1733                      .dwattr $C$DW$172, DW_AT_data_member_location[DW_OP_plus_uconst 0x20]
    1734                      .dwattr $C$DW$172, DW_AT_accessibility(DW_ACCESS_public)
    1735              $C$DW$173       .dwtag  DW_TAG_member
    1736                      .dwattr $C$DW$173, DW_AT_type(*$C$DW$T$22)
    1737                      .dwattr $C$DW$173, DW_AT_name("RSVD8")
    1738                      .dwattr $C$DW$173, DW_AT_TI_symbol_name("_RSVD8")
    1739                      .dwattr $C$DW$173, DW_AT_data_member_location[DW_OP_plus_uconst 0x21]
    1740                      .dwattr $C$DW$173, DW_AT_accessibility(DW_ACCESS_public)
    1741              $C$DW$174       .dwtag  DW_TAG_member
    1742                      .dwattr $C$DW$174, DW_AT_type(*$C$DW$T$20)
    1743                      .dwattr $C$DW$174, DW_AT_name("LCDLIDDCS1DATA")
    1744                      .dwattr $C$DW$174, DW_AT_TI_symbol_name("_LCDLIDDCS1DATA")
    1745                      .dwattr $C$DW$174, DW_AT_data_member_location[DW_OP_plus_uconst 0x24]
    1746                      .dwattr $C$DW$174, DW_AT_accessibility(DW_ACCESS_public)
    1747              $C$DW$175       .dwtag  DW_TAG_member
    1748                      .dwattr $C$DW$175, DW_AT_type(*$C$DW$T$23)
    1749                      .dwattr $C$DW$175, DW_AT_name("RSVD9")
    1750                      .dwattr $C$DW$175, DW_AT_TI_symbol_name("_RSVD9")
    1751                      .dwattr $C$DW$175, DW_AT_data_member_location[DW_OP_plus_uconst 0x25]
    1752                      .dwattr $C$DW$175, DW_AT_accessibility(DW_ACCESS_public)
    1753              $C$DW$176       .dwtag  DW_TAG_member
    1754                      .dwattr $C$DW$176, DW_AT_type(*$C$DW$T$20)
    1755                      .dwattr $C$DW$176, DW_AT_name("LCDDMACR")
    1756                      .dwattr $C$DW$176, DW_AT_TI_symbol_name("_LCDDMACR")
    1757                      .dwattr $C$DW$176, DW_AT_data_member_location[DW_OP_plus_uconst 0x40]
    1758                      .dwattr $C$DW$176, DW_AT_accessibility(DW_ACCESS_public)
    1759              $C$DW$177       .dwtag  DW_TAG_member
TMS320C55x Assembler PC v4.4.1 Sat Sep 29 23:09:15 2018

Tools Copyright (c) 1996-2012 Texas Instruments Incorporated
csl_lcdc_DmaIntcExample.asm                                          PAGE   46

    1760                      .dwattr $C$DW$177, DW_AT_type(*$C$DW$T$22)
    1761                      .dwattr $C$DW$177, DW_AT_name("RSVD10")
    1762                      .dwattr $C$DW$177, DW_AT_TI_symbol_name("_RSVD10")
    1763                      .dwattr $C$DW$177, DW_AT_data_member_location[DW_OP_plus_uconst 0x41]
    1764                      .dwattr $C$DW$177, DW_AT_accessibility(DW_ACCESS_public)
    1765              $C$DW$178       .dwtag  DW_TAG_member
    1766                      .dwattr $C$DW$178, DW_AT_type(*$C$DW$T$20)
    1767                      .dwattr $C$DW$178, DW_AT_name("LCDDMAFB0BAR0")
    1768                      .dwattr $C$DW$178, DW_AT_TI_symbol_name("_LCDDMAFB0BAR0")
    1769                      .dwattr $C$DW$178, DW_AT_data_member_location[DW_OP_plus_uconst 0x44]
    1770                      .dwattr $C$DW$178, DW_AT_accessibility(DW_ACCESS_public)
    1771              $C$DW$179       .dwtag  DW_TAG_member
    1772                      .dwattr $C$DW$179, DW_AT_type(*$C$DW$T$20)
    1773                      .dwattr $C$DW$179, DW_AT_name("LCDDMAFB0BAR1")
    1774                      .dwattr $C$DW$179, DW_AT_TI_symbol_name("_LCDDMAFB0BAR1")
    1775                      .dwattr $C$DW$179, DW_AT_data_member_location[DW_OP_plus_uconst 0x45]
    1776                      .dwattr $C$DW$179, DW_AT_accessibility(DW_ACCESS_public)
    1777              $C$DW$180       .dwtag  DW_TAG_member
    1778                      .dwattr $C$DW$180, DW_AT_type(*$C$DW$T$21)
    1779                      .dwattr $C$DW$180, DW_AT_name("RSVD11")
    1780                      .dwattr $C$DW$180, DW_AT_TI_symbol_name("_RSVD11")
    1781                      .dwattr $C$DW$180, DW_AT_data_member_location[DW_OP_plus_uconst 0x46]
    1782                      .dwattr $C$DW$180, DW_AT_accessibility(DW_ACCESS_public)
    1783              $C$DW$181       .dwtag  DW_TAG_member
    1784                      .dwattr $C$DW$181, DW_AT_type(*$C$DW$T$20)
    1785                      .dwattr $C$DW$181, DW_AT_name("LCDDMAFB0CAR0")
    1786                      .dwattr $C$DW$181, DW_AT_TI_symbol_name("_LCDDMAFB0CAR0")
    1787                      .dwattr $C$DW$181, DW_AT_data_member_location[DW_OP_plus_uconst 0x48]
    1788                      .dwattr $C$DW$181, DW_AT_accessibility(DW_ACCESS_public)
    1789              $C$DW$182       .dwtag  DW_TAG_member
    1790                      .dwattr $C$DW$182, DW_AT_type(*$C$DW$T$20)
    1791                      .dwattr $C$DW$182, DW_AT_name("LCDDMAFB0CAR1")
    1792                      .dwattr $C$DW$182, DW_AT_TI_symbol_name("_LCDDMAFB0CAR1")
    1793                      .dwattr $C$DW$182, DW_AT_data_member_location[DW_OP_plus_uconst 0x49]
    1794                      .dwattr $C$DW$182, DW_AT_accessibility(DW_ACCESS_public)
    1795              $C$DW$183       .dwtag  DW_TAG_member
    1796                      .dwattr $C$DW$183, DW_AT_type(*$C$DW$T$21)
    1797                      .dwattr $C$DW$183, DW_AT_name("RSVD12")
    1798                      .dwattr $C$DW$183, DW_AT_TI_symbol_name("_RSVD12")
    1799                      .dwattr $C$DW$183, DW_AT_data_member_location[DW_OP_plus_uconst 0x4a]
    1800                      .dwattr $C$DW$183, DW_AT_accessibility(DW_ACCESS_public)
    1801              $C$DW$184       .dwtag  DW_TAG_member
    1802                      .dwattr $C$DW$184, DW_AT_type(*$C$DW$T$20)
    1803                      .dwattr $C$DW$184, DW_AT_name("LCDDMAFB1BAR0")
    1804                      .dwattr $C$DW$184, DW_AT_TI_symbol_name("_LCDDMAFB1BAR0")
    1805                      .dwattr $C$DW$184, DW_AT_data_member_location[DW_OP_plus_uconst 0x4c]
    1806                      .dwattr $C$DW$184, DW_AT_accessibility(DW_ACCESS_public)
    1807              $C$DW$185       .dwtag  DW_TAG_member
    1808                      .dwattr $C$DW$185, DW_AT_type(*$C$DW$T$20)
    1809                      .dwattr $C$DW$185, DW_AT_name("LCDDMAFB1BAR1")
    1810                      .dwattr $C$DW$185, DW_AT_TI_symbol_name("_LCDDMAFB1BAR1")
    1811                      .dwattr $C$DW$185, DW_AT_data_member_location[DW_OP_plus_uconst 0x4d]
    1812                      .dwattr $C$DW$185, DW_AT_accessibility(DW_ACCESS_public)
    1813              $C$DW$186       .dwtag  DW_TAG_member
    1814                      .dwattr $C$DW$186, DW_AT_type(*$C$DW$T$21)
TMS320C55x Assembler PC v4.4.1 Sat Sep 29 23:09:15 2018

Tools Copyright (c) 1996-2012 Texas Instruments Incorporated
csl_lcdc_DmaIntcExample.asm                                          PAGE   47

    1815                      .dwattr $C$DW$186, DW_AT_name("RSVD13")
    1816                      .dwattr $C$DW$186, DW_AT_TI_symbol_name("_RSVD13")
    1817                      .dwattr $C$DW$186, DW_AT_data_member_location[DW_OP_plus_uconst 0x4e]
    1818                      .dwattr $C$DW$186, DW_AT_accessibility(DW_ACCESS_public)
    1819              $C$DW$187       .dwtag  DW_TAG_member
    1820                      .dwattr $C$DW$187, DW_AT_type(*$C$DW$T$20)
    1821                      .dwattr $C$DW$187, DW_AT_name("LCDDMAFB1CAR0")
    1822                      .dwattr $C$DW$187, DW_AT_TI_symbol_name("_LCDDMAFB1CAR0")
    1823                      .dwattr $C$DW$187, DW_AT_data_member_location[DW_OP_plus_uconst 0x50]
    1824                      .dwattr $C$DW$187, DW_AT_accessibility(DW_ACCESS_public)
    1825              $C$DW$188       .dwtag  DW_TAG_member
    1826                      .dwattr $C$DW$188, DW_AT_type(*$C$DW$T$20)
    1827                      .dwattr $C$DW$188, DW_AT_name("LCDDMAFB1CAR1")
    1828                      .dwattr $C$DW$188, DW_AT_TI_symbol_name("_LCDDMAFB1CAR1")
    1829                      .dwattr $C$DW$188, DW_AT_data_member_location[DW_OP_plus_uconst 0x51]
    1830                      .dwattr $C$DW$188, DW_AT_accessibility(DW_ACCESS_public)
    1831                      .dwendtag $C$DW$T$24
    1832              
    1833              $C$DW$T$56      .dwtag  DW_TAG_typedef, DW_AT_name("CSL_LcdcRegs")
    1834                      .dwattr $C$DW$T$56, DW_AT_type(*$C$DW$T$24)
    1835                      .dwattr $C$DW$T$56, DW_AT_language(DW_LANG_C)
    1836              $C$DW$189       .dwtag  DW_TAG_TI_far_type
    1837                      .dwattr $C$DW$189, DW_AT_type(*$C$DW$T$56)
    1838              $C$DW$190       .dwtag  DW_TAG_TI_ioport_type
    1839                      .dwattr $C$DW$190, DW_AT_type(*$C$DW$189)
    1840              $C$DW$T$57      .dwtag  DW_TAG_volatile_type
    1841                      .dwattr $C$DW$T$57, DW_AT_type(*$C$DW$190)
    1842              $C$DW$T$58      .dwtag  DW_TAG_pointer_type
    1843                      .dwattr $C$DW$T$58, DW_AT_type(*$C$DW$T$57)
    1844                      .dwattr $C$DW$T$58, DW_AT_address_class(0x10)
    1845              $C$DW$T$59      .dwtag  DW_TAG_typedef, DW_AT_name("CSL_LcdcRegsOvly")
    1846                      .dwattr $C$DW$T$59, DW_AT_type(*$C$DW$T$58)
    1847                      .dwattr $C$DW$T$59, DW_AT_language(DW_LANG_C)
    1848              
    1849              $C$DW$T$34      .dwtag  DW_TAG_structure_type
    1850                      .dwattr $C$DW$T$34, DW_AT_byte_size(0x06)
    1851              $C$DW$191       .dwtag  DW_TAG_member
    1852                      .dwattr $C$DW$191, DW_AT_type(*$C$DW$T$19)
    1853                      .dwattr $C$DW$191, DW_AT_name("clkDiv")
    1854                      .dwattr $C$DW$191, DW_AT_TI_symbol_name("_clkDiv")
    1855                      .dwattr $C$DW$191, DW_AT_data_member_location[DW_OP_plus_uconst 0x0]
    1856                      .dwattr $C$DW$191, DW_AT_accessibility(DW_ACCESS_public)
    1857              $C$DW$192       .dwtag  DW_TAG_member
    1858                      .dwattr $C$DW$192, DW_AT_type(*$C$DW$T$26)
    1859                      .dwattr $C$DW$192, DW_AT_name("fdoneIntEn")
    1860                      .dwattr $C$DW$192, DW_AT_TI_symbol_name("_fdoneIntEn")
    1861                      .dwattr $C$DW$192, DW_AT_data_member_location[DW_OP_plus_uconst 0x1]
    1862                      .dwattr $C$DW$192, DW_AT_accessibility(DW_ACCESS_public)
    1863              $C$DW$193       .dwtag  DW_TAG_member
    1864                      .dwattr $C$DW$193, DW_AT_type(*$C$DW$T$28)
    1865                      .dwattr $C$DW$193, DW_AT_name("dmaCs0Cs1")
    1866                      .dwattr $C$DW$193, DW_AT_TI_symbol_name("_dmaCs0Cs1")
    1867                      .dwattr $C$DW$193, DW_AT_data_member_location[DW_OP_plus_uconst 0x2]
    1868                      .dwattr $C$DW$193, DW_AT_accessibility(DW_ACCESS_public)
    1869              $C$DW$194       .dwtag  DW_TAG_member
TMS320C55x Assembler PC v4.4.1 Sat Sep 29 23:09:15 2018

Tools Copyright (c) 1996-2012 Texas Instruments Incorporated
csl_lcdc_DmaIntcExample.asm                                          PAGE   48

    1870                      .dwattr $C$DW$194, DW_AT_type(*$C$DW$T$30)
    1871                      .dwattr $C$DW$194, DW_AT_name("dmaEnable")
    1872                      .dwattr $C$DW$194, DW_AT_TI_symbol_name("_dmaEnable")
    1873                      .dwattr $C$DW$194, DW_AT_data_member_location[DW_OP_plus_uconst 0x3]
    1874                      .dwattr $C$DW$194, DW_AT_accessibility(DW_ACCESS_public)
    1875              $C$DW$195       .dwtag  DW_TAG_member
    1876                      .dwattr $C$DW$195, DW_AT_type(*$C$DW$T$31)
    1877                      .dwattr $C$DW$195, DW_AT_name("polControl")
    1878                      .dwattr $C$DW$195, DW_AT_TI_symbol_name("_polControl")
    1879                      .dwattr $C$DW$195, DW_AT_data_member_location[DW_OP_plus_uconst 0x4]
    1880                      .dwattr $C$DW$195, DW_AT_accessibility(DW_ACCESS_public)
    1881              $C$DW$196       .dwtag  DW_TAG_member
    1882                      .dwattr $C$DW$196, DW_AT_type(*$C$DW$T$33)
    1883                      .dwattr $C$DW$196, DW_AT_name("modeSel")
    1884                      .dwattr $C$DW$196, DW_AT_TI_symbol_name("_modeSel")
    1885                      .dwattr $C$DW$196, DW_AT_data_member_location[DW_OP_plus_uconst 0x5]
    1886                      .dwattr $C$DW$196, DW_AT_accessibility(DW_ACCESS_public)
    1887                      .dwendtag $C$DW$T$34
    1888              
    1889              $C$DW$T$36      .dwtag  DW_TAG_typedef, DW_AT_name("CSL_LcdcConfigLidd")
    1890                      .dwattr $C$DW$T$36, DW_AT_type(*$C$DW$T$34)
    1891                      .dwattr $C$DW$T$36, DW_AT_language(DW_LANG_C)
    1892              
    1893              $C$DW$T$35      .dwtag  DW_TAG_structure_type
    1894                      .dwattr $C$DW$T$35, DW_AT_byte_size(0x07)
    1895              $C$DW$197       .dwtag  DW_TAG_member
    1896                      .dwattr $C$DW$197, DW_AT_type(*$C$DW$T$19)
    1897                      .dwattr $C$DW$197, DW_AT_name("wSu")
    1898                      .dwattr $C$DW$197, DW_AT_TI_symbol_name("_wSu")
    1899                      .dwattr $C$DW$197, DW_AT_data_member_location[DW_OP_plus_uconst 0x0]
    1900                      .dwattr $C$DW$197, DW_AT_accessibility(DW_ACCESS_public)
    1901              $C$DW$198       .dwtag  DW_TAG_member
    1902                      .dwattr $C$DW$198, DW_AT_type(*$C$DW$T$19)
    1903                      .dwattr $C$DW$198, DW_AT_name("wStrobe")
    1904                      .dwattr $C$DW$198, DW_AT_TI_symbol_name("_wStrobe")
    1905                      .dwattr $C$DW$198, DW_AT_data_member_location[DW_OP_plus_uconst 0x1]
    1906                      .dwattr $C$DW$198, DW_AT_accessibility(DW_ACCESS_public)
    1907              $C$DW$199       .dwtag  DW_TAG_member
    1908                      .dwattr $C$DW$199, DW_AT_type(*$C$DW$T$19)
    1909                      .dwattr $C$DW$199, DW_AT_name("wHold")
    1910                      .dwattr $C$DW$199, DW_AT_TI_symbol_name("_wHold")
    1911                      .dwattr $C$DW$199, DW_AT_data_member_location[DW_OP_plus_uconst 0x2]
    1912                      .dwattr $C$DW$199, DW_AT_accessibility(DW_ACCESS_public)
    1913              $C$DW$200       .dwtag  DW_TAG_member
    1914                      .dwattr $C$DW$200, DW_AT_type(*$C$DW$T$19)
    1915                      .dwattr $C$DW$200, DW_AT_name("rSu")
    1916                      .dwattr $C$DW$200, DW_AT_TI_symbol_name("_rSu")
    1917                      .dwattr $C$DW$200, DW_AT_data_member_location[DW_OP_plus_uconst 0x3]
    1918                      .dwattr $C$DW$200, DW_AT_accessibility(DW_ACCESS_public)
    1919              $C$DW$201       .dwtag  DW_TAG_member
    1920                      .dwattr $C$DW$201, DW_AT_type(*$C$DW$T$19)
    1921                      .dwattr $C$DW$201, DW_AT_name("rStrobe")
    1922                      .dwattr $C$DW$201, DW_AT_TI_symbol_name("_rStrobe")
    1923                      .dwattr $C$DW$201, DW_AT_data_member_location[DW_OP_plus_uconst 0x4]
    1924                      .dwattr $C$DW$201, DW_AT_accessibility(DW_ACCESS_public)
TMS320C55x Assembler PC v4.4.1 Sat Sep 29 23:09:15 2018

Tools Copyright (c) 1996-2012 Texas Instruments Incorporated
csl_lcdc_DmaIntcExample.asm                                          PAGE   49

    1925              $C$DW$202       .dwtag  DW_TAG_member
    1926                      .dwattr $C$DW$202, DW_AT_type(*$C$DW$T$19)
    1927                      .dwattr $C$DW$202, DW_AT_name("rHold")
    1928                      .dwattr $C$DW$202, DW_AT_TI_symbol_name("_rHold")
    1929                      .dwattr $C$DW$202, DW_AT_data_member_location[DW_OP_plus_uconst 0x5]
    1930                      .dwattr $C$DW$202, DW_AT_accessibility(DW_ACCESS_public)
    1931              $C$DW$203       .dwtag  DW_TAG_member
    1932                      .dwattr $C$DW$203, DW_AT_type(*$C$DW$T$19)
    1933                      .dwattr $C$DW$203, DW_AT_name("ta")
    1934                      .dwattr $C$DW$203, DW_AT_TI_symbol_name("_ta")
    1935                      .dwattr $C$DW$203, DW_AT_data_member_location[DW_OP_plus_uconst 0x6]
    1936                      .dwattr $C$DW$203, DW_AT_accessibility(DW_ACCESS_public)
    1937                      .dwendtag $C$DW$T$35
    1938              
    1939              $C$DW$T$37      .dwtag  DW_TAG_typedef, DW_AT_name("CSL_LcdcLiddTiming")
    1940                      .dwattr $C$DW$T$37, DW_AT_type(*$C$DW$T$35)
    1941                      .dwattr $C$DW$T$37, DW_AT_language(DW_LANG_C)
    1942              
    1943              $C$DW$T$40      .dwtag  DW_TAG_structure_type
    1944                      .dwattr $C$DW$T$40, DW_AT_byte_size(0x18)
    1945              $C$DW$204       .dwtag  DW_TAG_member
    1946                      .dwattr $C$DW$204, DW_AT_type(*$C$DW$T$3)
    1947                      .dwattr $C$DW$204, DW_AT_name("extendSetup")
    1948                      .dwattr $C$DW$204, DW_AT_TI_symbol_name("_extendSetup")
    1949                      .dwattr $C$DW$204, DW_AT_data_member_location[DW_OP_plus_uconst 0x0]
    1950                      .dwattr $C$DW$204, DW_AT_accessibility(DW_ACCESS_public)
    1951              $C$DW$205       .dwtag  DW_TAG_member
    1952                      .dwattr $C$DW$205, DW_AT_type(*$C$DW$T$36)
    1953                      .dwattr $C$DW$205, DW_AT_name("config")
    1954                      .dwattr $C$DW$205, DW_AT_TI_symbol_name("_config")
    1955                      .dwattr $C$DW$205, DW_AT_data_member_location[DW_OP_plus_uconst 0x2]
    1956                      .dwattr $C$DW$205, DW_AT_accessibility(DW_ACCESS_public)
    1957              $C$DW$206       .dwtag  DW_TAG_member
    1958                      .dwattr $C$DW$206, DW_AT_type(*$C$DW$T$37)
    1959                      .dwattr $C$DW$206, DW_AT_name("timingCs0")
    1960                      .dwattr $C$DW$206, DW_AT_TI_symbol_name("_timingCs0")
    1961                      .dwattr $C$DW$206, DW_AT_data_member_location[DW_OP_plus_uconst 0x8]
    1962                      .dwattr $C$DW$206, DW_AT_accessibility(DW_ACCESS_public)
    1963              $C$DW$207       .dwtag  DW_TAG_member
    1964                      .dwattr $C$DW$207, DW_AT_type(*$C$DW$T$39)
    1965                      .dwattr $C$DW$207, DW_AT_name("useCs1")
    1966                      .dwattr $C$DW$207, DW_AT_TI_symbol_name("_useCs1")
    1967                      .dwattr $C$DW$207, DW_AT_data_member_location[DW_OP_plus_uconst 0xf]
    1968                      .dwattr $C$DW$207, DW_AT_accessibility(DW_ACCESS_public)
    1969              $C$DW$208       .dwtag  DW_TAG_member
    1970                      .dwattr $C$DW$208, DW_AT_type(*$C$DW$T$37)
    1971                      .dwattr $C$DW$208, DW_AT_name("timingCs1")
    1972                      .dwattr $C$DW$208, DW_AT_TI_symbol_name("_timingCs1")
    1973                      .dwattr $C$DW$208, DW_AT_data_member_location[DW_OP_plus_uconst 0x10]
    1974                      .dwattr $C$DW$208, DW_AT_accessibility(DW_ACCESS_public)
    1975                      .dwendtag $C$DW$T$40
    1976              
    1977              $C$DW$T$63      .dwtag  DW_TAG_typedef, DW_AT_name("CSL_LcdcHwSetup")
    1978                      .dwattr $C$DW$T$63, DW_AT_type(*$C$DW$T$40)
    1979                      .dwattr $C$DW$T$63, DW_AT_language(DW_LANG_C)
TMS320C55x Assembler PC v4.4.1 Sat Sep 29 23:09:15 2018

Tools Copyright (c) 1996-2012 Texas Instruments Incorporated
csl_lcdc_DmaIntcExample.asm                                          PAGE   50

    1980              $C$DW$T$64      .dwtag  DW_TAG_pointer_type
    1981                      .dwattr $C$DW$T$64, DW_AT_type(*$C$DW$T$63)
    1982                      .dwattr $C$DW$T$64, DW_AT_address_class(0x17)
    1983              
    1984              $C$DW$T$50      .dwtag  DW_TAG_structure_type
    1985                      .dwattr $C$DW$T$50, DW_AT_byte_size(0x0c)
    1986              $C$DW$209       .dwtag  DW_TAG_member
    1987                      .dwattr $C$DW$209, DW_AT_type(*$C$DW$T$42)
    1988                      .dwattr $C$DW$209, DW_AT_name("burstSize")
    1989                      .dwattr $C$DW$209, DW_AT_TI_symbol_name("_burstSize")
    1990                      .dwattr $C$DW$209, DW_AT_data_member_location[DW_OP_plus_uconst 0x0]
    1991                      .dwattr $C$DW$209, DW_AT_accessibility(DW_ACCESS_public)
    1992              $C$DW$210       .dwtag  DW_TAG_member
    1993                      .dwattr $C$DW$210, DW_AT_type(*$C$DW$T$44)
    1994                      .dwattr $C$DW$210, DW_AT_name("eofIntEn")
    1995                      .dwattr $C$DW$210, DW_AT_TI_symbol_name("_eofIntEn")
    1996                      .dwattr $C$DW$210, DW_AT_data_member_location[DW_OP_plus_uconst 0x1]
    1997                      .dwattr $C$DW$210, DW_AT_accessibility(DW_ACCESS_public)
    1998              $C$DW$211       .dwtag  DW_TAG_member
    1999                      .dwattr $C$DW$211, DW_AT_type(*$C$DW$T$46)
    2000                      .dwattr $C$DW$211, DW_AT_name("bigEndian")
    2001                      .dwattr $C$DW$211, DW_AT_TI_symbol_name("_bigEndian")
    2002                      .dwattr $C$DW$211, DW_AT_data_member_location[DW_OP_plus_uconst 0x2]
    2003                      .dwattr $C$DW$211, DW_AT_accessibility(DW_ACCESS_public)
    2004              $C$DW$212       .dwtag  DW_TAG_member
    2005                      .dwattr $C$DW$212, DW_AT_type(*$C$DW$T$48)
    2006                      .dwattr $C$DW$212, DW_AT_name("frameMode")
    2007                      .dwattr $C$DW$212, DW_AT_TI_symbol_name("_frameMode")
    2008                      .dwattr $C$DW$212, DW_AT_data_member_location[DW_OP_plus_uconst 0x3]
    2009                      .dwattr $C$DW$212, DW_AT_accessibility(DW_ACCESS_public)
    2010              $C$DW$213       .dwtag  DW_TAG_member
    2011                      .dwattr $C$DW$213, DW_AT_type(*$C$DW$T$49)
    2012                      .dwattr $C$DW$213, DW_AT_name("fb0Base")
    2013                      .dwattr $C$DW$213, DW_AT_TI_symbol_name("_fb0Base")
    2014                      .dwattr $C$DW$213, DW_AT_data_member_location[DW_OP_plus_uconst 0x4]
    2015                      .dwattr $C$DW$213, DW_AT_accessibility(DW_ACCESS_public)
    2016              $C$DW$214       .dwtag  DW_TAG_member
    2017                      .dwattr $C$DW$214, DW_AT_type(*$C$DW$T$49)
    2018                      .dwattr $C$DW$214, DW_AT_name("fb0Ceil")
    2019                      .dwattr $C$DW$214, DW_AT_TI_symbol_name("_fb0Ceil")
    2020                      .dwattr $C$DW$214, DW_AT_data_member_location[DW_OP_plus_uconst 0x6]
    2021                      .dwattr $C$DW$214, DW_AT_accessibility(DW_ACCESS_public)
    2022              $C$DW$215       .dwtag  DW_TAG_member
    2023                      .dwattr $C$DW$215, DW_AT_type(*$C$DW$T$49)
    2024                      .dwattr $C$DW$215, DW_AT_name("fb1Base")
    2025                      .dwattr $C$DW$215, DW_AT_TI_symbol_name("_fb1Base")
    2026                      .dwattr $C$DW$215, DW_AT_data_member_location[DW_OP_plus_uconst 0x8]
    2027                      .dwattr $C$DW$215, DW_AT_accessibility(DW_ACCESS_public)
    2028              $C$DW$216       .dwtag  DW_TAG_member
    2029                      .dwattr $C$DW$216, DW_AT_type(*$C$DW$T$49)
    2030                      .dwattr $C$DW$216, DW_AT_name("fb1Ceil")
    2031                      .dwattr $C$DW$216, DW_AT_TI_symbol_name("_fb1Ceil")
    2032                      .dwattr $C$DW$216, DW_AT_data_member_location[DW_OP_plus_uconst 0xa]
    2033                      .dwattr $C$DW$216, DW_AT_accessibility(DW_ACCESS_public)
    2034                      .dwendtag $C$DW$T$50
TMS320C55x Assembler PC v4.4.1 Sat Sep 29 23:09:15 2018

Tools Copyright (c) 1996-2012 Texas Instruments Incorporated
csl_lcdc_DmaIntcExample.asm                                          PAGE   51

    2035              
    2036              $C$DW$T$65      .dwtag  DW_TAG_typedef, DW_AT_name("CSL_LcdcConfigDma")
    2037                      .dwattr $C$DW$T$65, DW_AT_type(*$C$DW$T$50)
    2038                      .dwattr $C$DW$T$65, DW_AT_language(DW_LANG_C)
    2039              $C$DW$T$66      .dwtag  DW_TAG_pointer_type
    2040                      .dwattr $C$DW$T$66, DW_AT_type(*$C$DW$T$65)
    2041                      .dwattr $C$DW$T$66, DW_AT_address_class(0x17)
    2042              
    2043              $C$DW$T$53      .dwtag  DW_TAG_structure_type
    2044                      .dwattr $C$DW$T$53, DW_AT_byte_size(0x48)
    2045              $C$DW$217       .dwtag  DW_TAG_member
    2046                      .dwattr $C$DW$217, DW_AT_type(*$C$DW$T$20)
    2047                      .dwattr $C$DW$217, DW_AT_name("EBSR")
    2048                      .dwattr $C$DW$217, DW_AT_TI_symbol_name("_EBSR")
    2049                      .dwattr $C$DW$217, DW_AT_data_member_location[DW_OP_plus_uconst 0x0]
    2050                      .dwattr $C$DW$217, DW_AT_accessibility(DW_ACCESS_public)
    2051              $C$DW$218       .dwtag  DW_TAG_member
    2052                      .dwattr $C$DW$218, DW_AT_type(*$C$DW$T$20)
    2053                      .dwattr $C$DW$218, DW_AT_name("RSVD0")
    2054                      .dwattr $C$DW$218, DW_AT_TI_symbol_name("_RSVD0")
    2055                      .dwattr $C$DW$218, DW_AT_data_member_location[DW_OP_plus_uconst 0x1]
    2056                      .dwattr $C$DW$218, DW_AT_accessibility(DW_ACCESS_public)
    2057              $C$DW$219       .dwtag  DW_TAG_member
    2058                      .dwattr $C$DW$219, DW_AT_type(*$C$DW$T$20)
    2059                      .dwattr $C$DW$219, DW_AT_name("PCGCR1")
    2060                      .dwattr $C$DW$219, DW_AT_TI_symbol_name("_PCGCR1")
    2061                      .dwattr $C$DW$219, DW_AT_data_member_location[DW_OP_plus_uconst 0x2]
    2062                      .dwattr $C$DW$219, DW_AT_accessibility(DW_ACCESS_public)
    2063              $C$DW$220       .dwtag  DW_TAG_member
    2064                      .dwattr $C$DW$220, DW_AT_type(*$C$DW$T$20)
    2065                      .dwattr $C$DW$220, DW_AT_name("PCGCR2")
    2066                      .dwattr $C$DW$220, DW_AT_TI_symbol_name("_PCGCR2")
    2067                      .dwattr $C$DW$220, DW_AT_data_member_location[DW_OP_plus_uconst 0x3]
    2068                      .dwattr $C$DW$220, DW_AT_accessibility(DW_ACCESS_public)
    2069              $C$DW$221       .dwtag  DW_TAG_member
    2070                      .dwattr $C$DW$221, DW_AT_type(*$C$DW$T$20)
    2071                      .dwattr $C$DW$221, DW_AT_name("PSRCR")
    2072                      .dwattr $C$DW$221, DW_AT_TI_symbol_name("_PSRCR")
    2073                      .dwattr $C$DW$221, DW_AT_data_member_location[DW_OP_plus_uconst 0x4]
    2074                      .dwattr $C$DW$221, DW_AT_accessibility(DW_ACCESS_public)
    2075              $C$DW$222       .dwtag  DW_TAG_member
    2076                      .dwattr $C$DW$222, DW_AT_type(*$C$DW$T$20)
    2077                      .dwattr $C$DW$222, DW_AT_name("PRCR")
    2078                      .dwattr $C$DW$222, DW_AT_TI_symbol_name("_PRCR")
    2079                      .dwattr $C$DW$222, DW_AT_data_member_location[DW_OP_plus_uconst 0x5]
    2080                      .dwattr $C$DW$222, DW_AT_accessibility(DW_ACCESS_public)
    2081              $C$DW$223       .dwtag  DW_TAG_member
    2082                      .dwattr $C$DW$223, DW_AT_type(*$C$DW$T$51)
    2083                      .dwattr $C$DW$223, DW_AT_name("RSVD1")
    2084                      .dwattr $C$DW$223, DW_AT_TI_symbol_name("_RSVD1")
    2085                      .dwattr $C$DW$223, DW_AT_data_member_location[DW_OP_plus_uconst 0x6]
    2086                      .dwattr $C$DW$223, DW_AT_accessibility(DW_ACCESS_public)
    2087              $C$DW$224       .dwtag  DW_TAG_member
    2088                      .dwattr $C$DW$224, DW_AT_type(*$C$DW$T$20)
    2089                      .dwattr $C$DW$224, DW_AT_name("TIAFR")
TMS320C55x Assembler PC v4.4.1 Sat Sep 29 23:09:15 2018

Tools Copyright (c) 1996-2012 Texas Instruments Incorporated
csl_lcdc_DmaIntcExample.asm                                          PAGE   52

    2090                      .dwattr $C$DW$224, DW_AT_TI_symbol_name("_TIAFR")
    2091                      .dwattr $C$DW$224, DW_AT_data_member_location[DW_OP_plus_uconst 0x14]
    2092                      .dwattr $C$DW$224, DW_AT_accessibility(DW_ACCESS_public)
    2093              $C$DW$225       .dwtag  DW_TAG_member
    2094                      .dwattr $C$DW$225, DW_AT_type(*$C$DW$T$20)
    2095                      .dwattr $C$DW$225, DW_AT_name("RSVD2")
    2096                      .dwattr $C$DW$225, DW_AT_TI_symbol_name("_RSVD2")
    2097                      .dwattr $C$DW$225, DW_AT_data_member_location[DW_OP_plus_uconst 0x15]
    2098                      .dwattr $C$DW$225, DW_AT_accessibility(DW_ACCESS_public)
    2099              $C$DW$226       .dwtag  DW_TAG_member
    2100                      .dwattr $C$DW$226, DW_AT_type(*$C$DW$T$20)
    2101                      .dwattr $C$DW$226, DW_AT_name("ODSCR")
    2102                      .dwattr $C$DW$226, DW_AT_TI_symbol_name("_ODSCR")
    2103                      .dwattr $C$DW$226, DW_AT_data_member_location[DW_OP_plus_uconst 0x16]
    2104                      .dwattr $C$DW$226, DW_AT_accessibility(DW_ACCESS_public)
    2105              $C$DW$227       .dwtag  DW_TAG_member
    2106                      .dwattr $C$DW$227, DW_AT_type(*$C$DW$T$20)
    2107                      .dwattr $C$DW$227, DW_AT_name("PDINHIBR1")
    2108                      .dwattr $C$DW$227, DW_AT_TI_symbol_name("_PDINHIBR1")
    2109                      .dwattr $C$DW$227, DW_AT_data_member_location[DW_OP_plus_uconst 0x17]
    2110                      .dwattr $C$DW$227, DW_AT_accessibility(DW_ACCESS_public)
    2111              $C$DW$228       .dwtag  DW_TAG_member
    2112                      .dwattr $C$DW$228, DW_AT_type(*$C$DW$T$20)
    2113                      .dwattr $C$DW$228, DW_AT_name("PDINHIBR2")
    2114                      .dwattr $C$DW$228, DW_AT_TI_symbol_name("_PDINHIBR2")
    2115                      .dwattr $C$DW$228, DW_AT_data_member_location[DW_OP_plus_uconst 0x18]
    2116                      .dwattr $C$DW$228, DW_AT_accessibility(DW_ACCESS_public)
    2117              $C$DW$229       .dwtag  DW_TAG_member
    2118                      .dwattr $C$DW$229, DW_AT_type(*$C$DW$T$20)
    2119                      .dwattr $C$DW$229, DW_AT_name("PDINHIBR3")
    2120                      .dwattr $C$DW$229, DW_AT_TI_symbol_name("_PDINHIBR3")
    2121                      .dwattr $C$DW$229, DW_AT_data_member_location[DW_OP_plus_uconst 0x19]
    2122                      .dwattr $C$DW$229, DW_AT_accessibility(DW_ACCESS_public)
    2123              $C$DW$230       .dwtag  DW_TAG_member
    2124                      .dwattr $C$DW$230, DW_AT_type(*$C$DW$T$20)
    2125                      .dwattr $C$DW$230, DW_AT_name("DMA0CESR1")
    2126                      .dwattr $C$DW$230, DW_AT_TI_symbol_name("_DMA0CESR1")
    2127                      .dwattr $C$DW$230, DW_AT_data_member_location[DW_OP_plus_uconst 0x1a]
    2128                      .dwattr $C$DW$230, DW_AT_accessibility(DW_ACCESS_public)
    2129              $C$DW$231       .dwtag  DW_TAG_member
    2130                      .dwattr $C$DW$231, DW_AT_type(*$C$DW$T$20)
    2131                      .dwattr $C$DW$231, DW_AT_name("DMA0CESR2")
    2132                      .dwattr $C$DW$231, DW_AT_TI_symbol_name("_DMA0CESR2")
    2133                      .dwattr $C$DW$231, DW_AT_data_member_location[DW_OP_plus_uconst 0x1b]
    2134                      .dwattr $C$DW$231, DW_AT_accessibility(DW_ACCESS_public)
    2135              $C$DW$232       .dwtag  DW_TAG_member
    2136                      .dwattr $C$DW$232, DW_AT_type(*$C$DW$T$20)
    2137                      .dwattr $C$DW$232, DW_AT_name("DMA1CESR1")
    2138                      .dwattr $C$DW$232, DW_AT_TI_symbol_name("_DMA1CESR1")
    2139                      .dwattr $C$DW$232, DW_AT_data_member_location[DW_OP_plus_uconst 0x1c]
    2140                      .dwattr $C$DW$232, DW_AT_accessibility(DW_ACCESS_public)
    2141              $C$DW$233       .dwtag  DW_TAG_member
    2142                      .dwattr $C$DW$233, DW_AT_type(*$C$DW$T$20)
    2143                      .dwattr $C$DW$233, DW_AT_name("DMA1CESR2")
    2144                      .dwattr $C$DW$233, DW_AT_TI_symbol_name("_DMA1CESR2")
TMS320C55x Assembler PC v4.4.1 Sat Sep 29 23:09:15 2018

Tools Copyright (c) 1996-2012 Texas Instruments Incorporated
csl_lcdc_DmaIntcExample.asm                                          PAGE   53

    2145                      .dwattr $C$DW$233, DW_AT_data_member_location[DW_OP_plus_uconst 0x1d]
    2146                      .dwattr $C$DW$233, DW_AT_accessibility(DW_ACCESS_public)
    2147              $C$DW$234       .dwtag  DW_TAG_member
    2148                      .dwattr $C$DW$234, DW_AT_type(*$C$DW$T$20)
    2149                      .dwattr $C$DW$234, DW_AT_name("SDRAMCCR")
    2150                      .dwattr $C$DW$234, DW_AT_TI_symbol_name("_SDRAMCCR")
    2151                      .dwattr $C$DW$234, DW_AT_data_member_location[DW_OP_plus_uconst 0x1e]
    2152                      .dwattr $C$DW$234, DW_AT_accessibility(DW_ACCESS_public)
    2153              $C$DW$235       .dwtag  DW_TAG_member
    2154                      .dwattr $C$DW$235, DW_AT_type(*$C$DW$T$20)
    2155                      .dwattr $C$DW$235, DW_AT_name("CCR2")
    2156                      .dwattr $C$DW$235, DW_AT_TI_symbol_name("_CCR2")
    2157                      .dwattr $C$DW$235, DW_AT_data_member_location[DW_OP_plus_uconst 0x1f]
    2158                      .dwattr $C$DW$235, DW_AT_accessibility(DW_ACCESS_public)
    2159              $C$DW$236       .dwtag  DW_TAG_member
    2160                      .dwattr $C$DW$236, DW_AT_type(*$C$DW$T$20)
    2161                      .dwattr $C$DW$236, DW_AT_name("CGCR1")
    2162                      .dwattr $C$DW$236, DW_AT_TI_symbol_name("_CGCR1")
    2163                      .dwattr $C$DW$236, DW_AT_data_member_location[DW_OP_plus_uconst 0x20]
    2164                      .dwattr $C$DW$236, DW_AT_accessibility(DW_ACCESS_public)
    2165              $C$DW$237       .dwtag  DW_TAG_member
    2166                      .dwattr $C$DW$237, DW_AT_type(*$C$DW$T$20)
    2167                      .dwattr $C$DW$237, DW_AT_name("CGICR")
    2168                      .dwattr $C$DW$237, DW_AT_TI_symbol_name("_CGICR")
    2169                      .dwattr $C$DW$237, DW_AT_data_member_location[DW_OP_plus_uconst 0x21]
    2170                      .dwattr $C$DW$237, DW_AT_accessibility(DW_ACCESS_public)
    2171              $C$DW$238       .dwtag  DW_TAG_member
    2172                      .dwattr $C$DW$238, DW_AT_type(*$C$DW$T$20)
    2173                      .dwattr $C$DW$238, DW_AT_name("CGCR2")
    2174                      .dwattr $C$DW$238, DW_AT_TI_symbol_name("_CGCR2")
    2175                      .dwattr $C$DW$238, DW_AT_data_member_location[DW_OP_plus_uconst 0x22]
    2176                      .dwattr $C$DW$238, DW_AT_accessibility(DW_ACCESS_public)
    2177              $C$DW$239       .dwtag  DW_TAG_member
    2178                      .dwattr $C$DW$239, DW_AT_type(*$C$DW$T$20)
    2179                      .dwattr $C$DW$239, DW_AT_name("CGOCR")
    2180                      .dwattr $C$DW$239, DW_AT_TI_symbol_name("_CGOCR")
    2181                      .dwattr $C$DW$239, DW_AT_data_member_location[DW_OP_plus_uconst 0x23]
    2182                      .dwattr $C$DW$239, DW_AT_accessibility(DW_ACCESS_public)
    2183              $C$DW$240       .dwtag  DW_TAG_member
    2184                      .dwattr $C$DW$240, DW_AT_type(*$C$DW$T$20)
    2185                      .dwattr $C$DW$240, DW_AT_name("CCSSR")
    2186                      .dwattr $C$DW$240, DW_AT_TI_symbol_name("_CCSSR")
    2187                      .dwattr $C$DW$240, DW_AT_data_member_location[DW_OP_plus_uconst 0x24]
    2188                      .dwattr $C$DW$240, DW_AT_accessibility(DW_ACCESS_public)
    2189              $C$DW$241       .dwtag  DW_TAG_member
    2190                      .dwattr $C$DW$241, DW_AT_type(*$C$DW$T$20)
    2191                      .dwattr $C$DW$241, DW_AT_name("RSVD3")
    2192                      .dwattr $C$DW$241, DW_AT_TI_symbol_name("_RSVD3")
    2193                      .dwattr $C$DW$241, DW_AT_data_member_location[DW_OP_plus_uconst 0x25]
    2194                      .dwattr $C$DW$241, DW_AT_accessibility(DW_ACCESS_public)
    2195              $C$DW$242       .dwtag  DW_TAG_member
    2196                      .dwattr $C$DW$242, DW_AT_type(*$C$DW$T$20)
    2197                      .dwattr $C$DW$242, DW_AT_name("ECDR")
    2198                      .dwattr $C$DW$242, DW_AT_TI_symbol_name("_ECDR")
    2199                      .dwattr $C$DW$242, DW_AT_data_member_location[DW_OP_plus_uconst 0x26]
TMS320C55x Assembler PC v4.4.1 Sat Sep 29 23:09:15 2018

Tools Copyright (c) 1996-2012 Texas Instruments Incorporated
csl_lcdc_DmaIntcExample.asm                                          PAGE   54

    2200                      .dwattr $C$DW$242, DW_AT_accessibility(DW_ACCESS_public)
    2201              $C$DW$243       .dwtag  DW_TAG_member
    2202                      .dwattr $C$DW$243, DW_AT_type(*$C$DW$T$20)
    2203                      .dwattr $C$DW$243, DW_AT_name("RSVD4")
    2204                      .dwattr $C$DW$243, DW_AT_TI_symbol_name("_RSVD4")
    2205                      .dwattr $C$DW$243, DW_AT_data_member_location[DW_OP_plus_uconst 0x27]
    2206                      .dwattr $C$DW$243, DW_AT_accessibility(DW_ACCESS_public)
    2207              $C$DW$244       .dwtag  DW_TAG_member
    2208                      .dwattr $C$DW$244, DW_AT_type(*$C$DW$T$20)
    2209                      .dwattr $C$DW$244, DW_AT_name("RAMSLPMDCNTLR1")
    2210                      .dwattr $C$DW$244, DW_AT_TI_symbol_name("_RAMSLPMDCNTLR1")
    2211                      .dwattr $C$DW$244, DW_AT_data_member_location[DW_OP_plus_uconst 0x28]
    2212                      .dwattr $C$DW$244, DW_AT_accessibility(DW_ACCESS_public)
    2213              $C$DW$245       .dwtag  DW_TAG_member
    2214                      .dwattr $C$DW$245, DW_AT_type(*$C$DW$T$20)
    2215                      .dwattr $C$DW$245, DW_AT_name("RSVD5")
    2216                      .dwattr $C$DW$245, DW_AT_TI_symbol_name("_RSVD5")
    2217                      .dwattr $C$DW$245, DW_AT_data_member_location[DW_OP_plus_uconst 0x29]
    2218                      .dwattr $C$DW$245, DW_AT_accessibility(DW_ACCESS_public)
    2219              $C$DW$246       .dwtag  DW_TAG_member
    2220                      .dwattr $C$DW$246, DW_AT_type(*$C$DW$T$20)
    2221                      .dwattr $C$DW$246, DW_AT_name("RAMSLPMDCNTLR2")
    2222                      .dwattr $C$DW$246, DW_AT_TI_symbol_name("_RAMSLPMDCNTLR2")
    2223                      .dwattr $C$DW$246, DW_AT_data_member_location[DW_OP_plus_uconst 0x2a]
    2224                      .dwattr $C$DW$246, DW_AT_accessibility(DW_ACCESS_public)
    2225              $C$DW$247       .dwtag  DW_TAG_member
    2226                      .dwattr $C$DW$247, DW_AT_type(*$C$DW$T$20)
    2227                      .dwattr $C$DW$247, DW_AT_name("RAMSLPMDCNTLR3")
    2228                      .dwattr $C$DW$247, DW_AT_TI_symbol_name("_RAMSLPMDCNTLR3")
    2229                      .dwattr $C$DW$247, DW_AT_data_member_location[DW_OP_plus_uconst 0x2b]
    2230                      .dwattr $C$DW$247, DW_AT_accessibility(DW_ACCESS_public)
    2231              $C$DW$248       .dwtag  DW_TAG_member
    2232                      .dwattr $C$DW$248, DW_AT_type(*$C$DW$T$20)
    2233                      .dwattr $C$DW$248, DW_AT_name("RAMSLPMDCNTLR4")
    2234                      .dwattr $C$DW$248, DW_AT_TI_symbol_name("_RAMSLPMDCNTLR4")
    2235                      .dwattr $C$DW$248, DW_AT_data_member_location[DW_OP_plus_uconst 0x2c]
    2236                      .dwattr $C$DW$248, DW_AT_accessibility(DW_ACCESS_public)
    2237              $C$DW$249       .dwtag  DW_TAG_member
    2238                      .dwattr $C$DW$249, DW_AT_type(*$C$DW$T$20)
    2239                      .dwattr $C$DW$249, DW_AT_name("RAMSLPMDCNTLR5")
    2240                      .dwattr $C$DW$249, DW_AT_TI_symbol_name("_RAMSLPMDCNTLR5")
    2241                      .dwattr $C$DW$249, DW_AT_data_member_location[DW_OP_plus_uconst 0x2d]
    2242                      .dwattr $C$DW$249, DW_AT_accessibility(DW_ACCESS_public)
    2243              $C$DW$250       .dwtag  DW_TAG_member
    2244                      .dwattr $C$DW$250, DW_AT_type(*$C$DW$T$21)
    2245                      .dwattr $C$DW$250, DW_AT_name("RSVD6")
    2246                      .dwattr $C$DW$250, DW_AT_TI_symbol_name("_RSVD6")
    2247                      .dwattr $C$DW$250, DW_AT_data_member_location[DW_OP_plus_uconst 0x2e]
    2248                      .dwattr $C$DW$250, DW_AT_accessibility(DW_ACCESS_public)
    2249              $C$DW$251       .dwtag  DW_TAG_member
    2250                      .dwattr $C$DW$251, DW_AT_type(*$C$DW$T$20)
    2251                      .dwattr $C$DW$251, DW_AT_name("DMAIFR")
    2252                      .dwattr $C$DW$251, DW_AT_TI_symbol_name("_DMAIFR")
    2253                      .dwattr $C$DW$251, DW_AT_data_member_location[DW_OP_plus_uconst 0x30]
    2254                      .dwattr $C$DW$251, DW_AT_accessibility(DW_ACCESS_public)
TMS320C55x Assembler PC v4.4.1 Sat Sep 29 23:09:15 2018

Tools Copyright (c) 1996-2012 Texas Instruments Incorporated
csl_lcdc_DmaIntcExample.asm                                          PAGE   55

    2255              $C$DW$252       .dwtag  DW_TAG_member
    2256                      .dwattr $C$DW$252, DW_AT_type(*$C$DW$T$20)
    2257                      .dwattr $C$DW$252, DW_AT_name("DMAIER")
    2258                      .dwattr $C$DW$252, DW_AT_TI_symbol_name("_DMAIER")
    2259                      .dwattr $C$DW$252, DW_AT_data_member_location[DW_OP_plus_uconst 0x31]
    2260                      .dwattr $C$DW$252, DW_AT_accessibility(DW_ACCESS_public)
    2261              $C$DW$253       .dwtag  DW_TAG_member
    2262                      .dwattr $C$DW$253, DW_AT_type(*$C$DW$T$20)
    2263                      .dwattr $C$DW$253, DW_AT_name("USBSCR")
    2264                      .dwattr $C$DW$253, DW_AT_TI_symbol_name("_USBSCR")
    2265                      .dwattr $C$DW$253, DW_AT_data_member_location[DW_OP_plus_uconst 0x32]
    2266                      .dwattr $C$DW$253, DW_AT_accessibility(DW_ACCESS_public)
    2267              $C$DW$254       .dwtag  DW_TAG_member
    2268                      .dwattr $C$DW$254, DW_AT_type(*$C$DW$T$20)
    2269                      .dwattr $C$DW$254, DW_AT_name("ESCR")
    2270                      .dwattr $C$DW$254, DW_AT_TI_symbol_name("_ESCR")
    2271                      .dwattr $C$DW$254, DW_AT_data_member_location[DW_OP_plus_uconst 0x33]
    2272                      .dwattr $C$DW$254, DW_AT_accessibility(DW_ACCESS_public)
    2273              $C$DW$255       .dwtag  DW_TAG_member
    2274                      .dwattr $C$DW$255, DW_AT_type(*$C$DW$T$21)
    2275                      .dwattr $C$DW$255, DW_AT_name("RSVD7")
    2276                      .dwattr $C$DW$255, DW_AT_TI_symbol_name("_RSVD7")
    2277                      .dwattr $C$DW$255, DW_AT_data_member_location[DW_OP_plus_uconst 0x34]
    2278                      .dwattr $C$DW$255, DW_AT_accessibility(DW_ACCESS_public)
    2279              $C$DW$256       .dwtag  DW_TAG_member
    2280                      .dwattr $C$DW$256, DW_AT_type(*$C$DW$T$20)
    2281                      .dwattr $C$DW$256, DW_AT_name("DMA2CESR1")
    2282                      .dwattr $C$DW$256, DW_AT_TI_symbol_name("_DMA2CESR1")
    2283                      .dwattr $C$DW$256, DW_AT_data_member_location[DW_OP_plus_uconst 0x36]
    2284                      .dwattr $C$DW$256, DW_AT_accessibility(DW_ACCESS_public)
    2285              $C$DW$257       .dwtag  DW_TAG_member
    2286                      .dwattr $C$DW$257, DW_AT_type(*$C$DW$T$20)
    2287                      .dwattr $C$DW$257, DW_AT_name("DMA2CESR2")
    2288                      .dwattr $C$DW$257, DW_AT_TI_symbol_name("_DMA2CESR2")
    2289                      .dwattr $C$DW$257, DW_AT_data_member_location[DW_OP_plus_uconst 0x37]
    2290                      .dwattr $C$DW$257, DW_AT_accessibility(DW_ACCESS_public)
    2291              $C$DW$258       .dwtag  DW_TAG_member
    2292                      .dwattr $C$DW$258, DW_AT_type(*$C$DW$T$20)
    2293                      .dwattr $C$DW$258, DW_AT_name("DMA3CESR1")
    2294                      .dwattr $C$DW$258, DW_AT_TI_symbol_name("_DMA3CESR1")
    2295                      .dwattr $C$DW$258, DW_AT_data_member_location[DW_OP_plus_uconst 0x38]
    2296                      .dwattr $C$DW$258, DW_AT_accessibility(DW_ACCESS_public)
    2297              $C$DW$259       .dwtag  DW_TAG_member
    2298                      .dwattr $C$DW$259, DW_AT_type(*$C$DW$T$20)
    2299                      .dwattr $C$DW$259, DW_AT_name("DMA3CESR2")
    2300                      .dwattr $C$DW$259, DW_AT_TI_symbol_name("_DMA3CESR2")
    2301                      .dwattr $C$DW$259, DW_AT_data_member_location[DW_OP_plus_uconst 0x39]
    2302                      .dwattr $C$DW$259, DW_AT_accessibility(DW_ACCESS_public)
    2303              $C$DW$260       .dwtag  DW_TAG_member
    2304                      .dwattr $C$DW$260, DW_AT_type(*$C$DW$T$20)
    2305                      .dwattr $C$DW$260, DW_AT_name("CLKSTOP")
    2306                      .dwattr $C$DW$260, DW_AT_TI_symbol_name("_CLKSTOP")
    2307                      .dwattr $C$DW$260, DW_AT_data_member_location[DW_OP_plus_uconst 0x3a]
    2308                      .dwattr $C$DW$260, DW_AT_accessibility(DW_ACCESS_public)
    2309              $C$DW$261       .dwtag  DW_TAG_member
TMS320C55x Assembler PC v4.4.1 Sat Sep 29 23:09:15 2018

Tools Copyright (c) 1996-2012 Texas Instruments Incorporated
csl_lcdc_DmaIntcExample.asm                                          PAGE   56

    2310                      .dwattr $C$DW$261, DW_AT_type(*$C$DW$T$52)
    2311                      .dwattr $C$DW$261, DW_AT_name("RSVD8")
    2312                      .dwattr $C$DW$261, DW_AT_TI_symbol_name("_RSVD8")
    2313                      .dwattr $C$DW$261, DW_AT_data_member_location[DW_OP_plus_uconst 0x3b]
    2314                      .dwattr $C$DW$261, DW_AT_accessibility(DW_ACCESS_public)
    2315              $C$DW$262       .dwtag  DW_TAG_member
    2316                      .dwattr $C$DW$262, DW_AT_type(*$C$DW$T$20)
    2317                      .dwattr $C$DW$262, DW_AT_name("DIEIDR0")
    2318                      .dwattr $C$DW$262, DW_AT_TI_symbol_name("_DIEIDR0")
    2319                      .dwattr $C$DW$262, DW_AT_data_member_location[DW_OP_plus_uconst 0x40]
    2320                      .dwattr $C$DW$262, DW_AT_accessibility(DW_ACCESS_public)
    2321              $C$DW$263       .dwtag  DW_TAG_member
    2322                      .dwattr $C$DW$263, DW_AT_type(*$C$DW$T$20)
    2323                      .dwattr $C$DW$263, DW_AT_name("DIEIDR1")
    2324                      .dwattr $C$DW$263, DW_AT_TI_symbol_name("_DIEIDR1")
    2325                      .dwattr $C$DW$263, DW_AT_data_member_location[DW_OP_plus_uconst 0x41]
    2326                      .dwattr $C$DW$263, DW_AT_accessibility(DW_ACCESS_public)
    2327              $C$DW$264       .dwtag  DW_TAG_member
    2328                      .dwattr $C$DW$264, DW_AT_type(*$C$DW$T$20)
    2329                      .dwattr $C$DW$264, DW_AT_name("DIEIDR2")
    2330                      .dwattr $C$DW$264, DW_AT_TI_symbol_name("_DIEIDR2")
    2331                      .dwattr $C$DW$264, DW_AT_data_member_location[DW_OP_plus_uconst 0x42]
    2332                      .dwattr $C$DW$264, DW_AT_accessibility(DW_ACCESS_public)
    2333              $C$DW$265       .dwtag  DW_TAG_member
    2334                      .dwattr $C$DW$265, DW_AT_type(*$C$DW$T$20)
    2335                      .dwattr $C$DW$265, DW_AT_name("DIEIDR3")
    2336                      .dwattr $C$DW$265, DW_AT_TI_symbol_name("_DIEIDR3")
    2337                      .dwattr $C$DW$265, DW_AT_data_member_location[DW_OP_plus_uconst 0x43]
    2338                      .dwattr $C$DW$265, DW_AT_accessibility(DW_ACCESS_public)
    2339              $C$DW$266       .dwtag  DW_TAG_member
    2340                      .dwattr $C$DW$266, DW_AT_type(*$C$DW$T$20)
    2341                      .dwattr $C$DW$266, DW_AT_name("DIEIDR4")
    2342                      .dwattr $C$DW$266, DW_AT_TI_symbol_name("_DIEIDR4")
    2343                      .dwattr $C$DW$266, DW_AT_data_member_location[DW_OP_plus_uconst 0x44]
    2344                      .dwattr $C$DW$266, DW_AT_accessibility(DW_ACCESS_public)
    2345              $C$DW$267       .dwtag  DW_TAG_member
    2346                      .dwattr $C$DW$267, DW_AT_type(*$C$DW$T$20)
    2347                      .dwattr $C$DW$267, DW_AT_name("DIEIDR5")
    2348                      .dwattr $C$DW$267, DW_AT_TI_symbol_name("_DIEIDR5")
    2349                      .dwattr $C$DW$267, DW_AT_data_member_location[DW_OP_plus_uconst 0x45]
    2350                      .dwattr $C$DW$267, DW_AT_accessibility(DW_ACCESS_public)
    2351              $C$DW$268       .dwtag  DW_TAG_member
    2352                      .dwattr $C$DW$268, DW_AT_type(*$C$DW$T$20)
    2353                      .dwattr $C$DW$268, DW_AT_name("DIEIDR6")
    2354                      .dwattr $C$DW$268, DW_AT_TI_symbol_name("_DIEIDR6")
    2355                      .dwattr $C$DW$268, DW_AT_data_member_location[DW_OP_plus_uconst 0x46]
    2356                      .dwattr $C$DW$268, DW_AT_accessibility(DW_ACCESS_public)
    2357              $C$DW$269       .dwtag  DW_TAG_member
    2358                      .dwattr $C$DW$269, DW_AT_type(*$C$DW$T$20)
    2359                      .dwattr $C$DW$269, DW_AT_name("DIEIDR7")
    2360                      .dwattr $C$DW$269, DW_AT_TI_symbol_name("_DIEIDR7")
    2361                      .dwattr $C$DW$269, DW_AT_data_member_location[DW_OP_plus_uconst 0x47]
    2362                      .dwattr $C$DW$269, DW_AT_accessibility(DW_ACCESS_public)
    2363                      .dwendtag $C$DW$T$53
    2364              
TMS320C55x Assembler PC v4.4.1 Sat Sep 29 23:09:15 2018

Tools Copyright (c) 1996-2012 Texas Instruments Incorporated
csl_lcdc_DmaIntcExample.asm                                          PAGE   57

    2365              $C$DW$T$67      .dwtag  DW_TAG_typedef, DW_AT_name("CSL_SysRegs")
    2366                      .dwattr $C$DW$T$67, DW_AT_type(*$C$DW$T$53)
    2367                      .dwattr $C$DW$T$67, DW_AT_language(DW_LANG_C)
    2368              $C$DW$270       .dwtag  DW_TAG_TI_far_type
    2369                      .dwattr $C$DW$270, DW_AT_type(*$C$DW$T$67)
    2370              $C$DW$271       .dwtag  DW_TAG_TI_ioport_type
    2371                      .dwattr $C$DW$271, DW_AT_type(*$C$DW$270)
    2372              $C$DW$T$68      .dwtag  DW_TAG_volatile_type
    2373                      .dwattr $C$DW$T$68, DW_AT_type(*$C$DW$271)
    2374              $C$DW$T$69      .dwtag  DW_TAG_pointer_type
    2375                      .dwattr $C$DW$T$69, DW_AT_type(*$C$DW$T$68)
    2376                      .dwattr $C$DW$T$69, DW_AT_address_class(0x10)
    2377              $C$DW$T$70      .dwtag  DW_TAG_typedef, DW_AT_name("CSL_SysRegsOvly")
    2378                      .dwattr $C$DW$T$70, DW_AT_type(*$C$DW$T$69)
    2379                      .dwattr $C$DW$T$70, DW_AT_language(DW_LANG_C)
    2380              
    2381              $C$DW$T$55      .dwtag  DW_TAG_structure_type
    2382                      .dwattr $C$DW$T$55, DW_AT_byte_size(0x12)
    2383              $C$DW$272       .dwtag  DW_TAG_member
    2384                      .dwattr $C$DW$272, DW_AT_type(*$C$DW$T$54)
    2385                      .dwattr $C$DW$272, DW_AT_name("RSVD0")
    2386                      .dwattr $C$DW$272, DW_AT_TI_symbol_name("_RSVD0")
    2387                      .dwattr $C$DW$272, DW_AT_data_member_location[DW_OP_plus_uconst 0x0]
    2388                      .dwattr $C$DW$272, DW_AT_accessibility(DW_ACCESS_public)
    2389              $C$DW$273       .dwtag  DW_TAG_member
    2390                      .dwattr $C$DW$273, DW_AT_type(*$C$DW$T$20)
    2391                      .dwattr $C$DW$273, DW_AT_name("IODIR1")
    2392                      .dwattr $C$DW$273, DW_AT_TI_symbol_name("_IODIR1")
    2393                      .dwattr $C$DW$273, DW_AT_data_member_location[DW_OP_plus_uconst 0x6]
    2394                      .dwattr $C$DW$273, DW_AT_accessibility(DW_ACCESS_public)
    2395              $C$DW$274       .dwtag  DW_TAG_member
    2396                      .dwattr $C$DW$274, DW_AT_type(*$C$DW$T$20)
    2397                      .dwattr $C$DW$274, DW_AT_name("IODIR2")
    2398                      .dwattr $C$DW$274, DW_AT_TI_symbol_name("_IODIR2")
    2399                      .dwattr $C$DW$274, DW_AT_data_member_location[DW_OP_plus_uconst 0x7]
    2400                      .dwattr $C$DW$274, DW_AT_accessibility(DW_ACCESS_public)
    2401              $C$DW$275       .dwtag  DW_TAG_member
    2402                      .dwattr $C$DW$275, DW_AT_type(*$C$DW$T$20)
    2403                      .dwattr $C$DW$275, DW_AT_name("IOINDATA1")
    2404                      .dwattr $C$DW$275, DW_AT_TI_symbol_name("_IOINDATA1")
    2405                      .dwattr $C$DW$275, DW_AT_data_member_location[DW_OP_plus_uconst 0x8]
    2406                      .dwattr $C$DW$275, DW_AT_accessibility(DW_ACCESS_public)
    2407              $C$DW$276       .dwtag  DW_TAG_member
    2408                      .dwattr $C$DW$276, DW_AT_type(*$C$DW$T$20)
    2409                      .dwattr $C$DW$276, DW_AT_name("IOINDATA2")
    2410                      .dwattr $C$DW$276, DW_AT_TI_symbol_name("_IOINDATA2")
    2411                      .dwattr $C$DW$276, DW_AT_data_member_location[DW_OP_plus_uconst 0x9]
    2412                      .dwattr $C$DW$276, DW_AT_accessibility(DW_ACCESS_public)
    2413              $C$DW$277       .dwtag  DW_TAG_member
    2414                      .dwattr $C$DW$277, DW_AT_type(*$C$DW$T$20)
    2415                      .dwattr $C$DW$277, DW_AT_name("IOOUTDATA1")
    2416                      .dwattr $C$DW$277, DW_AT_TI_symbol_name("_IOOUTDATA1")
    2417                      .dwattr $C$DW$277, DW_AT_data_member_location[DW_OP_plus_uconst 0xa]
    2418                      .dwattr $C$DW$277, DW_AT_accessibility(DW_ACCESS_public)
    2419              $C$DW$278       .dwtag  DW_TAG_member
TMS320C55x Assembler PC v4.4.1 Sat Sep 29 23:09:15 2018

Tools Copyright (c) 1996-2012 Texas Instruments Incorporated
csl_lcdc_DmaIntcExample.asm                                          PAGE   58

    2420                      .dwattr $C$DW$278, DW_AT_type(*$C$DW$T$20)
    2421                      .dwattr $C$DW$278, DW_AT_name("IOOUTDATA2")
    2422                      .dwattr $C$DW$278, DW_AT_TI_symbol_name("_IOOUTDATA2")
    2423                      .dwattr $C$DW$278, DW_AT_data_member_location[DW_OP_plus_uconst 0xb]
    2424                      .dwattr $C$DW$278, DW_AT_accessibility(DW_ACCESS_public)
    2425              $C$DW$279       .dwtag  DW_TAG_member
    2426                      .dwattr $C$DW$279, DW_AT_type(*$C$DW$T$20)
    2427                      .dwattr $C$DW$279, DW_AT_name("IOINTEDG1")
    2428                      .dwattr $C$DW$279, DW_AT_TI_symbol_name("_IOINTEDG1")
    2429                      .dwattr $C$DW$279, DW_AT_data_member_location[DW_OP_plus_uconst 0xc]
    2430                      .dwattr $C$DW$279, DW_AT_accessibility(DW_ACCESS_public)
    2431              $C$DW$280       .dwtag  DW_TAG_member
    2432                      .dwattr $C$DW$280, DW_AT_type(*$C$DW$T$20)
    2433                      .dwattr $C$DW$280, DW_AT_name("IOINTEDG2")
    2434                      .dwattr $C$DW$280, DW_AT_TI_symbol_name("_IOINTEDG2")
    2435                      .dwattr $C$DW$280, DW_AT_data_member_location[DW_OP_plus_uconst 0xd]
    2436                      .dwattr $C$DW$280, DW_AT_accessibility(DW_ACCESS_public)
    2437              $C$DW$281       .dwtag  DW_TAG_member
    2438                      .dwattr $C$DW$281, DW_AT_type(*$C$DW$T$20)
    2439                      .dwattr $C$DW$281, DW_AT_name("IOINTEN1")
    2440                      .dwattr $C$DW$281, DW_AT_TI_symbol_name("_IOINTEN1")
    2441                      .dwattr $C$DW$281, DW_AT_data_member_location[DW_OP_plus_uconst 0xe]
    2442                      .dwattr $C$DW$281, DW_AT_accessibility(DW_ACCESS_public)
    2443              $C$DW$282       .dwtag  DW_TAG_member
    2444                      .dwattr $C$DW$282, DW_AT_type(*$C$DW$T$20)
    2445                      .dwattr $C$DW$282, DW_AT_name("IOINTEN2")
    2446                      .dwattr $C$DW$282, DW_AT_TI_symbol_name("_IOINTEN2")
    2447                      .dwattr $C$DW$282, DW_AT_data_member_location[DW_OP_plus_uconst 0xf]
    2448                      .dwattr $C$DW$282, DW_AT_accessibility(DW_ACCESS_public)
    2449              $C$DW$283       .dwtag  DW_TAG_member
    2450                      .dwattr $C$DW$283, DW_AT_type(*$C$DW$T$20)
    2451                      .dwattr $C$DW$283, DW_AT_name("IOINTFLG1")
    2452                      .dwattr $C$DW$283, DW_AT_TI_symbol_name("_IOINTFLG1")
    2453                      .dwattr $C$DW$283, DW_AT_data_member_location[DW_OP_plus_uconst 0x10]
    2454                      .dwattr $C$DW$283, DW_AT_accessibility(DW_ACCESS_public)
    2455              $C$DW$284       .dwtag  DW_TAG_member
    2456                      .dwattr $C$DW$284, DW_AT_type(*$C$DW$T$20)
    2457                      .dwattr $C$DW$284, DW_AT_name("IOINTFLG2")
    2458                      .dwattr $C$DW$284, DW_AT_TI_symbol_name("_IOINTFLG2")
    2459                      .dwattr $C$DW$284, DW_AT_data_member_location[DW_OP_plus_uconst 0x11]
    2460                      .dwattr $C$DW$284, DW_AT_accessibility(DW_ACCESS_public)
    2461                      .dwendtag $C$DW$T$55
    2462              
    2463              $C$DW$T$71      .dwtag  DW_TAG_typedef, DW_AT_name("CSL_GpioRegs")
    2464                      .dwattr $C$DW$T$71, DW_AT_type(*$C$DW$T$55)
    2465                      .dwattr $C$DW$T$71, DW_AT_language(DW_LANG_C)
    2466              $C$DW$285       .dwtag  DW_TAG_TI_far_type
    2467                      .dwattr $C$DW$285, DW_AT_type(*$C$DW$T$71)
    2468              $C$DW$286       .dwtag  DW_TAG_TI_ioport_type
    2469                      .dwattr $C$DW$286, DW_AT_type(*$C$DW$285)
    2470              $C$DW$T$72      .dwtag  DW_TAG_volatile_type
    2471                      .dwattr $C$DW$T$72, DW_AT_type(*$C$DW$286)
    2472              $C$DW$T$73      .dwtag  DW_TAG_pointer_type
    2473                      .dwattr $C$DW$T$73, DW_AT_type(*$C$DW$T$72)
    2474                      .dwattr $C$DW$T$73, DW_AT_address_class(0x10)
TMS320C55x Assembler PC v4.4.1 Sat Sep 29 23:09:15 2018

Tools Copyright (c) 1996-2012 Texas Instruments Incorporated
csl_lcdc_DmaIntcExample.asm                                          PAGE   59

    2475              $C$DW$T$74      .dwtag  DW_TAG_typedef, DW_AT_name("CSL_GpioRegsOvly")
    2476                      .dwattr $C$DW$T$74, DW_AT_type(*$C$DW$T$73)
    2477                      .dwattr $C$DW$T$74, DW_AT_language(DW_LANG_C)
    2478              
    2479              $C$DW$T$62      .dwtag  DW_TAG_structure_type
    2480                      .dwattr $C$DW$T$62, DW_AT_name("CSL_LcdcObj")
    2481                      .dwattr $C$DW$T$62, DW_AT_byte_size(0x02)
    2482              $C$DW$287       .dwtag  DW_TAG_member
    2483                      .dwattr $C$DW$287, DW_AT_type(*$C$DW$T$59)
    2484                      .dwattr $C$DW$287, DW_AT_name("regs")
    2485                      .dwattr $C$DW$287, DW_AT_TI_symbol_name("_regs")
    2486                      .dwattr $C$DW$287, DW_AT_data_member_location[DW_OP_plus_uconst 0x0]
    2487                      .dwattr $C$DW$287, DW_AT_accessibility(DW_ACCESS_public)
    2488              $C$DW$288       .dwtag  DW_TAG_member
    2489                      .dwattr $C$DW$288, DW_AT_type(*$C$DW$T$61)
    2490                      .dwattr $C$DW$288, DW_AT_name("perNum")
    2491                      .dwattr $C$DW$288, DW_AT_TI_symbol_name("_perNum")
    2492                      .dwattr $C$DW$288, DW_AT_data_member_location[DW_OP_plus_uconst 0x1]
    2493                      .dwattr $C$DW$288, DW_AT_accessibility(DW_ACCESS_public)
    2494                      .dwendtag $C$DW$T$62
    2495              
    2496              $C$DW$T$75      .dwtag  DW_TAG_typedef, DW_AT_name("CSL_LcdcObj")
    2497                      .dwattr $C$DW$T$75, DW_AT_type(*$C$DW$T$62)
    2498                      .dwattr $C$DW$T$75, DW_AT_language(DW_LANG_C)
    2499              $C$DW$T$76      .dwtag  DW_TAG_pointer_type
    2500                      .dwattr $C$DW$T$76, DW_AT_type(*$C$DW$T$75)
    2501                      .dwattr $C$DW$T$76, DW_AT_address_class(0x17)
    2502              $C$DW$T$77      .dwtag  DW_TAG_typedef, DW_AT_name("CSL_LcdcHandle")
    2503                      .dwattr $C$DW$T$77, DW_AT_type(*$C$DW$T$76)
    2504                      .dwattr $C$DW$T$77, DW_AT_language(DW_LANG_C)
    2505              $C$DW$T$3       .dwtag  DW_TAG_pointer_type
    2506                      .dwattr $C$DW$T$3, DW_AT_address_class(0x17)
    2507              
    2508              $C$DW$T$88      .dwtag  DW_TAG_subroutine_type
    2509                      .dwattr $C$DW$T$88, DW_AT_language(DW_LANG_C)
    2510              $C$DW$T$89      .dwtag  DW_TAG_pointer_type
    2511                      .dwattr $C$DW$T$89, DW_AT_type(*$C$DW$T$88)
    2512                      .dwattr $C$DW$T$89, DW_AT_address_class(0x20)
    2513              $C$DW$T$90      .dwtag  DW_TAG_typedef, DW_AT_name("IRQ_IsrPtr")
    2514                      .dwattr $C$DW$T$90, DW_AT_type(*$C$DW$T$89)
    2515                      .dwattr $C$DW$T$90, DW_AT_language(DW_LANG_C)
    2516              $C$DW$T$4       .dwtag  DW_TAG_base_type
    2517                      .dwattr $C$DW$T$4, DW_AT_encoding(DW_ATE_boolean)
    2518                      .dwattr $C$DW$T$4, DW_AT_name("bool")
    2519                      .dwattr $C$DW$T$4, DW_AT_byte_size(0x01)
    2520              $C$DW$T$5       .dwtag  DW_TAG_base_type
    2521                      .dwattr $C$DW$T$5, DW_AT_encoding(DW_ATE_signed_char)
    2522                      .dwattr $C$DW$T$5, DW_AT_name("signed char")
    2523                      .dwattr $C$DW$T$5, DW_AT_byte_size(0x01)
    2524              $C$DW$T$6       .dwtag  DW_TAG_base_type
    2525                      .dwattr $C$DW$T$6, DW_AT_encoding(DW_ATE_unsigned_char)
    2526                      .dwattr $C$DW$T$6, DW_AT_name("unsigned char")
    2527                      .dwattr $C$DW$T$6, DW_AT_byte_size(0x01)
    2528              $C$DW$T$7       .dwtag  DW_TAG_base_type
    2529                      .dwattr $C$DW$T$7, DW_AT_encoding(DW_ATE_signed_char)
TMS320C55x Assembler PC v4.4.1 Sat Sep 29 23:09:15 2018

Tools Copyright (c) 1996-2012 Texas Instruments Incorporated
csl_lcdc_DmaIntcExample.asm                                          PAGE   60

    2530                      .dwattr $C$DW$T$7, DW_AT_name("wchar_t")
    2531                      .dwattr $C$DW$T$7, DW_AT_byte_size(0x01)
    2532              $C$DW$T$8       .dwtag  DW_TAG_base_type
    2533                      .dwattr $C$DW$T$8, DW_AT_encoding(DW_ATE_signed)
    2534                      .dwattr $C$DW$T$8, DW_AT_name("short")
    2535                      .dwattr $C$DW$T$8, DW_AT_byte_size(0x01)
    2536              $C$DW$T$60      .dwtag  DW_TAG_typedef, DW_AT_name("Int16")
    2537                      .dwattr $C$DW$T$60, DW_AT_type(*$C$DW$T$8)
    2538                      .dwattr $C$DW$T$60, DW_AT_language(DW_LANG_C)
    2539              $C$DW$T$61      .dwtag  DW_TAG_typedef, DW_AT_name("CSL_InstNum")
    2540                      .dwattr $C$DW$T$61, DW_AT_type(*$C$DW$T$60)
    2541                      .dwattr $C$DW$T$61, DW_AT_language(DW_LANG_C)
    2542              $C$DW$T$78      .dwtag  DW_TAG_typedef, DW_AT_name("CSL_Status")
    2543                      .dwattr $C$DW$T$78, DW_AT_type(*$C$DW$T$60)
    2544                      .dwattr $C$DW$T$78, DW_AT_language(DW_LANG_C)
    2545              $C$DW$T$79      .dwtag  DW_TAG_pointer_type
    2546                      .dwattr $C$DW$T$79, DW_AT_type(*$C$DW$T$78)
    2547                      .dwattr $C$DW$T$79, DW_AT_address_class(0x17)
    2548              $C$DW$289       .dwtag  DW_TAG_TI_far_type
    2549                      .dwattr $C$DW$289, DW_AT_type(*$C$DW$T$60)
    2550              $C$DW$T$103     .dwtag  DW_TAG_volatile_type
    2551                      .dwattr $C$DW$T$103, DW_AT_type(*$C$DW$289)
    2552              $C$DW$T$9       .dwtag  DW_TAG_base_type
    2553                      .dwattr $C$DW$T$9, DW_AT_encoding(DW_ATE_unsigned)
    2554                      .dwattr $C$DW$T$9, DW_AT_name("unsigned short")
    2555                      .dwattr $C$DW$T$9, DW_AT_byte_size(0x01)
    2556              $C$DW$T$19      .dwtag  DW_TAG_typedef, DW_AT_name("Uint16")
    2557                      .dwattr $C$DW$T$19, DW_AT_type(*$C$DW$T$9)
    2558                      .dwattr $C$DW$T$19, DW_AT_language(DW_LANG_C)
    2559              $C$DW$T$31      .dwtag  DW_TAG_typedef, DW_AT_name("CSL_BitMask16")
    2560                      .dwattr $C$DW$T$31, DW_AT_type(*$C$DW$T$19)
    2561                      .dwattr $C$DW$T$31, DW_AT_language(DW_LANG_C)
    2562              $C$DW$290       .dwtag  DW_TAG_TI_far_type
    2563                      .dwattr $C$DW$290, DW_AT_type(*$C$DW$T$19)
    2564              $C$DW$T$20      .dwtag  DW_TAG_volatile_type
    2565                      .dwattr $C$DW$T$20, DW_AT_type(*$C$DW$290)
    2566              
    2567              $C$DW$T$21      .dwtag  DW_TAG_array_type
    2568                      .dwattr $C$DW$T$21, DW_AT_type(*$C$DW$T$20)
    2569                      .dwattr $C$DW$T$21, DW_AT_language(DW_LANG_C)
    2570                      .dwattr $C$DW$T$21, DW_AT_byte_size(0x02)
    2571              $C$DW$291       .dwtag  DW_TAG_subrange_type
    2572                      .dwattr $C$DW$291, DW_AT_upper_bound(0x01)
    2573                      .dwendtag $C$DW$T$21
    2574              
    2575              
    2576              $C$DW$T$22      .dwtag  DW_TAG_array_type
    2577                      .dwattr $C$DW$T$22, DW_AT_type(*$C$DW$T$20)
    2578                      .dwattr $C$DW$T$22, DW_AT_language(DW_LANG_C)
    2579                      .dwattr $C$DW$T$22, DW_AT_byte_size(0x03)
    2580              $C$DW$292       .dwtag  DW_TAG_subrange_type
    2581                      .dwattr $C$DW$292, DW_AT_upper_bound(0x02)
    2582                      .dwendtag $C$DW$T$22
    2583              
    2584              
TMS320C55x Assembler PC v4.4.1 Sat Sep 29 23:09:15 2018

Tools Copyright (c) 1996-2012 Texas Instruments Incorporated
csl_lcdc_DmaIntcExample.asm                                          PAGE   61

    2585              $C$DW$T$23      .dwtag  DW_TAG_array_type
    2586                      .dwattr $C$DW$T$23, DW_AT_type(*$C$DW$T$20)
    2587                      .dwattr $C$DW$T$23, DW_AT_language(DW_LANG_C)
    2588                      .dwattr $C$DW$T$23, DW_AT_byte_size(0x1b)
    2589              $C$DW$293       .dwtag  DW_TAG_subrange_type
    2590                      .dwattr $C$DW$293, DW_AT_upper_bound(0x1a)
    2591                      .dwendtag $C$DW$T$23
    2592              
    2593              
    2594              $C$DW$T$51      .dwtag  DW_TAG_array_type
    2595                      .dwattr $C$DW$T$51, DW_AT_type(*$C$DW$T$20)
    2596                      .dwattr $C$DW$T$51, DW_AT_language(DW_LANG_C)
    2597                      .dwattr $C$DW$T$51, DW_AT_byte_size(0x0e)
    2598              $C$DW$294       .dwtag  DW_TAG_subrange_type
    2599                      .dwattr $C$DW$294, DW_AT_upper_bound(0x0d)
    2600                      .dwendtag $C$DW$T$51
    2601              
    2602              
    2603              $C$DW$T$52      .dwtag  DW_TAG_array_type
    2604                      .dwattr $C$DW$T$52, DW_AT_type(*$C$DW$T$20)
    2605                      .dwattr $C$DW$T$52, DW_AT_language(DW_LANG_C)
    2606                      .dwattr $C$DW$T$52, DW_AT_byte_size(0x05)
    2607              $C$DW$295       .dwtag  DW_TAG_subrange_type
    2608                      .dwattr $C$DW$295, DW_AT_upper_bound(0x04)
    2609                      .dwendtag $C$DW$T$52
    2610              
    2611              
    2612              $C$DW$T$54      .dwtag  DW_TAG_array_type
    2613                      .dwattr $C$DW$T$54, DW_AT_type(*$C$DW$T$20)
    2614                      .dwattr $C$DW$T$54, DW_AT_language(DW_LANG_C)
    2615                      .dwattr $C$DW$T$54, DW_AT_byte_size(0x06)
    2616              $C$DW$296       .dwtag  DW_TAG_subrange_type
    2617                      .dwattr $C$DW$296, DW_AT_upper_bound(0x05)
    2618                      .dwendtag $C$DW$T$54
    2619              
    2620              
    2621              $C$DW$T$107     .dwtag  DW_TAG_array_type
    2622                      .dwattr $C$DW$T$107, DW_AT_type(*$C$DW$T$19)
    2623                      .dwattr $C$DW$T$107, DW_AT_language(DW_LANG_C)
    2624                      .dwattr $C$DW$T$107, DW_AT_byte_size(0x4000)
    2625              $C$DW$297       .dwtag  DW_TAG_subrange_type
    2626                      .dwattr $C$DW$297, DW_AT_upper_bound(0x3fff)
    2627                      .dwendtag $C$DW$T$107
    2628              
    2629              $C$DW$T$10      .dwtag  DW_TAG_base_type
    2630                      .dwattr $C$DW$T$10, DW_AT_encoding(DW_ATE_signed)
    2631                      .dwattr $C$DW$T$10, DW_AT_name("int")
    2632                      .dwattr $C$DW$T$10, DW_AT_byte_size(0x01)
    2633              $C$DW$T$110     .dwtag  DW_TAG_typedef, DW_AT_name("Bool")
    2634                      .dwattr $C$DW$T$110, DW_AT_type(*$C$DW$T$10)
    2635                      .dwattr $C$DW$T$110, DW_AT_language(DW_LANG_C)
    2636              $C$DW$T$11      .dwtag  DW_TAG_base_type
    2637                      .dwattr $C$DW$T$11, DW_AT_encoding(DW_ATE_unsigned)
    2638                      .dwattr $C$DW$T$11, DW_AT_name("unsigned int")
    2639                      .dwattr $C$DW$T$11, DW_AT_byte_size(0x01)
TMS320C55x Assembler PC v4.4.1 Sat Sep 29 23:09:15 2018

Tools Copyright (c) 1996-2012 Texas Instruments Incorporated
csl_lcdc_DmaIntcExample.asm                                          PAGE   62

    2640              $C$DW$T$12      .dwtag  DW_TAG_base_type
    2641                      .dwattr $C$DW$T$12, DW_AT_encoding(DW_ATE_signed)
    2642                      .dwattr $C$DW$T$12, DW_AT_name("long")
    2643                      .dwattr $C$DW$T$12, DW_AT_byte_size(0x02)
    2644              $C$DW$T$13      .dwtag  DW_TAG_base_type
    2645                      .dwattr $C$DW$T$13, DW_AT_encoding(DW_ATE_unsigned)
    2646                      .dwattr $C$DW$T$13, DW_AT_name("unsigned long")
    2647                      .dwattr $C$DW$T$13, DW_AT_byte_size(0x02)
    2648              $C$DW$T$49      .dwtag  DW_TAG_typedef, DW_AT_name("Uint32")
    2649                      .dwattr $C$DW$T$49, DW_AT_type(*$C$DW$T$13)
    2650                      .dwattr $C$DW$T$49, DW_AT_language(DW_LANG_C)
    2651              $C$DW$T$14      .dwtag  DW_TAG_base_type
    2652                      .dwattr $C$DW$T$14, DW_AT_encoding(DW_ATE_signed)
    2653                      .dwattr $C$DW$T$14, DW_AT_name("long long")
    2654                      .dwattr $C$DW$T$14, DW_AT_byte_size(0x04)
    2655                      .dwattr $C$DW$T$14, DW_AT_bit_size(0x28)
    2656                      .dwattr $C$DW$T$14, DW_AT_bit_offset(0x18)
    2657              $C$DW$T$15      .dwtag  DW_TAG_base_type
    2658                      .dwattr $C$DW$T$15, DW_AT_encoding(DW_ATE_unsigned)
    2659                      .dwattr $C$DW$T$15, DW_AT_name("unsigned long long")
    2660                      .dwattr $C$DW$T$15, DW_AT_byte_size(0x04)
    2661                      .dwattr $C$DW$T$15, DW_AT_bit_size(0x28)
    2662                      .dwattr $C$DW$T$15, DW_AT_bit_offset(0x18)
    2663              $C$DW$T$16      .dwtag  DW_TAG_base_type
    2664                      .dwattr $C$DW$T$16, DW_AT_encoding(DW_ATE_float)
    2665                      .dwattr $C$DW$T$16, DW_AT_name("float")
    2666                      .dwattr $C$DW$T$16, DW_AT_byte_size(0x02)
    2667              $C$DW$T$17      .dwtag  DW_TAG_base_type
    2668                      .dwattr $C$DW$T$17, DW_AT_encoding(DW_ATE_float)
    2669                      .dwattr $C$DW$T$17, DW_AT_name("double")
    2670                      .dwattr $C$DW$T$17, DW_AT_byte_size(0x02)
    2671              $C$DW$T$18      .dwtag  DW_TAG_base_type
    2672                      .dwattr $C$DW$T$18, DW_AT_encoding(DW_ATE_float)
    2673                      .dwattr $C$DW$T$18, DW_AT_name("long double")
    2674                      .dwattr $C$DW$T$18, DW_AT_byte_size(0x02)
    2675              $C$DW$T$113     .dwtag  DW_TAG_base_type
    2676                      .dwattr $C$DW$T$113, DW_AT_encoding(DW_ATE_signed_char)
    2677                      .dwattr $C$DW$T$113, DW_AT_name("signed char")
    2678                      .dwattr $C$DW$T$113, DW_AT_byte_size(0x01)
    2679              $C$DW$298       .dwtag  DW_TAG_TI_far_type
    2680                      .dwattr $C$DW$298, DW_AT_type(*$C$DW$T$113)
    2681              $C$DW$T$114     .dwtag  DW_TAG_const_type
    2682                      .dwattr $C$DW$T$114, DW_AT_type(*$C$DW$298)
    2683              $C$DW$T$115     .dwtag  DW_TAG_pointer_type
    2684                      .dwattr $C$DW$T$115, DW_AT_type(*$C$DW$T$114)
    2685                      .dwattr $C$DW$T$115, DW_AT_address_class(0x17)
    2686                      .dwattr $C$DW$CU, DW_AT_language(DW_LANG_C)
    2687              
    2688              ;***************************************************************
    2689              ;* DWARF CIE ENTRIES                                           *
    2690              ;***************************************************************
    2691              
    2692              $C$DW$CIE       .dwcie 91
    2693                      .dwcfi  cfa_register, 36
    2694                      .dwcfi  cfa_offset, 0
TMS320C55x Assembler PC v4.4.1 Sat Sep 29 23:09:15 2018

Tools Copyright (c) 1996-2012 Texas Instruments Incorporated
csl_lcdc_DmaIntcExample.asm                                          PAGE   63

    2695                      .dwcfi  undefined, 0
    2696                      .dwcfi  undefined, 1
    2697                      .dwcfi  undefined, 2
    2698                      .dwcfi  undefined, 3
    2699                      .dwcfi  undefined, 4
    2700                      .dwcfi  undefined, 5
    2701                      .dwcfi  undefined, 6
    2702                      .dwcfi  undefined, 7
    2703                      .dwcfi  undefined, 8
    2704                      .dwcfi  undefined, 9
    2705                      .dwcfi  undefined, 10
    2706                      .dwcfi  undefined, 11
    2707                      .dwcfi  undefined, 12
    2708                      .dwcfi  undefined, 13
    2709                      .dwcfi  same_value, 14
    2710                      .dwcfi  same_value, 15
    2711                      .dwcfi  undefined, 16
    2712                      .dwcfi  undefined, 17
    2713                      .dwcfi  undefined, 18
    2714                      .dwcfi  undefined, 19
    2715                      .dwcfi  undefined, 20
    2716                      .dwcfi  undefined, 21
    2717                      .dwcfi  undefined, 22
    2718                      .dwcfi  undefined, 23
    2719                      .dwcfi  undefined, 24
    2720                      .dwcfi  undefined, 25
    2721                      .dwcfi  same_value, 26
    2722                      .dwcfi  same_value, 27
    2723                      .dwcfi  same_value, 28
    2724                      .dwcfi  same_value, 29
    2725                      .dwcfi  same_value, 30
    2726                      .dwcfi  same_value, 31
    2727                      .dwcfi  undefined, 32
    2728                      .dwcfi  undefined, 33
    2729                      .dwcfi  undefined, 34
    2730                      .dwcfi  undefined, 35
    2731                      .dwcfi  undefined, 36
    2732                      .dwcfi  undefined, 37
    2733                      .dwcfi  undefined, 38
    2734                      .dwcfi  undefined, 39
    2735                      .dwcfi  undefined, 40
    2736                      .dwcfi  undefined, 41
    2737                      .dwcfi  undefined, 42
    2738                      .dwcfi  undefined, 43
    2739                      .dwcfi  undefined, 44
    2740                      .dwcfi  undefined, 45
    2741                      .dwcfi  undefined, 46
    2742                      .dwcfi  undefined, 47
    2743                      .dwcfi  undefined, 48
    2744                      .dwcfi  undefined, 49
    2745                      .dwcfi  undefined, 50
    2746                      .dwcfi  undefined, 51
    2747                      .dwcfi  undefined, 52
    2748                      .dwcfi  undefined, 53
    2749                      .dwcfi  undefined, 54
TMS320C55x Assembler PC v4.4.1 Sat Sep 29 23:09:15 2018

Tools Copyright (c) 1996-2012 Texas Instruments Incorporated
csl_lcdc_DmaIntcExample.asm                                          PAGE   64

    2750                      .dwcfi  undefined, 55
    2751                      .dwcfi  undefined, 56
    2752                      .dwcfi  undefined, 57
    2753                      .dwcfi  undefined, 58
    2754                      .dwcfi  undefined, 59
    2755                      .dwcfi  undefined, 60
    2756                      .dwcfi  undefined, 61
    2757                      .dwcfi  undefined, 62
    2758                      .dwcfi  undefined, 63
    2759                      .dwcfi  undefined, 64
    2760                      .dwcfi  undefined, 65
    2761                      .dwcfi  undefined, 66
    2762                      .dwcfi  undefined, 67
    2763                      .dwcfi  undefined, 68
    2764                      .dwcfi  undefined, 69
    2765                      .dwcfi  undefined, 70
    2766                      .dwcfi  undefined, 71
    2767                      .dwcfi  undefined, 72
    2768                      .dwcfi  undefined, 73
    2769                      .dwcfi  undefined, 74
    2770                      .dwcfi  undefined, 75
    2771                      .dwcfi  undefined, 76
    2772                      .dwcfi  undefined, 77
    2773                      .dwcfi  undefined, 78
    2774                      .dwcfi  undefined, 79
    2775                      .dwcfi  undefined, 80
    2776                      .dwcfi  undefined, 81
    2777                      .dwcfi  undefined, 82
    2778                      .dwcfi  undefined, 83
    2779                      .dwcfi  undefined, 84
    2780                      .dwcfi  undefined, 85
    2781                      .dwcfi  undefined, 86
    2782                      .dwcfi  undefined, 87
    2783                      .dwcfi  undefined, 88
    2784                      .dwcfi  undefined, 89
    2785                      .dwcfi  undefined, 90
    2786                      .dwcfi  undefined, 91
    2787                      .dwendentry
    2788              
    2789              ;***************************************************************
    2790              ;* DWARF REGISTER MAP                                          *
    2791              ;***************************************************************
    2792              
    2793              $C$DW$299       .dwtag  DW_TAG_TI_assign_register, DW_AT_name("AC0")
    2794                      .dwattr $C$DW$299, DW_AT_location[DW_OP_reg0]
    2795              $C$DW$300       .dwtag  DW_TAG_TI_assign_register, DW_AT_name("AC0")
    2796                      .dwattr $C$DW$300, DW_AT_location[DW_OP_reg1]
    2797              $C$DW$301       .dwtag  DW_TAG_TI_assign_register, DW_AT_name("AC0_G")
    2798                      .dwattr $C$DW$301, DW_AT_location[DW_OP_reg2]
    2799              $C$DW$302       .dwtag  DW_TAG_TI_assign_register, DW_AT_name("AC1")
    2800                      .dwattr $C$DW$302, DW_AT_location[DW_OP_reg3]
    2801              $C$DW$303       .dwtag  DW_TAG_TI_assign_register, DW_AT_name("AC1")
    2802                      .dwattr $C$DW$303, DW_AT_location[DW_OP_reg4]
    2803              $C$DW$304       .dwtag  DW_TAG_TI_assign_register, DW_AT_name("AC1_G")
    2804                      .dwattr $C$DW$304, DW_AT_location[DW_OP_reg5]
TMS320C55x Assembler PC v4.4.1 Sat Sep 29 23:09:15 2018

Tools Copyright (c) 1996-2012 Texas Instruments Incorporated
csl_lcdc_DmaIntcExample.asm                                          PAGE   65

    2805              $C$DW$305       .dwtag  DW_TAG_TI_assign_register, DW_AT_name("AC2")
    2806                      .dwattr $C$DW$305, DW_AT_location[DW_OP_reg6]
    2807              $C$DW$306       .dwtag  DW_TAG_TI_assign_register, DW_AT_name("AC2")
    2808                      .dwattr $C$DW$306, DW_AT_location[DW_OP_reg7]
    2809              $C$DW$307       .dwtag  DW_TAG_TI_assign_register, DW_AT_name("AC2_G")
    2810                      .dwattr $C$DW$307, DW_AT_location[DW_OP_reg8]
    2811              $C$DW$308       .dwtag  DW_TAG_TI_assign_register, DW_AT_name("AC3")
    2812                      .dwattr $C$DW$308, DW_AT_location[DW_OP_reg9]
    2813              $C$DW$309       .dwtag  DW_TAG_TI_assign_register, DW_AT_name("AC3")
    2814                      .dwattr $C$DW$309, DW_AT_location[DW_OP_reg10]
    2815              $C$DW$310       .dwtag  DW_TAG_TI_assign_register, DW_AT_name("AC3_G")
    2816                      .dwattr $C$DW$310, DW_AT_location[DW_OP_reg11]
    2817              $C$DW$311       .dwtag  DW_TAG_TI_assign_register, DW_AT_name("T0")
    2818                      .dwattr $C$DW$311, DW_AT_location[DW_OP_reg12]
    2819              $C$DW$312       .dwtag  DW_TAG_TI_assign_register, DW_AT_name("T1")
    2820                      .dwattr $C$DW$312, DW_AT_location[DW_OP_reg13]
    2821              $C$DW$313       .dwtag  DW_TAG_TI_assign_register, DW_AT_name("T2")
    2822                      .dwattr $C$DW$313, DW_AT_location[DW_OP_reg14]
    2823              $C$DW$314       .dwtag  DW_TAG_TI_assign_register, DW_AT_name("T3")
    2824                      .dwattr $C$DW$314, DW_AT_location[DW_OP_reg15]
    2825              $C$DW$315       .dwtag  DW_TAG_TI_assign_register, DW_AT_name("AR0")
    2826                      .dwattr $C$DW$315, DW_AT_location[DW_OP_reg16]
    2827              $C$DW$316       .dwtag  DW_TAG_TI_assign_register, DW_AT_name("XAR0")
    2828                      .dwattr $C$DW$316, DW_AT_location[DW_OP_reg17]
    2829              $C$DW$317       .dwtag  DW_TAG_TI_assign_register, DW_AT_name("AR1")
    2830                      .dwattr $C$DW$317, DW_AT_location[DW_OP_reg18]
    2831              $C$DW$318       .dwtag  DW_TAG_TI_assign_register, DW_AT_name("XAR1")
    2832                      .dwattr $C$DW$318, DW_AT_location[DW_OP_reg19]
    2833              $C$DW$319       .dwtag  DW_TAG_TI_assign_register, DW_AT_name("AR2")
    2834                      .dwattr $C$DW$319, DW_AT_location[DW_OP_reg20]
    2835              $C$DW$320       .dwtag  DW_TAG_TI_assign_register, DW_AT_name("XAR2")
    2836                      .dwattr $C$DW$320, DW_AT_location[DW_OP_reg21]
    2837              $C$DW$321       .dwtag  DW_TAG_TI_assign_register, DW_AT_name("AR3")
    2838                      .dwattr $C$DW$321, DW_AT_location[DW_OP_reg22]
    2839              $C$DW$322       .dwtag  DW_TAG_TI_assign_register, DW_AT_name("XAR3")
    2840                      .dwattr $C$DW$322, DW_AT_location[DW_OP_reg23]
    2841              $C$DW$323       .dwtag  DW_TAG_TI_assign_register, DW_AT_name("AR4")
    2842                      .dwattr $C$DW$323, DW_AT_location[DW_OP_reg24]
    2843              $C$DW$324       .dwtag  DW_TAG_TI_assign_register, DW_AT_name("XAR4")
    2844                      .dwattr $C$DW$324, DW_AT_location[DW_OP_reg25]
    2845              $C$DW$325       .dwtag  DW_TAG_TI_assign_register, DW_AT_name("AR5")
    2846                      .dwattr $C$DW$325, DW_AT_location[DW_OP_reg26]
    2847              $C$DW$326       .dwtag  DW_TAG_TI_assign_register, DW_AT_name("XAR5")
    2848                      .dwattr $C$DW$326, DW_AT_location[DW_OP_reg27]
    2849              $C$DW$327       .dwtag  DW_TAG_TI_assign_register, DW_AT_name("AR6")
    2850                      .dwattr $C$DW$327, DW_AT_location[DW_OP_reg28]
    2851              $C$DW$328       .dwtag  DW_TAG_TI_assign_register, DW_AT_name("XAR6")
    2852                      .dwattr $C$DW$328, DW_AT_location[DW_OP_reg29]
    2853              $C$DW$329       .dwtag  DW_TAG_TI_assign_register, DW_AT_name("AR7")
    2854                      .dwattr $C$DW$329, DW_AT_location[DW_OP_reg30]
    2855              $C$DW$330       .dwtag  DW_TAG_TI_assign_register, DW_AT_name("XAR7")
    2856                      .dwattr $C$DW$330, DW_AT_location[DW_OP_reg31]
    2857              $C$DW$331       .dwtag  DW_TAG_TI_assign_register, DW_AT_name("FP")
    2858                      .dwattr $C$DW$331, DW_AT_location[DW_OP_regx 0x20]
    2859              $C$DW$332       .dwtag  DW_TAG_TI_assign_register, DW_AT_name("XFP")
TMS320C55x Assembler PC v4.4.1 Sat Sep 29 23:09:15 2018

Tools Copyright (c) 1996-2012 Texas Instruments Incorporated
csl_lcdc_DmaIntcExample.asm                                          PAGE   66

    2860                      .dwattr $C$DW$332, DW_AT_location[DW_OP_regx 0x21]
    2861              $C$DW$333       .dwtag  DW_TAG_TI_assign_register, DW_AT_name("PC")
    2862                      .dwattr $C$DW$333, DW_AT_location[DW_OP_regx 0x22]
    2863              $C$DW$334       .dwtag  DW_TAG_TI_assign_register, DW_AT_name("SP")
    2864                      .dwattr $C$DW$334, DW_AT_location[DW_OP_regx 0x23]
    2865              $C$DW$335       .dwtag  DW_TAG_TI_assign_register, DW_AT_name("XSP")
    2866                      .dwattr $C$DW$335, DW_AT_location[DW_OP_regx 0x24]
    2867              $C$DW$336       .dwtag  DW_TAG_TI_assign_register, DW_AT_name("BKC")
    2868                      .dwattr $C$DW$336, DW_AT_location[DW_OP_regx 0x25]
    2869              $C$DW$337       .dwtag  DW_TAG_TI_assign_register, DW_AT_name("BK03")
    2870                      .dwattr $C$DW$337, DW_AT_location[DW_OP_regx 0x26]
    2871              $C$DW$338       .dwtag  DW_TAG_TI_assign_register, DW_AT_name("BK47")
    2872                      .dwattr $C$DW$338, DW_AT_location[DW_OP_regx 0x27]
    2873              $C$DW$339       .dwtag  DW_TAG_TI_assign_register, DW_AT_name("ST0")
    2874                      .dwattr $C$DW$339, DW_AT_location[DW_OP_regx 0x28]
    2875              $C$DW$340       .dwtag  DW_TAG_TI_assign_register, DW_AT_name("ST1")
    2876                      .dwattr $C$DW$340, DW_AT_location[DW_OP_regx 0x29]
    2877              $C$DW$341       .dwtag  DW_TAG_TI_assign_register, DW_AT_name("ST2")
    2878                      .dwattr $C$DW$341, DW_AT_location[DW_OP_regx 0x2a]
    2879              $C$DW$342       .dwtag  DW_TAG_TI_assign_register, DW_AT_name("ST3")
    2880                      .dwattr $C$DW$342, DW_AT_location[DW_OP_regx 0x2b]
    2881              $C$DW$343       .dwtag  DW_TAG_TI_assign_register, DW_AT_name("MDP")
    2882                      .dwattr $C$DW$343, DW_AT_location[DW_OP_regx 0x2c]
    2883              $C$DW$344       .dwtag  DW_TAG_TI_assign_register, DW_AT_name("MDP05")
    2884                      .dwattr $C$DW$344, DW_AT_location[DW_OP_regx 0x2d]
    2885              $C$DW$345       .dwtag  DW_TAG_TI_assign_register, DW_AT_name("MDP67")
    2886                      .dwattr $C$DW$345, DW_AT_location[DW_OP_regx 0x2e]
    2887              $C$DW$346       .dwtag  DW_TAG_TI_assign_register, DW_AT_name("BRC0")
    2888                      .dwattr $C$DW$346, DW_AT_location[DW_OP_regx 0x2f]
    2889              $C$DW$347       .dwtag  DW_TAG_TI_assign_register, DW_AT_name("RSA0")
    2890                      .dwattr $C$DW$347, DW_AT_location[DW_OP_regx 0x30]
    2891              $C$DW$348       .dwtag  DW_TAG_TI_assign_register, DW_AT_name("RSA0_H")
    2892                      .dwattr $C$DW$348, DW_AT_location[DW_OP_regx 0x31]
    2893              $C$DW$349       .dwtag  DW_TAG_TI_assign_register, DW_AT_name("REA0")
    2894                      .dwattr $C$DW$349, DW_AT_location[DW_OP_regx 0x32]
    2895              $C$DW$350       .dwtag  DW_TAG_TI_assign_register, DW_AT_name("REA0_H")
    2896                      .dwattr $C$DW$350, DW_AT_location[DW_OP_regx 0x33]
    2897              $C$DW$351       .dwtag  DW_TAG_TI_assign_register, DW_AT_name("BRS1")
    2898                      .dwattr $C$DW$351, DW_AT_location[DW_OP_regx 0x34]
    2899              $C$DW$352       .dwtag  DW_TAG_TI_assign_register, DW_AT_name("BRC1")
    2900                      .dwattr $C$DW$352, DW_AT_location[DW_OP_regx 0x35]
    2901              $C$DW$353       .dwtag  DW_TAG_TI_assign_register, DW_AT_name("RSA1")
    2902                      .dwattr $C$DW$353, DW_AT_location[DW_OP_regx 0x36]
    2903              $C$DW$354       .dwtag  DW_TAG_TI_assign_register, DW_AT_name("RSA1_H")
    2904                      .dwattr $C$DW$354, DW_AT_location[DW_OP_regx 0x37]
    2905              $C$DW$355       .dwtag  DW_TAG_TI_assign_register, DW_AT_name("REA1")
    2906                      .dwattr $C$DW$355, DW_AT_location[DW_OP_regx 0x38]
    2907              $C$DW$356       .dwtag  DW_TAG_TI_assign_register, DW_AT_name("REA1_H")
    2908                      .dwattr $C$DW$356, DW_AT_location[DW_OP_regx 0x39]
    2909              $C$DW$357       .dwtag  DW_TAG_TI_assign_register, DW_AT_name("CSR")
    2910                      .dwattr $C$DW$357, DW_AT_location[DW_OP_regx 0x3a]
    2911              $C$DW$358       .dwtag  DW_TAG_TI_assign_register, DW_AT_name("RPTC")
    2912                      .dwattr $C$DW$358, DW_AT_location[DW_OP_regx 0x3b]
    2913              $C$DW$359       .dwtag  DW_TAG_TI_assign_register, DW_AT_name("CDP")
    2914                      .dwattr $C$DW$359, DW_AT_location[DW_OP_regx 0x3c]
TMS320C55x Assembler PC v4.4.1 Sat Sep 29 23:09:15 2018

Tools Copyright (c) 1996-2012 Texas Instruments Incorporated
csl_lcdc_DmaIntcExample.asm                                          PAGE   67

    2915              $C$DW$360       .dwtag  DW_TAG_TI_assign_register, DW_AT_name("XCDP")
    2916                      .dwattr $C$DW$360, DW_AT_location[DW_OP_regx 0x3d]
    2917              $C$DW$361       .dwtag  DW_TAG_TI_assign_register, DW_AT_name("TRN0")
    2918                      .dwattr $C$DW$361, DW_AT_location[DW_OP_regx 0x3e]
    2919              $C$DW$362       .dwtag  DW_TAG_TI_assign_register, DW_AT_name("TRN1")
    2920                      .dwattr $C$DW$362, DW_AT_location[DW_OP_regx 0x3f]
    2921              $C$DW$363       .dwtag  DW_TAG_TI_assign_register, DW_AT_name("BSA01")
    2922                      .dwattr $C$DW$363, DW_AT_location[DW_OP_regx 0x40]
    2923              $C$DW$364       .dwtag  DW_TAG_TI_assign_register, DW_AT_name("BSA23")
    2924                      .dwattr $C$DW$364, DW_AT_location[DW_OP_regx 0x41]
    2925              $C$DW$365       .dwtag  DW_TAG_TI_assign_register, DW_AT_name("BSA45")
    2926                      .dwattr $C$DW$365, DW_AT_location[DW_OP_regx 0x42]
    2927              $C$DW$366       .dwtag  DW_TAG_TI_assign_register, DW_AT_name("BSA67")
    2928                      .dwattr $C$DW$366, DW_AT_location[DW_OP_regx 0x43]
    2929              $C$DW$367       .dwtag  DW_TAG_TI_assign_register, DW_AT_name("BSAC")
    2930                      .dwattr $C$DW$367, DW_AT_location[DW_OP_regx 0x44]
    2931              $C$DW$368       .dwtag  DW_TAG_TI_assign_register, DW_AT_name("CARRY")
    2932                      .dwattr $C$DW$368, DW_AT_location[DW_OP_regx 0x45]
    2933              $C$DW$369       .dwtag  DW_TAG_TI_assign_register, DW_AT_name("TC1")
    2934                      .dwattr $C$DW$369, DW_AT_location[DW_OP_regx 0x46]
    2935              $C$DW$370       .dwtag  DW_TAG_TI_assign_register, DW_AT_name("TC2")
    2936                      .dwattr $C$DW$370, DW_AT_location[DW_OP_regx 0x47]
    2937              $C$DW$371       .dwtag  DW_TAG_TI_assign_register, DW_AT_name("M40")
    2938                      .dwattr $C$DW$371, DW_AT_location[DW_OP_regx 0x48]
    2939              $C$DW$372       .dwtag  DW_TAG_TI_assign_register, DW_AT_name("SXMD")
    2940                      .dwattr $C$DW$372, DW_AT_location[DW_OP_regx 0x49]
    2941              $C$DW$373       .dwtag  DW_TAG_TI_assign_register, DW_AT_name("ARMS")
    2942                      .dwattr $C$DW$373, DW_AT_location[DW_OP_regx 0x4a]
    2943              $C$DW$374       .dwtag  DW_TAG_TI_assign_register, DW_AT_name("C54CM")
    2944                      .dwattr $C$DW$374, DW_AT_location[DW_OP_regx 0x4b]
    2945              $C$DW$375       .dwtag  DW_TAG_TI_assign_register, DW_AT_name("SATA")
    2946                      .dwattr $C$DW$375, DW_AT_location[DW_OP_regx 0x4c]
    2947              $C$DW$376       .dwtag  DW_TAG_TI_assign_register, DW_AT_name("SATD")
    2948                      .dwattr $C$DW$376, DW_AT_location[DW_OP_regx 0x4d]
    2949              $C$DW$377       .dwtag  DW_TAG_TI_assign_register, DW_AT_name("RDM")
    2950                      .dwattr $C$DW$377, DW_AT_location[DW_OP_regx 0x4e]
    2951              $C$DW$378       .dwtag  DW_TAG_TI_assign_register, DW_AT_name("FRCT")
    2952                      .dwattr $C$DW$378, DW_AT_location[DW_OP_regx 0x4f]
    2953              $C$DW$379       .dwtag  DW_TAG_TI_assign_register, DW_AT_name("SMUL")
    2954                      .dwattr $C$DW$379, DW_AT_location[DW_OP_regx 0x50]
    2955              $C$DW$380       .dwtag  DW_TAG_TI_assign_register, DW_AT_name("INTM")
    2956                      .dwattr $C$DW$380, DW_AT_location[DW_OP_regx 0x51]
    2957              $C$DW$381       .dwtag  DW_TAG_TI_assign_register, DW_AT_name("AR0LC")
    2958                      .dwattr $C$DW$381, DW_AT_location[DW_OP_regx 0x52]
    2959              $C$DW$382       .dwtag  DW_TAG_TI_assign_register, DW_AT_name("AR1LC")
    2960                      .dwattr $C$DW$382, DW_AT_location[DW_OP_regx 0x53]
    2961              $C$DW$383       .dwtag  DW_TAG_TI_assign_register, DW_AT_name("AR2LC")
    2962                      .dwattr $C$DW$383, DW_AT_location[DW_OP_regx 0x54]
    2963              $C$DW$384       .dwtag  DW_TAG_TI_assign_register, DW_AT_name("AR3LC")
    2964                      .dwattr $C$DW$384, DW_AT_location[DW_OP_regx 0x55]
    2965              $C$DW$385       .dwtag  DW_TAG_TI_assign_register, DW_AT_name("AR4LC")
    2966                      .dwattr $C$DW$385, DW_AT_location[DW_OP_regx 0x56]
    2967              $C$DW$386       .dwtag  DW_TAG_TI_assign_register, DW_AT_name("AR5LC")
    2968                      .dwattr $C$DW$386, DW_AT_location[DW_OP_regx 0x57]
    2969              $C$DW$387       .dwtag  DW_TAG_TI_assign_register, DW_AT_name("AR6LC")
TMS320C55x Assembler PC v4.4.1 Sat Sep 29 23:09:15 2018

Tools Copyright (c) 1996-2012 Texas Instruments Incorporated
csl_lcdc_DmaIntcExample.asm                                          PAGE   68

    2970                      .dwattr $C$DW$387, DW_AT_location[DW_OP_regx 0x58]
    2971              $C$DW$388       .dwtag  DW_TAG_TI_assign_register, DW_AT_name("AR7LC")
    2972                      .dwattr $C$DW$388, DW_AT_location[DW_OP_regx 0x59]
    2973              $C$DW$389       .dwtag  DW_TAG_TI_assign_register, DW_AT_name("CDPLC")
    2974                      .dwattr $C$DW$389, DW_AT_location[DW_OP_regx 0x5a]
    2975              $C$DW$390       .dwtag  DW_TAG_TI_assign_register, DW_AT_name("CIE_RETA")
    2976                      .dwattr $C$DW$390, DW_AT_location[DW_OP_regx 0x5b]
    2977                      .dwendtag $C$DW$CU
    2978              
    2978              
    2978              

No Assembly Errors, No Assembly Warnings
