TMS320C55x Assembler PC v4.4.1 Sat Sep 29 23:08:33 2018

Tools Copyright (c) 1996-2012 Texas Instruments Incorporated
csl_usb_poll_example.asm                                             PAGE    1

    9475              ; Temporary Registers Used: None
       1              ;*******************************************************************************
       2              ;* TMS320C55x C/C++ Codegen                                          PC v4.4.1 *
       3              ;* Date/Time created: Sat Sep 29 23:08:30 2018                                 *
       4              ;*******************************************************************************
       5                      .compiler_opts --hll_source=on --mem_model:code=flat --mem_model:data=large --object_format=coff --si
       6                      .mmregs
       7                      .cpl_on
       8                      .arms_on
       9                      .c54cm_off
      10                      .asg AR6, FP
      11                      .asg XAR6, XFP
      12                      .asg DPH, MDP
      13                      .model call=c55_std
      14                      .model mem=large
      15                      .noremark 5002  ; code respects overwrite rules
      16              ;*******************************************************************************
      17              ;* GLOBAL FILE PARAMETERS                                                      *
      18              ;*                                                                             *
      19              ;*   Architecture       : TMS320C55x                                           *
      20              ;*   Optimizing for     : Speed                                                *
      21              ;*   Memory             : Large Model (23-Bit Data Pointers)                   *
      22              ;*   Calls              : Normal Library ASM calls                             *
      23              ;*   Debug Info         : Standard TI Debug Information                        *
      24              ;*******************************************************************************
      25              
      26              $C$DW$CU        .dwtag  DW_TAG_compile_unit
      27                      .dwattr $C$DW$CU, DW_AT_name("../c5535_bsl_revc/ezdsp5535_v1/c55xx_csl/ccs_v4.0_examples/usb/CSL_USB_
      28                      .dwattr $C$DW$CU, DW_AT_producer("TMS320C55x C/C++ Codegen PC v4.4.1 Copyright (c) 1996-2012 Texas In
      29                      .dwattr $C$DW$CU, DW_AT_TI_version(0x01)
      30                      .dwattr $C$DW$CU, DW_AT_comp_dir("F:\eZdsp_DBG\tmp1\c55x-sim2\foo\Debug")
      31              ;******************************************************************************
      32              ;* CINIT RECORDS                                                              *
      33              ;******************************************************************************
      34 000000               .sect   ".cinit"
      35                      .align  1
      36 000000 0001          .field          1,16
      37 000001 0000-         .field          _selfWakeupServiced+0,24
         000002 0600 
      38 000002 0600          .field          0,8
      39 000003 0000          .field  0,16                    ; _selfWakeupServiced @ 0
      40              
      41 000004               .sect   ".cinit"
      42                      .align  1
      43 000004 0002          .field          2,16
      44 000005 0000-         .field          _selfwakeupDelay+0,24
         000006 8000 
      45 000006 8000          .field          0,8
      46 000007 000F          .field  1000000,32                      ; _selfwakeupDelay @ 0
         000008 4240 
      47              
      48 000009               .sect   ".cinit"
      49                      .align  1
      50 000009 0001          .field          1,16
      51 00000a 0000-         .field          _stopRunning+0,24
TMS320C55x Assembler PC v4.4.1 Sat Sep 29 23:08:33 2018

Tools Copyright (c) 1996-2012 Texas Instruments Incorporated
csl_usb_poll_example.asm                                             PAGE    2

         00000b 8200 
      52 00000b 8200          .field          0,8
      53 00000c 0000          .field  0,16                    ; _stopRunning @ 0
      54              
      55 00000d               .sect   ".cinit"
      56                      .align  1
      57 00000d 0001          .field          1,16
      58 00000e 0000-         .field          _usbDevDisconnect+0,24
         00000f 8300 
      59 00000f 8300          .field          0,8
      60 000010 0001          .field  1,16                    ; _usbDevDisconnect @ 0
      61              
      62 000011               .sect   ".cinit"
      63                      .align  1
      64 000011 0009          .field          $C$IR_1,16
      65 000012 0001-         .field          _deviceDesc+0,24
         000013 8400 
      66 000013 8400          .field          0,8
      67 000014 0112          .field  274,16                  ; _deviceDesc[0] @ 0
      68 000015 0200          .field  512,16                  ; _deviceDesc[1] @ 16
      69 000016 0000          .field  0,16                    ; _deviceDesc[2] @ 32
      70 000017 4000          .field  16384,16                        ; _deviceDesc[3] @ 48
      71 000018 0451          .field  1105,16                 ; _deviceDesc[4] @ 64
      72 000019 9010          .field  36880,16                        ; _deviceDesc[5] @ 80
      73 00001a 0100          .field  256,16                  ; _deviceDesc[6] @ 96
      74 00001b 0201          .field  513,16                  ; _deviceDesc[7] @ 112
      75 00001c 0103          .field  259,16                  ; _deviceDesc[8] @ 128
      76              $C$IR_1:        .set    9
      77              
      78 00001d               .sect   ".cinit"
      79                      .align  1
      80 00001d 0025          .field          $C$IR_2,16
      81 00001e 0001-         .field          _cfgDesc+0,24
         00001f 8D00 
      82 00001f 8D00          .field          0,8
      83 000020 0209          .field  521,16                  ; _cfgDesc[0] @ 0
      84 000021 003C          .field  60,16                   ; _cfgDesc[1] @ 16
      85 000022 0101          .field  257,16                  ; _cfgDesc[2] @ 32
      86 000023 C001          .field  49153,16                        ; _cfgDesc[3] @ 48
      87 000024 0928          .field  2344,16                 ; _cfgDesc[4] @ 64
      88 000025 0004          .field  4,16                    ; _cfgDesc[5] @ 80
      89 000026 0600          .field  1536,16                 ; _cfgDesc[6] @ 96
      90 000027 0000          .field  0,16                    ; _cfgDesc[7] @ 112
      91 000028 0000          .field  0,16                    ; _cfgDesc[8] @ 128
      92 000029 0507          .field  1287,16                 ; _cfgDesc[9] @ 144
      93 00002a 0281          .field  641,16                  ; _cfgDesc[10] @ 160
      94 00002b 0040          .field  64,16                   ; _cfgDesc[11] @ 176
      95 00002c 0700          .field  1792,16                 ; _cfgDesc[12] @ 192
      96 00002d 0105          .field  261,16                  ; _cfgDesc[13] @ 208
      97 00002e 4002          .field  16386,16                        ; _cfgDesc[14] @ 224
      98 00002f 0000          .field  0,16                    ; _cfgDesc[15] @ 240
      99 000030 0507          .field  1287,16                 ; _cfgDesc[16] @ 256
     100 000031 0282          .field  642,16                  ; _cfgDesc[17] @ 272
     101 000032 0040          .field  64,16                   ; _cfgDesc[18] @ 288
     102 000033 0700          .field  1792,16                 ; _cfgDesc[19] @ 304
TMS320C55x Assembler PC v4.4.1 Sat Sep 29 23:08:33 2018

Tools Copyright (c) 1996-2012 Texas Instruments Incorporated
csl_usb_poll_example.asm                                             PAGE    3

     103 000034 0205          .field  517,16                  ; _cfgDesc[20] @ 320
     104 000035 4002          .field  16386,16                        ; _cfgDesc[21] @ 336
     105 000036 0000          .field  0,16                    ; _cfgDesc[22] @ 352
     106 000037 0507          .field  1287,16                 ; _cfgDesc[23] @ 368
     107 000038 0283          .field  643,16                  ; _cfgDesc[24] @ 384
     108 000039 0040          .field  64,16                   ; _cfgDesc[25] @ 400
     109 00003a 0700          .field  1792,16                 ; _cfgDesc[26] @ 416
     110 00003b 0305          .field  773,16                  ; _cfgDesc[27] @ 432
     111 00003c 4002          .field  16386,16                        ; _cfgDesc[28] @ 448
     112 00003d 0000          .field  0,16                    ; _cfgDesc[29] @ 464
     113 00003e 0507          .field  1287,16                 ; _cfgDesc[30] @ 480
     114 00003f 0284          .field  644,16                  ; _cfgDesc[31] @ 496
     115 000040 0040          .field  64,16                   ; _cfgDesc[32] @ 512
     116 000041 0700          .field  1792,16                 ; _cfgDesc[33] @ 528
     117 000042 0405          .field  1029,16                 ; _cfgDesc[34] @ 544
     118 000043 4002          .field  16386,16                        ; _cfgDesc[35] @ 560
     119 000044 0000          .field  0,16                    ; _cfgDesc[36] @ 576
     120              $C$IR_2:        .set    37
     121              
     122 000045               .sect   ".cinit"
     123                      .align  1
     124 000045 0002          .field          $C$IR_3,16
     125 000046 0001-         .field          _strDesc+0,24
         000047 B500 
     126 000047 B500          .field          0,8
     127 000048 0304          .field  772,16                  ; _strDesc[0][0] @ 0
     128 000049 0409          .field  1033,16                 ; _strDesc[0][1] @ 16
     129              $C$IR_3:        .set    2
     130              
     131 00004a               .sect   ".cinit"
     132                      .align  1
     133 00004a 002E          .field          $C$IR_4,16
     134 00004b 0001-         .field          _strDesc+20,24
         00004c C900 
     135 00004c C900          .field          0,8
     136 00004d 0324          .field  804,16                  ; _strDesc[1][0] @ 320
     137 00004e 0045          .field  69,16                   ; _strDesc[1][1] @ 336
     138 00004f 0054          .field  84,16                   ; _strDesc[1][2] @ 352
     139 000050 0041          .field  65,16                   ; _strDesc[1][3] @ 368
     140 000051 0058          .field  88,16                   ; _strDesc[1][4] @ 384
     141 000052 0020          .field  32,16                   ; _strDesc[1][5] @ 400
     142 000053 0053          .field  83,16                   ; _strDesc[1][6] @ 416
     143 000054 004E          .field  78,16                   ; _strDesc[1][7] @ 432
     144 000055 0049          .field  73,16                   ; _strDesc[1][8] @ 448
     145 000056 0054          .field  84,16                   ; _strDesc[1][9] @ 464
     146 000057 0053          .field  83,16                   ; _strDesc[1][10] @ 480
     147 000058 0055          .field  85,16                   ; _strDesc[1][11] @ 496
     148 000059 0052          .field  82,16                   ; _strDesc[1][12] @ 512
     149 00005a 0045          .field  69,16                   ; _strDesc[1][13] @ 528
     150 00005b 004D          .field  77,16                   ; _strDesc[1][14] @ 544
     151 00005c 0054          .field  84,16                   ; _strDesc[1][15] @ 560
     152 00005d 004E          .field  78,16                   ; _strDesc[1][16] @ 576
     153 00005e 0053          .field  83,16                   ; _strDesc[1][17] @ 592
     154 00005f               .space  32
     155 000061 030C          .field  780,16                  ; _strDesc[2][0] @ 640
TMS320C55x Assembler PC v4.4.1 Sat Sep 29 23:08:33 2018

Tools Copyright (c) 1996-2012 Texas Instruments Incorporated
csl_usb_poll_example.asm                                             PAGE    4

     156 000062 0043          .field  67,16                   ; _strDesc[2][1] @ 656
     157 000063 0035          .field  53,16                   ; _strDesc[2][2] @ 672
     158 000064 0035          .field  53,16                   ; _strDesc[2][3] @ 688
     159 000065 0031          .field  49,16                   ; _strDesc[2][4] @ 704
     160 000066 0035          .field  53,16                   ; _strDesc[2][5] @ 720
     161 000067               .space  224
     162 000075 030C          .field  780,16                  ; _strDesc[3][0] @ 960
     163 000076 0030          .field  48,16                   ; _strDesc[3][1] @ 976
     164 000077 0030          .field  48,16                   ; _strDesc[3][2] @ 992
     165 000078 0030          .field  48,16                   ; _strDesc[3][3] @ 1008
     166 000079 0030          .field  48,16                   ; _strDesc[3][4] @ 1024
     167 00007a 0031          .field  49,16                   ; _strDesc[3][5] @ 1040
     168              $C$IR_4:        .set    46
     169              
     170 00007b               .sect   ".cinit"
     171                      .align  1
     172 00007b 0001          .field          1,16
     173 00007c 0002-         .field          _PaSs_StAtE+0,24
         00007d 0500 
     174 00007d 0500          .field          0,8
     175 00007e 0001          .field  1,16                    ; _PaSs_StAtE @ 0
     176              
     177 00007f               .sect   ".cinit"
     178                      .align  1
     179 00007f 0001          .field          1,16
     180 000080 0002-         .field          _PaSs+0,24
         000081 0600 
     181 000081 0600          .field          0,8
     182 000082 0000          .field  0,16                    ; _PaSs @ 0
     183              
     184              
     185              $C$DW$1 .dwtag  DW_TAG_subprogram, DW_AT_name("memcpy")
     186                      .dwattr $C$DW$1, DW_AT_TI_symbol_name("_memcpy")
     187                      .dwattr $C$DW$1, DW_AT_type(*$C$DW$T$3)
     188                      .dwattr $C$DW$1, DW_AT_declaration
     189                      .dwattr $C$DW$1, DW_AT_external
     190              $C$DW$2 .dwtag  DW_TAG_formal_parameter
     191                      .dwattr $C$DW$2, DW_AT_type(*$C$DW$T$3)
     192              $C$DW$3 .dwtag  DW_TAG_formal_parameter
     193                      .dwattr $C$DW$3, DW_AT_type(*$C$DW$T$175)
     194              $C$DW$4 .dwtag  DW_TAG_formal_parameter
     195                      .dwattr $C$DW$4, DW_AT_type(*$C$DW$T$11)
     196                      .dwendtag $C$DW$1
     197              
     198              
     199              $C$DW$5 .dwtag  DW_TAG_subprogram, DW_AT_name("printf")
     200                      .dwattr $C$DW$5, DW_AT_TI_symbol_name("_printf")
     201                      .dwattr $C$DW$5, DW_AT_type(*$C$DW$T$10)
     202                      .dwattr $C$DW$5, DW_AT_declaration
     203                      .dwattr $C$DW$5, DW_AT_external
     204              $C$DW$6 .dwtag  DW_TAG_formal_parameter
     205                      .dwattr $C$DW$6, DW_AT_type(*$C$DW$T$258)
     206              $C$DW$7 .dwtag  DW_TAG_unspecified_parameters
     207                      .dwendtag $C$DW$5
     208              
TMS320C55x Assembler PC v4.4.1 Sat Sep 29 23:08:33 2018

Tools Copyright (c) 1996-2012 Texas Instruments Incorporated
csl_usb_poll_example.asm                                             PAGE    5

     209              
     210              $C$DW$8 .dwtag  DW_TAG_subprogram, DW_AT_name("USB_init")
     211                      .dwattr $C$DW$8, DW_AT_TI_symbol_name("_USB_init")
     212                      .dwattr $C$DW$8, DW_AT_type(*$C$DW$T$89)
     213                      .dwattr $C$DW$8, DW_AT_declaration
     214                      .dwattr $C$DW$8, DW_AT_external
     215              $C$DW$9 .dwtag  DW_TAG_formal_parameter
     216                      .dwattr $C$DW$9, DW_AT_type(*$C$DW$T$164)
     217                      .dwendtag $C$DW$8
     218              
     219              
     220              $C$DW$10        .dwtag  DW_TAG_subprogram, DW_AT_name("USB_resetDev")
     221                      .dwattr $C$DW$10, DW_AT_TI_symbol_name("_USB_resetDev")
     222                      .dwattr $C$DW$10, DW_AT_type(*$C$DW$T$89)
     223                      .dwattr $C$DW$10, DW_AT_declaration
     224                      .dwattr $C$DW$10, DW_AT_external
     225              $C$DW$11        .dwtag  DW_TAG_formal_parameter
     226                      .dwattr $C$DW$11, DW_AT_type(*$C$DW$T$82)
     227                      .dwendtag $C$DW$10
     228              
     229              
     230              $C$DW$12        .dwtag  DW_TAG_subprogram, DW_AT_name("USB_initEndptObj")
     231                      .dwattr $C$DW$12, DW_AT_TI_symbol_name("_USB_initEndptObj")
     232                      .dwattr $C$DW$12, DW_AT_type(*$C$DW$T$89)
     233                      .dwattr $C$DW$12, DW_AT_declaration
     234                      .dwattr $C$DW$12, DW_AT_external
     235              $C$DW$13        .dwtag  DW_TAG_formal_parameter
     236                      .dwattr $C$DW$13, DW_AT_type(*$C$DW$T$82)
     237              $C$DW$14        .dwtag  DW_TAG_formal_parameter
     238                      .dwattr $C$DW$14, DW_AT_type(*$C$DW$T$116)
     239              $C$DW$15        .dwtag  DW_TAG_formal_parameter
     240                      .dwattr $C$DW$15, DW_AT_type(*$C$DW$T$122)
     241              $C$DW$16        .dwtag  DW_TAG_formal_parameter
     242                      .dwattr $C$DW$16, DW_AT_type(*$C$DW$T$124)
     243              $C$DW$17        .dwtag  DW_TAG_formal_parameter
     244                      .dwattr $C$DW$17, DW_AT_type(*$C$DW$T$19)
     245              $C$DW$18        .dwtag  DW_TAG_formal_parameter
     246                      .dwattr $C$DW$18, DW_AT_type(*$C$DW$T$19)
     247              $C$DW$19        .dwtag  DW_TAG_formal_parameter
     248                      .dwattr $C$DW$19, DW_AT_type(*$C$DW$T$127)
     249                      .dwendtag $C$DW$12
     250              
     251              
     252              $C$DW$20        .dwtag  DW_TAG_subprogram, DW_AT_name("USB_getSetupPacket")
     253                      .dwattr $C$DW$20, DW_AT_TI_symbol_name("_USB_getSetupPacket")
     254                      .dwattr $C$DW$20, DW_AT_type(*$C$DW$T$89)
     255                      .dwattr $C$DW$20, DW_AT_declaration
     256                      .dwattr $C$DW$20, DW_AT_external
     257              $C$DW$21        .dwtag  DW_TAG_formal_parameter
     258                      .dwattr $C$DW$21, DW_AT_type(*$C$DW$T$82)
     259              $C$DW$22        .dwtag  DW_TAG_formal_parameter
     260                      .dwattr $C$DW$22, DW_AT_type(*$C$DW$T$172)
     261              $C$DW$23        .dwtag  DW_TAG_formal_parameter
     262                      .dwattr $C$DW$23, DW_AT_type(*$C$DW$T$95)
     263                      .dwendtag $C$DW$20
TMS320C55x Assembler PC v4.4.1 Sat Sep 29 23:08:33 2018

Tools Copyright (c) 1996-2012 Texas Instruments Incorporated
csl_usb_poll_example.asm                                             PAGE    6

     264              
     265              
     266              $C$DW$24        .dwtag  DW_TAG_subprogram, DW_AT_name("USB_postTransaction")
     267                      .dwattr $C$DW$24, DW_AT_TI_symbol_name("_USB_postTransaction")
     268                      .dwattr $C$DW$24, DW_AT_type(*$C$DW$T$89)
     269                      .dwattr $C$DW$24, DW_AT_declaration
     270                      .dwattr $C$DW$24, DW_AT_external
     271              $C$DW$25        .dwtag  DW_TAG_formal_parameter
     272                      .dwattr $C$DW$25, DW_AT_type(*$C$DW$T$116)
     273              $C$DW$26        .dwtag  DW_TAG_formal_parameter
     274                      .dwattr $C$DW$26, DW_AT_type(*$C$DW$T$19)
     275              $C$DW$27        .dwtag  DW_TAG_formal_parameter
     276                      .dwattr $C$DW$27, DW_AT_type(*$C$DW$T$3)
     277              $C$DW$28        .dwtag  DW_TAG_formal_parameter
     278                      .dwattr $C$DW$28, DW_AT_type(*$C$DW$T$136)
     279                      .dwendtag $C$DW$24
     280              
     281              
     282              $C$DW$29        .dwtag  DW_TAG_subprogram, DW_AT_name("USB_isTransactionDone")
     283                      .dwattr $C$DW$29, DW_AT_TI_symbol_name("_USB_isTransactionDone")
     284                      .dwattr $C$DW$29, DW_AT_type(*$C$DW$T$102)
     285                      .dwattr $C$DW$29, DW_AT_declaration
     286                      .dwattr $C$DW$29, DW_AT_external
     287              $C$DW$30        .dwtag  DW_TAG_formal_parameter
     288                      .dwattr $C$DW$30, DW_AT_type(*$C$DW$T$116)
     289              $C$DW$31        .dwtag  DW_TAG_formal_parameter
     290                      .dwattr $C$DW$31, DW_AT_type(*$C$DW$T$138)
     291                      .dwendtag $C$DW$29
     292              
     293              
     294              $C$DW$32        .dwtag  DW_TAG_subprogram, DW_AT_name("USB_bytesRemaining")
     295                      .dwattr $C$DW$32, DW_AT_TI_symbol_name("_USB_bytesRemaining")
     296                      .dwattr $C$DW$32, DW_AT_type(*$C$DW$T$236)
     297                      .dwattr $C$DW$32, DW_AT_declaration
     298                      .dwattr $C$DW$32, DW_AT_external
     299              $C$DW$33        .dwtag  DW_TAG_formal_parameter
     300                      .dwattr $C$DW$33, DW_AT_type(*$C$DW$T$116)
     301              $C$DW$34        .dwtag  DW_TAG_formal_parameter
     302                      .dwattr $C$DW$34, DW_AT_type(*$C$DW$T$138)
     303                      .dwendtag $C$DW$32
     304              
     305              
     306              $C$DW$35        .dwtag  DW_TAG_subprogram, DW_AT_name("USB_stallEndpt")
     307                      .dwattr $C$DW$35, DW_AT_TI_symbol_name("_USB_stallEndpt")
     308                      .dwattr $C$DW$35, DW_AT_type(*$C$DW$T$89)
     309                      .dwattr $C$DW$35, DW_AT_declaration
     310                      .dwattr $C$DW$35, DW_AT_external
     311              $C$DW$36        .dwtag  DW_TAG_formal_parameter
     312                      .dwattr $C$DW$36, DW_AT_type(*$C$DW$T$116)
     313                      .dwendtag $C$DW$35
     314              
     315              
     316              $C$DW$37        .dwtag  DW_TAG_subprogram, DW_AT_name("USB_clearEndptStall")
     317                      .dwattr $C$DW$37, DW_AT_TI_symbol_name("_USB_clearEndptStall")
     318                      .dwattr $C$DW$37, DW_AT_type(*$C$DW$T$89)
TMS320C55x Assembler PC v4.4.1 Sat Sep 29 23:08:33 2018

Tools Copyright (c) 1996-2012 Texas Instruments Incorporated
csl_usb_poll_example.asm                                             PAGE    7

     319                      .dwattr $C$DW$37, DW_AT_declaration
     320                      .dwattr $C$DW$37, DW_AT_external
     321              $C$DW$38        .dwtag  DW_TAG_formal_parameter
     322                      .dwattr $C$DW$38, DW_AT_type(*$C$DW$T$116)
     323                      .dwendtag $C$DW$37
     324              
     325              
     326              $C$DW$39        .dwtag  DW_TAG_subprogram, DW_AT_name("USB_getEndptStall")
     327                      .dwattr $C$DW$39, DW_AT_TI_symbol_name("_USB_getEndptStall")
     328                      .dwattr $C$DW$39, DW_AT_type(*$C$DW$T$102)
     329                      .dwattr $C$DW$39, DW_AT_declaration
     330                      .dwattr $C$DW$39, DW_AT_external
     331              $C$DW$40        .dwtag  DW_TAG_formal_parameter
     332                      .dwattr $C$DW$40, DW_AT_type(*$C$DW$T$116)
     333              $C$DW$41        .dwtag  DW_TAG_formal_parameter
     334                      .dwattr $C$DW$41, DW_AT_type(*$C$DW$T$138)
     335                      .dwendtag $C$DW$39
     336              
     337              
     338              $C$DW$42        .dwtag  DW_TAG_subprogram, DW_AT_name("USB_epNumToHandle")
     339                      .dwattr $C$DW$42, DW_AT_TI_symbol_name("_USB_epNumToHandle")
     340                      .dwattr $C$DW$42, DW_AT_type(*$C$DW$T$116)
     341                      .dwattr $C$DW$42, DW_AT_declaration
     342                      .dwattr $C$DW$42, DW_AT_external
     343              $C$DW$43        .dwtag  DW_TAG_formal_parameter
     344                      .dwattr $C$DW$43, DW_AT_type(*$C$DW$T$82)
     345              $C$DW$44        .dwtag  DW_TAG_formal_parameter
     346                      .dwattr $C$DW$44, DW_AT_type(*$C$DW$T$19)
     347                      .dwendtag $C$DW$42
     348              
     349              
     350              $C$DW$45        .dwtag  DW_TAG_subprogram, DW_AT_name("USB_connectDev")
     351                      .dwattr $C$DW$45, DW_AT_TI_symbol_name("_USB_connectDev")
     352                      .dwattr $C$DW$45, DW_AT_type(*$C$DW$T$89)
     353                      .dwattr $C$DW$45, DW_AT_declaration
     354                      .dwattr $C$DW$45, DW_AT_external
     355              $C$DW$46        .dwtag  DW_TAG_formal_parameter
     356                      .dwattr $C$DW$46, DW_AT_type(*$C$DW$T$82)
     357                      .dwendtag $C$DW$45
     358              
     359              
     360              $C$DW$47        .dwtag  DW_TAG_subprogram, DW_AT_name("USB_disconnectDev")
     361                      .dwattr $C$DW$47, DW_AT_TI_symbol_name("_USB_disconnectDev")
     362                      .dwattr $C$DW$47, DW_AT_type(*$C$DW$T$89)
     363                      .dwattr $C$DW$47, DW_AT_declaration
     364                      .dwattr $C$DW$47, DW_AT_external
     365              $C$DW$48        .dwtag  DW_TAG_formal_parameter
     366                      .dwattr $C$DW$48, DW_AT_type(*$C$DW$T$82)
     367                      .dwendtag $C$DW$47
     368              
     369              
     370              $C$DW$49        .dwtag  DW_TAG_subprogram, DW_AT_name("USB_setRemoteWakeup")
     371                      .dwattr $C$DW$49, DW_AT_TI_symbol_name("_USB_setRemoteWakeup")
     372                      .dwattr $C$DW$49, DW_AT_type(*$C$DW$T$89)
     373                      .dwattr $C$DW$49, DW_AT_declaration
TMS320C55x Assembler PC v4.4.1 Sat Sep 29 23:08:33 2018

Tools Copyright (c) 1996-2012 Texas Instruments Incorporated
csl_usb_poll_example.asm                                             PAGE    8

     374                      .dwattr $C$DW$49, DW_AT_external
     375              $C$DW$50        .dwtag  DW_TAG_formal_parameter
     376                      .dwattr $C$DW$50, DW_AT_type(*$C$DW$T$82)
     377              $C$DW$51        .dwtag  DW_TAG_formal_parameter
     378                      .dwattr $C$DW$51, DW_AT_type(*$C$DW$T$102)
     379                      .dwendtag $C$DW$49
     380              
     381              
     382              $C$DW$52        .dwtag  DW_TAG_subprogram, DW_AT_name("USB_getRemoteWakeupStat")
     383                      .dwattr $C$DW$52, DW_AT_TI_symbol_name("_USB_getRemoteWakeupStat")
     384                      .dwattr $C$DW$52, DW_AT_type(*$C$DW$T$102)
     385                      .dwattr $C$DW$52, DW_AT_declaration
     386                      .dwattr $C$DW$52, DW_AT_external
     387              $C$DW$53        .dwtag  DW_TAG_formal_parameter
     388                      .dwattr $C$DW$53, DW_AT_type(*$C$DW$T$82)
     389                      .dwendtag $C$DW$52
     390              
     391              
     392              $C$DW$54        .dwtag  DW_TAG_subprogram, DW_AT_name("USB_issueRemoteWakeup")
     393                      .dwattr $C$DW$54, DW_AT_TI_symbol_name("_USB_issueRemoteWakeup")
     394                      .dwattr $C$DW$54, DW_AT_type(*$C$DW$T$89)
     395                      .dwattr $C$DW$54, DW_AT_declaration
     396                      .dwattr $C$DW$54, DW_AT_external
     397              $C$DW$55        .dwtag  DW_TAG_formal_parameter
     398                      .dwattr $C$DW$55, DW_AT_type(*$C$DW$T$82)
     399              $C$DW$56        .dwtag  DW_TAG_formal_parameter
     400                      .dwattr $C$DW$56, DW_AT_type(*$C$DW$T$95)
     401                      .dwendtag $C$DW$54
     402              
     403              
     404              $C$DW$57        .dwtag  DW_TAG_subprogram, DW_AT_name("USB_setDevAddr")
     405                      .dwattr $C$DW$57, DW_AT_TI_symbol_name("_USB_setDevAddr")
     406                      .dwattr $C$DW$57, DW_AT_type(*$C$DW$T$89)
     407                      .dwattr $C$DW$57, DW_AT_declaration
     408                      .dwattr $C$DW$57, DW_AT_external
     409              $C$DW$58        .dwtag  DW_TAG_formal_parameter
     410                      .dwattr $C$DW$58, DW_AT_type(*$C$DW$T$82)
     411              $C$DW$59        .dwtag  DW_TAG_formal_parameter
     412                      .dwattr $C$DW$59, DW_AT_type(*$C$DW$T$19)
     413                      .dwendtag $C$DW$57
     414              
     415              
     416              $C$DW$60        .dwtag  DW_TAG_subprogram, DW_AT_name("USB_suspendDevice")
     417                      .dwattr $C$DW$60, DW_AT_TI_symbol_name("_USB_suspendDevice")
     418                      .dwattr $C$DW$60, DW_AT_type(*$C$DW$T$89)
     419                      .dwattr $C$DW$60, DW_AT_declaration
     420                      .dwattr $C$DW$60, DW_AT_external
     421              $C$DW$61        .dwtag  DW_TAG_formal_parameter
     422                      .dwattr $C$DW$61, DW_AT_type(*$C$DW$T$82)
     423                      .dwendtag $C$DW$60
     424              
     425              
     426              $C$DW$62        .dwtag  DW_TAG_subprogram, DW_AT_name("USB_selfwakeup")
     427                      .dwattr $C$DW$62, DW_AT_TI_symbol_name("_USB_selfwakeup")
     428                      .dwattr $C$DW$62, DW_AT_type(*$C$DW$T$89)
TMS320C55x Assembler PC v4.4.1 Sat Sep 29 23:08:33 2018

Tools Copyright (c) 1996-2012 Texas Instruments Incorporated
csl_usb_poll_example.asm                                             PAGE    9

     429                      .dwattr $C$DW$62, DW_AT_declaration
     430                      .dwattr $C$DW$62, DW_AT_external
     431              $C$DW$63        .dwtag  DW_TAG_formal_parameter
     432                      .dwattr $C$DW$63, DW_AT_type(*$C$DW$T$82)
     433              $C$DW$64        .dwtag  DW_TAG_formal_parameter
     434                      .dwattr $C$DW$64, DW_AT_type(*$C$DW$T$97)
     435                      .dwendtag $C$DW$62
     436              
     437              
     438              $C$DW$65        .dwtag  DW_TAG_subprogram, DW_AT_name("USB_setParams")
     439                      .dwattr $C$DW$65, DW_AT_TI_symbol_name("_USB_setParams")
     440                      .dwattr $C$DW$65, DW_AT_type(*$C$DW$T$89)
     441                      .dwattr $C$DW$65, DW_AT_declaration
     442                      .dwattr $C$DW$65, DW_AT_external
     443              $C$DW$66        .dwtag  DW_TAG_formal_parameter
     444                      .dwattr $C$DW$66, DW_AT_type(*$C$DW$T$82)
     445              $C$DW$67        .dwtag  DW_TAG_formal_parameter
     446                      .dwattr $C$DW$67, DW_AT_type(*$C$DW$T$170)
     447              $C$DW$68        .dwtag  DW_TAG_formal_parameter
     448                      .dwattr $C$DW$68, DW_AT_type(*$C$DW$T$19)
     449                      .dwendtag $C$DW$65
     450              
     451              
     452              $C$DW$69        .dwtag  DW_TAG_subprogram, DW_AT_name("USB_getDataCountReadFromFifo")
     453                      .dwattr $C$DW$69, DW_AT_TI_symbol_name("_USB_getDataCountReadFromFifo")
     454                      .dwattr $C$DW$69, DW_AT_type(*$C$DW$T$19)
     455                      .dwattr $C$DW$69, DW_AT_declaration
     456                      .dwattr $C$DW$69, DW_AT_external
     457              $C$DW$70        .dwtag  DW_TAG_formal_parameter
     458                      .dwattr $C$DW$70, DW_AT_type(*$C$DW$T$116)
     459                      .dwendtag $C$DW$69
     460              
     461              
     462              $C$DW$71        .dwtag  DW_TAG_subprogram, DW_AT_name("IRQ_plug")
     463                      .dwattr $C$DW$71, DW_AT_TI_symbol_name("_IRQ_plug")
     464                      .dwattr $C$DW$71, DW_AT_type(*$C$DW$T$10)
     465                      .dwattr $C$DW$71, DW_AT_declaration
     466                      .dwattr $C$DW$71, DW_AT_external
     467              $C$DW$72        .dwtag  DW_TAG_formal_parameter
     468                      .dwattr $C$DW$72, DW_AT_type(*$C$DW$T$19)
     469              $C$DW$73        .dwtag  DW_TAG_formal_parameter
     470                      .dwattr $C$DW$73, DW_AT_type(*$C$DW$T$179)
     471                      .dwendtag $C$DW$71
     472              
     473              
     474              $C$DW$74        .dwtag  DW_TAG_subprogram, DW_AT_name("IRQ_clear")
     475                      .dwattr $C$DW$74, DW_AT_TI_symbol_name("_IRQ_clear")
     476                      .dwattr $C$DW$74, DW_AT_type(*$C$DW$T$89)
     477                      .dwattr $C$DW$74, DW_AT_declaration
     478                      .dwattr $C$DW$74, DW_AT_external
     479              $C$DW$75        .dwtag  DW_TAG_formal_parameter
     480                      .dwattr $C$DW$75, DW_AT_type(*$C$DW$T$19)
     481                      .dwendtag $C$DW$74
     482              
     483              
TMS320C55x Assembler PC v4.4.1 Sat Sep 29 23:08:33 2018

Tools Copyright (c) 1996-2012 Texas Instruments Incorporated
csl_usb_poll_example.asm                                             PAGE   10

     484              $C$DW$76        .dwtag  DW_TAG_subprogram, DW_AT_name("IRQ_enable")
     485                      .dwattr $C$DW$76, DW_AT_TI_symbol_name("_IRQ_enable")
     486                      .dwattr $C$DW$76, DW_AT_type(*$C$DW$T$10)
     487                      .dwattr $C$DW$76, DW_AT_declaration
     488                      .dwattr $C$DW$76, DW_AT_external
     489              $C$DW$77        .dwtag  DW_TAG_formal_parameter
     490                      .dwattr $C$DW$77, DW_AT_type(*$C$DW$T$19)
     491                      .dwendtag $C$DW$76
     492              
     493              
     494              $C$DW$78        .dwtag  DW_TAG_subprogram, DW_AT_name("IRQ_setVecs")
     495                      .dwattr $C$DW$78, DW_AT_TI_symbol_name("_IRQ_setVecs")
     496                      .dwattr $C$DW$78, DW_AT_type(*$C$DW$T$89)
     497                      .dwattr $C$DW$78, DW_AT_declaration
     498                      .dwattr $C$DW$78, DW_AT_external
     499              $C$DW$79        .dwtag  DW_TAG_formal_parameter
     500                      .dwattr $C$DW$79, DW_AT_type(*$C$DW$T$97)
     501                      .dwendtag $C$DW$78
     502              
     503              
     504              $C$DW$80        .dwtag  DW_TAG_subprogram, DW_AT_name("IRQ_test")
     505                      .dwattr $C$DW$80, DW_AT_TI_symbol_name("_IRQ_test")
     506                      .dwattr $C$DW$80, DW_AT_type(*$C$DW$T$89)
     507                      .dwattr $C$DW$80, DW_AT_declaration
     508                      .dwattr $C$DW$80, DW_AT_external
     509              $C$DW$81        .dwtag  DW_TAG_formal_parameter
     510                      .dwattr $C$DW$81, DW_AT_type(*$C$DW$T$19)
     511              $C$DW$82        .dwtag  DW_TAG_formal_parameter
     512                      .dwattr $C$DW$82, DW_AT_type(*$C$DW$T$212)
     513                      .dwendtag $C$DW$80
     514              
     515              
     516              $C$DW$83        .dwtag  DW_TAG_subprogram, DW_AT_name("IRQ_globalDisable")
     517                      .dwattr $C$DW$83, DW_AT_TI_symbol_name("_IRQ_globalDisable")
     518                      .dwattr $C$DW$83, DW_AT_type(*$C$DW$T$95)
     519                      .dwattr $C$DW$83, DW_AT_declaration
     520                      .dwattr $C$DW$83, DW_AT_external
     521              
     522              $C$DW$84        .dwtag  DW_TAG_subprogram, DW_AT_name("IRQ_globalEnable")
     523                      .dwattr $C$DW$84, DW_AT_TI_symbol_name("_IRQ_globalEnable")
     524                      .dwattr $C$DW$84, DW_AT_type(*$C$DW$T$95)
     525                      .dwattr $C$DW$84, DW_AT_declaration
     526                      .dwattr $C$DW$84, DW_AT_external
     527              
     528              $C$DW$85        .dwtag  DW_TAG_subprogram, DW_AT_name("SAR_init")
     529                      .dwattr $C$DW$85, DW_AT_TI_symbol_name("_SAR_init")
     530                      .dwattr $C$DW$85, DW_AT_type(*$C$DW$T$89)
     531                      .dwattr $C$DW$85, DW_AT_declaration
     532                      .dwattr $C$DW$85, DW_AT_external
     533              
     534              $C$DW$86        .dwtag  DW_TAG_subprogram, DW_AT_name("SAR_chanOpen")
     535                      .dwattr $C$DW$86, DW_AT_TI_symbol_name("_SAR_chanOpen")
     536                      .dwattr $C$DW$86, DW_AT_type(*$C$DW$T$89)
     537                      .dwattr $C$DW$86, DW_AT_declaration
     538                      .dwattr $C$DW$86, DW_AT_external
TMS320C55x Assembler PC v4.4.1 Sat Sep 29 23:08:33 2018

Tools Copyright (c) 1996-2012 Texas Instruments Incorporated
csl_usb_poll_example.asm                                             PAGE   11

     539              $C$DW$87        .dwtag  DW_TAG_formal_parameter
     540                      .dwattr $C$DW$87, DW_AT_type(*$C$DW$T$151)
     541              $C$DW$88        .dwtag  DW_TAG_formal_parameter
     542                      .dwattr $C$DW$88, DW_AT_type(*$C$DW$T$144)
     543                      .dwendtag $C$DW$86
     544              
     545              
     546              $C$DW$89        .dwtag  DW_TAG_subprogram, DW_AT_name("SAR_chanInit")
     547                      .dwattr $C$DW$89, DW_AT_TI_symbol_name("_SAR_chanInit")
     548                      .dwattr $C$DW$89, DW_AT_type(*$C$DW$T$89)
     549                      .dwattr $C$DW$89, DW_AT_declaration
     550                      .dwattr $C$DW$89, DW_AT_external
     551              $C$DW$90        .dwtag  DW_TAG_formal_parameter
     552                      .dwattr $C$DW$90, DW_AT_type(*$C$DW$T$152)
     553                      .dwendtag $C$DW$89
     554              
     555              
     556              $C$DW$91        .dwtag  DW_TAG_subprogram, DW_AT_name("SAR_chanSetup")
     557                      .dwattr $C$DW$91, DW_AT_TI_symbol_name("_SAR_chanSetup")
     558                      .dwattr $C$DW$91, DW_AT_type(*$C$DW$T$89)
     559                      .dwattr $C$DW$91, DW_AT_declaration
     560                      .dwattr $C$DW$91, DW_AT_external
     561              $C$DW$92        .dwtag  DW_TAG_formal_parameter
     562                      .dwattr $C$DW$92, DW_AT_type(*$C$DW$T$151)
     563              $C$DW$93        .dwtag  DW_TAG_formal_parameter
     564                      .dwattr $C$DW$93, DW_AT_type(*$C$DW$T$154)
     565                      .dwendtag $C$DW$91
     566              
     567              
     568              $C$DW$94        .dwtag  DW_TAG_subprogram, DW_AT_name("SAR_chanCycSet")
     569                      .dwattr $C$DW$94, DW_AT_TI_symbol_name("_SAR_chanCycSet")
     570                      .dwattr $C$DW$94, DW_AT_type(*$C$DW$T$89)
     571                      .dwattr $C$DW$94, DW_AT_declaration
     572                      .dwattr $C$DW$94, DW_AT_external
     573              $C$DW$95        .dwtag  DW_TAG_formal_parameter
     574                      .dwattr $C$DW$95, DW_AT_type(*$C$DW$T$151)
     575              $C$DW$96        .dwtag  DW_TAG_formal_parameter
     576                      .dwattr $C$DW$96, DW_AT_type(*$C$DW$T$147)
     577                      .dwendtag $C$DW$94
     578              
     579              
     580              $C$DW$97        .dwtag  DW_TAG_subprogram, DW_AT_name("SAR_startConversion")
     581                      .dwattr $C$DW$97, DW_AT_TI_symbol_name("_SAR_startConversion")
     582                      .dwattr $C$DW$97, DW_AT_type(*$C$DW$T$89)
     583                      .dwattr $C$DW$97, DW_AT_declaration
     584                      .dwattr $C$DW$97, DW_AT_external
     585              $C$DW$98        .dwtag  DW_TAG_formal_parameter
     586                      .dwattr $C$DW$98, DW_AT_type(*$C$DW$T$151)
     587                      .dwendtag $C$DW$97
     588              
     589              
     590              $C$DW$99        .dwtag  DW_TAG_subprogram, DW_AT_name("SAR_A2DMeasParamSet")
     591                      .dwattr $C$DW$99, DW_AT_TI_symbol_name("_SAR_A2DMeasParamSet")
     592                      .dwattr $C$DW$99, DW_AT_type(*$C$DW$T$89)
     593                      .dwattr $C$DW$99, DW_AT_declaration
TMS320C55x Assembler PC v4.4.1 Sat Sep 29 23:08:33 2018

Tools Copyright (c) 1996-2012 Texas Instruments Incorporated
csl_usb_poll_example.asm                                             PAGE   12

     594                      .dwattr $C$DW$99, DW_AT_external
     595              $C$DW$100       .dwtag  DW_TAG_formal_parameter
     596                      .dwattr $C$DW$100, DW_AT_type(*$C$DW$T$151)
     597              $C$DW$101       .dwtag  DW_TAG_formal_parameter
     598                      .dwattr $C$DW$101, DW_AT_type(*$C$DW$T$149)
     599              $C$DW$102       .dwtag  DW_TAG_formal_parameter
     600                      .dwattr $C$DW$102, DW_AT_type(*$C$DW$T$145)
     601                      .dwendtag $C$DW$99
     602              
     603              
     604              $C$DW$103       .dwtag  DW_TAG_subprogram, DW_AT_name("SAR_readData")
     605                      .dwattr $C$DW$103, DW_AT_TI_symbol_name("_SAR_readData")
     606                      .dwattr $C$DW$103, DW_AT_type(*$C$DW$T$89)
     607                      .dwattr $C$DW$103, DW_AT_declaration
     608                      .dwattr $C$DW$103, DW_AT_external
     609              $C$DW$104       .dwtag  DW_TAG_formal_parameter
     610                      .dwattr $C$DW$104, DW_AT_type(*$C$DW$T$151)
     611              $C$DW$105       .dwtag  DW_TAG_formal_parameter
     612                      .dwattr $C$DW$105, DW_AT_type(*$C$DW$T$112)
     613                      .dwendtag $C$DW$103
     614              
     615              
     616              $C$DW$106       .dwtag  DW_TAG_subprogram, DW_AT_name("VECSTART")
     617                      .dwattr $C$DW$106, DW_AT_TI_symbol_name("_VECSTART")
     618                      .dwattr $C$DW$106, DW_AT_declaration
     619                      .dwattr $C$DW$106, DW_AT_external
     620              $C$DW$107       .dwtag  DW_TAG_variable, DW_AT_name("usbRegisters")
     621                      .dwattr $C$DW$107, DW_AT_TI_symbol_name("_usbRegisters")
     622                      .dwattr $C$DW$107, DW_AT_type(*$C$DW$T$158)
     623                      .dwattr $C$DW$107, DW_AT_declaration
     624                      .dwattr $C$DW$107, DW_AT_external
     625              $C$DW$108       .dwtag  DW_TAG_variable, DW_AT_name("sysCtrlRegs")
     626                      .dwattr $C$DW$108, DW_AT_TI_symbol_name("_sysCtrlRegs")
     627                      .dwattr $C$DW$108, DW_AT_type(*$C$DW$T$162)
     628                      .dwattr $C$DW$108, DW_AT_declaration
     629                      .dwattr $C$DW$108, DW_AT_external
     630              $C$DW$109       .dwtag  DW_TAG_variable, DW_AT_name("gUsbContext")
     631                      .dwattr $C$DW$109, DW_AT_TI_symbol_name("_gUsbContext")
     632                      .dwattr $C$DW$109, DW_AT_type(*$C$DW$T$165)
     633                      .dwattr $C$DW$109, DW_AT_declaration
     634                      .dwattr $C$DW$109, DW_AT_external
     635                      .global _SarObj
     636 000000               .bss    _SarObj,3,0,0
     637              $C$DW$110       .dwtag  DW_TAG_variable, DW_AT_name("SarObj")
     638                      .dwattr $C$DW$110, DW_AT_TI_symbol_name("_SarObj")
     639                      .dwattr $C$DW$110, DW_AT_location[DW_OP_addr _SarObj]
     640                      .dwattr $C$DW$110, DW_AT_type(*$C$DW$T$150)
     641                      .dwattr $C$DW$110, DW_AT_external
     642                      .global _SarHandle
     643 000004               .bss    _SarHandle,2,0,2
     644              $C$DW$111       .dwtag  DW_TAG_variable, DW_AT_name("SarHandle")
     645                      .dwattr $C$DW$111, DW_AT_TI_symbol_name("_SarHandle")
     646                      .dwattr $C$DW$111, DW_AT_location[DW_OP_addr _SarHandle]
     647                      .dwattr $C$DW$111, DW_AT_type(*$C$DW$T$151)
     648                      .dwattr $C$DW$111, DW_AT_external
TMS320C55x Assembler PC v4.4.1 Sat Sep 29 23:08:33 2018

Tools Copyright (c) 1996-2012 Texas Instruments Incorporated
csl_usb_poll_example.asm                                             PAGE   13

     649                      .global _readBuffer
     650 000003               .bss    _readBuffer,1,0,0
     651              $C$DW$112       .dwtag  DW_TAG_variable, DW_AT_name("readBuffer")
     652                      .dwattr $C$DW$112, DW_AT_TI_symbol_name("_readBuffer")
     653                      .dwattr $C$DW$112, DW_AT_location[DW_OP_addr _readBuffer]
     654                      .dwattr $C$DW$112, DW_AT_type(*$C$DW$T$19)
     655                      .dwattr $C$DW$112, DW_AT_external
     656                      .global _selfWakeupServiced
     657 000006               .bss    _selfWakeupServiced,1,0,0
     658              $C$DW$113       .dwtag  DW_TAG_variable, DW_AT_name("selfWakeupServiced")
     659                      .dwattr $C$DW$113, DW_AT_TI_symbol_name("_selfWakeupServiced")
     660                      .dwattr $C$DW$113, DW_AT_location[DW_OP_addr _selfWakeupServiced]
     661                      .dwattr $C$DW$113, DW_AT_type(*$C$DW$T$19)
     662                      .dwattr $C$DW$113, DW_AT_external
     663                      .global _hEpObjArray
     664 000008               .bss    _hEpObjArray,16,0,2
     665              $C$DW$114       .dwtag  DW_TAG_variable, DW_AT_name("hEpObjArray")
     666                      .dwattr $C$DW$114, DW_AT_TI_symbol_name("_hEpObjArray")
     667                      .dwattr $C$DW$114, DW_AT_location[DW_OP_addr _hEpObjArray]
     668                      .dwattr $C$DW$114, DW_AT_type(*$C$DW$T$117)
     669                      .dwattr $C$DW$114, DW_AT_external
     670                      .global _usbCtrlOutEpObj
     671 000018               .bss    _usbCtrlOutEpObj,20,0,2
     672              $C$DW$115       .dwtag  DW_TAG_variable, DW_AT_name("usbCtrlOutEpObj")
     673                      .dwattr $C$DW$115, DW_AT_TI_symbol_name("_usbCtrlOutEpObj")
     674                      .dwattr $C$DW$115, DW_AT_location[DW_OP_addr _usbCtrlOutEpObj]
     675                      .dwattr $C$DW$115, DW_AT_type(*$C$DW$T$114)
     676                      .dwattr $C$DW$115, DW_AT_external
     677                      .global _usbCtrlInEpObj
     678 00002c               .bss    _usbCtrlInEpObj,20,0,2
     679              $C$DW$116       .dwtag  DW_TAG_variable, DW_AT_name("usbCtrlInEpObj")
     680                      .dwattr $C$DW$116, DW_AT_TI_symbol_name("_usbCtrlInEpObj")
     681                      .dwattr $C$DW$116, DW_AT_location[DW_OP_addr _usbCtrlInEpObj]
     682                      .dwattr $C$DW$116, DW_AT_type(*$C$DW$T$114)
     683                      .dwattr $C$DW$116, DW_AT_external
     684                      .global _usbBulkOutEpObj
     685 000040               .bss    _usbBulkOutEpObj,20,0,2
     686              $C$DW$117       .dwtag  DW_TAG_variable, DW_AT_name("usbBulkOutEpObj")
     687                      .dwattr $C$DW$117, DW_AT_TI_symbol_name("_usbBulkOutEpObj")
     688                      .dwattr $C$DW$117, DW_AT_location[DW_OP_addr _usbBulkOutEpObj]
     689                      .dwattr $C$DW$117, DW_AT_type(*$C$DW$T$114)
     690                      .dwattr $C$DW$117, DW_AT_external
     691                      .global _usbBulkInEpObj
     692 000054               .bss    _usbBulkInEpObj,20,0,2
     693              $C$DW$118       .dwtag  DW_TAG_variable, DW_AT_name("usbBulkInEpObj")
     694                      .dwattr $C$DW$118, DW_AT_TI_symbol_name("_usbBulkInEpObj")
     695                      .dwattr $C$DW$118, DW_AT_location[DW_OP_addr _usbBulkInEpObj]
     696                      .dwattr $C$DW$118, DW_AT_type(*$C$DW$T$114)
     697                      .dwattr $C$DW$118, DW_AT_external
     698                      .global _usbConfig
     699 000068               .bss    _usbConfig,12,0,2
     700              $C$DW$119       .dwtag  DW_TAG_variable, DW_AT_name("usbConfig")
     701                      .dwattr $C$DW$119, DW_AT_TI_symbol_name("_usbConfig")
     702                      .dwattr $C$DW$119, DW_AT_location[DW_OP_addr _usbConfig]
     703                      .dwattr $C$DW$119, DW_AT_type(*$C$DW$T$163)
TMS320C55x Assembler PC v4.4.1 Sat Sep 29 23:08:33 2018

Tools Copyright (c) 1996-2012 Texas Instruments Incorporated
csl_usb_poll_example.asm                                             PAGE   14

     704                      .dwattr $C$DW$119, DW_AT_external
     705                      .global _usbSetup
     706 000074               .bss    _usbSetup,6,0,0
     707              $C$DW$120       .dwtag  DW_TAG_variable, DW_AT_name("usbSetup")
     708                      .dwattr $C$DW$120, DW_AT_TI_symbol_name("_usbSetup")
     709                      .dwattr $C$DW$120, DW_AT_location[DW_OP_addr _usbSetup]
     710                      .dwattr $C$DW$120, DW_AT_type(*$C$DW$T$111)
     711                      .dwattr $C$DW$120, DW_AT_external
     712                      .global _deviceDescPtr
     713 00007a               .bss    _deviceDescPtr,2,0,2
     714              $C$DW$121       .dwtag  DW_TAG_variable, DW_AT_name("deviceDescPtr")
     715                      .dwattr $C$DW$121, DW_AT_TI_symbol_name("_deviceDescPtr")
     716                      .dwattr $C$DW$121, DW_AT_location[DW_OP_addr _deviceDescPtr]
     717                      .dwattr $C$DW$121, DW_AT_type(*$C$DW$T$112)
     718                      .dwattr $C$DW$121, DW_AT_external
     719                      .global _cfgDescPtr
     720 00007c               .bss    _cfgDescPtr,2,0,2
     721              $C$DW$122       .dwtag  DW_TAG_variable, DW_AT_name("cfgDescPtr")
     722                      .dwattr $C$DW$122, DW_AT_TI_symbol_name("_cfgDescPtr")
     723                      .dwattr $C$DW$122, DW_AT_location[DW_OP_addr _cfgDescPtr]
     724                      .dwattr $C$DW$122, DW_AT_type(*$C$DW$T$112)
     725                      .dwattr $C$DW$122, DW_AT_external
     726                      .global _strDescPtr
     727 00007e               .bss    _strDescPtr,2,0,2
     728              $C$DW$123       .dwtag  DW_TAG_variable, DW_AT_name("strDescPtr")
     729                      .dwattr $C$DW$123, DW_AT_TI_symbol_name("_strDescPtr")
     730                      .dwattr $C$DW$123, DW_AT_location[DW_OP_addr _strDescPtr]
     731                      .dwattr $C$DW$123, DW_AT_type(*$C$DW$T$112)
     732                      .dwattr $C$DW$123, DW_AT_external
     733                      .global _devAddr
     734 000007               .bss    _devAddr,1,0,0
     735              $C$DW$124       .dwtag  DW_TAG_variable, DW_AT_name("devAddr")
     736                      .dwattr $C$DW$124, DW_AT_TI_symbol_name("_devAddr")
     737                      .dwattr $C$DW$124, DW_AT_location[DW_OP_addr _devAddr]
     738                      .dwattr $C$DW$124, DW_AT_type(*$C$DW$T$19)
     739                      .dwattr $C$DW$124, DW_AT_external
     740                      .global _selfwakeupDelay
     741 000080               .bss    _selfwakeupDelay,2,0,2
     742              $C$DW$125       .dwtag  DW_TAG_variable, DW_AT_name("selfwakeupDelay")
     743                      .dwattr $C$DW$125, DW_AT_TI_symbol_name("_selfwakeupDelay")
     744                      .dwattr $C$DW$125, DW_AT_location[DW_OP_addr _selfwakeupDelay]
     745                      .dwattr $C$DW$125, DW_AT_type(*$C$DW$T$97)
     746                      .dwattr $C$DW$125, DW_AT_external
     747                      .global _stopRunning
     748 000082               .bss    _stopRunning,1,0,0
     749              $C$DW$126       .dwtag  DW_TAG_variable, DW_AT_name("stopRunning")
     750                      .dwattr $C$DW$126, DW_AT_TI_symbol_name("_stopRunning")
     751                      .dwattr $C$DW$126, DW_AT_location[DW_OP_addr _stopRunning]
     752                      .dwattr $C$DW$126, DW_AT_type(*$C$DW$T$251)
     753                      .dwattr $C$DW$126, DW_AT_external
     754                      .global _usbDevDisconnect
     755 000083               .bss    _usbDevDisconnect,1,0,0
     756              $C$DW$127       .dwtag  DW_TAG_variable, DW_AT_name("usbDevDisconnect")
     757                      .dwattr $C$DW$127, DW_AT_TI_symbol_name("_usbDevDisconnect")
     758                      .dwattr $C$DW$127, DW_AT_location[DW_OP_addr _usbDevDisconnect]
TMS320C55x Assembler PC v4.4.1 Sat Sep 29 23:08:33 2018

Tools Copyright (c) 1996-2012 Texas Instruments Incorporated
csl_usb_poll_example.asm                                             PAGE   15

     759                      .dwattr $C$DW$127, DW_AT_type(*$C$DW$T$95)
     760                      .dwattr $C$DW$127, DW_AT_external
     761                      .global _usbDataBuffer
     762 000084               .bss    _usbDataBuffer,256,0,0
     763              $C$DW$128       .dwtag  DW_TAG_variable, DW_AT_name("usbDataBuffer")
     764                      .dwattr $C$DW$128, DW_AT_TI_symbol_name("_usbDataBuffer")
     765                      .dwattr $C$DW$128, DW_AT_location[DW_OP_addr _usbDataBuffer]
     766                      .dwattr $C$DW$128, DW_AT_type(*$C$DW$T$244)
     767                      .dwattr $C$DW$128, DW_AT_external
     768                      .global _deviceDesc
     769 000184               .bss    _deviceDesc,9,0,0
     770              $C$DW$129       .dwtag  DW_TAG_variable, DW_AT_name("deviceDesc")
     771                      .dwattr $C$DW$129, DW_AT_TI_symbol_name("_deviceDesc")
     772                      .dwattr $C$DW$129, DW_AT_location[DW_OP_addr _deviceDesc]
     773                      .dwattr $C$DW$129, DW_AT_type(*$C$DW$T$246)
     774                      .dwattr $C$DW$129, DW_AT_external
     775                      .global _cfgDesc
     776 00018d               .bss    _cfgDesc,40,0,0
     777              $C$DW$130       .dwtag  DW_TAG_variable, DW_AT_name("cfgDesc")
     778                      .dwattr $C$DW$130, DW_AT_TI_symbol_name("_cfgDesc")
     779                      .dwattr $C$DW$130, DW_AT_location[DW_OP_addr _cfgDesc]
     780                      .dwattr $C$DW$130, DW_AT_type(*$C$DW$T$247)
     781                      .dwattr $C$DW$130, DW_AT_external
     782                      .global _strDesc
     783 0001b5               .bss    _strDesc,80,0,0
     784              $C$DW$131       .dwtag  DW_TAG_variable, DW_AT_name("strDesc")
     785                      .dwattr $C$DW$131, DW_AT_TI_symbol_name("_strDesc")
     786                      .dwattr $C$DW$131, DW_AT_location[DW_OP_addr _strDesc]
     787                      .dwattr $C$DW$131, DW_AT_type(*$C$DW$T$249)
     788                      .dwattr $C$DW$131, DW_AT_external
     789                      .global _PaSs_StAtE
     790 000205               .bss    _PaSs_StAtE,1,0,0
     791              $C$DW$132       .dwtag  DW_TAG_variable, DW_AT_name("PaSs_StAtE")
     792                      .dwattr $C$DW$132, DW_AT_TI_symbol_name("_PaSs_StAtE")
     793                      .dwattr $C$DW$132, DW_AT_location[DW_OP_addr _PaSs_StAtE]
     794                      .dwattr $C$DW$132, DW_AT_type(*$C$DW$T$235)
     795                      .dwattr $C$DW$132, DW_AT_external
     796                      .global _PaSs
     797 000206               .bss    _PaSs,1,0,0
     798              $C$DW$133       .dwtag  DW_TAG_variable, DW_AT_name("PaSs")
     799                      .dwattr $C$DW$133, DW_AT_TI_symbol_name("_PaSs")
     800                      .dwattr $C$DW$133, DW_AT_location[DW_OP_addr _PaSs]
     801                      .dwattr $C$DW$133, DW_AT_type(*$C$DW$T$235)
     802                      .dwattr $C$DW$133, DW_AT_external
     803                      .global _usb_income_num_bytes
     804 000207               .bss    _usb_income_num_bytes,1,0,0
     805              $C$DW$134       .dwtag  DW_TAG_variable, DW_AT_name("usb_income_num_bytes")
     806                      .dwattr $C$DW$134, DW_AT_TI_symbol_name("_usb_income_num_bytes")
     807                      .dwattr $C$DW$134, DW_AT_location[DW_OP_addr _usb_income_num_bytes]
     808                      .dwattr $C$DW$134, DW_AT_type(*$C$DW$T$19)
     809                      .dwattr $C$DW$134, DW_AT_external
     810              ;       F:\t\cc5p5\ccsv5\tools\compiler\c5500_4.4.1\bin\acp55.exe -@f:\\AppData\\Local\\Temp\\0978812 
     811 000000               .sect   ".text"
     812                      .align 4
     813              
TMS320C55x Assembler PC v4.4.1 Sat Sep 29 23:08:33 2018

Tools Copyright (c) 1996-2012 Texas Instruments Incorporated
csl_usb_poll_example.asm                                             PAGE   16

     814              $C$DW$135       .dwtag  DW_TAG_subprogram, DW_AT_name("USB_dmaRxStart")
     815                      .dwattr $C$DW$135, DW_AT_low_pc(_USB_dmaRxStart)
     816                      .dwattr $C$DW$135, DW_AT_high_pc(0x00)
     817                      .dwattr $C$DW$135, DW_AT_TI_symbol_name("_USB_dmaRxStart")
     818                      .dwattr $C$DW$135, DW_AT_TI_begin_file("F:/eZdsp_DBG/tmp1/c55x-sim2/foo/c5535_bsl_revc/ezdsp5535_v1/c
     819                      .dwattr $C$DW$135, DW_AT_TI_begin_line(0x180)
     820                      .dwattr $C$DW$135, DW_AT_TI_begin_column(0x06)
     821                      .dwattr $C$DW$135, DW_AT_TI_max_frame_size(0x04)
     822                      .dwpsn  file "F:/eZdsp_DBG/tmp1/c55x-sim2/foo/c5535_bsl_revc/ezdsp5535_v1/c55xx_csl/inc/csl_usbAux.h"
     823              
     824                      .dwfde $C$DW$CIE, _USB_dmaRxStart
     825              $C$DW$136       .dwtag  DW_TAG_formal_parameter, DW_AT_name("dwEndpoint")
     826                      .dwattr $C$DW$136, DW_AT_TI_symbol_name("_dwEndpoint")
     827                      .dwattr $C$DW$136, DW_AT_type(*$C$DW$T$98)
     828                      .dwattr $C$DW$136, DW_AT_location[DW_OP_reg0]
     829              ;*******************************************************************************
     830              ;* FUNCTION NAME: USB_dmaRxStart                                               *
     831              ;*                                                                             *
     832              ;*   Function Uses Regs : AC0,AC0,T0,AR1,AR3,SP,M40,SATA,SATD,RDM,FRCT,SMUL    *
     833              ;*   Stack Frame        : Compact (No Frame Pointer, w/ debug)                 *
     834              ;*   Total Frame Size   : 4 words                                              *
     835              ;*                        (1 return address/alignment)                         *
     836              ;*                        (3 local values)                                     *
     837              ;*   Min System Stack   : 1 word                                               *
     838              ;*******************************************************************************
     839 000000       _USB_dmaRxStart:
     840                      .dwcfi  cfa_offset, 1
     841                      .dwcfi  save_reg_to_mem, 91, -1
     842 000000 4EFD          AADD #-3, SP
     843                      .dwcfi  cfa_offset, 4
     844              $C$DW$137       .dwtag  DW_TAG_variable, DW_AT_name("dwEndpoint")
     845                      .dwattr $C$DW$137, DW_AT_TI_symbol_name("_dwEndpoint")
     846                      .dwattr $C$DW$137, DW_AT_type(*$C$DW$T$98)
     847                      .dwattr $C$DW$137, DW_AT_location[DW_OP_bregx 0x24 0]
     848              $C$DW$138       .dwtag  DW_TAG_variable, DW_AT_name("saveIndex")
     849                      .dwattr $C$DW$138, DW_AT_TI_symbol_name("_saveIndex")
     850                      .dwattr $C$DW$138, DW_AT_type(*$C$DW$T$19)
     851                      .dwattr $C$DW$138, DW_AT_location[DW_OP_bregx 0x24 2]
     852 000002 EB00          MOV AC0, dbl(*SP(#0)) ; |385| 
         000004 08   
     853                      .dwpsn  file "F:/eZdsp_DBG/tmp1/c55x-sim2/foo/c5535_bsl_revc/ezdsp5535_v1/c55xx_csl/inc/csl_usbAux.h"
     854 000005 7604          MOV #1038, T0 ; |389| 
         000007 0E48 
     855 000009 AB31          MOV *(#_usbRegisters), AR3 ; |389| 
         00000b 0000 
         00000d 00!  
     856 00000e A96B          MOV port(*AR3(T0)), AR1 ; |389| 
         000010 99   
     857 000011 C904          MOV AR1, *SP(#2) ; |389| 
     858                      .dwpsn  file "F:/eZdsp_DBG/tmp1/c55x-sim2/foo/c5535_bsl_revc/ezdsp5535_v1/c55xx_csl/inc/csl_usbAux.h"
     859 000013 F46B          AND #0xfff0, port(*AR3(T0)) ; |392| 
         000015 FFF0 
         000017 9A   
     860                      .dwpsn  file "F:/eZdsp_DBG/tmp1/c55x-sim2/foo/c5535_bsl_revc/ezdsp5535_v1/c55xx_csl/inc/csl_usbAux.h"
     861 000018 AB31          MOV *(#_usbRegisters), AR3 ; |393| 
TMS320C55x Assembler PC v4.4.1 Sat Sep 29 23:08:33 2018

Tools Copyright (c) 1996-2012 Texas Instruments Incorporated
csl_usb_poll_example.asm                                             PAGE   17

         00001a 0000 
         00001c 00!  
     862 00001d ED00          MOV dbl(*SP(#0)), AC0 ; |393| 
         00001f 08   
     863 000020 DA6B          OR port(*AR3(T0)), AC0, AC0 ; |393| 
         000022 00   
         000023 99   
     864 000024 C06B          MOV AC0, port(*AR3(T0)) ; |393| 
         000026 9A   
     865                      .dwpsn  file "F:/eZdsp_DBG/tmp1/c55x-sim2/foo/c5535_bsl_revc/ezdsp5535_v1/c55xx_csl/inc/csl_usbAux.h"
     866 000027 7604          MOV #1046, T0 ; |396| 
         000029 1648 
     867 00002b AB31          MOV *(#_usbRegisters), AR3 ; |396| 
         00002d 0000 
         00002f 00!  
     868 000030 F46B          AND #0x6fff, port(*AR3(T0)) ; |396| 
         000032 6FFF 
         000034 9A   
     869                      .dwpsn  file "F:/eZdsp_DBG/tmp1/c55x-sim2/foo/c5535_bsl_revc/ezdsp5535_v1/c55xx_csl/inc/csl_usbAux.h"
     870 000035 AB31          MOV *(#_usbRegisters), AR3 ; |399| 
         000037 0000 
         000039 00!  
     871 00003a F56B          OR #0x2000, port(*AR3(T0)) ; |399| 
         00003c 2000 
         00003e 9A   
     872                      .dwpsn  file "F:/eZdsp_DBG/tmp1/c55x-sim2/foo/c5535_bsl_revc/ezdsp5535_v1/c55xx_csl/inc/csl_usbAux.h"
     873 00003f 7604          MOV #1038, T0 ; |402| 
         000041 0E48 
     874 000043 AB31          MOV *(#_usbRegisters), AR3 ; |402| 
         000045 0000 
         000047 00!  
     875 000048 A904          MOV *SP(#2), AR1 ; |402| 
     876 00004a C96B          MOV AR1, port(*AR3(T0)) ; |402| 
         00004c 9A   
     877                      .dwpsn  file "F:/eZdsp_DBG/tmp1/c55x-sim2/foo/c5535_bsl_revc/ezdsp5535_v1/c55xx_csl/inc/csl_usbAux.h"
     878 00004d 4E03          AADD #3, SP
     879                      .dwcfi  cfa_offset, 1
     880              $C$DW$139       .dwtag  DW_TAG_TI_branch
     881                      .dwattr $C$DW$139, DW_AT_low_pc(0x00)
     882                      .dwattr $C$DW$139, DW_AT_TI_return
     883 00004f 4804          RET
     884                                                      ; return occurs
     885                      .dwattr $C$DW$135, DW_AT_TI_end_file("F:/eZdsp_DBG/tmp1/c55x-sim2/foo/c5535_bsl_revc/ezdsp5535_v1/c55
     886                      .dwattr $C$DW$135, DW_AT_TI_end_line(0x193)
     887                      .dwattr $C$DW$135, DW_AT_TI_end_column(0x01)
     888                      .dwendentry
     889                      .dwendtag $C$DW$135
     890              
     891 000051               .sect   ".text"
     892                      .align 4
     893              
     894              $C$DW$140       .dwtag  DW_TAG_subprogram, DW_AT_name("USB_dmaTxStart")
     895                      .dwattr $C$DW$140, DW_AT_low_pc(_USB_dmaTxStart)
     896                      .dwattr $C$DW$140, DW_AT_high_pc(0x00)
     897                      .dwattr $C$DW$140, DW_AT_TI_symbol_name("_USB_dmaTxStart")
TMS320C55x Assembler PC v4.4.1 Sat Sep 29 23:08:33 2018

Tools Copyright (c) 1996-2012 Texas Instruments Incorporated
csl_usb_poll_example.asm                                             PAGE   18

     898                      .dwattr $C$DW$140, DW_AT_TI_begin_file("F:/eZdsp_DBG/tmp1/c55x-sim2/foo/c5535_bsl_revc/ezdsp5535_v1/c
     899                      .dwattr $C$DW$140, DW_AT_TI_begin_line(0x2da)
     900                      .dwattr $C$DW$140, DW_AT_TI_begin_column(0x06)
     901                      .dwattr $C$DW$140, DW_AT_TI_max_frame_size(0x04)
     902                      .dwpsn  file "F:/eZdsp_DBG/tmp1/c55x-sim2/foo/c5535_bsl_revc/ezdsp5535_v1/c55xx_csl/inc/csl_usbAux.h"
     903              
     904                      .dwfde $C$DW$CIE, _USB_dmaTxStart
     905              $C$DW$141       .dwtag  DW_TAG_formal_parameter, DW_AT_name("dwEndpoint")
     906                      .dwattr $C$DW$141, DW_AT_TI_symbol_name("_dwEndpoint")
     907                      .dwattr $C$DW$141, DW_AT_type(*$C$DW$T$98)
     908                      .dwattr $C$DW$141, DW_AT_location[DW_OP_reg0]
     909              ;*******************************************************************************
     910              ;* FUNCTION NAME: USB_dmaTxStart                                               *
     911              ;*                                                                             *
     912              ;*   Function Uses Regs : AC0,AC0,T0,AR1,AR3,SP,M40,SATA,SATD,RDM,FRCT,SMUL    *
     913              ;*   Stack Frame        : Compact (No Frame Pointer, w/ debug)                 *
     914              ;*   Total Frame Size   : 4 words                                              *
     915              ;*                        (1 return address/alignment)                         *
     916              ;*                        (3 local values)                                     *
     917              ;*   Min System Stack   : 1 word                                               *
     918              ;*******************************************************************************
     919 000054       _USB_dmaTxStart:
     920                      .dwcfi  cfa_offset, 1
     921                      .dwcfi  save_reg_to_mem, 91, -1
     922 000054 4EFD          AADD #-3, SP
     923                      .dwcfi  cfa_offset, 4
     924              $C$DW$142       .dwtag  DW_TAG_variable, DW_AT_name("dwEndpoint")
     925                      .dwattr $C$DW$142, DW_AT_TI_symbol_name("_dwEndpoint")
     926                      .dwattr $C$DW$142, DW_AT_type(*$C$DW$T$98)
     927                      .dwattr $C$DW$142, DW_AT_location[DW_OP_bregx 0x24 0]
     928              $C$DW$143       .dwtag  DW_TAG_variable, DW_AT_name("saveIndex")
     929                      .dwattr $C$DW$143, DW_AT_TI_symbol_name("_saveIndex")
     930                      .dwattr $C$DW$143, DW_AT_type(*$C$DW$T$19)
     931                      .dwattr $C$DW$143, DW_AT_location[DW_OP_bregx 0x24 2]
     932 000056 EB00          MOV AC0, dbl(*SP(#0)) ; |731| 
         000058 08   
     933                      .dwpsn  file "F:/eZdsp_DBG/tmp1/c55x-sim2/foo/c5535_bsl_revc/ezdsp5535_v1/c55xx_csl/inc/csl_usbAux.h"
     934 000059 7604          MOV #1038, T0 ; |735| 
         00005b 0E48 
     935 00005d AB31          MOV *(#_usbRegisters), AR3 ; |735| 
         00005f 0000 
         000061 00!  
     936 000062 A96B          MOV port(*AR3(T0)), AR1 ; |735| 
         000064 99   
     937 000065 C904          MOV AR1, *SP(#2) ; |735| 
     938                      .dwpsn  file "F:/eZdsp_DBG/tmp1/c55x-sim2/foo/c5535_bsl_revc/ezdsp5535_v1/c55xx_csl/inc/csl_usbAux.h"
     939 000067 F46B          AND #0xfff0, port(*AR3(T0)) ; |738| 
         000069 FFF0 
         00006b 9A   
     940                      .dwpsn  file "F:/eZdsp_DBG/tmp1/c55x-sim2/foo/c5535_bsl_revc/ezdsp5535_v1/c55xx_csl/inc/csl_usbAux.h"
     941 00006c AB31          MOV *(#_usbRegisters), AR3 ; |739| 
         00006e 0000 
         000070 00!  
     942 000071 ED00          MOV dbl(*SP(#0)), AC0 ; |739| 
         000073 08   
TMS320C55x Assembler PC v4.4.1 Sat Sep 29 23:08:33 2018

Tools Copyright (c) 1996-2012 Texas Instruments Incorporated
csl_usb_poll_example.asm                                             PAGE   19

     943 000074 DA6B          OR port(*AR3(T0)), AC0, AC0 ; |739| 
         000076 00   
         000077 99   
     944 000078 C06B          MOV AC0, port(*AR3(T0)) ; |739| 
         00007a 9A   
     945                      .dwpsn  file "F:/eZdsp_DBG/tmp1/c55x-sim2/foo/c5535_bsl_revc/ezdsp5535_v1/c55xx_csl/inc/csl_usbAux.h"
     946 00007b 7604          MOV #1042, T0 ; |742| 
         00007d 1248 
     947 00007f AB31          MOV *(#_usbRegisters), AR3 ; |742| 
         000081 0000 
         000083 00!  
     948 000084 A96B          MOV port(*AR3(T0)), AR1 ; |742| 
         000086 99   
     949 000087 EC06          BCLR @#3, AR1 ; |742| 
         000089 92   
     950 00008a EC06          BSET @#3, AR1 ; |742| 
         00008c 90   
     951 00008d C96B          MOV AR1, port(*AR3(T0)) ; |742| 
         00008f 9A   
     952                      .dwpsn  file "F:/eZdsp_DBG/tmp1/c55x-sim2/foo/c5535_bsl_revc/ezdsp5535_v1/c55xx_csl/inc/csl_usbAux.h"
     953 000090 AB31          MOV *(#_usbRegisters), AR3 ; |745| 
         000092 0000 
         000094 00!  
     954 000095 F46B          AND #0x7fff, port(*AR3(T0)) ; |745| 
         000097 7FFF 
         000099 9A   
     955                      .dwpsn  file "F:/eZdsp_DBG/tmp1/c55x-sim2/foo/c5535_bsl_revc/ezdsp5535_v1/c55xx_csl/inc/csl_usbAux.h"
     956 00009a AB31          MOV *(#_usbRegisters), AR3 ; |746| 
         00009c 0000 
         00009e 00!  
     957 00009f F56B          OR #0x1000, port(*AR3(T0)) ; |746| 
         0000a1 1000 
         0000a3 9A   
     958                      .dwpsn  file "F:/eZdsp_DBG/tmp1/c55x-sim2/foo/c5535_bsl_revc/ezdsp5535_v1/c55xx_csl/inc/csl_usbAux.h"
     959 0000a4 AB31          MOV *(#_usbRegisters), AR3 ; |749| 
         0000a6 0000 
         0000a8 00!  
     960 0000a9 F56B          OR #0x1000, port(*AR3(T0)) ; |749| 
         0000ab 1000 
         0000ad 9A   
     961                      .dwpsn  file "F:/eZdsp_DBG/tmp1/c55x-sim2/foo/c5535_bsl_revc/ezdsp5535_v1/c55xx_csl/inc/csl_usbAux.h"
     962 0000ae 7604          MOV #1038, T0 ; |752| 
         0000b0 0E48 
     963 0000b2 AB31          MOV *(#_usbRegisters), AR3 ; |752| 
         0000b4 0000 
         0000b6 00!  
     964 0000b7 A904          MOV *SP(#2), AR1 ; |752| 
     965 0000b9 C96B          MOV AR1, port(*AR3(T0)) ; |752| 
         0000bb 9A   
     966                      .dwpsn  file "F:/eZdsp_DBG/tmp1/c55x-sim2/foo/c5535_bsl_revc/ezdsp5535_v1/c55xx_csl/inc/csl_usbAux.h"
     967 0000bc 4E03          AADD #3, SP
     968                      .dwcfi  cfa_offset, 1
     969              $C$DW$144       .dwtag  DW_TAG_TI_branch
     970                      .dwattr $C$DW$144, DW_AT_low_pc(0x00)
     971                      .dwattr $C$DW$144, DW_AT_TI_return
TMS320C55x Assembler PC v4.4.1 Sat Sep 29 23:08:33 2018

Tools Copyright (c) 1996-2012 Texas Instruments Incorporated
csl_usb_poll_example.asm                                             PAGE   20

     972 0000be 4804          RET
     973                                                      ; return occurs
     974                      .dwattr $C$DW$140, DW_AT_TI_end_file("F:/eZdsp_DBG/tmp1/c55x-sim2/foo/c5535_bsl_revc/ezdsp5535_v1/c55
     975                      .dwattr $C$DW$140, DW_AT_TI_end_line(0x2f1)
     976                      .dwattr $C$DW$140, DW_AT_TI_end_column(0x01)
     977                      .dwendentry
     978                      .dwendtag $C$DW$140
     979              
     980 0000c0               .sect   ".text"
     981                      .align 4
     982              
     983              $C$DW$145       .dwtag  DW_TAG_subprogram, DW_AT_name("USB_processEP0Out")
     984                      .dwattr $C$DW$145, DW_AT_low_pc(_USB_processEP0Out)
     985                      .dwattr $C$DW$145, DW_AT_high_pc(0x00)
     986                      .dwattr $C$DW$145, DW_AT_TI_symbol_name("_USB_processEP0Out")
     987                      .dwattr $C$DW$145, DW_AT_type(*$C$DW$T$89)
     988                      .dwattr $C$DW$145, DW_AT_TI_begin_file("F:/eZdsp_DBG/tmp1/c55x-sim2/foo/c5535_bsl_revc/ezdsp5535_v1/c
     989                      .dwattr $C$DW$145, DW_AT_TI_begin_line(0x511)
     990                      .dwattr $C$DW$145, DW_AT_TI_begin_column(0x0c)
     991                      .dwattr $C$DW$145, DW_AT_TI_max_frame_size(0x0a)
     992                      .dwpsn  file "F:/eZdsp_DBG/tmp1/c55x-sim2/foo/c5535_bsl_revc/ezdsp5535_v1/c55xx_csl/inc/csl_usbAux.h"
     993              
     994                      .dwfde $C$DW$CIE, _USB_processEP0Out
     995              $C$DW$146       .dwtag  DW_TAG_formal_parameter, DW_AT_name("pContext")
     996                      .dwattr $C$DW$146, DW_AT_TI_symbol_name("_pContext")
     997                      .dwattr $C$DW$146, DW_AT_type(*$C$DW$T$167)
     998                      .dwattr $C$DW$146, DW_AT_location[DW_OP_reg17]
     999              ;*******************************************************************************
    1000              ;* FUNCTION NAME: USB_processEP0Out                                            *
    1001              ;*                                                                             *
    1002              ;*   Function Uses Regs : AC0,AC0,AC1,AC1,T0,AR0,XAR0,AR1,XAR1,AR2,XAR2,AR3,   *
    1003              ;*                        XAR3,SP,CARRY,TC1,M40,SATA,SATD,RDM,FRCT,SMUL        *
    1004              ;*   Stack Frame        : Compact (No Frame Pointer, w/ debug)                 *
    1005              ;*   Total Frame Size   : 10 words                                             *
    1006              ;*                        (1 return address/alignment)                         *
    1007              ;*                        (9 local values)                                     *
    1008              ;*   Min System Stack   : 1 word                                               *
    1009              ;*******************************************************************************
    1010 0000c0       _USB_processEP0Out:
    1011                      .dwcfi  cfa_offset, 1
    1012                      .dwcfi  save_reg_to_mem, 91, -1
    1013 0000c0 4EF7          AADD #-9, SP
    1014                      .dwcfi  cfa_offset, 10
    1015              $C$DW$147       .dwtag  DW_TAG_variable, DW_AT_name("pContext")
    1016                      .dwattr $C$DW$147, DW_AT_TI_symbol_name("_pContext")
    1017                      .dwattr $C$DW$147, DW_AT_type(*$C$DW$T$167)
    1018                      .dwattr $C$DW$147, DW_AT_location[DW_OP_bregx 0x24 0]
    1019              $C$DW$148       .dwtag  DW_TAG_variable, DW_AT_name("peps")
    1020                      .dwattr $C$DW$148, DW_AT_TI_symbol_name("_peps")
    1021                      .dwattr $C$DW$148, DW_AT_type(*$C$DW$T$171)
    1022                      .dwattr $C$DW$148, DW_AT_location[DW_OP_bregx 0x24 2]
    1023              $C$DW$149       .dwtag  DW_TAG_variable, DW_AT_name("pTransfer")
    1024                      .dwattr $C$DW$149, DW_AT_TI_symbol_name("_pTransfer")
    1025                      .dwattr $C$DW$149, DW_AT_type(*$C$DW$T$173)
    1026                      .dwattr $C$DW$149, DW_AT_location[DW_OP_bregx 0x24 4]
TMS320C55x Assembler PC v4.4.1 Sat Sep 29 23:08:33 2018

Tools Copyright (c) 1996-2012 Texas Instruments Incorporated
csl_usb_poll_example.asm                                             PAGE   21

    1027              $C$DW$150       .dwtag  DW_TAG_variable, DW_AT_name("pwBuffer")
    1028                      .dwattr $C$DW$150, DW_AT_TI_symbol_name("_pwBuffer")
    1029                      .dwattr $C$DW$150, DW_AT_type(*$C$DW$T$96)
    1030                      .dwattr $C$DW$150, DW_AT_location[DW_OP_bregx 0x24 6]
    1031              $C$DW$151       .dwtag  DW_TAG_variable, DW_AT_name("status")
    1032                      .dwattr $C$DW$151, DW_AT_TI_symbol_name("_status")
    1033                      .dwattr $C$DW$151, DW_AT_type(*$C$DW$T$89)
    1034                      .dwattr $C$DW$151, DW_AT_location[DW_OP_bregx 0x24 8]
    1035 0000c2 EB00          MOV XAR0, dbl(*SP(#0))
         0000c4 85   
    1036                      .dwpsn  file "F:/eZdsp_DBG/tmp1/c55x-sim2/foo/c5535_bsl_revc/ezdsp5535_v1/c55xx_csl/inc/csl_usbAux.h"
    1037 0000c5 E610          MOV #0, *SP(#8) ; |1304| 
         0000c7 00   
    1038                      .dwpsn  file "F:/eZdsp_DBG/tmp1/c55x-sim2/foo/c5535_bsl_revc/ezdsp5535_v1/c55xx_csl/inc/csl_usbAux.h"
    1039 0000c8 ED00          MOV dbl(*SP(#0)), XAR3
         0000ca BF   
    1040 0000cb 90B0          MOV XAR3, AC0
    1041 0000cd 6D00          BCC $C$L4,AC0 == #0 ; |1306| 
         0000cf 00A9 
    1042                                                      ; branchcc occurs ; |1306| 
    1043                      .dwpsn  file "F:/eZdsp_DBG/tmp1/c55x-sim2/foo/c5535_bsl_revc/ezdsp5535_v1/c55xx_csl/inc/csl_usbAux.h"
    1044 0000d1 ED6D          MOV dbl(*AR3(#98)), XAR3
         0000d3 BF00 
         0000d5 62   
    1045 0000d6 EB04          MOV XAR3, dbl(*SP(#2))
         0000d8 B5   
    1046                      .dwpsn  file "F:/eZdsp_DBG/tmp1/c55x-sim2/foo/c5535_bsl_revc/ezdsp5535_v1/c55xx_csl/inc/csl_usbAux.h"
    1047 0000d9 ED6D          MOV dbl(*AR3(#10)), XAR3
         0000db BF00 
         0000dd 0A   
    1048 0000de EB08          MOV XAR3, dbl(*SP(#4))
         0000e0 B5   
    1049                      .dwpsn  file "F:/eZdsp_DBG/tmp1/c55x-sim2/foo/c5535_bsl_revc/ezdsp5535_v1/c55xx_csl/inc/csl_usbAux.h"
    1050 0000e1 90B0          MOV XAR3, AC0
    1051 0000e3 6D00          BCC $C$L3,AC0 == #0 ; |1311| 
         0000e5 008E 
    1052                                                      ; branchcc occurs ; |1311| 
    1053 0000e7 A96D          MOV *AR3(#12), AR1 ; |1311| 
         0000e9 000C 
    1054 0000eb 6D19          BCC $C$L3,AR1 != #0 ; |1311| 
         0000ed 0086 
    1055                                                      ; branchcc occurs ; |1311| 
    1056                      .dwpsn  file "F:/eZdsp_DBG/tmp1/c55x-sim2/foo/c5535_bsl_revc/ezdsp5535_v1/c55xx_csl/inc/csl_usbAux.h"
    1057 0000ef ED6D          MOV dbl(*AR3(#8)), AC0 ; |1314| 
         0000f1 0800 
         0000f3 08   
    1058 0000f4 ED79          MOV dbl(*AR3(short(#4))), XAR3
         0000f6 BF   
    1059 0000f7 5001          SFTL AC0, #-1 ; |1314| 
    1060 0000f9 2209          MOV AC0, AR1 ; |1314| 
    1061              
    1062 0000fb 8E0C          MOV XAR3, dbl(*SP(#6))
         0000fd BB10 
         0000ff B590 
    1063              ||      AADD AR1, AR3 ; |1314| 
TMS320C55x Assembler PC v4.4.1 Sat Sep 29 23:08:33 2018

Tools Copyright (c) 1996-2012 Texas Instruments Incorporated
csl_usb_poll_example.asm                                             PAGE   22

    1064              
    1065                      .dwpsn  file "F:/eZdsp_DBG/tmp1/c55x-sim2/foo/c5535_bsl_revc/ezdsp5535_v1/c55xx_csl/inc/csl_usbAux.h"
    1066 000101 ED08          MOV dbl(*SP(#4)), XAR3
         000103 BF   
    1067 000104 ED7D          MOV dbl(*AR3(short(#6))), AC0 ; |1323| 
         000106 08   
    1068 000107 ED00          MOV dbl(*SP(#0)), XAR3
         000109 BF   
    1069 00010a DF6D          MOV uns(*AR3(#24)), AC1 ; |1323| 
         00010c 1500 
         00010e 18   
    1070 00010f 1218          CMPU AC1 >= AC0, TC1 ; |1323| 
         000111 04   
    1071 000112 63E4          BCC $C$L1,TC1 ; |1323| 
    1072                                                      ; branchcc occurs ; |1323| 
    1073 000114 DF6D          MOV uns(*AR3(#24)), AC0 ; |1323| 
         000116 0500 
         000118 18   
    1074 000119 4A06          B $C$L2   ; |1323| 
    1075                                                      ; branch occurs ; |1323| 
    1076 00011b       $C$L1:    
    1077 00011b ED08          MOV dbl(*SP(#4)), XAR3
         00011d BF   
    1078 00011e ED7D          MOV dbl(*AR3(short(#6))), AC0 ; |1323| 
         000120 08   
    1079 000121       $C$L2:    
    1080 000121 ED08          MOV dbl(*SP(#4)), XAR3
         000123 BF   
    1081 000124 EB6D          MOV AC0, dbl(*AR3(#8)) ; |1323| 
         000126 0800 
         000128 08   
    1082                      .dwpsn  file "F:/eZdsp_DBG/tmp1/c55x-sim2/foo/c5535_bsl_revc/ezdsp5535_v1/c55xx_csl/inc/csl_usbAux.h"
    1083 000129 ED08          MOV dbl(*SP(#4)), XAR3
         00012b BF   
    1084 00012c ED00          MOV dbl(*SP(#0)), XAR1
         00012e 9F   
    1085 00012f ED0C          MOV dbl(*SP(#6)), XAR0
         000131 8F   
    1086 000132 ED6D          MOV dbl(*AR3(#8)), AC0 ; |1326| 
         000134 0800 
         000136 08   
    1087 000137 4010          ADD #1, AC0 ; |1326| 
    1088              
    1089 00013c 5101          SFTL AC0, #-1 ; |1326| 
    1090 000139 141A  ||      AADD #26, AR1 ; |1326| 
         00013b 94   
    1091              
    1092              $C$DW$152       .dwtag  DW_TAG_TI_branch
    1093                      .dwattr $C$DW$152, DW_AT_low_pc(0x00)
    1094                      .dwattr $C$DW$152, DW_AT_name("_memcpy")
    1095                      .dwattr $C$DW$152, DW_AT_TI_call
    1096              
    1097 00013e 6C00          CALL #_memcpy ; |1326| 
         000140 0000!
    1098 000142 2304  ||      MOV AC0, T0 ; |1326| 
TMS320C55x Assembler PC v4.4.1 Sat Sep 29 23:08:33 2018

Tools Copyright (c) 1996-2012 Texas Instruments Incorporated
csl_usb_poll_example.asm                                             PAGE   23

    1099              
    1100                                                      ; call occurs [#_memcpy] ; |1326| 
    1101                      .dwpsn  file "F:/eZdsp_DBG/tmp1/c55x-sim2/foo/c5535_bsl_revc/ezdsp5535_v1/c55xx_csl/inc/csl_usbAux.h"
    1102 000144 ED00          MOV dbl(*SP(#0)), XAR3
         000146 BF   
    1103 000147 E679          MOV #0, *AR3(short(#4)) ; |1329| 
         000149 00   
    1104                      .dwpsn  file "F:/eZdsp_DBG/tmp1/c55x-sim2/foo/c5535_bsl_revc/ezdsp5535_v1/c55xx_csl/inc/csl_usbAux.h"
    1105 00014a ED08          MOV dbl(*SP(#4)), XAR3
         00014c BF   
    1106 00014d E66D          MOV #1, *AR3(#12) ; |1330| 
         00014f 0100 
         000151 0C   
    1107                      .dwpsn  file "F:/eZdsp_DBG/tmp1/c55x-sim2/foo/c5535_bsl_revc/ezdsp5535_v1/c55xx_csl/inc/csl_usbAux.h"
    1108 000152 ED08          MOV dbl(*SP(#4)), XAR2
         000154 AF   
    1109 000155 ED08          MOV dbl(*SP(#4)), XAR3
         000157 BF   
    1110              
    1111 000158 1408          AADD #8, AR3 ; |1331| 
         00015a B4   
    1112 00015b 150A  ||      AADD #10, AR2 ; |1331| 
         00015d AC   
    1113              
    1114 00015e 8061          MOV dbl(*AR3), dbl(*AR2) ; |1331| 
         000160 00   
    1115                      .dwpsn  file "F:/eZdsp_DBG/tmp1/c55x-sim2/foo/c5535_bsl_revc/ezdsp5535_v1/c55xx_csl/inc/csl_usbAux.h"
    1116 000161 ED00          MOV dbl(*SP(#0)), XAR3
         000163 BF   
    1117 000164 ED00          MOV dbl(*SP(#0)), XAR0
         000166 8F   
    1118 000167 ED04          MOV dbl(*SP(#2)), XAR1
         000169 9F   
    1119 00016a ED6D          MOV dbl(*AR3(#116)), AC0 ; |1337| 
         00016c 0800 
         00016e 74   
    1120              $C$DW$153       .dwtag  DW_TAG_TI_branch
    1121                      .dwattr $C$DW$153, DW_AT_low_pc(0x00)
    1122                      .dwattr $C$DW$153, DW_AT_TI_call
    1123                      .dwattr $C$DW$153, DW_AT_TI_indirect
    1124 00016f 9200          CALL AC0  ; |1337| 
    1125                                                      ; call occurs [AC0] ; |1337| 
    1126 000171 C410          MOV T0, *SP(#8) ; |1337| 
    1127                      .dwpsn  file "F:/eZdsp_DBG/tmp1/c55x-sim2/foo/c5535_bsl_revc/ezdsp5535_v1/c55xx_csl/inc/csl_usbAux.h"
    1128 000173 4A08          B $C$L5   ; |1338| 
    1129                                                      ; branch occurs ; |1338| 
    1130 000175       $C$L3:    
    1131                      .dwpsn  file "F:/eZdsp_DBG/tmp1/c55x-sim2/foo/c5535_bsl_revc/ezdsp5535_v1/c55xx_csl/inc/csl_usbAux.h"
    1132 000175 E610          MOV #-6, *SP(#8) ; |1341| 
         000177 FA   
    1133                      .dwpsn  file "F:/eZdsp_DBG/tmp1/c55x-sim2/foo/c5535_bsl_revc/ezdsp5535_v1/c55xx_csl/inc/csl_usbAux.h"
    1134 000178 4A03          B $C$L5   ; |1343| 
    1135                                                      ; branch occurs ; |1343| 
    1136 00017a       $C$L4:    
    1137                      .dwpsn  file "F:/eZdsp_DBG/tmp1/c55x-sim2/foo/c5535_bsl_revc/ezdsp5535_v1/c55xx_csl/inc/csl_usbAux.h"
TMS320C55x Assembler PC v4.4.1 Sat Sep 29 23:08:33 2018

Tools Copyright (c) 1996-2012 Texas Instruments Incorporated
csl_usb_poll_example.asm                                             PAGE   24

    1138 00017a E610          MOV #-6, *SP(#8) ; |1346| 
         00017c FA   
    1139 00017d       $C$L5:    
    1140                      .dwpsn  file "F:/eZdsp_DBG/tmp1/c55x-sim2/foo/c5535_bsl_revc/ezdsp5535_v1/c55xx_csl/inc/csl_usbAux.h"
    1141 00017d A410          MOV *SP(#8), T0 ; |1348| 
    1142                      .dwpsn  file "F:/eZdsp_DBG/tmp1/c55x-sim2/foo/c5535_bsl_revc/ezdsp5535_v1/c55xx_csl/inc/csl_usbAux.h"
    1143 00017f 4E09          AADD #9, SP
    1144                      .dwcfi  cfa_offset, 1
    1145              $C$DW$154       .dwtag  DW_TAG_TI_branch
    1146                      .dwattr $C$DW$154, DW_AT_low_pc(0x00)
    1147                      .dwattr $C$DW$154, DW_AT_TI_return
    1148 000181 4804          RET
    1149                                                      ; return occurs
    1150                      .dwattr $C$DW$145, DW_AT_TI_end_file("F:/eZdsp_DBG/tmp1/c55x-sim2/foo/c5535_bsl_revc/ezdsp5535_v1/c55
    1151                      .dwattr $C$DW$145, DW_AT_TI_end_line(0x545)
    1152                      .dwattr $C$DW$145, DW_AT_TI_end_column(0x01)
    1153                      .dwendentry
    1154                      .dwendtag $C$DW$145
    1155              
    1156 000183               .sect   ".text"
    1157                      .align 4
    1158              
    1159              $C$DW$155       .dwtag  DW_TAG_subprogram, DW_AT_name("USB_processEP0In")
    1160                      .dwattr $C$DW$155, DW_AT_low_pc(_USB_processEP0In)
    1161                      .dwattr $C$DW$155, DW_AT_high_pc(0x00)
    1162                      .dwattr $C$DW$155, DW_AT_TI_symbol_name("_USB_processEP0In")
    1163                      .dwattr $C$DW$155, DW_AT_type(*$C$DW$T$89)
    1164                      .dwattr $C$DW$155, DW_AT_TI_begin_file("F:/eZdsp_DBG/tmp1/c55x-sim2/foo/c5535_bsl_revc/ezdsp5535_v1/c
    1165                      .dwattr $C$DW$155, DW_AT_TI_begin_line(0x576)
    1166                      .dwattr $C$DW$155, DW_AT_TI_begin_column(0x0c)
    1167                      .dwattr $C$DW$155, DW_AT_TI_max_frame_size(0x12)
    1168                      .dwpsn  file "F:/eZdsp_DBG/tmp1/c55x-sim2/foo/c5535_bsl_revc/ezdsp5535_v1/c55xx_csl/inc/csl_usbAux.h"
    1169              
    1170                      .dwfde $C$DW$CIE, _USB_processEP0In
    1171              $C$DW$156       .dwtag  DW_TAG_formal_parameter, DW_AT_name("pContext")
    1172                      .dwattr $C$DW$156, DW_AT_TI_symbol_name("_pContext")
    1173                      .dwattr $C$DW$156, DW_AT_type(*$C$DW$T$167)
    1174                      .dwattr $C$DW$156, DW_AT_location[DW_OP_reg17]
    1175              ;*******************************************************************************
    1176              ;* FUNCTION NAME: USB_processEP0In                                             *
    1177              ;*                                                                             *
    1178              ;*   Function Uses Regs : AC0,AC0,AC1,AC1,T0,AR0,XAR0,AR1,XAR1,AR2,AR3,XAR3,   *
    1179              ;*                        AR4,SP,CARRY,TC1,M40,SATA,SATD,RDM,FRCT,SMUL         *
    1180              ;*   Stack Frame        : Compact (No Frame Pointer, w/ debug)                 *
    1181              ;*   Total Frame Size   : 18 words                                             *
    1182              ;*                        (2 return address/alignment)                         *
    1183              ;*                        (16 local values)                                    *
    1184              ;*   Min System Stack   : 1 word                                               *
    1185              ;*******************************************************************************
    1186 000184       _USB_processEP0In:
    1187                      .dwcfi  cfa_offset, 1
    1188                      .dwcfi  save_reg_to_mem, 91, -1
    1189 000184 4EEF          AADD #-17, SP
    1190                      .dwcfi  cfa_offset, 18
    1191              $C$DW$157       .dwtag  DW_TAG_variable, DW_AT_name("pContext")
TMS320C55x Assembler PC v4.4.1 Sat Sep 29 23:08:33 2018

Tools Copyright (c) 1996-2012 Texas Instruments Incorporated
csl_usb_poll_example.asm                                             PAGE   25

    1192                      .dwattr $C$DW$157, DW_AT_TI_symbol_name("_pContext")
    1193                      .dwattr $C$DW$157, DW_AT_type(*$C$DW$T$167)
    1194                      .dwattr $C$DW$157, DW_AT_location[DW_OP_bregx 0x24 0]
    1195              $C$DW$158       .dwtag  DW_TAG_variable, DW_AT_name("peps")
    1196                      .dwattr $C$DW$158, DW_AT_TI_symbol_name("_peps")
    1197                      .dwattr $C$DW$158, DW_AT_type(*$C$DW$T$171)
    1198                      .dwattr $C$DW$158, DW_AT_location[DW_OP_bregx 0x24 2]
    1199              $C$DW$159       .dwtag  DW_TAG_variable, DW_AT_name("pTransfer")
    1200                      .dwattr $C$DW$159, DW_AT_TI_symbol_name("_pTransfer")
    1201                      .dwattr $C$DW$159, DW_AT_type(*$C$DW$T$173)
    1202                      .dwattr $C$DW$159, DW_AT_location[DW_OP_bregx 0x24 4]
    1203              $C$DW$160       .dwtag  DW_TAG_variable, DW_AT_name("status")
    1204                      .dwattr $C$DW$160, DW_AT_TI_symbol_name("_status")
    1205                      .dwattr $C$DW$160, DW_AT_type(*$C$DW$T$89)
    1206                      .dwattr $C$DW$160, DW_AT_location[DW_OP_bregx 0x24 6]
    1207              $C$DW$161       .dwtag  DW_TAG_variable, DW_AT_name("pwBuffer")
    1208                      .dwattr $C$DW$161, DW_AT_TI_symbol_name("_pwBuffer")
    1209                      .dwattr $C$DW$161, DW_AT_type(*$C$DW$T$241)
    1210                      .dwattr $C$DW$161, DW_AT_location[DW_OP_bregx 0x24 8]
    1211              $C$DW$162       .dwtag  DW_TAG_variable, DW_AT_name("cbBuffer")
    1212                      .dwattr $C$DW$162, DW_AT_TI_symbol_name("_cbBuffer")
    1213                      .dwattr $C$DW$162, DW_AT_type(*$C$DW$T$98)
    1214                      .dwattr $C$DW$162, DW_AT_location[DW_OP_bregx 0x24 10]
    1215              $C$DW$163       .dwtag  DW_TAG_variable, DW_AT_name("cbToWrite")
    1216                      .dwattr $C$DW$163, DW_AT_TI_symbol_name("_cbToWrite")
    1217                      .dwattr $C$DW$163, DW_AT_type(*$C$DW$T$94)
    1218                      .dwattr $C$DW$163, DW_AT_location[DW_OP_bregx 0x24 12]
    1219              $C$DW$164       .dwtag  DW_TAG_variable, DW_AT_name("count")
    1220                      .dwattr $C$DW$164, DW_AT_TI_symbol_name("_count")
    1221                      .dwattr $C$DW$164, DW_AT_type(*$C$DW$T$19)
    1222                      .dwattr $C$DW$164, DW_AT_location[DW_OP_bregx 0x24 13]
    1223              $C$DW$165       .dwtag  DW_TAG_variable, DW_AT_name("flag")
    1224                      .dwattr $C$DW$165, DW_AT_TI_symbol_name("_flag")
    1225                      .dwattr $C$DW$165, DW_AT_type(*$C$DW$T$19)
    1226                      .dwattr $C$DW$165, DW_AT_location[DW_OP_bregx 0x24 14]
    1227              $C$DW$166       .dwtag  DW_TAG_variable, DW_AT_name("saveIndex")
    1228                      .dwattr $C$DW$166, DW_AT_TI_symbol_name("_saveIndex")
    1229                      .dwattr $C$DW$166, DW_AT_type(*$C$DW$T$19)
    1230                      .dwattr $C$DW$166, DW_AT_location[DW_OP_bregx 0x24 15]
    1231 000186 EB00          MOV XAR0, dbl(*SP(#0))
         000188 85   
    1232                      .dwpsn  file "F:/eZdsp_DBG/tmp1/c55x-sim2/foo/c5535_bsl_revc/ezdsp5535_v1/c55xx_csl/inc/csl_usbAux.h"
    1233 000189 E61C          MOV #0, *SP(#14) ; |1410| 
         00018b 00   
    1234                      .dwpsn  file "F:/eZdsp_DBG/tmp1/c55x-sim2/foo/c5535_bsl_revc/ezdsp5535_v1/c55xx_csl/inc/csl_usbAux.h"
    1235 00018c E60C          MOV #0, *SP(#6) ; |1411| 
         00018e 00   
    1236                      .dwpsn  file "F:/eZdsp_DBG/tmp1/c55x-sim2/foo/c5535_bsl_revc/ezdsp5535_v1/c55xx_csl/inc/csl_usbAux.h"
    1237 00018f ED00          MOV dbl(*SP(#0)), XAR3
         000191 BF   
    1238 000192 90B0          MOV XAR3, AC0
    1239 000194 6D00          BCC $C$L18,AC0 == #0 ; |1413| 
         000196 01BF 
    1240                                                      ; branchcc occurs ; |1413| 
    1241                      .dwpsn  file "F:/eZdsp_DBG/tmp1/c55x-sim2/foo/c5535_bsl_revc/ezdsp5535_v1/c55xx_csl/inc/csl_usbAux.h"
TMS320C55x Assembler PC v4.4.1 Sat Sep 29 23:08:33 2018

Tools Copyright (c) 1996-2012 Texas Instruments Incorporated
csl_usb_poll_example.asm                                             PAGE   26

    1242 000198 ED6D          MOV dbl(*AR3(#98)), XAR3
         00019a BF00 
         00019c 62   
    1243 00019d EB04          MOV XAR3, dbl(*SP(#2))
         00019f B5   
    1244                      .dwpsn  file "F:/eZdsp_DBG/tmp1/c55x-sim2/foo/c5535_bsl_revc/ezdsp5535_v1/c55xx_csl/inc/csl_usbAux.h"
    1245 0001a0 ED6D          MOV dbl(*AR3(#10)), XAR3
         0001a2 BF00 
         0001a4 0A   
    1246 0001a5 EB08          MOV XAR3, dbl(*SP(#4))
         0001a7 B5   
    1247                      .dwpsn  file "F:/eZdsp_DBG/tmp1/c55x-sim2/foo/c5535_bsl_revc/ezdsp5535_v1/c55xx_csl/inc/csl_usbAux.h"
    1248 0001a8 90B0          MOV XAR3, AC0
    1249 0001aa 6D00          BCC $C$L17,AC0 == #0 ; |1418| 
         0001ac 01A4 
    1250                                                      ; branchcc occurs ; |1418| 
    1251 0001ae A96D          MOV *AR3(#12), AR1 ; |1418| 
         0001b0 000C 
    1252 0001b2 6D19          BCC $C$L17,AR1 != #0 ; |1418| 
         0001b4 019C 
    1253                                                      ; branchcc occurs ; |1418| 
    1254                      .dwpsn  file "F:/eZdsp_DBG/tmp1/c55x-sim2/foo/c5535_bsl_revc/ezdsp5535_v1/c55xx_csl/inc/csl_usbAux.h"
    1255 0001b6 ED6D          MOV dbl(*AR3(#8)), AC0 ; |1421| 
         0001b8 0800 
         0001ba 08   
    1256 0001bb ED79          MOV dbl(*AR3(short(#4))), XAR3
         0001bd BF   
    1257 0001be 5001          SFTL AC0, #-1 ; |1421| 
    1258 0001c0 2209          MOV AC0, AR1 ; |1421| 
    1259              
    1260 0001c2 8E10          MOV XAR3, dbl(*SP(#8))
         0001c4 BB10 
         0001c6 B590 
    1261              ||      AADD AR1, AR3 ; |1421| 
    1262              
    1263                      .dwpsn  file "F:/eZdsp_DBG/tmp1/c55x-sim2/foo/c5535_bsl_revc/ezdsp5535_v1/c55xx_csl/inc/csl_usbAux.h"
    1264 0001c8 ED08          MOV dbl(*SP(#4)), XAR3
         0001ca BF   
    1265 0001cb ED6D          MOV dbl(*AR3(#8)), AC0 ; |1422| 
         0001cd 0800 
         0001cf 08   
    1266 0001d0 ED7D          SUB AC0, dbl(*AR3(short(#6))), AC0 ; |1422| 
         0001d2 04   
    1267 0001d3 EB14          MOV AC0, dbl(*SP(#10)) ; |1422| 
         0001d5 08   
    1268                      .dwpsn  file "F:/eZdsp_DBG/tmp1/c55x-sim2/foo/c5535_bsl_revc/ezdsp5535_v1/c55xx_csl/inc/csl_usbAux.h"
    1269 0001d6 ED04          MOV dbl(*SP(#2)), XAR3
         0001d8 BF   
    1270 0001d9 ED14          MOV dbl(*SP(#10)), AC1 ; |1430| 
         0001db 18   
    1271 0001dc ED79          MOV dbl(*AR3(short(#4))), AC0 ; |1430| 
         0001de 08   
    1272 0001df 1218          CMPU AC1 >= AC0, TC1 ; |1430| 
         0001e1 04   
    1273 0001e2 62E4          BCC $C$L6,TC1 ; |1430| 
TMS320C55x Assembler PC v4.4.1 Sat Sep 29 23:08:33 2018

Tools Copyright (c) 1996-2012 Texas Instruments Incorporated
csl_usb_poll_example.asm                                             PAGE   27

    1274                                                      ; branchcc occurs ; |1430| 
    1275 0001e4 ED14          MOV dbl(*SP(#10)), AC0 ; |1430| 
         0001e6 08   
    1276 0001e7 4A03          B $C$L7   ; |1430| 
    1277                                                      ; branch occurs ; |1430| 
    1278 0001e9       $C$L6:    
    1279 0001e9 ED79          MOV dbl(*AR3(short(#4))), AC0 ; |1430| 
         0001eb 08   
    1280 0001ec       $C$L7:    
    1281 0001ec 7600          MOV #64, AR1 ; |1451| 
         0001ee 4098 
    1282              
    1283 0001f0 C018          MOV AC0, *SP(#12) ; |1430| 
    1284 0001f2 3D1A  ||      MOV #1, AR2
    1285              
    1286                      .dwpsn  file "F:/eZdsp_DBG/tmp1/c55x-sim2/foo/c5535_bsl_revc/ezdsp5535_v1/c55xx_csl/inc/csl_usbAux.h"
    1287 0001f4       $C$L8:    
    1288 0001f4       $C$DW$L$_USB_processEP0In$8$B:
    1289                      .dwpsn  file "F:/eZdsp_DBG/tmp1/c55x-sim2/foo/c5535_bsl_revc/ezdsp5535_v1/c55xx_csl/inc/csl_usbAux.h"
    1290 0001f4 E61A          MOV #0, *SP(#13) ; |1435| 
         0001f6 00   
    1291                      .dwpsn  file "F:/eZdsp_DBG/tmp1/c55x-sim2/foo/c5535_bsl_revc/ezdsp5535_v1/c55xx_csl/inc/csl_usbAux.h"
    1292 0001f7 AB18          MOV *SP(#12), AR3 ; |1435| 
    1293              
    1294 0001fb 51B1          SFTL AR3, #-1 ; |1435| 
    1295 0001f9 AC1A  ||      MOV *SP(#13), AR4 ; |1435| 
    1296              
    1297 0001fd 12C8          CMPU AR4 >= AR3, TC1 ; |1435| 
         0001ff B4   
    1298 000200 0464          BCC $C$L10,TC1 ; |1435| 
         000202 29   
    1299                                                      ; branchcc occurs ; |1435| 
    1300 000203       $C$DW$L$_USB_processEP0In$8$E:
    1301 000203       $C$L9:    
    1302 000203       $C$DW$L$_USB_processEP0In$9$B:
    1303                      .dwpsn  file "F:/eZdsp_DBG/tmp1/c55x-sim2/foo/c5535_bsl_revc/ezdsp5535_v1/c55xx_csl/inc/csl_usbAux.h"
    1304 000203 ED10          MOV dbl(*SP(#8)), XAR3
         000205 BF   
    1305 000206 7604          MOV #1057, T0 ; |1437| 
         000208 2148 
    1306 00020a AC61          MOV *AR3, AR4 ; |1437| 
    1307 00020c AB31          MOV *(#_usbRegisters), AR3 ; |1437| 
         00020e 0000 
         000210 00!  
    1308 000211 CC6B          MOV AR4, port(*AR3(T0)) ; |1437| 
         000213 9A   
    1309                      .dwpsn  file "F:/eZdsp_DBG/tmp1/c55x-sim2/foo/c5535_bsl_revc/ezdsp5535_v1/c55xx_csl/inc/csl_usbAux.h"
    1310 000214 ED10          MOV dbl(*SP(#8)), XAR3
         000216 BF   
    1311 000217 B463          AMAR *AR3+
    1312 000219 EB10          MOV XAR3, dbl(*SP(#8))
         00021b B5   
    1313                      .dwpsn  file "F:/eZdsp_DBG/tmp1/c55x-sim2/foo/c5535_bsl_revc/ezdsp5535_v1/c55xx_csl/inc/csl_usbAux.h"
    1314 00021c F71A          ADD #1, *SP(#13) ; |1435| 
         00021e 0001 
TMS320C55x Assembler PC v4.4.1 Sat Sep 29 23:08:33 2018

Tools Copyright (c) 1996-2012 Texas Instruments Incorporated
csl_usb_poll_example.asm                                             PAGE   28

    1315                      .dwpsn  file "F:/eZdsp_DBG/tmp1/c55x-sim2/foo/c5535_bsl_revc/ezdsp5535_v1/c55xx_csl/inc/csl_usbAux.h"
    1316 000220 AB18          MOV *SP(#12), AR3 ; |1435| 
    1317              
    1318 000224 51B1          SFTL AR3, #-1 ; |1435| 
    1319 000222 AC1A  ||      MOV *SP(#13), AR4 ; |1435| 
    1320              
    1321 000226 12C4          CMPU AR4 < AR3, TC1 ; |1435| 
         000228 B4   
    1322 000229 0464          BCC $C$L9,TC1 ; |1435| 
         00022b D7   
    1323                                                      ; branchcc occurs ; |1435| 
    1324 00022c       $C$DW$L$_USB_processEP0In$9$E:
    1325 00022c       $C$L10:    
    1326 00022c       $C$DW$L$_USB_processEP0In$10$B:
    1327                      .dwpsn  file "F:/eZdsp_DBG/tmp1/c55x-sim2/foo/c5535_bsl_revc/ezdsp5535_v1/c55xx_csl/inc/csl_usbAux.h"
    1328 00022c AB18          MOV *SP(#12), AR3 ; |1441| 
    1329 00022e 1801          AND #0x0001, AR3, AR3 ; |1441| 
         000230 BB   
    1330 000231 12BC          CMPU AR3 != AR2, TC1 ; |1441| 
         000233 A4   
    1331 000234 0464          BCC $C$L11,TC1 ; |1441| 
         000236 44   
    1332                                                      ; branchcc occurs ; |1441| 
    1333 000237       $C$DW$L$_USB_processEP0In$10$E:
    1334 000237       $C$DW$L$_USB_processEP0In$11$B:
    1335                      .dwpsn  file "F:/eZdsp_DBG/tmp1/c55x-sim2/foo/c5535_bsl_revc/ezdsp5535_v1/c55xx_csl/inc/csl_usbAux.h"
    1336 000237 7600          MOV #50, T0 ; |1444| 
         000239 3248 
    1337 00023b AB31          MOV *(#_sysCtrlRegs), AR3 ; |1444| 
         00023d 0000 
         00023f 00!  
    1338 000240 AB6B          MOV port(*AR3(T0)), AR3 ; |1444| 
         000242 99   
    1339 000243 7DFF          AND #0xfffc, AR3, AC0 ; |1444| 
         000245 FC0B 
    1340 000247 AB31          MOV *(#_sysCtrlRegs), AR3 ; |1444| 
         000249 0000 
         00024b 00!  
    1341 00024c EC02          BSET @#1, AC0 ; |1444| 
         00024e 00   
    1342 00024f C06B          MOV AC0, port(*AR3(T0)) ; |1444| 
         000251 9A   
    1343                      .dwpsn  file "F:/eZdsp_DBG/tmp1/c55x-sim2/foo/c5535_bsl_revc/ezdsp5535_v1/c55xx_csl/inc/csl_usbAux.h"
    1344 000252 ED10          MOV dbl(*SP(#8)), XAR3
         000254 BF   
    1345 000255 7604          MOV #1057, T0 ; |1445| 
         000257 2148 
    1346 000259 AC61          MOV *AR3, AR4 ; |1445| 
    1347 00025b AB31          MOV *(#_usbRegisters), AR3 ; |1445| 
         00025d 0000 
         00025f 00!  
    1348 000260 CC6B          MOV AR4, port(*AR3(T0)) ; |1445| 
         000262 9A   
    1349                      .dwpsn  file "F:/eZdsp_DBG/tmp1/c55x-sim2/foo/c5535_bsl_revc/ezdsp5535_v1/c55xx_csl/inc/csl_usbAux.h"
    1350 000263 7600          MOV #50, T0 ; |1447| 
TMS320C55x Assembler PC v4.4.1 Sat Sep 29 23:08:33 2018

Tools Copyright (c) 1996-2012 Texas Instruments Incorporated
csl_usb_poll_example.asm                                             PAGE   29

         000265 3248 
    1351 000267 AB31          MOV *(#_sysCtrlRegs), AR3 ; |1447| 
         000269 0000 
         00026b 00!  
    1352 00026c AB6B          MOV port(*AR3(T0)), AR3 ; |1447| 
         00026e 99   
    1353 00026f 7DFF          AND #0xfffc, AR3, AC0 ; |1447| 
         000271 FC0B 
    1354 000273 AB31          MOV *(#_sysCtrlRegs), AR3 ; |1447| 
         000275 0000 
         000277 00!  
    1355 000278 C06B          MOV AC0, port(*AR3(T0)) ; |1447| 
         00027a 9A   
    1356 00027b       $C$DW$L$_USB_processEP0In$11$E:
    1357 00027b       $C$L11:    
    1358 00027b       $C$DW$L$_USB_processEP0In$12$B:
    1359                      .dwpsn  file "F:/eZdsp_DBG/tmp1/c55x-sim2/foo/c5535_bsl_revc/ezdsp5535_v1/c55xx_csl/inc/csl_usbAux.h"
    1360 00027b AB18          MOV *SP(#12), AR3 ; |1451| 
    1361 00027d 1294          CMPU AR3 > AR1, TC1 ; |1451| 
         00027f B4   
    1362 000280 6164          BCC $C$L12,TC1 ; |1451| 
    1363                                                      ; branchcc occurs ; |1451| 
    1364 000282       $C$DW$L$_USB_processEP0In$12$E:
    1365                      .dwpsn  file "F:/eZdsp_DBG/tmp1/c55x-sim2/foo/c5535_bsl_revc/ezdsp5535_v1/c55xx_csl/inc/csl_usbAux.h"
    1366 000282 4A07          B $C$L13  ; |1453| 
    1367                                                      ; branch occurs ; |1453| 
    1368 000284       $C$L12:    
    1369 000284       $C$DW$L$_USB_processEP0In$15$B:
    1370                      .dwpsn  file "F:/eZdsp_DBG/tmp1/c55x-sim2/foo/c5535_bsl_revc/ezdsp5535_v1/c55xx_csl/inc/csl_usbAux.h"
    1371 000284 F718          SUB #64, *SP(#12) ; |1457| 
         000286 FFC0 
    1372                      .dwpsn  file "F:/eZdsp_DBG/tmp1/c55x-sim2/foo/c5535_bsl_revc/ezdsp5535_v1/c55xx_csl/inc/csl_usbAux.h"
    1373 000288 06FF          B $C$L8   ; |1432| 
         00028a 69   
    1374                                                      ; branch occurs ; |1432| 
    1375 00028b       $C$DW$L$_USB_processEP0In$15$E:
    1376 00028b       $C$L13:    
    1377                      .dwpsn  file "F:/eZdsp_DBG/tmp1/c55x-sim2/foo/c5535_bsl_revc/ezdsp5535_v1/c55xx_csl/inc/csl_usbAux.h"
    1378 00028b ED00          MOV dbl(*SP(#0)), XAR3
         00028d BF   
    1379 00028e E66D          MOV #0, *AR3(#90) ; |1461| 
         000290 0000 
         000292 5A   
    1380                      .dwpsn  file "F:/eZdsp_DBG/tmp1/c55x-sim2/foo/c5535_bsl_revc/ezdsp5535_v1/c55xx_csl/inc/csl_usbAux.h"
    1381 000293 ED08          MOV dbl(*SP(#4)), XAR3
         000295 BF   
    1382 000296 DF18          MOV uns(*SP(#12)), AC0 ; |1463| 
         000298 05   
    1383 000299 ED6D          ADD dbl(*AR3(#8)), AC0, AC0 ; |1463| 
         00029b 0000 
         00029d 08   
    1384 00029e EB6D          MOV AC0, dbl(*AR3(#8)) ; |1463| 
         0002a0 0800 
         0002a2 08   
    1385                      .dwpsn  file "F:/eZdsp_DBG/tmp1/c55x-sim2/foo/c5535_bsl_revc/ezdsp5535_v1/c55xx_csl/inc/csl_usbAux.h"
TMS320C55x Assembler PC v4.4.1 Sat Sep 29 23:08:33 2018

Tools Copyright (c) 1996-2012 Texas Instruments Incorporated
csl_usb_poll_example.asm                                             PAGE   30

    1386 0002a3 ED08          MOV dbl(*SP(#4)), XAR3
         0002a5 BF   
    1387 0002a6 DF18          MOV uns(*SP(#12)), AC0 ; |1464| 
         0002a8 05   
    1388 0002a9 EB6D          MOV AC0, dbl(*AR3(#10)) ; |1464| 
         0002ab 0800 
         0002ad 0A   
    1389                      .dwpsn  file "F:/eZdsp_DBG/tmp1/c55x-sim2/foo/c5535_bsl_revc/ezdsp5535_v1/c55xx_csl/inc/csl_usbAux.h"
    1390 0002ae ED08          MOV dbl(*SP(#4)), XAR3
         0002b0 BF   
    1391 0002b1 ED6D          MOV dbl(*AR3(#8)), AC1 ; |1465| 
         0002b3 1800 
         0002b5 08   
    1392 0002b6 ED7D          MOV dbl(*AR3(short(#6))), AC0 ; |1465| 
         0002b8 08   
    1393 0002b9 121C          CMPU AC1 != AC0, TC1 ; |1465| 
         0002bb 04   
    1394 0002bc 62E4          BCC $C$L14,TC1 ; |1465| 
    1395                                                      ; branchcc occurs ; |1465| 
    1396                      .dwpsn  file "F:/eZdsp_DBG/tmp1/c55x-sim2/foo/c5535_bsl_revc/ezdsp5535_v1/c55xx_csl/inc/csl_usbAux.h"
    1397 0002be E66D          MOV #1, *AR3(#12) ; |1467| 
         0002c0 0100 
         0002c2 0C   
    1398 0002c3       $C$L14:    
    1399                      .dwpsn  file "F:/eZdsp_DBG/tmp1/c55x-sim2/foo/c5535_bsl_revc/ezdsp5535_v1/c55xx_csl/inc/csl_usbAux.h"
    1400 0002c3 7604          MOV #1038, T0 ; |1471| 
         0002c5 0E48 
    1401 0002c7 AB31          MOV *(#_usbRegisters), AR3 ; |1471| 
         0002c9 0000 
         0002cb 00!  
    1402 0002cc A96B          MOV port(*AR3(T0)), AR1 ; |1471| 
         0002ce 99   
    1403 0002cf C91E          MOV AR1, *SP(#15) ; |1471| 
    1404                      .dwpsn  file "F:/eZdsp_DBG/tmp1/c55x-sim2/foo/c5535_bsl_revc/ezdsp5535_v1/c55xx_csl/inc/csl_usbAux.h"
    1405 0002d1 A96B          MOV port(*AR3(T0)), AR1 ; |1474| 
         0002d3 99   
    1406 0002d4 7DFF          AND #0xfff0, AR1, AC0 ; |1474| 
         0002d6 F009 
    1407 0002d8 C06B          MOV AC0, port(*AR3(T0)) ; |1474| 
         0002da 9A   
    1408                      .dwpsn  file "F:/eZdsp_DBG/tmp1/c55x-sim2/foo/c5535_bsl_revc/ezdsp5535_v1/c55xx_csl/inc/csl_usbAux.h"
    1409 0002db AB31          MOV *(#_usbRegisters), AR3 ; |1479| 
         0002dd 0000 
         0002df 00!  
    1410 0002e0 A96B          MOV port(*AR3(T0)), AR1 ; |1479| 
         0002e2 99   
    1411 0002e3 7DFF          AND #0xfff0, AR1, AC0 ; |1479| 
         0002e5 F009 
    1412 0002e7 C06B          MOV AC0, port(*AR3(T0)) ; |1479| 
         0002e9 9A   
    1413                      .dwpsn  file "F:/eZdsp_DBG/tmp1/c55x-sim2/foo/c5535_bsl_revc/ezdsp5535_v1/c55xx_csl/inc/csl_usbAux.h"
    1414 0002ea ED08          MOV dbl(*SP(#4)), XAR3
         0002ec BF   
    1415 0002ed F06D          CMP *AR3(#12) == #1, TC1 ; |1483| 
         0002ef 0001 
TMS320C55x Assembler PC v4.4.1 Sat Sep 29 23:08:33 2018

Tools Copyright (c) 1996-2012 Texas Instruments Incorporated
csl_usb_poll_example.asm                                             PAGE   31

         0002f1 000C 
    1416 0002f3 0474          BCC $C$L15,!TC1 ; |1483| 
         0002f5 37   
    1417                                                      ; branchcc occurs ; |1483| 
    1418                      .dwpsn  file "F:/eZdsp_DBG/tmp1/c55x-sim2/foo/c5535_bsl_revc/ezdsp5535_v1/c55xx_csl/inc/csl_usbAux.h"
    1419 0002f6 ED00          MOV dbl(*SP(#0)), XAR3
         0002f8 BF   
    1420 0002f9 E67F          MOV #0, *AR3(short(#7)) ; |1485| 
         0002fb 00   
    1421                      .dwpsn  file "F:/eZdsp_DBG/tmp1/c55x-sim2/foo/c5535_bsl_revc/ezdsp5535_v1/c55xx_csl/inc/csl_usbAux.h"
    1422 0002fc E61C          MOV #10, *SP(#14) ; |1488| 
         0002fe 0A   
    1423                      .dwpsn  file "F:/eZdsp_DBG/tmp1/c55x-sim2/foo/c5535_bsl_revc/ezdsp5535_v1/c55xx_csl/inc/csl_usbAux.h"
    1424 0002ff ED00          MOV dbl(*SP(#0)), XAR3
         000301 BF   
    1425 000302 E66D          MOV #0, *AR3(#101) ; |1491| 
         000304 0000 
         000306 65   
    1426                      .dwpsn  file "F:/eZdsp_DBG/tmp1/c55x-sim2/foo/c5535_bsl_revc/ezdsp5535_v1/c55xx_csl/inc/csl_usbAux.h"
    1427 000307 7604          MOV #1042, T0 ; |1493| 
         000309 1248 
    1428 00030b AB31          MOV *(#_usbRegisters), AR3 ; |1493| 
         00030d 0000 
         00030f 00!  
    1429 000310 A91C          MOV *SP(#14), AR1 ; |1493| 
    1430 000312 DA6B          OR port(*AR3(T0)), AR1, AR1 ; |1493| 
         000314 99   
         000315 99   
    1431 000316 C96B          MOV AR1, port(*AR3(T0)) ; |1493| 
         000318 9A   
    1432                      .dwpsn  file "F:/eZdsp_DBG/tmp1/c55x-sim2/foo/c5535_bsl_revc/ezdsp5535_v1/c55xx_csl/inc/csl_usbAux.h"
    1433 000319 ED00          MOV dbl(*SP(#0)), XAR3
         00031b BF   
    1434 00031c ED00          MOV dbl(*SP(#0)), XAR0
         00031e 8F   
    1435 00031f ED04          MOV dbl(*SP(#2)), XAR1
         000321 9F   
    1436 000322 ED6D          MOV dbl(*AR3(#116)), AC0 ; |1495| 
         000324 0800 
         000326 74   
    1437              $C$DW$167       .dwtag  DW_TAG_TI_branch
    1438                      .dwattr $C$DW$167, DW_AT_low_pc(0x00)
    1439                      .dwattr $C$DW$167, DW_AT_TI_call
    1440                      .dwattr $C$DW$167, DW_AT_TI_indirect
    1441 000327 9200          CALL AC0  ; |1495| 
    1442                                                      ; call occurs [AC0] ; |1495| 
    1443 000329 C40C          MOV T0, *SP(#6) ; |1495| 
    1444                      .dwpsn  file "F:/eZdsp_DBG/tmp1/c55x-sim2/foo/c5535_bsl_revc/ezdsp5535_v1/c55xx_csl/inc/csl_usbAux.h"
    1445 00032b 4A15          B $C$L16  ; |1496| 
    1446                                                      ; branch occurs ; |1496| 
    1447 00032d       $C$L15:    
    1448                      .dwpsn  file "F:/eZdsp_DBG/tmp1/c55x-sim2/foo/c5535_bsl_revc/ezdsp5535_v1/c55xx_csl/inc/csl_usbAux.h"
    1449 00032d E61C          MOV #2, *SP(#14) ; |1500| 
         00032f 02   
    1450                      .dwpsn  file "F:/eZdsp_DBG/tmp1/c55x-sim2/foo/c5535_bsl_revc/ezdsp5535_v1/c55xx_csl/inc/csl_usbAux.h"
TMS320C55x Assembler PC v4.4.1 Sat Sep 29 23:08:33 2018

Tools Copyright (c) 1996-2012 Texas Instruments Incorporated
csl_usb_poll_example.asm                                             PAGE   32

    1451 000330 7604          MOV #1042, T0 ; |1503| 
         000332 1248 
    1452 000334 AB31          MOV *(#_usbRegisters), AR3 ; |1503| 
         000336 0000 
         000338 00!  
    1453 000339 A91C          MOV *SP(#14), AR1 ; |1503| 
    1454 00033b DA6B          OR port(*AR3(T0)), AR1, AR1 ; |1503| 
         00033d 99   
         00033e 99   
    1455 00033f C96B          MOV AR1, port(*AR3(T0)) ; |1503| 
         000341 9A   
    1456 000342       $C$L16:    
    1457                      .dwpsn  file "F:/eZdsp_DBG/tmp1/c55x-sim2/foo/c5535_bsl_revc/ezdsp5535_v1/c55xx_csl/inc/csl_usbAux.h"
    1458 000342 AB31          MOV *(#_usbRegisters), AR3 ; |1507| 
         000344 0000 
         000346 00!  
    1459 000347 7604          MOV #1038, T0 ; |1507| 
         000349 0E48 
    1460 00034b A91E          MOV *SP(#15), AR1 ; |1507| 
    1461 00034d C96B          MOV AR1, port(*AR3(T0)) ; |1507| 
         00034f 9A   
    1462                      .dwpsn  file "F:/eZdsp_DBG/tmp1/c55x-sim2/foo/c5535_bsl_revc/ezdsp5535_v1/c55xx_csl/inc/csl_usbAux.h"
    1463 000350 4A08          B $C$L19  ; |1508| 
    1464                                                      ; branch occurs ; |1508| 
    1465 000352       $C$L17:    
    1466                      .dwpsn  file "F:/eZdsp_DBG/tmp1/c55x-sim2/foo/c5535_bsl_revc/ezdsp5535_v1/c55xx_csl/inc/csl_usbAux.h"
    1467 000352 E60C          MOV #-6, *SP(#6) ; |1511| 
         000354 FA   
    1468                      .dwpsn  file "F:/eZdsp_DBG/tmp1/c55x-sim2/foo/c5535_bsl_revc/ezdsp5535_v1/c55xx_csl/inc/csl_usbAux.h"
    1469 000355 4A03          B $C$L19  ; |1513| 
    1470                                                      ; branch occurs ; |1513| 
    1471 000357       $C$L18:    
    1472                      .dwpsn  file "F:/eZdsp_DBG/tmp1/c55x-sim2/foo/c5535_bsl_revc/ezdsp5535_v1/c55xx_csl/inc/csl_usbAux.h"
    1473 000357 E60C          MOV #-6, *SP(#6) ; |1516| 
         000359 FA   
    1474 00035a       $C$L19:    
    1475                      .dwpsn  file "F:/eZdsp_DBG/tmp1/c55x-sim2/foo/c5535_bsl_revc/ezdsp5535_v1/c55xx_csl/inc/csl_usbAux.h"
    1476 00035a A40C          MOV *SP(#6), T0 ; |1519| 
    1477                      .dwpsn  file "F:/eZdsp_DBG/tmp1/c55x-sim2/foo/c5535_bsl_revc/ezdsp5535_v1/c55xx_csl/inc/csl_usbAux.h"
    1478 00035c 4E11          AADD #17, SP
    1479                      .dwcfi  cfa_offset, 1
    1480              $C$DW$168       .dwtag  DW_TAG_TI_branch
    1481                      .dwattr $C$DW$168, DW_AT_low_pc(0x00)
    1482                      .dwattr $C$DW$168, DW_AT_TI_return
    1483 00035e 4804          RET
    1484                                                      ; return occurs
    1485              
    1486              $C$DW$169       .dwtag  DW_TAG_TI_loop
    1487                      .dwattr $C$DW$169, DW_AT_name("F:\eZdsp_DBG\tmp1\c55x-sim2\foo\Debug\csl_usb_poll_example.asm:$C$L8:1
    1488                      .dwattr $C$DW$169, DW_AT_TI_begin_file("F:/eZdsp_DBG/tmp1/c55x-sim2/foo/c5535_bsl_revc/ezdsp5535_v1/c
    1489                      .dwattr $C$DW$169, DW_AT_TI_begin_line(0x598)
    1490                      .dwattr $C$DW$169, DW_AT_TI_end_line(0x5b3)
    1491              $C$DW$170       .dwtag  DW_TAG_TI_loop_range
    1492                      .dwattr $C$DW$170, DW_AT_low_pc($C$DW$L$_USB_processEP0In$8$B)
    1493                      .dwattr $C$DW$170, DW_AT_high_pc($C$DW$L$_USB_processEP0In$8$E)
TMS320C55x Assembler PC v4.4.1 Sat Sep 29 23:08:33 2018

Tools Copyright (c) 1996-2012 Texas Instruments Incorporated
csl_usb_poll_example.asm                                             PAGE   33

    1494              $C$DW$171       .dwtag  DW_TAG_TI_loop_range
    1495                      .dwattr $C$DW$171, DW_AT_low_pc($C$DW$L$_USB_processEP0In$10$B)
    1496                      .dwattr $C$DW$171, DW_AT_high_pc($C$DW$L$_USB_processEP0In$10$E)
    1497              $C$DW$172       .dwtag  DW_TAG_TI_loop_range
    1498                      .dwattr $C$DW$172, DW_AT_low_pc($C$DW$L$_USB_processEP0In$11$B)
    1499                      .dwattr $C$DW$172, DW_AT_high_pc($C$DW$L$_USB_processEP0In$11$E)
    1500              $C$DW$173       .dwtag  DW_TAG_TI_loop_range
    1501                      .dwattr $C$DW$173, DW_AT_low_pc($C$DW$L$_USB_processEP0In$12$B)
    1502                      .dwattr $C$DW$173, DW_AT_high_pc($C$DW$L$_USB_processEP0In$12$E)
    1503              $C$DW$174       .dwtag  DW_TAG_TI_loop_range
    1504                      .dwattr $C$DW$174, DW_AT_low_pc($C$DW$L$_USB_processEP0In$15$B)
    1505                      .dwattr $C$DW$174, DW_AT_high_pc($C$DW$L$_USB_processEP0In$15$E)
    1506              
    1507              $C$DW$175       .dwtag  DW_TAG_TI_loop
    1508                      .dwattr $C$DW$175, DW_AT_name("F:\eZdsp_DBG\tmp1\c55x-sim2\foo\Debug\csl_usb_poll_example.asm:$C$L9:2
    1509                      .dwattr $C$DW$175, DW_AT_TI_begin_file("F:/eZdsp_DBG/tmp1/c55x-sim2/foo/c5535_bsl_revc/ezdsp5535_v1/c
    1510                      .dwattr $C$DW$175, DW_AT_TI_begin_line(0x59b)
    1511                      .dwattr $C$DW$175, DW_AT_TI_end_line(0x59f)
    1512              $C$DW$176       .dwtag  DW_TAG_TI_loop_range
    1513                      .dwattr $C$DW$176, DW_AT_low_pc($C$DW$L$_USB_processEP0In$9$B)
    1514                      .dwattr $C$DW$176, DW_AT_high_pc($C$DW$L$_USB_processEP0In$9$E)
    1515                      .dwendtag $C$DW$175
    1516              
    1517                      .dwendtag $C$DW$169
    1518              
    1519                      .dwattr $C$DW$155, DW_AT_TI_end_file("F:/eZdsp_DBG/tmp1/c55x-sim2/foo/c5535_bsl_revc/ezdsp5535_v1/c55
    1520                      .dwattr $C$DW$155, DW_AT_TI_end_line(0x5f0)
    1521                      .dwattr $C$DW$155, DW_AT_TI_end_column(0x01)
    1522                      .dwendentry
    1523                      .dwendtag $C$DW$155
    1524              
    1525 000360               .sect   ".text"
    1526                      .align 4
    1527              
    1528              $C$DW$177       .dwtag  DW_TAG_subprogram, DW_AT_name("USB_isValidDataInFifoOut")
    1529                      .dwattr $C$DW$177, DW_AT_low_pc(_USB_isValidDataInFifoOut)
    1530                      .dwattr $C$DW$177, DW_AT_high_pc(0x00)
    1531                      .dwattr $C$DW$177, DW_AT_TI_symbol_name("_USB_isValidDataInFifoOut")
    1532                      .dwattr $C$DW$177, DW_AT_type(*$C$DW$T$95)
    1533                      .dwattr $C$DW$177, DW_AT_TI_begin_file("F:/eZdsp_DBG/tmp1/c55x-sim2/foo/c5535_bsl_revc/ezdsp5535_v1/c
    1534                      .dwattr $C$DW$177, DW_AT_TI_begin_line(0x80d)
    1535                      .dwattr $C$DW$177, DW_AT_TI_begin_column(0x06)
    1536                      .dwattr $C$DW$177, DW_AT_TI_max_frame_size(0x06)
    1537                      .dwpsn  file "F:/eZdsp_DBG/tmp1/c55x-sim2/foo/c5535_bsl_revc/ezdsp5535_v1/c55xx_csl/inc/csl_usbAux.h"
    1538              
    1539                      .dwfde $C$DW$CIE, _USB_isValidDataInFifoOut
    1540              $C$DW$178       .dwtag  DW_TAG_formal_parameter, DW_AT_name("peps")
    1541                      .dwattr $C$DW$178, DW_AT_TI_symbol_name("_peps")
    1542                      .dwattr $C$DW$178, DW_AT_type(*$C$DW$T$171)
    1543                      .dwattr $C$DW$178, DW_AT_location[DW_OP_reg17]
    1544              ;*******************************************************************************
    1545              ;* FUNCTION NAME: USB_isValidDataInFifoOut                                     *
    1546              ;*                                                                             *
    1547              ;*   Function Uses Regs : AC0,AC0,AC1,AC1,T0,AR0,XAR0,AR1,AR2,AR3,XAR3,SP,TC1, *
    1548              ;*                        M40,SATA,SATD,RDM,FRCT,SMUL                          *
TMS320C55x Assembler PC v4.4.1 Sat Sep 29 23:08:33 2018

Tools Copyright (c) 1996-2012 Texas Instruments Incorporated
csl_usb_poll_example.asm                                             PAGE   34

    1549              ;*   Stack Frame        : Compact (No Frame Pointer, w/ debug)                 *
    1550              ;*   Total Frame Size   : 6 words                                              *
    1551              ;*                        (1 return address/alignment)                         *
    1552              ;*                        (5 local values)                                     *
    1553              ;*   Min System Stack   : 1 word                                               *
    1554              ;*******************************************************************************
    1555 000360       _USB_isValidDataInFifoOut:
    1556                      .dwcfi  cfa_offset, 1
    1557                      .dwcfi  save_reg_to_mem, 91, -1
    1558 000360 4EFB          AADD #-5, SP
    1559                      .dwcfi  cfa_offset, 6
    1560              $C$DW$179       .dwtag  DW_TAG_variable, DW_AT_name("peps")
    1561                      .dwattr $C$DW$179, DW_AT_TI_symbol_name("_peps")
    1562                      .dwattr $C$DW$179, DW_AT_type(*$C$DW$T$171)
    1563                      .dwattr $C$DW$179, DW_AT_location[DW_OP_bregx 0x24 0]
    1564              $C$DW$180       .dwtag  DW_TAG_variable, DW_AT_name("saveIndex")
    1565                      .dwattr $C$DW$180, DW_AT_TI_symbol_name("_saveIndex")
    1566                      .dwattr $C$DW$180, DW_AT_type(*$C$DW$T$19)
    1567                      .dwattr $C$DW$180, DW_AT_location[DW_OP_bregx 0x24 2]
    1568              $C$DW$181       .dwtag  DW_TAG_variable, DW_AT_name("wByteCount")
    1569                      .dwattr $C$DW$181, DW_AT_TI_symbol_name("_wByteCount")
    1570                      .dwattr $C$DW$181, DW_AT_type(*$C$DW$T$19)
    1571                      .dwattr $C$DW$181, DW_AT_location[DW_OP_bregx 0x24 3]
    1572              $C$DW$182       .dwtag  DW_TAG_variable, DW_AT_name("flag")
    1573                      .dwattr $C$DW$182, DW_AT_TI_symbol_name("_flag")
    1574                      .dwattr $C$DW$182, DW_AT_type(*$C$DW$T$19)
    1575                      .dwattr $C$DW$182, DW_AT_location[DW_OP_bregx 0x24 4]
    1576 000362 EB00          MOV XAR0, dbl(*SP(#0))
         000364 85   
    1577                      .dwpsn  file "F:/eZdsp_DBG/tmp1/c55x-sim2/foo/c5535_bsl_revc/ezdsp5535_v1/c55xx_csl/inc/csl_usbAux.h"
    1578 000365 E604          MOV #0, *SP(#2) ; |2067| 
         000367 00   
    1579                      .dwpsn  file "F:/eZdsp_DBG/tmp1/c55x-sim2/foo/c5535_bsl_revc/ezdsp5535_v1/c55xx_csl/inc/csl_usbAux.h"
    1580 000368 E606          MOV #0, *SP(#3) ; |2068| 
         00036a 00   
    1581                      .dwpsn  file "F:/eZdsp_DBG/tmp1/c55x-sim2/foo/c5535_bsl_revc/ezdsp5535_v1/c55xx_csl/inc/csl_usbAux.h"
    1582 00036b E608          MOV #0, *SP(#4) ; |2069| 
         00036d 00   
    1583                      .dwpsn  file "F:/eZdsp_DBG/tmp1/c55x-sim2/foo/c5535_bsl_revc/ezdsp5535_v1/c55xx_csl/inc/csl_usbAux.h"
    1584 00036e ED00          MOV dbl(*SP(#0)), XAR3
         000370 BF   
    1585              
    1586 000371 ED61          MOV dbl(*AR3), AC0 ; |2071| 
         000373 08   
    1587 000374 3D21  ||      MOV #2, AC1 ; |2071| 
    1588              
    1589 000376 121C          CMPU AC1 != AC0, TC1 ; |2071| 
         000378 04   
    1590 000379 0464          BCC $C$L22,TC1 ; |2071| 
         00037b 70   
    1591                                                      ; branchcc occurs ; |2071| 
    1592                      .dwpsn  file "F:/eZdsp_DBG/tmp1/c55x-sim2/foo/c5535_bsl_revc/ezdsp5535_v1/c55xx_csl/inc/csl_usbAux.h"
    1593 00037c 7604          MOV #1038, T0 ; |2074| 
         00037e 0E48 
    1594 000380 AB31          MOV *(#_usbRegisters), AR3 ; |2074| 
TMS320C55x Assembler PC v4.4.1 Sat Sep 29 23:08:33 2018

Tools Copyright (c) 1996-2012 Texas Instruments Incorporated
csl_usb_poll_example.asm                                             PAGE   35

         000382 0000 
         000384 00!  
    1595 000385 A96B          MOV port(*AR3(T0)), AR1 ; |2074| 
         000387 99   
    1596 000388 C904          MOV AR1, *SP(#2) ; |2074| 
    1597                      .dwpsn  file "F:/eZdsp_DBG/tmp1/c55x-sim2/foo/c5535_bsl_revc/ezdsp5535_v1/c55xx_csl/inc/csl_usbAux.h"
    1598 00038a F46B          AND #0xfff0, port(*AR3(T0)) ; |2076| 
         00038c FFF0 
         00038e 9A   
    1599                      .dwpsn  file "F:/eZdsp_DBG/tmp1/c55x-sim2/foo/c5535_bsl_revc/ezdsp5535_v1/c55xx_csl/inc/csl_usbAux.h"
    1600 00038f AB31          MOV *(#_usbRegisters), AR3 ; |2077| 
         000391 0000 
         000393 00!  
    1601 000394 F56B          OR #0x0002, port(*AR3(T0)) ; |2077| 
         000396 0002 
         000398 9A   
    1602                      .dwpsn  file "F:/eZdsp_DBG/tmp1/c55x-sim2/foo/c5535_bsl_revc/ezdsp5535_v1/c55xx_csl/inc/csl_usbAux.h"
    1603 000399 7604          MOV #1046, T0 ; |2080| 
         00039b 1648 
    1604 00039d AB31          MOV *(#_usbRegisters), AR3 ; |2080| 
         00039f 0000 
         0003a1 00!  
    1605 0003a2 A96B          MOV port(*AR3(T0)), AR1 ; |2080| 
         0003a4 99   
    1606              
    1607 0003a5 1801          AND #0x0001, AR1, AR1 ; |2080| 
         0003a7 99   
    1608 0003a8 3D1A  ||      MOV #1, AR2
    1609              
    1610 0003aa 129C          CMPU AR1 != AR2, TC1 ; |2080| 
         0003ac A4   
    1611 0003ad 0464          BCC $C$L21,TC1 ; |2080| 
         0003af 2E   
    1612                                                      ; branchcc occurs ; |2080| 
    1613                      .dwpsn  file "F:/eZdsp_DBG/tmp1/c55x-sim2/foo/c5535_bsl_revc/ezdsp5535_v1/c55xx_csl/inc/csl_usbAux.h"
    1614 0003b0 7604          MOV #1049, T0 ; |2083| 
         0003b2 1948 
    1615 0003b4 DF6B          MOV uns(low_byte(port(*AR3(T0)))), AR1 ; |2083| 
         0003b6 93   
         0003b7 99   
    1616 0003b8 C906          MOV AR1, *SP(#3) ; |2083| 
    1617                      .dwpsn  file "F:/eZdsp_DBG/tmp1/c55x-sim2/foo/c5535_bsl_revc/ezdsp5535_v1/c55xx_csl/inc/csl_usbAux.h"
    1618 0003ba ED00          MOV dbl(*SP(#0)), XAR3
         0003bc BF   
    1619 0003bd C96D          MOV AR1, *AR3(#13) ; |2084| 
         0003bf 000D 
    1620                      .dwpsn  file "F:/eZdsp_DBG/tmp1/c55x-sim2/foo/c5535_bsl_revc/ezdsp5535_v1/c55xx_csl/inc/csl_usbAux.h"
    1621 0003c1 ED00          MOV dbl(*SP(#0)), XAR3
         0003c3 BF   
    1622 0003c4 F075          CMP *AR3(short(#2)) == #3, TC1 ; |2086| 
         0003c6 0003 
    1623 0003c8 0464          BCC $C$L20,TC1 ; |2086| 
         0003ca 10   
    1624                                                      ; branchcc occurs ; |2086| 
    1625                      .dwpsn  file "F:/eZdsp_DBG/tmp1/c55x-sim2/foo/c5535_bsl_revc/ezdsp5535_v1/c55xx_csl/inc/csl_usbAux.h"
TMS320C55x Assembler PC v4.4.1 Sat Sep 29 23:08:33 2018

Tools Copyright (c) 1996-2012 Texas Instruments Incorporated
csl_usb_poll_example.asm                                             PAGE   36

    1626 0003cb ED79          MOV dbl(*AR3(short(#4))), AC0 ; |2088| 
         0003cd 08   
    1627 0003ce DF06          MOV uns(*SP(#3)), AC1 ; |2088| 
         0003d0 15   
    1628 0003d1 1204          CMPU AC1 > AC0, TC1 ; |2088| 
         0003d3 14   
    1629 0003d4 6464          BCC $C$L21,TC1 ; |2088| 
    1630                                                      ; branchcc occurs ; |2088| 
    1631                      .dwpsn  file "F:/eZdsp_DBG/tmp1/c55x-sim2/foo/c5535_bsl_revc/ezdsp5535_v1/c55xx_csl/inc/csl_usbAux.h"
    1632 0003d6 E608          MOV #1, *SP(#4) ; |2092| 
         0003d8 01   
    1633                      .dwpsn  file "F:/eZdsp_DBG/tmp1/c55x-sim2/foo/c5535_bsl_revc/ezdsp5535_v1/c55xx_csl/inc/csl_usbAux.h"
    1634 0003d9 4A03          B $C$L21  ; |2094| 
    1635                                                      ; branch occurs ; |2094| 
    1636 0003db       $C$L20:    
    1637                      .dwpsn  file "F:/eZdsp_DBG/tmp1/c55x-sim2/foo/c5535_bsl_revc/ezdsp5535_v1/c55xx_csl/inc/csl_usbAux.h"
    1638 0003db E608          MOV #1, *SP(#4) ; |2097| 
         0003dd 01   
    1639 0003de       $C$L21:    
    1640                      .dwpsn  file "F:/eZdsp_DBG/tmp1/c55x-sim2/foo/c5535_bsl_revc/ezdsp5535_v1/c55xx_csl/inc/csl_usbAux.h"
    1641 0003de AB31          MOV *(#_usbRegisters), AR3 ; |2102| 
         0003e0 0000 
         0003e2 00!  
    1642 0003e3 7604          MOV #1038, T0 ; |2102| 
         0003e5 0E48 
    1643 0003e7 A904          MOV *SP(#2), AR1 ; |2102| 
    1644 0003e9 C96B          MOV AR1, port(*AR3(T0)) ; |2102| 
         0003eb 9A   
    1645 0003ec       $C$L22:    
    1646                      .dwpsn  file "F:/eZdsp_DBG/tmp1/c55x-sim2/foo/c5535_bsl_revc/ezdsp5535_v1/c55xx_csl/inc/csl_usbAux.h"
    1647 0003ec A408          MOV *SP(#4), T0 ; |2105| 
    1648                      .dwpsn  file "F:/eZdsp_DBG/tmp1/c55x-sim2/foo/c5535_bsl_revc/ezdsp5535_v1/c55xx_csl/inc/csl_usbAux.h"
    1649 0003ee 4E05          AADD #5, SP
    1650                      .dwcfi  cfa_offset, 1
    1651              $C$DW$183       .dwtag  DW_TAG_TI_branch
    1652                      .dwattr $C$DW$183, DW_AT_low_pc(0x00)
    1653                      .dwattr $C$DW$183, DW_AT_TI_return
    1654 0003f0 4804          RET
    1655                                                      ; return occurs
    1656                      .dwattr $C$DW$177, DW_AT_TI_end_file("F:/eZdsp_DBG/tmp1/c55x-sim2/foo/c5535_bsl_revc/ezdsp5535_v1/c55
    1657                      .dwattr $C$DW$177, DW_AT_TI_end_line(0x83a)
    1658                      .dwattr $C$DW$177, DW_AT_TI_end_column(0x01)
    1659                      .dwendentry
    1660                      .dwendtag $C$DW$177
    1661              
    1662 0003f2               .sect   ".text"
    1663                      .align 4
    1664              
    1665              $C$DW$184       .dwtag  DW_TAG_subprogram, DW_AT_name("USB_handleTx")
    1666                      .dwattr $C$DW$184, DW_AT_low_pc(_USB_handleTx)
    1667                      .dwattr $C$DW$184, DW_AT_high_pc(0x00)
    1668                      .dwattr $C$DW$184, DW_AT_TI_symbol_name("_USB_handleTx")
    1669                      .dwattr $C$DW$184, DW_AT_type(*$C$DW$T$89)
    1670                      .dwattr $C$DW$184, DW_AT_TI_begin_file("F:/eZdsp_DBG/tmp1/c55x-sim2/foo/c5535_bsl_revc/ezdsp5535_v1/c
    1671                      .dwattr $C$DW$184, DW_AT_TI_begin_line(0x371)
TMS320C55x Assembler PC v4.4.1 Sat Sep 29 23:08:33 2018

Tools Copyright (c) 1996-2012 Texas Instruments Incorporated
csl_usb_poll_example.asm                                             PAGE   37

    1672                      .dwattr $C$DW$184, DW_AT_TI_begin_column(0x0c)
    1673                      .dwattr $C$DW$184, DW_AT_TI_max_frame_size(0x16)
    1674                      .dwpsn  file "F:/eZdsp_DBG/tmp1/c55x-sim2/foo/c5535_bsl_revc/ezdsp5535_v1/c55xx_csl/inc/csl_usbAux.h"
    1675              
    1676                      .dwfde $C$DW$CIE, _USB_handleTx
    1677              $C$DW$185       .dwtag  DW_TAG_formal_parameter, DW_AT_name("pContext")
    1678                      .dwattr $C$DW$185, DW_AT_TI_symbol_name("_pContext")
    1679                      .dwattr $C$DW$185, DW_AT_type(*$C$DW$T$167)
    1680                      .dwattr $C$DW$185, DW_AT_location[DW_OP_reg17]
    1681              $C$DW$186       .dwtag  DW_TAG_formal_parameter, DW_AT_name("dwEndpoint")
    1682                      .dwattr $C$DW$186, DW_AT_TI_symbol_name("_dwEndpoint")
    1683                      .dwattr $C$DW$186, DW_AT_type(*$C$DW$T$98)
    1684                      .dwattr $C$DW$186, DW_AT_location[DW_OP_reg0]
    1685              ;*******************************************************************************
    1686              ;* FUNCTION NAME: USB_handleTx                                                 *
    1687              ;*                                                                             *
    1688              ;*   Function Uses Regs : AC0,AC0,AC1,AC1,T0,AR0,XAR0,AR1,XAR1,AR3,XAR3,SP,    *
    1689              ;*                        CARRY,TC1,M40,SATA,SATD,RDM,FRCT,SMUL                *
    1690              ;*   Stack Frame        : Compact (No Frame Pointer, w/ debug)                 *
    1691              ;*   Total Frame Size   : 22 words                                             *
    1692              ;*                        (1 return address/alignment)                         *
    1693              ;*                        (21 local values)                                    *
    1694              ;*   Min System Stack   : 1 word                                               *
    1695              ;*******************************************************************************
    1696 0003f4       _USB_handleTx:
    1697                      .dwcfi  cfa_offset, 1
    1698                      .dwcfi  save_reg_to_mem, 91, -1
    1699 0003f4 4EEB          AADD #-21, SP
    1700                      .dwcfi  cfa_offset, 22
    1701              $C$DW$187       .dwtag  DW_TAG_variable, DW_AT_name("pContext")
    1702                      .dwattr $C$DW$187, DW_AT_TI_symbol_name("_pContext")
    1703                      .dwattr $C$DW$187, DW_AT_type(*$C$DW$T$167)
    1704                      .dwattr $C$DW$187, DW_AT_location[DW_OP_bregx 0x24 0]
    1705              $C$DW$188       .dwtag  DW_TAG_variable, DW_AT_name("dwEndpoint")
    1706                      .dwattr $C$DW$188, DW_AT_TI_symbol_name("_dwEndpoint")
    1707                      .dwattr $C$DW$188, DW_AT_type(*$C$DW$T$98)
    1708                      .dwattr $C$DW$188, DW_AT_location[DW_OP_bregx 0x24 2]
    1709              $C$DW$189       .dwtag  DW_TAG_variable, DW_AT_name("cbToWrite")
    1710                      .dwattr $C$DW$189, DW_AT_TI_symbol_name("_cbToWrite")
    1711                      .dwattr $C$DW$189, DW_AT_type(*$C$DW$T$98)
    1712                      .dwattr $C$DW$189, DW_AT_location[DW_OP_bregx 0x24 4]
    1713              $C$DW$190       .dwtag  DW_TAG_variable, DW_AT_name("pwBuffer")
    1714                      .dwattr $C$DW$190, DW_AT_TI_symbol_name("_pwBuffer")
    1715                      .dwattr $C$DW$190, DW_AT_type(*$C$DW$T$96)
    1716                      .dwattr $C$DW$190, DW_AT_location[DW_OP_bregx 0x24 6]
    1717              $C$DW$191       .dwtag  DW_TAG_variable, DW_AT_name("cbBuffer")
    1718                      .dwattr $C$DW$191, DW_AT_TI_symbol_name("_cbBuffer")
    1719                      .dwattr $C$DW$191, DW_AT_type(*$C$DW$T$98)
    1720                      .dwattr $C$DW$191, DW_AT_location[DW_OP_bregx 0x24 8]
    1721              $C$DW$192       .dwtag  DW_TAG_variable, DW_AT_name("cbWritten")
    1722                      .dwattr $C$DW$192, DW_AT_TI_symbol_name("_cbWritten")
    1723                      .dwattr $C$DW$192, DW_AT_type(*$C$DW$T$98)
    1724                      .dwattr $C$DW$192, DW_AT_location[DW_OP_bregx 0x24 10]
    1725              $C$DW$193       .dwtag  DW_TAG_variable, DW_AT_name("count")
    1726                      .dwattr $C$DW$193, DW_AT_TI_symbol_name("_count")
TMS320C55x Assembler PC v4.4.1 Sat Sep 29 23:08:33 2018

Tools Copyright (c) 1996-2012 Texas Instruments Incorporated
csl_usb_poll_example.asm                                             PAGE   38

    1727                      .dwattr $C$DW$193, DW_AT_type(*$C$DW$T$19)
    1728                      .dwattr $C$DW$193, DW_AT_location[DW_OP_bregx 0x24 12]
    1729              $C$DW$194       .dwtag  DW_TAG_variable, DW_AT_name("saveIndex")
    1730                      .dwattr $C$DW$194, DW_AT_TI_symbol_name("_saveIndex")
    1731                      .dwattr $C$DW$194, DW_AT_type(*$C$DW$T$19)
    1732                      .dwattr $C$DW$194, DW_AT_location[DW_OP_bregx 0x24 13]
    1733              $C$DW$195       .dwtag  DW_TAG_variable, DW_AT_name("status")
    1734                      .dwattr $C$DW$195, DW_AT_TI_symbol_name("_status")
    1735                      .dwattr $C$DW$195, DW_AT_type(*$C$DW$T$89)
    1736                      .dwattr $C$DW$195, DW_AT_location[DW_OP_bregx 0x24 14]
    1737              $C$DW$196       .dwtag  DW_TAG_variable, DW_AT_name("peps")
    1738                      .dwattr $C$DW$196, DW_AT_TI_symbol_name("_peps")
    1739                      .dwattr $C$DW$196, DW_AT_type(*$C$DW$T$171)
    1740                      .dwattr $C$DW$196, DW_AT_location[DW_OP_bregx 0x24 16]
    1741              $C$DW$197       .dwtag  DW_TAG_variable, DW_AT_name("pTransfer")
    1742                      .dwattr $C$DW$197, DW_AT_TI_symbol_name("_pTransfer")
    1743                      .dwattr $C$DW$197, DW_AT_type(*$C$DW$T$173)
    1744                      .dwattr $C$DW$197, DW_AT_location[DW_OP_bregx 0x24 18]
    1745              $C$DW$198       .dwtag  DW_TAG_variable, DW_AT_name("pFifoAddr")
    1746                      .dwattr $C$DW$198, DW_AT_TI_symbol_name("_pFifoAddr")
    1747                      .dwattr $C$DW$198, DW_AT_type(*$C$DW$T$240)
    1748                      .dwattr $C$DW$198, DW_AT_location[DW_OP_bregx 0x24 20]
    1749 0003f6 EB04          MOV AC0, dbl(*SP(#2)) ; |883| 
         0003f8 08   
    1750 0003f9 EB00          MOV XAR0, dbl(*SP(#0))
         0003fb 85   
    1751                      .dwpsn  file "F:/eZdsp_DBG/tmp1/c55x-sim2/foo/c5535_bsl_revc/ezdsp5535_v1/c55xx_csl/inc/csl_usbAux.h"
    1752 0003fc E61C          MOV #0, *SP(#14) ; |896| 
         0003fe 00   
    1753                      .dwpsn  file "F:/eZdsp_DBG/tmp1/c55x-sim2/foo/c5535_bsl_revc/ezdsp5535_v1/c55xx_csl/inc/csl_usbAux.h"
    1754 0003ff E618          MOV #0, *SP(#12) ; |897| 
         000401 00   
    1755                      .dwpsn  file "F:/eZdsp_DBG/tmp1/c55x-sim2/foo/c5535_bsl_revc/ezdsp5535_v1/c55xx_csl/inc/csl_usbAux.h"
    1756 000402 E61A          MOV #0, *SP(#13) ; |898| 
         000404 00   
    1757                      .dwpsn  file "F:/eZdsp_DBG/tmp1/c55x-sim2/foo/c5535_bsl_revc/ezdsp5535_v1/c55xx_csl/inc/csl_usbAux.h"
    1758 000405 3C00          MOV #0, AC0 ; |899| 
    1759 000407 EB14          MOV AC0, dbl(*SP(#10)) ; |899| 
         000409 08   
    1760                      .dwpsn  file "F:/eZdsp_DBG/tmp1/c55x-sim2/foo/c5535_bsl_revc/ezdsp5535_v1/c55xx_csl/inc/csl_usbAux.h"
    1761 00040a ED00          MOV dbl(*SP(#0)), XAR3
         00040c BF   
    1762 00040d 90B0          MOV XAR3, AC0
    1763 00040f 6D00          BCC $C$L37,AC0 == #0 ; |901| 
         000411 0258 
    1764                                                      ; branchcc occurs ; |901| 
    1765                      .dwpsn  file "F:/eZdsp_DBG/tmp1/c55x-sim2/foo/c5535_bsl_revc/ezdsp5535_v1/c55xx_csl/inc/csl_usbAux.h"
    1766 000413 ED6D          MOV dbl(*AR3(#98)), XAR3
         000415 BF00 
         000417 62   
    1767 000418 F806          MPYMK *SP(#3), #18, AC0 ; |903| 
         00041a 1200 
    1768 00041c 2209          MOV AC0, AR1 ; |903| 
    1769              
    1770 00041e 8E20          MOV XAR3, dbl(*SP(#16))
TMS320C55x Assembler PC v4.4.1 Sat Sep 29 23:08:33 2018

Tools Copyright (c) 1996-2012 Texas Instruments Incorporated
csl_usb_poll_example.asm                                             PAGE   39

         000420 BB10 
         000422 B590 
    1771              ||      AADD AR1, AR3 ; |903| 
    1772              
    1773                      .dwpsn  file "F:/eZdsp_DBG/tmp1/c55x-sim2/foo/c5535_bsl_revc/ezdsp5535_v1/c55xx_csl/inc/csl_usbAux.h"
    1774 000424 ED6D          MOV dbl(*AR3(#10)), XAR3
         000426 BF00 
         000428 0A   
    1775 000429 EB24          MOV XAR3, dbl(*SP(#18))
         00042b B5   
    1776                      .dwpsn  file "F:/eZdsp_DBG/tmp1/c55x-sim2/foo/c5535_bsl_revc/ezdsp5535_v1/c55xx_csl/inc/csl_usbAux.h"
    1777 00042c 90B0          MOV XAR3, AC0
    1778 00042e 6D00          BCC $C$L36,AC0 == #0 ; |906| 
         000430 0234 
    1779                                                      ; branchcc occurs ; |906| 
    1780 000432 A96D          MOV *AR3(#12), AR1 ; |906| 
         000434 000C 
    1781 000436 6D19          BCC $C$L36,AR1 != #0 ; |906| 
         000438 022C 
    1782                                                      ; branchcc occurs ; |906| 
    1783                      .dwpsn  file "F:/eZdsp_DBG/tmp1/c55x-sim2/foo/c5535_bsl_revc/ezdsp5535_v1/c55xx_csl/inc/csl_usbAux.h"
    1784 00043a ED6D          MOV dbl(*AR3(#8)), AC0 ; |908| 
         00043c 0800 
         00043e 08   
    1785 00043f ED79          MOV dbl(*AR3(short(#4))), XAR3
         000441 BF   
    1786 000442 5001          SFTL AC0, #-1 ; |908| 
    1787 000444 2209          MOV AC0, AR1 ; |908| 
    1788              
    1789 000446 8E0C          MOV XAR3, dbl(*SP(#6))
         000448 BB10 
         00044a B590 
    1790              ||      AADD AR1, AR3 ; |908| 
    1791              
    1792                      .dwpsn  file "F:/eZdsp_DBG/tmp1/c55x-sim2/foo/c5535_bsl_revc/ezdsp5535_v1/c55xx_csl/inc/csl_usbAux.h"
    1793 00044c ED24          MOV dbl(*SP(#18)), XAR3
         00044e BF   
    1794 00044f ED6D          MOV dbl(*AR3(#8)), AC0 ; |909| 
         000451 0800 
         000453 08   
    1795 000454 ED7D          SUB AC0, dbl(*AR3(short(#6))), AC0 ; |909| 
         000456 04   
    1796 000457 EB10          MOV AC0, dbl(*SP(#8)) ; |909| 
         000459 08   
    1797                      .dwpsn  file "F:/eZdsp_DBG/tmp1/c55x-sim2/foo/c5535_bsl_revc/ezdsp5535_v1/c55xx_csl/inc/csl_usbAux.h"
    1798 00045a ED20          MOV dbl(*SP(#16)), XAR3
         00045c BF   
    1799 00045d A96D          MOV *AR3(#9), AR1 ; |910| 
         00045f 0009 
    1800 000461 C928          MOV AR1, *SP(#20) ; |910| 
    1801                      .dwpsn  file "F:/eZdsp_DBG/tmp1/c55x-sim2/foo/c5535_bsl_revc/ezdsp5535_v1/c55xx_csl/inc/csl_usbAux.h"
    1802 000463 ED20          MOV dbl(*SP(#16)), XAR3
         000465 BF   
    1803 000466 ED10          MOV dbl(*SP(#8)), AC1 ; |913| 
         000468 18   
TMS320C55x Assembler PC v4.4.1 Sat Sep 29 23:08:33 2018

Tools Copyright (c) 1996-2012 Texas Instruments Incorporated
csl_usb_poll_example.asm                                             PAGE   40

    1804 000469 ED79          MOV dbl(*AR3(short(#4))), AC0 ; |913| 
         00046b 08   
    1805 00046c 1218          CMPU AC1 >= AC0, TC1 ; |913| 
         00046e 04   
    1806 00046f 62E4          BCC $C$L23,TC1 ; |913| 
    1807                                                      ; branchcc occurs ; |913| 
    1808 000471 ED10          MOV dbl(*SP(#8)), AC0 ; |913| 
         000473 08   
    1809 000474 4A03          B $C$L24  ; |913| 
    1810                                                      ; branch occurs ; |913| 
    1811 000476       $C$L23:    
    1812 000476 ED79          MOV dbl(*AR3(short(#4))), AC0 ; |913| 
         000478 08   
    1813 000479       $C$L24:    
    1814 000479 EB08          MOV AC0, dbl(*SP(#4)) ; |913| 
         00047b 08   
    1815                      .dwpsn  file "F:/eZdsp_DBG/tmp1/c55x-sim2/foo/c5535_bsl_revc/ezdsp5535_v1/c55xx_csl/inc/csl_usbAux.h"
    1816 00047c ED24          MOV dbl(*SP(#18)), XAR3
         00047e BF   
    1817 00047f F06D          CMP *AR3(#13) == #32, TC1 ; |916| 
         000481 0020 
         000483 000D 
    1818 000485 6474          BCC $C$L25,!TC1 ; |916| 
    1819                                                      ; branchcc occurs ; |916| 
    1820                      .dwpsn  file "F:/eZdsp_DBG/tmp1/c55x-sim2/foo/c5535_bsl_revc/ezdsp5535_v1/c55xx_csl/inc/csl_usbAux.h"
    1821 000487 E66D          MOV #1, *AR3(#12) ; |918| 
         000489 0100 
         00048b 0C   
    1822                      .dwpsn  file "F:/eZdsp_DBG/tmp1/c55x-sim2/foo/c5535_bsl_revc/ezdsp5535_v1/c55xx_csl/inc/csl_usbAux.h"
    1823 00048c 0601          B $C$L35  ; |919| 
         00048e B3   
    1824                                                      ; branch occurs ; |919| 
    1825 00048f       $C$L25:    
    1826                      .dwpsn  file "F:/eZdsp_DBG/tmp1/c55x-sim2/foo/c5535_bsl_revc/ezdsp5535_v1/c55xx_csl/inc/csl_usbAux.h"
    1827 00048f ED20          MOV dbl(*SP(#16)), XAR3
         000491 BF   
    1828 000492 F06D          CMP *AR3(#16) == #1, TC1 ; |922| 
         000494 0001 
         000496 0010 
    1829 000498 6D64          BCC $C$L35,TC1 ; |922| 
         00049a 01A6 
    1830                                                      ; branchcc occurs ; |922| 
    1831                      .dwpsn  file "F:/eZdsp_DBG/tmp1/c55x-sim2/foo/c5535_bsl_revc/ezdsp5535_v1/c55xx_csl/inc/csl_usbAux.h"
    1832 00049c 7602          MOV #512, AC0 ; |925| 
         00049e 0008 
    1833 0004a0 ED08          MOV dbl(*SP(#4)), AC1 ; |925| 
         0004a2 18   
    1834 0004a3 1210          CMPU AC1 == AC0, TC1 ; |925| 
         0004a5 04   
    1835 0004a6 66E4          BCC $C$L26,TC1 ; |925| 
    1836                                                      ; branchcc occurs ; |925| 
    1837 0004a8 7600          MOV #64, AC0 ; |925| 
         0004aa 4008 
    1838 0004ac ED08          MOV dbl(*SP(#4)), AC1 ; |925| 
         0004ae 18   
TMS320C55x Assembler PC v4.4.1 Sat Sep 29 23:08:33 2018

Tools Copyright (c) 1996-2012 Texas Instruments Incorporated
csl_usb_poll_example.asm                                             PAGE   41

    1839 0004af 121C          CMPU AC1 != AC0, TC1 ; |925| 
         0004b1 04   
    1840 0004b2 0464          BCC $C$L29,TC1 ; |925| 
         0004b4 5E   
    1841                                                      ; branchcc occurs ; |925| 
    1842 0004b5       $C$L26:    
    1843 0004b5 ED00          MOV dbl(*SP(#0)), XAR3
         0004b7 BF   
    1844 0004b8 F061          CMP *AR3 == #1, TC1 ; |925| 
         0004ba 0001 
    1845 0004bc 63E4          BCC $C$L27,TC1 ; |925| 
    1846                                                      ; branchcc occurs ; |925| 
    1847 0004be F061          CMP *AR3 == #2, TC1 ; |925| 
         0004c0 0002 
    1848 0004c2 0474          BCC $C$L29,!TC1 ; |925| 
         0004c4 4E   
    1849                                                      ; branchcc occurs ; |925| 
    1850 0004c5       $C$L27:    
    1851                      .dwpsn  file "F:/eZdsp_DBG/tmp1/c55x-sim2/foo/c5535_bsl_revc/ezdsp5535_v1/c55xx_csl/inc/csl_usbAux.h"
    1852 0004c5 ED24          MOV dbl(*SP(#18)), XAR3
         0004c7 BF   
    1853 0004c8 ED08          MOV dbl(*SP(#4)), AC0 ; |929| 
         0004ca 08   
    1854 0004cb ED6D          ADD dbl(*AR3(#8)), AC0, AC0 ; |929| 
         0004cd 0000 
         0004cf 08   
    1855 0004d0 EB6D          MOV AC0, dbl(*AR3(#8)) ; |929| 
         0004d2 0800 
         0004d4 08   
    1856                      .dwpsn  file "F:/eZdsp_DBG/tmp1/c55x-sim2/foo/c5535_bsl_revc/ezdsp5535_v1/c55xx_csl/inc/csl_usbAux.h"
    1857 0004d5 ED24          MOV dbl(*SP(#18)), XAR3
         0004d7 BF   
    1858 0004d8 ED08          MOV dbl(*SP(#4)), AC0 ; |930| 
         0004da 08   
    1859 0004db EB6D          MOV AC0, dbl(*AR3(#10)) ; |930| 
         0004dd 0800 
         0004df 0A   
    1860                      .dwpsn  file "F:/eZdsp_DBG/tmp1/c55x-sim2/foo/c5535_bsl_revc/ezdsp5535_v1/c55xx_csl/inc/csl_usbAux.h"
    1861 0004e0 ED04          MOV dbl(*SP(#2)), AC0 ; |932| 
         0004e2 08   
    1862              $C$DW$199       .dwtag  DW_TAG_TI_branch
    1863                      .dwattr $C$DW$199, DW_AT_low_pc(0x00)
    1864                      .dwattr $C$DW$199, DW_AT_name("_USB_dmaTxStart")
    1865                      .dwattr $C$DW$199, DW_AT_TI_call
    1866 0004e3 08FB          CALL #_USB_dmaTxStart ; |932| 
         0004e5 6E   
    1867                                                      ; call occurs [#_USB_dmaTxStart] ; |932| 
    1868                      .dwpsn  file "F:/eZdsp_DBG/tmp1/c55x-sim2/foo/c5535_bsl_revc/ezdsp5535_v1/c55xx_csl/inc/csl_usbAux.h"
    1869 0004e6 ED24          MOV dbl(*SP(#18)), XAR3
         0004e8 BF   
    1870 0004e9 ED6D          MOV dbl(*AR3(#8)), AC1 ; |934| 
         0004eb 1800 
         0004ed 08   
    1871 0004ee ED7D          MOV dbl(*AR3(short(#6))), AC0 ; |934| 
         0004f0 08   
TMS320C55x Assembler PC v4.4.1 Sat Sep 29 23:08:33 2018

Tools Copyright (c) 1996-2012 Texas Instruments Incorporated
csl_usb_poll_example.asm                                             PAGE   42

    1872 0004f1 121C          CMPU AC1 != AC0, TC1 ; |934| 
         0004f3 04   
    1873 0004f4 6464          BCC $C$L28,TC1 ; |934| 
    1874                                                      ; branchcc occurs ; |934| 
    1875                      .dwpsn  file "F:/eZdsp_DBG/tmp1/c55x-sim2/foo/c5535_bsl_revc/ezdsp5535_v1/c55xx_csl/inc/csl_usbAux.h"
    1876 0004f6 E66D          MOV #1, *AR3(#12) ; |936| 
         0004f8 0100 
         0004fa 0C   
    1877                      .dwpsn  file "F:/eZdsp_DBG/tmp1/c55x-sim2/foo/c5535_bsl_revc/ezdsp5535_v1/c55xx_csl/inc/csl_usbAux.h"
    1878 0004fb 0601          B $C$L35  ; |937| 
         0004fd 44   
    1879                                                      ; branch occurs ; |937| 
    1880 0004fe       $C$L28:    
    1881                      .dwpsn  file "F:/eZdsp_DBG/tmp1/c55x-sim2/foo/c5535_bsl_revc/ezdsp5535_v1/c55xx_csl/inc/csl_usbAux.h"
    1882 0004fe ED00          MOV dbl(*SP(#0)), XAR3
         000500 BF   
    1883 000501 ED00          MOV dbl(*SP(#0)), XAR0
         000503 8F   
    1884 000504 ED20          MOV dbl(*SP(#16)), XAR1
         000506 9F   
    1885 000507 ED6D          MOV dbl(*AR3(#116)), AC0 ; |940| 
         000509 0800 
         00050b 74   
    1886              $C$DW$200       .dwtag  DW_TAG_TI_branch
    1887                      .dwattr $C$DW$200, DW_AT_low_pc(0x00)
    1888                      .dwattr $C$DW$200, DW_AT_TI_call
    1889                      .dwattr $C$DW$200, DW_AT_TI_indirect
    1890 00050c 9200          CALL AC0  ; |940| 
    1891                                                      ; call occurs [AC0] ; |940| 
    1892 00050e C41C          MOV T0, *SP(#14) ; |940| 
    1893                      .dwpsn  file "F:/eZdsp_DBG/tmp1/c55x-sim2/foo/c5535_bsl_revc/ezdsp5535_v1/c55xx_csl/inc/csl_usbAux.h"
    1894 000510 0601          B $C$L35  ; |942| 
         000512 2F   
    1895                                                      ; branch occurs ; |942| 
    1896 000513       $C$L29:    
    1897                      .dwpsn  file "F:/eZdsp_DBG/tmp1/c55x-sim2/foo/c5535_bsl_revc/ezdsp5535_v1/c55xx_csl/inc/csl_usbAux.h"
    1898 000513 7604          MOV #1038, T0 ; |957| 
         000515 0E48 
    1899 000517 AB31          MOV *(#_usbRegisters), AR3 ; |957| 
         000519 0000 
         00051b 00!  
    1900 00051c A96B          MOV port(*AR3(T0)), AR1 ; |957| 
         00051e 99   
    1901 00051f C91A          MOV AR1, *SP(#13) ; |957| 
    1902                      .dwpsn  file "F:/eZdsp_DBG/tmp1/c55x-sim2/foo/c5535_bsl_revc/ezdsp5535_v1/c55xx_csl/inc/csl_usbAux.h"
    1903 000521 A96B          MOV port(*AR3(T0)), AR1 ; |960| 
         000523 99   
    1904 000524 7DFF          AND #0xfff0, AR1, AC0 ; |960| 
         000526 F009 
    1905 000528 C06B          MOV AC0, port(*AR3(T0)) ; |960| 
         00052a 9A   
    1906                      .dwpsn  file "F:/eZdsp_DBG/tmp1/c55x-sim2/foo/c5535_bsl_revc/ezdsp5535_v1/c55xx_csl/inc/csl_usbAux.h"
    1907 00052b AB31          MOV *(#_usbRegisters), AR3 ; |964| 
         00052d 0000 
         00052f 00!  
TMS320C55x Assembler PC v4.4.1 Sat Sep 29 23:08:33 2018

Tools Copyright (c) 1996-2012 Texas Instruments Incorporated
csl_usb_poll_example.asm                                             PAGE   43

    1908 000530 ED04          MOV dbl(*SP(#2)), AC0 ; |964| 
         000532 08   
    1909 000533 180F          AND #0x000f, AC0, AC0 ; |964| 
         000535 00   
    1910 000536 A96B          MOV port(*AR3(T0)), AR1 ; |964| 
         000538 99   
    1911 000539 7DFF          AND #0xfff0, AR1, AC1 ; |964| 
         00053b F019 
    1912 00053d 2A10          OR AC1, AC0 ; |964| 
    1913 00053f C06B          MOV AC0, port(*AR3(T0)) ; |964| 
         000541 9A   
    1914                      .dwpsn  file "F:/eZdsp_DBG/tmp1/c55x-sim2/foo/c5535_bsl_revc/ezdsp5535_v1/c55xx_csl/inc/csl_usbAux.h"
    1915 000542 7604          MOV #1042, T0 ; |969| 
         000544 1248 
    1916 000546 AB31          MOV *(#_usbRegisters), AR3 ; |969| 
         000548 0000 
         00054a 00!  
    1917 00054b A96B          MOV port(*AR3(T0)), AR1 ; |969| 
         00054d 99   
    1918 00054e EC06          BCLR @#3, AR1 ; |969| 
         000550 92   
    1919 000551 EC06          BSET @#3, AR1 ; |969| 
         000553 90   
    1920 000554 C96B          MOV AR1, port(*AR3(T0)) ; |969| 
         000556 9A   
    1921                      .dwpsn  file "F:/eZdsp_DBG/tmp1/c55x-sim2/foo/c5535_bsl_revc/ezdsp5535_v1/c55xx_csl/inc/csl_usbAux.h"
    1922 000557 ED08          MOV dbl(*SP(#4)), AC0 ; |972| 
         000559 08   
    1923 00055a 0400          BCC $C$L32,AC0 == #0 ; |972| 
         00055c 76   
    1924                                                      ; branchcc occurs ; |972| 
    1925                      .dwpsn  file "F:/eZdsp_DBG/tmp1/c55x-sim2/foo/c5535_bsl_revc/ezdsp5535_v1/c55xx_csl/inc/csl_usbAux.h"
    1926 00055d ED08          MOV dbl(*SP(#4)), AC0 ; |975| 
         00055f 08   
    1927 000560 EB14          MOV AC0, dbl(*SP(#10)) ; |975| 
         000562 08   
    1928                      .dwpsn  file "F:/eZdsp_DBG/tmp1/c55x-sim2/foo/c5535_bsl_revc/ezdsp5535_v1/c55xx_csl/inc/csl_usbAux.h"
    1929 000563 E618          MOV #0, *SP(#12) ; |977| 
         000565 00   
    1930                      .dwpsn  file "F:/eZdsp_DBG/tmp1/c55x-sim2/foo/c5535_bsl_revc/ezdsp5535_v1/c55xx_csl/inc/csl_usbAux.h"
    1931 000566 ED08          MOV dbl(*SP(#4)), AC0 ; |977| 
         000568 08   
    1932              
    1933 00056c 5101          SFTL AC0, #-1 ; |977| 
    1934 000569 DF18  ||      MOV uns(*SP(#12)), AC1 ; |977| 
         00056b 15   
    1935              
    1936 00056e 1218          CMPU AC1 >= AC0, TC1 ; |977| 
         000570 04   
    1937 000571 0464          BCC $C$L31,TC1 ; |977| 
         000573 1F   
    1938                                                      ; branchcc occurs ; |977| 
    1939 000574       $C$L30:    
    1940 000574       $C$DW$L$_USB_handleTx$19$B:
    1941                      .dwpsn  file "F:/eZdsp_DBG/tmp1/c55x-sim2/foo/c5535_bsl_revc/ezdsp5535_v1/c55xx_csl/inc/csl_usbAux.h"
TMS320C55x Assembler PC v4.4.1 Sat Sep 29 23:08:33 2018

Tools Copyright (c) 1996-2012 Texas Instruments Incorporated
csl_usb_poll_example.asm                                             PAGE   44

    1942 000574 ED0C          MOV dbl(*SP(#6)), XAR3
         000576 BF   
    1943 000577 A963          MOV *AR3+, AR1 ; |979| 
    1944 000579 EB0C          MOV XAR3, dbl(*SP(#6))
         00057b B5   
    1945 00057c AB28          MOV *SP(#20), AR3 ; |979| 
    1946 00057e C961          MOV AR1, port(*AR3) ; |979| 
         000580 9A   
    1947                      .dwpsn  file "F:/eZdsp_DBG/tmp1/c55x-sim2/foo/c5535_bsl_revc/ezdsp5535_v1/c55xx_csl/inc/csl_usbAux.h"
    1948 000581 F718          ADD #1, *SP(#12) ; |977| 
         000583 0001 
    1949                      .dwpsn  file "F:/eZdsp_DBG/tmp1/c55x-sim2/foo/c5535_bsl_revc/ezdsp5535_v1/c55xx_csl/inc/csl_usbAux.h"
    1950 000585 ED08          MOV dbl(*SP(#4)), AC0 ; |977| 
         000587 08   
    1951              
    1952 00058b 5101          SFTL AC0, #-1 ; |977| 
    1953 000588 DF18  ||      MOV uns(*SP(#12)), AC1 ; |977| 
         00058a 15   
    1954              
    1955 00058d 1214          CMPU AC1 < AC0, TC1 ; |977| 
         00058f 04   
    1956 000590 0464          BCC $C$L30,TC1 ; |977| 
         000592 E1   
    1957                                                      ; branchcc occurs ; |977| 
    1958 000593       $C$DW$L$_USB_handleTx$19$E:
    1959 000593       $C$L31:    
    1960                      .dwpsn  file "F:/eZdsp_DBG/tmp1/c55x-sim2/foo/c5535_bsl_revc/ezdsp5535_v1/c55xx_csl/inc/csl_usbAux.h"
    1961 000593 ED08          MOV dbl(*SP(#4)), AC0 ; |982| 
         000595 08   
    1962 000596 1801          AND #0x0001, AC0, AC0 ; |982| 
         000598 00   
    1963 000599 0400          BCC $C$L32,AC0 == #0 ; |982| 
         00059b 37   
    1964                                                      ; branchcc occurs ; |982| 
    1965                      .dwpsn  file "F:/eZdsp_DBG/tmp1/c55x-sim2/foo/c5535_bsl_revc/ezdsp5535_v1/c55xx_csl/inc/csl_usbAux.h"
    1966 00059c 7600          MOV #50, T0 ; |985| 
         00059e 3248 
    1967 0005a0 AB31          MOV *(#_sysCtrlRegs), AR3 ; |985| 
         0005a2 0000 
         0005a4 00!  
    1968 0005a5 A96B          MOV port(*AR3(T0)), AR1 ; |985| 
         0005a7 99   
    1969 0005a8 7DFF          AND #0xfffc, AR1, AC0 ; |985| 
         0005aa FC09 
    1970 0005ac EC02          BSET @#1, AC0 ; |985| 
         0005ae 00   
    1971 0005af C06B          MOV AC0, port(*AR3(T0)) ; |985| 
         0005b1 9A   
    1972                      .dwpsn  file "F:/eZdsp_DBG/tmp1/c55x-sim2/foo/c5535_bsl_revc/ezdsp5535_v1/c55xx_csl/inc/csl_usbAux.h"
    1973 0005b2 AB28          MOV *SP(#20), AR3 ; |987| 
    1974 0005b4 A961          MOV port(*AR3), AR1 ; |987| 
         0005b6 99   
    1975 0005b7 ED0C          MOV dbl(*SP(#6)), XAR3
         0005b9 BF   
    1976 0005ba A961          MOV *AR3, AR1 ; |987| 
TMS320C55x Assembler PC v4.4.1 Sat Sep 29 23:08:33 2018

Tools Copyright (c) 1996-2012 Texas Instruments Incorporated
csl_usb_poll_example.asm                                             PAGE   45

    1977 0005bc AB28          MOV *SP(#20), AR3 ; |987| 
    1978 0005be 1A00          OR #0x0000, AR1, AR1 ; |987| 
         0005c0 99   
    1979 0005c1 C961          MOV AR1, port(*AR3) ; |987| 
         0005c3 9A   
    1980                      .dwpsn  file "F:/eZdsp_DBG/tmp1/c55x-sim2/foo/c5535_bsl_revc/ezdsp5535_v1/c55xx_csl/inc/csl_usbAux.h"
    1981 0005c4 AB31          MOV *(#_sysCtrlRegs), AR3 ; |990| 
         0005c6 0000 
         0005c8 00!  
    1982 0005c9 A96B          MOV port(*AR3(T0)), AR1 ; |990| 
         0005cb 99   
    1983 0005cc 7DFF          AND #0xfffc, AR1, AC0 ; |990| 
         0005ce FC09 
    1984 0005d0 C06B          MOV AC0, port(*AR3(T0)) ; |990| 
         0005d2 9A   
    1985 0005d3       $C$L32:    
    1986                      .dwpsn  file "F:/eZdsp_DBG/tmp1/c55x-sim2/foo/c5535_bsl_revc/ezdsp5535_v1/c55xx_csl/inc/csl_usbAux.h"
    1987 0005d3 ED20          MOV dbl(*SP(#16)), XAR3
         0005d5 BF   
    1988 0005d6 F075          CMP *AR3(short(#2)) == #3, TC1 ; |995| 
         0005d8 0003 
    1989 0005da 6774          BCC $C$L33,!TC1 ; |995| 
    1990                                                      ; branchcc occurs ; |995| 
    1991                      .dwpsn  file "F:/eZdsp_DBG/tmp1/c55x-sim2/foo/c5535_bsl_revc/ezdsp5535_v1/c55xx_csl/inc/csl_usbAux.h"
    1992 0005dc 7604          MOV #1042, T0 ; |997| 
         0005de 1248 
    1993 0005e0 AB31          MOV *(#_usbRegisters), AR3 ; |997| 
         0005e2 0000 
         0005e4 00!  
    1994 0005e5 F56B          OR #0x0040, port(*AR3(T0)) ; |997| 
         0005e7 0040 
         0005e9 9A   
    1995 0005ea       $C$L33:    
    1996                      .dwpsn  file "F:/eZdsp_DBG/tmp1/c55x-sim2/foo/c5535_bsl_revc/ezdsp5535_v1/c55xx_csl/inc/csl_usbAux.h"
    1997 0005ea 7604          MOV #1042, T0 ; |1002| 
         0005ec 1248 
    1998 0005ee AB31          MOV *(#_usbRegisters), AR3 ; |1002| 
         0005f0 0000 
         0005f2 00!  
    1999 0005f3 A96B          MOV port(*AR3(T0)), AR1 ; |1002| 
         0005f5 99   
    2000 0005f6 EC00          BCLR @#0, AR1 ; |1002| 
         0005f8 92   
    2001 0005f9 EC00          BSET @#0, AR1 ; |1002| 
         0005fb 90   
    2002 0005fc C96B          MOV AR1, port(*AR3(T0)) ; |1002| 
         0005fe 9A   
    2003                      .dwpsn  file "F:/eZdsp_DBG/tmp1/c55x-sim2/foo/c5535_bsl_revc/ezdsp5535_v1/c55xx_csl/inc/csl_usbAux.h"
    2004 0005ff 7604          MOV #1038, T0 ; |1006| 
         000601 0E48 
    2005 000603 AB31          MOV *(#_usbRegisters), AR3 ; |1006| 
         000605 0000 
         000607 00!  
    2006 000608 A91A          MOV *SP(#13), AR1 ; |1006| 
    2007 00060a C96B          MOV AR1, port(*AR3(T0)) ; |1006| 
TMS320C55x Assembler PC v4.4.1 Sat Sep 29 23:08:33 2018

Tools Copyright (c) 1996-2012 Texas Instruments Incorporated
csl_usb_poll_example.asm                                             PAGE   46

         00060c 9A   
    2008                      .dwpsn  file "F:/eZdsp_DBG/tmp1/c55x-sim2/foo/c5535_bsl_revc/ezdsp5535_v1/c55xx_csl/inc/csl_usbAux.h"
    2009 00060d ED24          MOV dbl(*SP(#18)), XAR3
         00060f BF   
    2010 000610 ED14          MOV dbl(*SP(#10)), AC0 ; |1009| 
         000612 08   
    2011 000613 ED6D          ADD dbl(*AR3(#8)), AC0, AC0 ; |1009| 
         000615 0000 
         000617 08   
    2012 000618 EB6D          MOV AC0, dbl(*AR3(#8)) ; |1009| 
         00061a 0800 
         00061c 08   
    2013                      .dwpsn  file "F:/eZdsp_DBG/tmp1/c55x-sim2/foo/c5535_bsl_revc/ezdsp5535_v1/c55xx_csl/inc/csl_usbAux.h"
    2014 00061d ED24          MOV dbl(*SP(#18)), XAR3
         00061f BF   
    2015 000620 ED14          MOV dbl(*SP(#10)), AC0 ; |1010| 
         000622 08   
    2016 000623 EB6D          MOV AC0, dbl(*AR3(#10)) ; |1010| 
         000625 0800 
         000627 0A   
    2017                      .dwpsn  file "F:/eZdsp_DBG/tmp1/c55x-sim2/foo/c5535_bsl_revc/ezdsp5535_v1/c55xx_csl/inc/csl_usbAux.h"
    2018 000628 ED24          MOV dbl(*SP(#18)), XAR3
         00062a BF   
    2019 00062b ED6D          MOV dbl(*AR3(#8)), AC1 ; |1012| 
         00062d 1800 
         00062f 08   
    2020 000630 ED7D          MOV dbl(*AR3(short(#6))), AC0 ; |1012| 
         000632 08   
    2021 000633 1210          CMPU AC1 == AC0, TC1 ; |1012| 
         000635 04   
    2022 000636 62E4          BCC $C$L34,TC1 ; |1012| 
    2023                                                      ; branchcc occurs ; |1012| 
    2024 000638 ED14          MOV dbl(*SP(#10)), AC0 ; |1012| 
         00063a 08   
    2025 00063b 6290          BCC $C$L35,AC0 != #0 ; |1012| 
    2026                                                      ; branchcc occurs ; |1012| 
    2027 00063d       $C$L34:    
    2028                      .dwpsn  file "F:/eZdsp_DBG/tmp1/c55x-sim2/foo/c5535_bsl_revc/ezdsp5535_v1/c55xx_csl/inc/csl_usbAux.h"
    2029 00063d E66D          MOV #1, *AR3(#12) ; |1015| 
         00063f 0100 
         000641 0C   
    2030 000642       $C$L35:    
    2031                      .dwpsn  file "F:/eZdsp_DBG/tmp1/c55x-sim2/foo/c5535_bsl_revc/ezdsp5535_v1/c55xx_csl/inc/csl_usbAux.h"
    2032 000642 ED24          MOV dbl(*SP(#18)), XAR3
         000644 BF   
    2033 000645 A96D          MOV *AR3(#12), AR1 ; |1021| 
         000647 000C 
    2034 000649 0409          BCC $C$L38,AR1 == #0 ; |1021| 
         00064b 22   
    2035                                                      ; branchcc occurs ; |1021| 
    2036                      .dwpsn  file "F:/eZdsp_DBG/tmp1/c55x-sim2/foo/c5535_bsl_revc/ezdsp5535_v1/c55xx_csl/inc/csl_usbAux.h"
    2037 00064c ED00          MOV dbl(*SP(#0)), XAR3
         00064e BF   
    2038 00064f E67B          MOV #0, *AR3(short(#5)) ; |1023| 
         000651 00   
TMS320C55x Assembler PC v4.4.1 Sat Sep 29 23:08:33 2018

Tools Copyright (c) 1996-2012 Texas Instruments Incorporated
csl_usb_poll_example.asm                                             PAGE   47

    2039                      .dwpsn  file "F:/eZdsp_DBG/tmp1/c55x-sim2/foo/c5535_bsl_revc/ezdsp5535_v1/c55xx_csl/inc/csl_usbAux.h"
    2040 000652 ED00          MOV dbl(*SP(#0)), XAR3
         000654 BF   
    2041 000655 ED00          MOV dbl(*SP(#0)), XAR0
         000657 8F   
    2042 000658 ED20          MOV dbl(*SP(#16)), XAR1
         00065a 9F   
    2043 00065b ED6D          MOV dbl(*AR3(#116)), AC0 ; |1024| 
         00065d 0800 
         00065f 74   
    2044              $C$DW$201       .dwtag  DW_TAG_TI_branch
    2045                      .dwattr $C$DW$201, DW_AT_low_pc(0x00)
    2046                      .dwattr $C$DW$201, DW_AT_TI_call
    2047                      .dwattr $C$DW$201, DW_AT_TI_indirect
    2048 000660 9200          CALL AC0  ; |1024| 
    2049                                                      ; call occurs [AC0] ; |1024| 
    2050 000662 C41C          MOV T0, *SP(#14) ; |1024| 
    2051                      .dwpsn  file "F:/eZdsp_DBG/tmp1/c55x-sim2/foo/c5535_bsl_revc/ezdsp5535_v1/c55xx_csl/inc/csl_usbAux.h"
    2052 000664 4A08          B $C$L38  ; |1026| 
    2053                                                      ; branch occurs ; |1026| 
    2054 000666       $C$L36:    
    2055                      .dwpsn  file "F:/eZdsp_DBG/tmp1/c55x-sim2/foo/c5535_bsl_revc/ezdsp5535_v1/c55xx_csl/inc/csl_usbAux.h"
    2056 000666 E61C          MOV #-6, *SP(#14) ; |1029| 
         000668 FA   
    2057                      .dwpsn  file "F:/eZdsp_DBG/tmp1/c55x-sim2/foo/c5535_bsl_revc/ezdsp5535_v1/c55xx_csl/inc/csl_usbAux.h"
    2058 000669 4A03          B $C$L38  ; |1031| 
    2059                                                      ; branch occurs ; |1031| 
    2060 00066b       $C$L37:    
    2061                      .dwpsn  file "F:/eZdsp_DBG/tmp1/c55x-sim2/foo/c5535_bsl_revc/ezdsp5535_v1/c55xx_csl/inc/csl_usbAux.h"
    2062 00066b E61C          MOV #-6, *SP(#14) ; |1034| 
         00066d FA   
    2063 00066e       $C$L38:    
    2064                      .dwpsn  file "F:/eZdsp_DBG/tmp1/c55x-sim2/foo/c5535_bsl_revc/ezdsp5535_v1/c55xx_csl/inc/csl_usbAux.h"
    2065 00066e A41C          MOV *SP(#14), T0 ; |1037| 
    2066                      .dwpsn  file "F:/eZdsp_DBG/tmp1/c55x-sim2/foo/c5535_bsl_revc/ezdsp5535_v1/c55xx_csl/inc/csl_usbAux.h"
    2067 000670 4E15          AADD #21, SP
    2068                      .dwcfi  cfa_offset, 1
    2069              $C$DW$202       .dwtag  DW_TAG_TI_branch
    2070                      .dwattr $C$DW$202, DW_AT_low_pc(0x00)
    2071                      .dwattr $C$DW$202, DW_AT_TI_return
    2072 000672 4804          RET
    2073                                                      ; return occurs
    2074              
    2075              $C$DW$203       .dwtag  DW_TAG_TI_loop
    2076                      .dwattr $C$DW$203, DW_AT_name("F:\eZdsp_DBG\tmp1\c55x-sim2\foo\Debug\csl_usb_poll_example.asm:$C$L30:
    2077                      .dwattr $C$DW$203, DW_AT_TI_begin_file("F:/eZdsp_DBG/tmp1/c55x-sim2/foo/c5535_bsl_revc/ezdsp5535_v1/c
    2078                      .dwattr $C$DW$203, DW_AT_TI_begin_line(0x3d1)
    2079                      .dwattr $C$DW$203, DW_AT_TI_end_line(0x3d4)
    2080              $C$DW$204       .dwtag  DW_TAG_TI_loop_range
    2081                      .dwattr $C$DW$204, DW_AT_low_pc($C$DW$L$_USB_handleTx$19$B)
    2082                      .dwattr $C$DW$204, DW_AT_high_pc($C$DW$L$_USB_handleTx$19$E)
    2083                      .dwendtag $C$DW$203
    2084              
    2085                      .dwattr $C$DW$184, DW_AT_TI_end_file("F:/eZdsp_DBG/tmp1/c55x-sim2/foo/c5535_bsl_revc/ezdsp5535_v1/c55
    2086                      .dwattr $C$DW$184, DW_AT_TI_end_line(0x40e)
TMS320C55x Assembler PC v4.4.1 Sat Sep 29 23:08:33 2018

Tools Copyright (c) 1996-2012 Texas Instruments Incorporated
csl_usb_poll_example.asm                                             PAGE   48

    2087                      .dwattr $C$DW$184, DW_AT_TI_end_column(0x01)
    2088                      .dwendentry
    2089                      .dwendtag $C$DW$184
    2090              
    2091 000674               .sect   ".text"
    2092                      .align 4
    2093              
    2094              $C$DW$205       .dwtag  DW_TAG_subprogram, DW_AT_name("USB_handleRx")
    2095                      .dwattr $C$DW$205, DW_AT_low_pc(_USB_handleRx)
    2096                      .dwattr $C$DW$205, DW_AT_high_pc(0x00)
    2097                      .dwattr $C$DW$205, DW_AT_TI_symbol_name("_USB_handleRx")
    2098                      .dwattr $C$DW$205, DW_AT_type(*$C$DW$T$89)
    2099                      .dwattr $C$DW$205, DW_AT_TI_begin_file("F:/eZdsp_DBG/tmp1/c55x-sim2/foo/c5535_bsl_revc/ezdsp5535_v1/c
    2100                      .dwattr $C$DW$205, DW_AT_TI_begin_line(0x453)
    2101                      .dwattr $C$DW$205, DW_AT_TI_begin_column(0x0c)
    2102                      .dwattr $C$DW$205, DW_AT_TI_max_frame_size(0x16)
    2103                      .dwpsn  file "F:/eZdsp_DBG/tmp1/c55x-sim2/foo/c5535_bsl_revc/ezdsp5535_v1/c55xx_csl/inc/csl_usbAux.h"
    2104              
    2105                      .dwfde $C$DW$CIE, _USB_handleRx
    2106              $C$DW$206       .dwtag  DW_TAG_formal_parameter, DW_AT_name("pContext")
    2107                      .dwattr $C$DW$206, DW_AT_TI_symbol_name("_pContext")
    2108                      .dwattr $C$DW$206, DW_AT_type(*$C$DW$T$167)
    2109                      .dwattr $C$DW$206, DW_AT_location[DW_OP_reg17]
    2110              $C$DW$207       .dwtag  DW_TAG_formal_parameter, DW_AT_name("dwEndpoint")
    2111                      .dwattr $C$DW$207, DW_AT_TI_symbol_name("_dwEndpoint")
    2112                      .dwattr $C$DW$207, DW_AT_type(*$C$DW$T$98)
    2113                      .dwattr $C$DW$207, DW_AT_location[DW_OP_reg0]
    2114              ;*******************************************************************************
    2115              ;* FUNCTION NAME: USB_handleRx                                                 *
    2116              ;*                                                                             *
    2117              ;*   Function Uses Regs : AC0,AC0,AC1,AC1,T0,AR0,XAR0,AR1,XAR1,AR2,XAR2,AR3,   *
    2118              ;*                        XAR3,SP,CARRY,TC1,M40,SATA,SATD,RDM,FRCT,SMUL        *
    2119              ;*   Stack Frame        : Compact (No Frame Pointer, w/ debug)                 *
    2120              ;*   Total Frame Size   : 22 words                                             *
    2121              ;*                        (2 return address/alignment)                         *
    2122              ;*                        (20 local values)                                    *
    2123              ;*   Min System Stack   : 1 word                                               *
    2124              ;*******************************************************************************
    2125 000674       _USB_handleRx:
    2126                      .dwcfi  cfa_offset, 1
    2127                      .dwcfi  save_reg_to_mem, 91, -1
    2128 000674 4EEB          AADD #-21, SP
    2129                      .dwcfi  cfa_offset, 22
    2130              $C$DW$208       .dwtag  DW_TAG_variable, DW_AT_name("pContext")
    2131                      .dwattr $C$DW$208, DW_AT_TI_symbol_name("_pContext")
    2132                      .dwattr $C$DW$208, DW_AT_type(*$C$DW$T$167)
    2133                      .dwattr $C$DW$208, DW_AT_location[DW_OP_bregx 0x24 0]
    2134              $C$DW$209       .dwtag  DW_TAG_variable, DW_AT_name("dwEndpoint")
    2135                      .dwattr $C$DW$209, DW_AT_TI_symbol_name("_dwEndpoint")
    2136                      .dwattr $C$DW$209, DW_AT_type(*$C$DW$T$98)
    2137                      .dwattr $C$DW$209, DW_AT_location[DW_OP_bregx 0x24 2]
    2138              $C$DW$210       .dwtag  DW_TAG_variable, DW_AT_name("cbToRead")
    2139                      .dwattr $C$DW$210, DW_AT_TI_symbol_name("_cbToRead")
    2140                      .dwattr $C$DW$210, DW_AT_type(*$C$DW$T$98)
    2141                      .dwattr $C$DW$210, DW_AT_location[DW_OP_bregx 0x24 4]
TMS320C55x Assembler PC v4.4.1 Sat Sep 29 23:08:33 2018

Tools Copyright (c) 1996-2012 Texas Instruments Incorporated
csl_usb_poll_example.asm                                             PAGE   49

    2142              $C$DW$211       .dwtag  DW_TAG_variable, DW_AT_name("cbBuffer")
    2143                      .dwattr $C$DW$211, DW_AT_TI_symbol_name("_cbBuffer")
    2144                      .dwattr $C$DW$211, DW_AT_type(*$C$DW$T$98)
    2145                      .dwattr $C$DW$211, DW_AT_location[DW_OP_bregx 0x24 6]
    2146              $C$DW$212       .dwtag  DW_TAG_variable, DW_AT_name("dwBytesRead")
    2147                      .dwattr $C$DW$212, DW_AT_TI_symbol_name("_dwBytesRead")
    2148                      .dwattr $C$DW$212, DW_AT_type(*$C$DW$T$98)
    2149                      .dwattr $C$DW$212, DW_AT_location[DW_OP_bregx 0x24 8]
    2150              $C$DW$213       .dwtag  DW_TAG_variable, DW_AT_name("pwBuffer")
    2151                      .dwattr $C$DW$213, DW_AT_TI_symbol_name("_pwBuffer")
    2152                      .dwattr $C$DW$213, DW_AT_type(*$C$DW$T$96)
    2153                      .dwattr $C$DW$213, DW_AT_location[DW_OP_bregx 0x24 10]
    2154              $C$DW$214       .dwtag  DW_TAG_variable, DW_AT_name("pTransfer")
    2155                      .dwattr $C$DW$214, DW_AT_TI_symbol_name("_pTransfer")
    2156                      .dwattr $C$DW$214, DW_AT_type(*$C$DW$T$173)
    2157                      .dwattr $C$DW$214, DW_AT_location[DW_OP_bregx 0x24 12]
    2158              $C$DW$215       .dwtag  DW_TAG_variable, DW_AT_name("status")
    2159                      .dwattr $C$DW$215, DW_AT_TI_symbol_name("_status")
    2160                      .dwattr $C$DW$215, DW_AT_type(*$C$DW$T$89)
    2161                      .dwattr $C$DW$215, DW_AT_location[DW_OP_bregx 0x24 14]
    2162              $C$DW$216       .dwtag  DW_TAG_variable, DW_AT_name("saveIndex")
    2163                      .dwattr $C$DW$216, DW_AT_TI_symbol_name("_saveIndex")
    2164                      .dwattr $C$DW$216, DW_AT_type(*$C$DW$T$19)
    2165                      .dwattr $C$DW$216, DW_AT_location[DW_OP_bregx 0x24 15]
    2166              $C$DW$217       .dwtag  DW_TAG_variable, DW_AT_name("peps")
    2167                      .dwattr $C$DW$217, DW_AT_TI_symbol_name("_peps")
    2168                      .dwattr $C$DW$217, DW_AT_type(*$C$DW$T$171)
    2169                      .dwattr $C$DW$217, DW_AT_location[DW_OP_bregx 0x24 16]
    2170              $C$DW$218       .dwtag  DW_TAG_variable, DW_AT_name("count")
    2171                      .dwattr $C$DW$218, DW_AT_TI_symbol_name("_count")
    2172                      .dwattr $C$DW$218, DW_AT_type(*$C$DW$T$20)
    2173                      .dwattr $C$DW$218, DW_AT_location[DW_OP_bregx 0x24 18]
    2174              $C$DW$219       .dwtag  DW_TAG_variable, DW_AT_name("pFifoAddr")
    2175                      .dwattr $C$DW$219, DW_AT_TI_symbol_name("_pFifoAddr")
    2176                      .dwattr $C$DW$219, DW_AT_type(*$C$DW$T$240)
    2177                      .dwattr $C$DW$219, DW_AT_location[DW_OP_bregx 0x24 19]
    2178 000676 EB04          MOV AC0, dbl(*SP(#2)) ; |1109| 
         000678 08   
    2179 000679 EB00          MOV XAR0, dbl(*SP(#0))
         00067b 85   
    2180                      .dwpsn  file "F:/eZdsp_DBG/tmp1/c55x-sim2/foo/c5535_bsl_revc/ezdsp5535_v1/c55xx_csl/inc/csl_usbAux.h"
    2181 00067c E61C          MOV #0, *SP(#14) ; |1121| 
         00067e 00   
    2182                      .dwpsn  file "F:/eZdsp_DBG/tmp1/c55x-sim2/foo/c5535_bsl_revc/ezdsp5535_v1/c55xx_csl/inc/csl_usbAux.h"
    2183 00067f 3C00          MOV #0, AC0 ; |1122| 
    2184 000681 EB10          MOV AC0, dbl(*SP(#8)) ; |1122| 
         000683 08   
    2185                      .dwpsn  file "F:/eZdsp_DBG/tmp1/c55x-sim2/foo/c5535_bsl_revc/ezdsp5535_v1/c55xx_csl/inc/csl_usbAux.h"
    2186 000684 ED00          MOV dbl(*SP(#0)), XAR3
         000686 BF   
    2187 000687 90B0          MOV XAR3, AC0
    2188 000689 6D00          BCC $C$L51,AC0 == #0 ; |1124| 
         00068b 0221 
    2189                                                      ; branchcc occurs ; |1124| 
    2190                      .dwpsn  file "F:/eZdsp_DBG/tmp1/c55x-sim2/foo/c5535_bsl_revc/ezdsp5535_v1/c55xx_csl/inc/csl_usbAux.h"
TMS320C55x Assembler PC v4.4.1 Sat Sep 29 23:08:33 2018

Tools Copyright (c) 1996-2012 Texas Instruments Incorporated
csl_usb_poll_example.asm                                             PAGE   50

    2191 00068d ED6D          MOV dbl(*AR3(#98)), XAR3
         00068f BF00 
         000691 62   
    2192 000692 F806          MPYMK *SP(#3), #18, AC0 ; |1126| 
         000694 1200 
    2193 000696 2209          MOV AC0, AR1 ; |1126| 
    2194              
    2195 000698 8E20          MOV XAR3, dbl(*SP(#16))
         00069a BB10 
         00069c B590 
    2196              ||      AADD AR1, AR3 ; |1126| 
    2197              
    2198                      .dwpsn  file "F:/eZdsp_DBG/tmp1/c55x-sim2/foo/c5535_bsl_revc/ezdsp5535_v1/c55xx_csl/inc/csl_usbAux.h"
    2199 00069e ED6D          MOV dbl(*AR3(#10)), XAR3
         0006a0 BF00 
         0006a2 0A   
    2200 0006a3 EB18          MOV XAR3, dbl(*SP(#12))
         0006a5 B5   
    2201                      .dwpsn  file "F:/eZdsp_DBG/tmp1/c55x-sim2/foo/c5535_bsl_revc/ezdsp5535_v1/c55xx_csl/inc/csl_usbAux.h"
    2202 0006a6 90B0          MOV XAR3, AC0
    2203 0006a8 6D00          BCC $C$L50,AC0 == #0 ; |1129| 
         0006aa 01FD 
    2204                                                      ; branchcc occurs ; |1129| 
    2205 0006ac A96D          MOV *AR3(#12), AR1 ; |1129| 
         0006ae 000C 
    2206 0006b0 6D19          BCC $C$L50,AR1 != #0 ; |1129| 
         0006b2 01F5 
    2207                                                      ; branchcc occurs ; |1129| 
    2208                      .dwpsn  file "F:/eZdsp_DBG/tmp1/c55x-sim2/foo/c5535_bsl_revc/ezdsp5535_v1/c55xx_csl/inc/csl_usbAux.h"
    2209 0006b4 ED6D          MOV dbl(*AR3(#8)), AC0 ; |1131| 
         0006b6 0800 
         0006b8 08   
    2210 0006b9 ED7D          SUB AC0, dbl(*AR3(short(#6))), AC0 ; |1131| 
         0006bb 04   
    2211 0006bc EB0C          MOV AC0, dbl(*SP(#6)) ; |1131| 
         0006be 08   
    2212                      .dwpsn  file "F:/eZdsp_DBG/tmp1/c55x-sim2/foo/c5535_bsl_revc/ezdsp5535_v1/c55xx_csl/inc/csl_usbAux.h"
    2213 0006bf ED18          MOV dbl(*SP(#12)), XAR3
         0006c1 BF   
    2214 0006c2 ED6D          MOV dbl(*AR3(#8)), AC0 ; |1132| 
         0006c4 0800 
         0006c6 08   
    2215 0006c7 5001          SFTL AC0, #-1 ; |1132| 
    2216 0006c9 2209          MOV AC0, AR1 ; |1132| 
    2217 0006cb ED79          MOV dbl(*AR3(short(#4))), XAR3
         0006cd BF   
    2218              
    2219 0006ce 8E14          MOV XAR3, dbl(*SP(#10))
         0006d0 BB10 
         0006d2 B590 
    2220              ||      AADD AR1, AR3 ; |1132| 
    2221              
    2222                      .dwpsn  file "F:/eZdsp_DBG/tmp1/c55x-sim2/foo/c5535_bsl_revc/ezdsp5535_v1/c55xx_csl/inc/csl_usbAux.h"
    2223 0006d4 ED20          MOV dbl(*SP(#16)), XAR3
         0006d6 BF   
TMS320C55x Assembler PC v4.4.1 Sat Sep 29 23:08:33 2018

Tools Copyright (c) 1996-2012 Texas Instruments Incorporated
csl_usb_poll_example.asm                                             PAGE   51

    2224 0006d7 A96D          MOV *AR3(#9), AR1 ; |1133| 
         0006d9 0009 
    2225 0006db C926          MOV AR1, *SP(#19) ; |1133| 
    2226                      .dwpsn  file "F:/eZdsp_DBG/tmp1/c55x-sim2/foo/c5535_bsl_revc/ezdsp5535_v1/c55xx_csl/inc/csl_usbAux.h"
    2227 0006dd ED20          MOV dbl(*SP(#16)), XAR3
         0006df BF   
    2228 0006e0 ED0C          MOV dbl(*SP(#6)), AC1 ; |1136| 
         0006e2 18   
    2229 0006e3 ED79          MOV dbl(*AR3(short(#4))), AC0 ; |1136| 
         0006e5 08   
    2230 0006e6 1218          CMPU AC1 >= AC0, TC1 ; |1136| 
         0006e8 04   
    2231 0006e9 62E4          BCC $C$L39,TC1 ; |1136| 
    2232                                                      ; branchcc occurs ; |1136| 
    2233 0006eb ED0C          MOV dbl(*SP(#6)), AC0 ; |1136| 
         0006ed 08   
    2234 0006ee 4A03          B $C$L40  ; |1136| 
    2235                                                      ; branch occurs ; |1136| 
    2236 0006f0       $C$L39:    
    2237 0006f0 ED79          MOV dbl(*AR3(short(#4))), AC0 ; |1136| 
         0006f2 08   
    2238 0006f3       $C$L40:    
    2239 0006f3 EB08          MOV AC0, dbl(*SP(#4)) ; |1136| 
         0006f5 08   
    2240                      .dwpsn  file "F:/eZdsp_DBG/tmp1/c55x-sim2/foo/c5535_bsl_revc/ezdsp5535_v1/c55xx_csl/inc/csl_usbAux.h"
    2241 0006f6 7602          MOV #512, AC0 ; |1138| 
         0006f8 0008 
    2242 0006fa ED08          MOV dbl(*SP(#4)), AC1 ; |1138| 
         0006fc 18   
    2243 0006fd 1210          CMPU AC1 == AC0, TC1 ; |1138| 
         0006ff 04   
    2244 000700 66E4          BCC $C$L41,TC1 ; |1138| 
    2245                                                      ; branchcc occurs ; |1138| 
    2246 000702 7600          MOV #64, AC0 ; |1138| 
         000704 4008 
    2247 000706 ED08          MOV dbl(*SP(#4)), AC1 ; |1138| 
         000708 18   
    2248 000709 121C          CMPU AC1 != AC0, TC1 ; |1138| 
         00070b 04   
    2249 00070c 0464          BCC $C$L43,TC1 ; |1138| 
         00070e 5B   
    2250                                                      ; branchcc occurs ; |1138| 
    2251 00070f       $C$L41:    
    2252 00070f ED00          MOV dbl(*SP(#0)), XAR3
         000711 BF   
    2253 000712 F061          CMP *AR3 == #1, TC1 ; |1138| 
         000714 0001 
    2254 000716 0474          BCC $C$L43,!TC1 ; |1138| 
         000718 51   
    2255                                                      ; branchcc occurs ; |1138| 
    2256                      .dwpsn  file "F:/eZdsp_DBG/tmp1/c55x-sim2/foo/c5535_bsl_revc/ezdsp5535_v1/c55xx_csl/inc/csl_usbAux.h"
    2257 000719 ED18          MOV dbl(*SP(#12)), XAR3
         00071b BF   
    2258 00071c ED08          MOV dbl(*SP(#4)), AC0 ; |1141| 
         00071e 08   
TMS320C55x Assembler PC v4.4.1 Sat Sep 29 23:08:33 2018

Tools Copyright (c) 1996-2012 Texas Instruments Incorporated
csl_usb_poll_example.asm                                             PAGE   52

    2259 00071f ED6D          ADD dbl(*AR3(#8)), AC0, AC0 ; |1141| 
         000721 0000 
         000723 08   
    2260 000724 EB6D          MOV AC0, dbl(*AR3(#8)) ; |1141| 
         000726 0800 
         000728 08   
    2261                      .dwpsn  file "F:/eZdsp_DBG/tmp1/c55x-sim2/foo/c5535_bsl_revc/ezdsp5535_v1/c55xx_csl/inc/csl_usbAux.h"
    2262 000729 ED18          MOV dbl(*SP(#12)), XAR3
         00072b BF   
    2263 00072c ED08          MOV dbl(*SP(#4)), AC0 ; |1142| 
         00072e 08   
    2264 00072f EB6D          MOV AC0, dbl(*AR3(#10)) ; |1142| 
         000731 0800 
         000733 0A   
    2265                      .dwpsn  file "F:/eZdsp_DBG/tmp1/c55x-sim2/foo/c5535_bsl_revc/ezdsp5535_v1/c55xx_csl/inc/csl_usbAux.h"
    2266 000734 ED04          MOV dbl(*SP(#2)), AC0 ; |1144| 
         000736 08   
    2267              $C$DW$220       .dwtag  DW_TAG_TI_branch
    2268                      .dwattr $C$DW$220, DW_AT_low_pc(0x00)
    2269                      .dwattr $C$DW$220, DW_AT_name("_USB_dmaRxStart")
    2270                      .dwattr $C$DW$220, DW_AT_TI_call
    2271 000737 08F8          CALL #_USB_dmaRxStart ; |1144| 
         000739 C6   
    2272                                                      ; call occurs [#_USB_dmaRxStart] ; |1144| 
    2273                      .dwpsn  file "F:/eZdsp_DBG/tmp1/c55x-sim2/foo/c5535_bsl_revc/ezdsp5535_v1/c55xx_csl/inc/csl_usbAux.h"
    2274 00073a ED18          MOV dbl(*SP(#12)), XAR3
         00073c BF   
    2275 00073d ED6D          MOV dbl(*AR3(#8)), AC1 ; |1146| 
         00073f 1800 
         000741 08   
    2276 000742 ED7D          MOV dbl(*AR3(short(#6))), AC0 ; |1146| 
         000744 08   
    2277 000745 121C          CMPU AC1 != AC0, TC1 ; |1146| 
         000747 04   
    2278 000748 65E4          BCC $C$L42,TC1 ; |1146| 
    2279                                                      ; branchcc occurs ; |1146| 
    2280                      .dwpsn  file "F:/eZdsp_DBG/tmp1/c55x-sim2/foo/c5535_bsl_revc/ezdsp5535_v1/c55xx_csl/inc/csl_usbAux.h"
    2281 00074a E66D          MOV #1, *AR3(#12) ; |1148| 
         00074c 0100 
         00074e 0C   
    2282                      .dwpsn  file "F:/eZdsp_DBG/tmp1/c55x-sim2/foo/c5535_bsl_revc/ezdsp5535_v1/c55xx_csl/inc/csl_usbAux.h"
    2283 00074f ED00          MOV dbl(*SP(#0)), XAR3
         000751 BF   
    2284 000752 E67D          MOV #0, *AR3(short(#6)) ; |1149| 
         000754 00   
    2285 000755       $C$L42:    
    2286                      .dwpsn  file "F:/eZdsp_DBG/tmp1/c55x-sim2/foo/c5535_bsl_revc/ezdsp5535_v1/c55xx_csl/inc/csl_usbAux.h"
    2287 000755 ED00          MOV dbl(*SP(#0)), XAR3
         000757 BF   
    2288 000758 ED00          MOV dbl(*SP(#0)), XAR0
         00075a 8F   
    2289 00075b ED20          MOV dbl(*SP(#16)), XAR1
         00075d 9F   
    2290 00075e ED6D          MOV dbl(*AR3(#116)), AC0 ; |1152| 
         000760 0800 
TMS320C55x Assembler PC v4.4.1 Sat Sep 29 23:08:33 2018

Tools Copyright (c) 1996-2012 Texas Instruments Incorporated
csl_usb_poll_example.asm                                             PAGE   53

         000762 74   
    2291              $C$DW$221       .dwtag  DW_TAG_TI_branch
    2292                      .dwattr $C$DW$221, DW_AT_low_pc(0x00)
    2293                      .dwattr $C$DW$221, DW_AT_TI_call
    2294                      .dwattr $C$DW$221, DW_AT_TI_indirect
    2295 000763 9200          CALL AC0  ; |1152| 
    2296                                                      ; call occurs [AC0] ; |1152| 
    2297 000765 C41C          MOV T0, *SP(#14) ; |1152| 
    2298                      .dwpsn  file "F:/eZdsp_DBG/tmp1/c55x-sim2/foo/c5535_bsl_revc/ezdsp5535_v1/c55xx_csl/inc/csl_usbAux.h"
    2299 000767 0601          B $C$L52  ; |1153| 
         000769 47   
    2300                                                      ; branch occurs ; |1153| 
    2301 00076a       $C$L43:    
    2302                      .dwpsn  file "F:/eZdsp_DBG/tmp1/c55x-sim2/foo/c5535_bsl_revc/ezdsp5535_v1/c55xx_csl/inc/csl_usbAux.h"
    2303 00076a ED08          MOV dbl(*SP(#4)), AC0 ; |1166| 
         00076c 08   
    2304 00076d 0400          BCC $C$L46,AC0 == #0 ; |1166| 
         00076f 78   
    2305                                                      ; branchcc occurs ; |1166| 
    2306                      .dwpsn  file "F:/eZdsp_DBG/tmp1/c55x-sim2/foo/c5535_bsl_revc/ezdsp5535_v1/c55xx_csl/inc/csl_usbAux.h"
    2307 000770 ED08          MOV dbl(*SP(#4)), AC0 ; |1169| 
         000772 08   
    2308 000773 EB10          MOV AC0, dbl(*SP(#8)) ; |1169| 
         000775 08   
    2309                      .dwpsn  file "F:/eZdsp_DBG/tmp1/c55x-sim2/foo/c5535_bsl_revc/ezdsp5535_v1/c55xx_csl/inc/csl_usbAux.h"
    2310 000776 E624          MOV #0, *SP(#18) ; |1171| 
         000778 00   
    2311 000779 20            NOP
    2312 00077a 20            NOP
    2313                      .dwpsn  file "F:/eZdsp_DBG/tmp1/c55x-sim2/foo/c5535_bsl_revc/ezdsp5535_v1/c55xx_csl/inc/csl_usbAux.h"
    2314 00077b ED08          MOV dbl(*SP(#4)), AC0 ; |1171| 
         00077d 08   
    2315              
    2316 000781 5101          SFTL AC0, #-1 ; |1171| 
    2317 00077e DF24  ||      MOV uns(*SP(#18)), AC1 ; |1171| 
         000780 15   
    2318              
    2319 000783 1218          CMPU AC1 >= AC0, TC1 ; |1171| 
         000785 04   
    2320 000786 0464          BCC $C$L45,TC1 ; |1171| 
         000788 26   
    2321                                                      ; branchcc occurs ; |1171| 
    2322 000789       $C$L44:    
    2323 000789       $C$DW$L$_USB_handleRx$15$B:
    2324                      .dwpsn  file "F:/eZdsp_DBG/tmp1/c55x-sim2/foo/c5535_bsl_revc/ezdsp5535_v1/c55xx_csl/inc/csl_usbAux.h"
    2325 000789 ED14          MOV dbl(*SP(#10)), XAR2
         00078b AF   
    2326 00078c EC41          AMAR *AR2, XAR3
         00078e BE   
    2327 00078f B463          AMAR *AR3+
    2328 000791 EB14          MOV XAR3, dbl(*SP(#10))
         000793 B5   
    2329 000794 AB26          MOV *SP(#19), AR3 ; |1173| 
    2330 000796 A961          MOV port(*AR3), AR1 ; |1173| 
         000798 99   
TMS320C55x Assembler PC v4.4.1 Sat Sep 29 23:08:33 2018

Tools Copyright (c) 1996-2012 Texas Instruments Incorporated
csl_usb_poll_example.asm                                             PAGE   54

    2331 000799 C941          MOV AR1, *AR2 ; |1173| 
    2332                      .dwpsn  file "F:/eZdsp_DBG/tmp1/c55x-sim2/foo/c5535_bsl_revc/ezdsp5535_v1/c55xx_csl/inc/csl_usbAux.h"
    2333 00079b F724          ADD #1, *SP(#18) ; |1171| 
         00079d 0001 
    2334 00079f 20            NOP
    2335 0007a0 20            NOP
    2336                      .dwpsn  file "F:/eZdsp_DBG/tmp1/c55x-sim2/foo/c5535_bsl_revc/ezdsp5535_v1/c55xx_csl/inc/csl_usbAux.h"
    2337 0007a1 ED08          MOV dbl(*SP(#4)), AC0 ; |1171| 
         0007a3 08   
    2338              
    2339 0007a7 5101          SFTL AC0, #-1 ; |1171| 
    2340 0007a4 DF24  ||      MOV uns(*SP(#18)), AC1 ; |1171| 
         0007a6 15   
    2341              
    2342 0007a9 1214          CMPU AC1 < AC0, TC1 ; |1171| 
         0007ab 04   
    2343 0007ac 0464          BCC $C$L44,TC1 ; |1171| 
         0007ae DA   
    2344                                                      ; branchcc occurs ; |1171| 
    2345 0007af       $C$DW$L$_USB_handleRx$15$E:
    2346 0007af       $C$L45:    
    2347                      .dwpsn  file "F:/eZdsp_DBG/tmp1/c55x-sim2/foo/c5535_bsl_revc/ezdsp5535_v1/c55xx_csl/inc/csl_usbAux.h"
    2348 0007af ED08          MOV dbl(*SP(#4)), AC0 ; |1176| 
         0007b1 08   
    2349 0007b2 1801          AND #0x0001, AC0, AC0 ; |1176| 
         0007b4 00   
    2350 0007b5 0400          BCC $C$L46,AC0 == #0 ; |1176| 
         0007b7 30   
    2351                                                      ; branchcc occurs ; |1176| 
    2352                      .dwpsn  file "F:/eZdsp_DBG/tmp1/c55x-sim2/foo/c5535_bsl_revc/ezdsp5535_v1/c55xx_csl/inc/csl_usbAux.h"
    2353 0007b8 7600          MOV #50, T0 ; |1179| 
         0007ba 3248 
    2354 0007bc AB31          MOV *(#_sysCtrlRegs), AR3 ; |1179| 
         0007be 0000 
         0007c0 00!  
    2355 0007c1 A96B          MOV port(*AR3(T0)), AR1 ; |1179| 
         0007c3 99   
    2356 0007c4 7DFF          AND #0xfffc, AR1, AC0 ; |1179| 
         0007c6 FC09 
    2357 0007c8 EC02          BSET @#1, AC0 ; |1179| 
         0007ca 00   
    2358 0007cb C06B          MOV AC0, port(*AR3(T0)) ; |1179| 
         0007cd 9A   
    2359                      .dwpsn  file "F:/eZdsp_DBG/tmp1/c55x-sim2/foo/c5535_bsl_revc/ezdsp5535_v1/c55xx_csl/inc/csl_usbAux.h"
    2360 0007ce AB26          MOV *SP(#19), AR3 ; |1181| 
    2361 0007d0 ED14          MOV dbl(*SP(#10)), XAR2
         0007d2 AF   
    2362 0007d3 DF61          MOV uns(low_byte(port(*AR3))), AR1 ; |1181| 
         0007d5 93   
         0007d6 99   
    2363 0007d7 C941          MOV AR1, *AR2 ; |1181| 
    2364                      .dwpsn  file "F:/eZdsp_DBG/tmp1/c55x-sim2/foo/c5535_bsl_revc/ezdsp5535_v1/c55xx_csl/inc/csl_usbAux.h"
    2365 0007d9 AB31          MOV *(#_sysCtrlRegs), AR3 ; |1184| 
         0007db 0000 
         0007dd 00!  
TMS320C55x Assembler PC v4.4.1 Sat Sep 29 23:08:33 2018

Tools Copyright (c) 1996-2012 Texas Instruments Incorporated
csl_usb_poll_example.asm                                             PAGE   55

    2366 0007de A96B          MOV port(*AR3(T0)), AR1 ; |1184| 
         0007e0 99   
    2367 0007e1 7DFF          AND #0xfffc, AR1, AC0 ; |1184| 
         0007e3 FC09 
    2368 0007e5 C06B          MOV AC0, port(*AR3(T0)) ; |1184| 
         0007e7 9A   
    2369 0007e8       $C$L46:    
    2370                      .dwpsn  file "F:/eZdsp_DBG/tmp1/c55x-sim2/foo/c5535_bsl_revc/ezdsp5535_v1/c55xx_csl/inc/csl_usbAux.h"
    2371 0007e8 ED18          MOV dbl(*SP(#12)), XAR3
         0007ea BF   
    2372 0007eb ED10          MOV dbl(*SP(#8)), AC0 ; |1189| 
         0007ed 08   
    2373 0007ee ED6D          ADD dbl(*AR3(#8)), AC0, AC0 ; |1189| 
         0007f0 0000 
         0007f2 08   
    2374 0007f3 EB6D          MOV AC0, dbl(*AR3(#8)) ; |1189| 
         0007f5 0800 
         0007f7 08   
    2375                      .dwpsn  file "F:/eZdsp_DBG/tmp1/c55x-sim2/foo/c5535_bsl_revc/ezdsp5535_v1/c55xx_csl/inc/csl_usbAux.h"
    2376 0007f8 ED18          MOV dbl(*SP(#12)), XAR3
         0007fa BF   
    2377 0007fb ED10          MOV dbl(*SP(#8)), AC0 ; |1190| 
         0007fd 08   
    2378 0007fe EB6D          MOV AC0, dbl(*AR3(#10)) ; |1190| 
         000800 0800 
         000802 0A   
    2379                      .dwpsn  file "F:/eZdsp_DBG/tmp1/c55x-sim2/foo/c5535_bsl_revc/ezdsp5535_v1/c55xx_csl/inc/csl_usbAux.h"
    2380 000803 ED18          MOV dbl(*SP(#12)), XAR3
         000805 BF   
    2381 000806 ED6D          MOV dbl(*AR3(#8)), AC1 ; |1192| 
         000808 1800 
         00080a 08   
    2382 00080b ED7D          MOV dbl(*AR3(short(#6))), AC0 ; |1192| 
         00080d 08   
    2383 00080e 1210          CMPU AC1 == AC0, TC1 ; |1192| 
         000810 04   
    2384 000811 62E4          BCC $C$L47,TC1 ; |1192| 
    2385                                                      ; branchcc occurs ; |1192| 
    2386 000813 ED10          MOV dbl(*SP(#8)), AC0 ; |1192| 
         000815 08   
    2387 000816 6290          BCC $C$L48,AC0 != #0 ; |1192| 
    2388                                                      ; branchcc occurs ; |1192| 
    2389 000818       $C$L47:    
    2390                      .dwpsn  file "F:/eZdsp_DBG/tmp1/c55x-sim2/foo/c5535_bsl_revc/ezdsp5535_v1/c55xx_csl/inc/csl_usbAux.h"
    2391 000818 E66D          MOV #1, *AR3(#12) ; |1195| 
         00081a 0100 
         00081c 0C   
    2392 00081d       $C$L48:    
    2393                      .dwpsn  file "F:/eZdsp_DBG/tmp1/c55x-sim2/foo/c5535_bsl_revc/ezdsp5535_v1/c55xx_csl/inc/csl_usbAux.h"
    2394 00081d 7604          MOV #1038, T0 ; |1199| 
         00081f 0E48 
    2395 000821 AB31          MOV *(#_usbRegisters), AR3 ; |1199| 
         000823 0000 
         000825 00!  
    2396 000826 A96B          MOV port(*AR3(T0)), AR1 ; |1199| 
TMS320C55x Assembler PC v4.4.1 Sat Sep 29 23:08:33 2018

Tools Copyright (c) 1996-2012 Texas Instruments Incorporated
csl_usb_poll_example.asm                                             PAGE   56

         000828 99   
    2397 000829 C91E          MOV AR1, *SP(#15) ; |1199| 
    2398                      .dwpsn  file "F:/eZdsp_DBG/tmp1/c55x-sim2/foo/c5535_bsl_revc/ezdsp5535_v1/c55xx_csl/inc/csl_usbAux.h"
    2399 00082b A96B          MOV port(*AR3(T0)), AR1 ; |1201| 
         00082d 99   
    2400 00082e 7DFF          AND #0xfff0, AR1, AC0 ; |1201| 
         000830 F009 
    2401 000832 C06B          MOV AC0, port(*AR3(T0)) ; |1201| 
         000834 9A   
    2402                      .dwpsn  file "F:/eZdsp_DBG/tmp1/c55x-sim2/foo/c5535_bsl_revc/ezdsp5535_v1/c55xx_csl/inc/csl_usbAux.h"
    2403 000835 AB31          MOV *(#_usbRegisters), AR3 ; |1205| 
         000837 0000 
         000839 00!  
    2404 00083a ED04          MOV dbl(*SP(#2)), AC0 ; |1205| 
         00083c 08   
    2405 00083d 180F          AND #0x000f, AC0, AC0 ; |1205| 
         00083f 00   
    2406 000840 A96B          MOV port(*AR3(T0)), AR1 ; |1205| 
         000842 99   
    2407 000843 7DFF          AND #0xfff0, AR1, AC1 ; |1205| 
         000845 F019 
    2408 000847 2A10          OR AC1, AC0 ; |1205| 
    2409 000849 C06B          MOV AC0, port(*AR3(T0)) ; |1205| 
         00084b 9A   
    2410                      .dwpsn  file "F:/eZdsp_DBG/tmp1/c55x-sim2/foo/c5535_bsl_revc/ezdsp5535_v1/c55xx_csl/inc/csl_usbAux.h"
    2411 00084c ED20          MOV dbl(*SP(#16)), XAR3
         00084e BF   
    2412 00084f F075          CMP *AR3(short(#2)) == #3, TC1 ; |1208| 
         000851 0003 
    2413 000853 6774          BCC $C$L49,!TC1 ; |1208| 
    2414                                                      ; branchcc occurs ; |1208| 
    2415                      .dwpsn  file "F:/eZdsp_DBG/tmp1/c55x-sim2/foo/c5535_bsl_revc/ezdsp5535_v1/c55xx_csl/inc/csl_usbAux.h"
    2416 000855 7604          MOV #1046, T0 ; |1211| 
         000857 1648 
    2417 000859 AB31          MOV *(#_usbRegisters), AR3 ; |1211| 
         00085b 0000 
         00085d 00!  
    2418 00085e F56B          OR #0x0080, port(*AR3(T0)) ; |1211| 
         000860 0080 
         000862 9A   
    2419 000863       $C$L49:    
    2420                      .dwpsn  file "F:/eZdsp_DBG/tmp1/c55x-sim2/foo/c5535_bsl_revc/ezdsp5535_v1/c55xx_csl/inc/csl_usbAux.h"
    2421 000863 7604          MOV #1046, T0 ; |1215| 
         000865 1648 
    2422 000867 AB31          MOV *(#_usbRegisters), AR3 ; |1215| 
         000869 0000 
         00086b 00!  
    2423 00086c A96B          MOV port(*AR3(T0)), AR1 ; |1215| 
         00086e 99   
    2424 00086f EC00          BCLR @#0, AR1 ; |1215| 
         000871 92   
    2425 000872 C96B          MOV AR1, port(*AR3(T0)) ; |1215| 
         000874 9A   
    2426                      .dwpsn  file "F:/eZdsp_DBG/tmp1/c55x-sim2/foo/c5535_bsl_revc/ezdsp5535_v1/c55xx_csl/inc/csl_usbAux.h"
    2427 000875 7604          MOV #1038, T0 ; |1219| 
TMS320C55x Assembler PC v4.4.1 Sat Sep 29 23:08:33 2018

Tools Copyright (c) 1996-2012 Texas Instruments Incorporated
csl_usb_poll_example.asm                                             PAGE   57

         000877 0E48 
    2428 000879 AB31          MOV *(#_usbRegisters), AR3 ; |1219| 
         00087b 0000 
         00087d 00!  
    2429 00087e A91E          MOV *SP(#15), AR1 ; |1219| 
    2430 000880 C96B          MOV AR1, port(*AR3(T0)) ; |1219| 
         000882 9A   
    2431                      .dwpsn  file "F:/eZdsp_DBG/tmp1/c55x-sim2/foo/c5535_bsl_revc/ezdsp5535_v1/c55xx_csl/inc/csl_usbAux.h"
    2432 000883 ED18          MOV dbl(*SP(#12)), XAR3
         000885 BF   
    2433 000886 F06D          CMP *AR3(#12) == #1, TC1 ; |1221| 
         000888 0001 
         00088a 000C 
    2434 00088c 0474          BCC $C$L52,!TC1 ; |1221| 
         00088e 22   
    2435                                                      ; branchcc occurs ; |1221| 
    2436                      .dwpsn  file "F:/eZdsp_DBG/tmp1/c55x-sim2/foo/c5535_bsl_revc/ezdsp5535_v1/c55xx_csl/inc/csl_usbAux.h"
    2437 00088f ED00          MOV dbl(*SP(#0)), XAR3
         000891 BF   
    2438 000892 E67D          MOV #0, *AR3(short(#6)) ; |1223| 
         000894 00   
    2439                      .dwpsn  file "F:/eZdsp_DBG/tmp1/c55x-sim2/foo/c5535_bsl_revc/ezdsp5535_v1/c55xx_csl/inc/csl_usbAux.h"
    2440 000895 ED00          MOV dbl(*SP(#0)), XAR3
         000897 BF   
    2441 000898 ED00          MOV dbl(*SP(#0)), XAR0
         00089a 8F   
    2442 00089b ED20          MOV dbl(*SP(#16)), XAR1
         00089d 9F   
    2443 00089e ED6D          MOV dbl(*AR3(#116)), AC0 ; |1234| 
         0008a0 0800 
         0008a2 74   
    2444              $C$DW$222       .dwtag  DW_TAG_TI_branch
    2445                      .dwattr $C$DW$222, DW_AT_low_pc(0x00)
    2446                      .dwattr $C$DW$222, DW_AT_TI_call
    2447                      .dwattr $C$DW$222, DW_AT_TI_indirect
    2448 0008a3 9200          CALL AC0  ; |1234| 
    2449                                                      ; call occurs [AC0] ; |1234| 
    2450 0008a5 C41C          MOV T0, *SP(#14) ; |1234| 
    2451                      .dwpsn  file "F:/eZdsp_DBG/tmp1/c55x-sim2/foo/c5535_bsl_revc/ezdsp5535_v1/c55xx_csl/inc/csl_usbAux.h"
    2452 0008a7 4A08          B $C$L52  ; |1237| 
    2453                                                      ; branch occurs ; |1237| 
    2454 0008a9       $C$L50:    
    2455                      .dwpsn  file "F:/eZdsp_DBG/tmp1/c55x-sim2/foo/c5535_bsl_revc/ezdsp5535_v1/c55xx_csl/inc/csl_usbAux.h"
    2456 0008a9 E61C          MOV #-6, *SP(#14) ; |1240| 
         0008ab FA   
    2457                      .dwpsn  file "F:/eZdsp_DBG/tmp1/c55x-sim2/foo/c5535_bsl_revc/ezdsp5535_v1/c55xx_csl/inc/csl_usbAux.h"
    2458 0008ac 4A03          B $C$L52  ; |1242| 
    2459                                                      ; branch occurs ; |1242| 
    2460 0008ae       $C$L51:    
    2461                      .dwpsn  file "F:/eZdsp_DBG/tmp1/c55x-sim2/foo/c5535_bsl_revc/ezdsp5535_v1/c55xx_csl/inc/csl_usbAux.h"
    2462 0008ae E61C          MOV #-6, *SP(#14) ; |1245| 
         0008b0 FA   
    2463 0008b1       $C$L52:    
    2464                      .dwpsn  file "F:/eZdsp_DBG/tmp1/c55x-sim2/foo/c5535_bsl_revc/ezdsp5535_v1/c55xx_csl/inc/csl_usbAux.h"
    2465 0008b1 A41C          MOV *SP(#14), T0 ; |1248| 
TMS320C55x Assembler PC v4.4.1 Sat Sep 29 23:08:33 2018

Tools Copyright (c) 1996-2012 Texas Instruments Incorporated
csl_usb_poll_example.asm                                             PAGE   58

    2466                      .dwpsn  file "F:/eZdsp_DBG/tmp1/c55x-sim2/foo/c5535_bsl_revc/ezdsp5535_v1/c55xx_csl/inc/csl_usbAux.h"
    2467 0008b3 4E15          AADD #21, SP
    2468                      .dwcfi  cfa_offset, 1
    2469              $C$DW$223       .dwtag  DW_TAG_TI_branch
    2470                      .dwattr $C$DW$223, DW_AT_low_pc(0x00)
    2471                      .dwattr $C$DW$223, DW_AT_TI_return
    2472 0008b5 4804          RET
    2473                                                      ; return occurs
    2474              
    2475              $C$DW$224       .dwtag  DW_TAG_TI_loop
    2476                      .dwattr $C$DW$224, DW_AT_name("F:\eZdsp_DBG\tmp1\c55x-sim2\foo\Debug\csl_usb_poll_example.asm:$C$L44:
    2477                      .dwattr $C$DW$224, DW_AT_TI_begin_file("F:/eZdsp_DBG/tmp1/c55x-sim2/foo/c5535_bsl_revc/ezdsp5535_v1/c
    2478                      .dwattr $C$DW$224, DW_AT_TI_begin_line(0x493)
    2479                      .dwattr $C$DW$224, DW_AT_TI_end_line(0x496)
    2480              $C$DW$225       .dwtag  DW_TAG_TI_loop_range
    2481                      .dwattr $C$DW$225, DW_AT_low_pc($C$DW$L$_USB_handleRx$15$B)
    2482                      .dwattr $C$DW$225, DW_AT_high_pc($C$DW$L$_USB_handleRx$15$E)
    2483                      .dwendtag $C$DW$224
    2484              
    2485                      .dwattr $C$DW$205, DW_AT_TI_end_file("F:/eZdsp_DBG/tmp1/c55x-sim2/foo/c5535_bsl_revc/ezdsp5535_v1/c55
    2486                      .dwattr $C$DW$205, DW_AT_TI_end_line(0x4e1)
    2487                      .dwattr $C$DW$205, DW_AT_TI_end_column(0x01)
    2488                      .dwendentry
    2489                      .dwendtag $C$DW$205
    2490              
    2491 0008b7               .sect   ".text"
    2492                      .align 4
    2493                      .global _main
    2494              
    2495              $C$DW$226       .dwtag  DW_TAG_subprogram, DW_AT_name("main")
    2496                      .dwattr $C$DW$226, DW_AT_low_pc(_main)
    2497                      .dwattr $C$DW$226, DW_AT_high_pc(0x00)
    2498                      .dwattr $C$DW$226, DW_AT_TI_symbol_name("_main")
    2499                      .dwattr $C$DW$226, DW_AT_external
    2500                      .dwattr $C$DW$226, DW_AT_TI_begin_file("../c5535_bsl_revc/ezdsp5535_v1/c55xx_csl/ccs_v4.0_examples/us
    2501                      .dwattr $C$DW$226, DW_AT_TI_begin_line(0xda)
    2502                      .dwattr $C$DW$226, DW_AT_TI_begin_column(0x06)
    2503                      .dwattr $C$DW$226, DW_AT_TI_max_frame_size(0x04)
    2504                      .dwpsn  file "../c5535_bsl_revc/ezdsp5535_v1/c55xx_csl/ccs_v4.0_examples/usb/CSL_USB_PollExample/csl_
    2505              
    2506                      .dwfde $C$DW$CIE, _main
    2507              ;*******************************************************************************
    2508              ;* FUNCTION NAME: main                                                         *
    2509              ;*                                                                             *
    2510              ;*   Function Uses Regs : T0,AR1,AR3,XAR3,SP,M40,SATA,SATD,RDM,FRCT,SMUL       *
    2511              ;*   Stack Frame        : Compact (No Frame Pointer, w/ debug)                 *
    2512              ;*   Total Frame Size   : 4 words                                              *
    2513              ;*                        (1 return address/alignment)                         *
    2514              ;*                        (2 function parameters)                              *
    2515              ;*                        (1 local values)                                     *
    2516              ;*   Min System Stack   : 1 word                                               *
    2517              ;*******************************************************************************
    2518 0008b8       _main:
    2519                      .dwcfi  cfa_offset, 1
    2520                      .dwcfi  save_reg_to_mem, 91, -1
TMS320C55x Assembler PC v4.4.1 Sat Sep 29 23:08:33 2018

Tools Copyright (c) 1996-2012 Texas Instruments Incorporated
csl_usb_poll_example.asm                                             PAGE   59

    2521 0008b8 4EFD          AADD #-3, SP
    2522                      .dwcfi  cfa_offset, 4
    2523              $C$DW$227       .dwtag  DW_TAG_variable, DW_AT_name("result")
    2524                      .dwattr $C$DW$227, DW_AT_TI_symbol_name("_result")
    2525                      .dwattr $C$DW$227, DW_AT_type(*$C$DW$T$89)
    2526                      .dwattr $C$DW$227, DW_AT_location[DW_OP_bregx 0x24 2]
    2527                      .dwpsn  file "../c5535_bsl_revc/ezdsp5535_v1/c55xx_csl/ccs_v4.0_examples/usb/CSL_USB_PollExample/csl_
    2528 0008ba EC31          AMOV #$C$FSL1, XAR3 ; |222| 
         0008bc BE00 
         0008be 0000+
    2529 0008c0 EB00          MOV XAR3, dbl(*SP(#0))
         0008c2 B5   
    2530              $C$DW$228       .dwtag  DW_TAG_TI_branch
    2531                      .dwattr $C$DW$228, DW_AT_low_pc(0x00)
    2532                      .dwattr $C$DW$228, DW_AT_name("_printf")
    2533                      .dwattr $C$DW$228, DW_AT_TI_call
    2534 0008c3 6C00          CALL #_printf ; |222| 
         0008c5 0000!
    2535                                                      ; call occurs [#_printf] ; |222| 
    2536                      .dwpsn  file "../c5535_bsl_revc/ezdsp5535_v1/c55xx_csl/ccs_v4.0_examples/usb/CSL_USB_PollExample/csl_
    2537              $C$DW$229       .dwtag  DW_TAG_TI_branch
    2538                      .dwattr $C$DW$229, DW_AT_low_pc(0x00)
    2539                      .dwattr $C$DW$229, DW_AT_name("_CSL_usbPollTest")
    2540                      .dwattr $C$DW$229, DW_AT_TI_call
    2541 0008c7 0800          CALL #_CSL_usbPollTest ; |224| 
         0008c9 3A   
    2542                                                      ; call occurs [#_CSL_usbPollTest] ; |224| 
    2543 0008ca C404          MOV T0, *SP(#2) ; |224| 
    2544                      .dwpsn  file "../c5535_bsl_revc/ezdsp5535_v1/c55xx_csl/ccs_v4.0_examples/usb/CSL_USB_PollExample/csl_
    2545 0008cc 2249          MOV T0, AR1
    2546 0008ce 0419          BCC $C$L53,AR1 != #0 ; |226| 
         0008d0 15   
    2547                                                      ; branchcc occurs ; |226| 
    2548                      .dwpsn  file "../c5535_bsl_revc/ezdsp5535_v1/c55xx_csl/ccs_v4.0_examples/usb/CSL_USB_PollExample/csl_
    2549 0008d1 EC31          AMOV #$C$FSL2, XAR3 ; |228| 
         0008d3 BE00 
         0008d5 0018+
    2550 0008d7 EB00          MOV XAR3, dbl(*SP(#0))
         0008d9 B5   
    2551              $C$DW$230       .dwtag  DW_TAG_TI_branch
    2552                      .dwattr $C$DW$230, DW_AT_low_pc(0x00)
    2553                      .dwattr $C$DW$230, DW_AT_name("_printf")
    2554                      .dwattr $C$DW$230, DW_AT_TI_call
    2555 0008da 6C00          CALL #_printf ; |228| 
         0008dc 0000!
    2556                                                      ; call occurs [#_printf] ; |228| 
    2557                      .dwpsn  file "../c5535_bsl_revc/ezdsp5535_v1/c55xx_csl/ccs_v4.0_examples/usb/CSL_USB_PollExample/csl_
    2558 0008de E631          MOV #0, *(#_PaSs_StAtE) ; |231| 
         0008e0 0000 
         0008e2 0205-
    2559                      .dwpsn  file "../c5535_bsl_revc/ezdsp5535_v1/c55xx_csl/ccs_v4.0_examples/usb/CSL_USB_PollExample/csl_
    2560 0008e4 4A0D          B $C$L54  ; |233| 
    2561                                                      ; branch occurs ; |233| 
    2562 0008e6       $C$L53:    
    2563                      .dwpsn  file "../c5535_bsl_revc/ezdsp5535_v1/c55xx_csl/ccs_v4.0_examples/usb/CSL_USB_PollExample/csl_
TMS320C55x Assembler PC v4.4.1 Sat Sep 29 23:08:33 2018

Tools Copyright (c) 1996-2012 Texas Instruments Incorporated
csl_usb_poll_example.asm                                             PAGE   60

    2564 0008e6 EC31          AMOV #$C$FSL3, XAR3 ; |236| 
         0008e8 BE00 
         0008ea 002C+
    2565 0008ec EB00          MOV XAR3, dbl(*SP(#0))
         0008ee B5   
    2566              $C$DW$231       .dwtag  DW_TAG_TI_branch
    2567                      .dwattr $C$DW$231, DW_AT_low_pc(0x00)
    2568                      .dwattr $C$DW$231, DW_AT_name("_printf")
    2569                      .dwattr $C$DW$231, DW_AT_TI_call
    2570 0008ef 6C00          CALL #_printf ; |236| 
         0008f1 0000!
    2571                                                      ; call occurs [#_printf] ; |236| 
    2572 0008f3       $C$L54:    
    2573                      .dwpsn  file "../c5535_bsl_revc/ezdsp5535_v1/c55xx_csl/ccs_v4.0_examples/usb/CSL_USB_PollExample/csl_
    2574 0008f3 A931          MOV *(#_PaSs_StAtE), AR1 ; |240| 
         0008f5 0002 
         0008f7 05-  
    2575 0008f8 C931          MOV AR1, *(#_PaSs) ; |240| 
         0008fa 0002 
         0008fc 06-  
    2576                      .dwpsn  file "../c5535_bsl_revc/ezdsp5535_v1/c55xx_csl/ccs_v4.0_examples/usb/CSL_USB_PollExample/csl_
    2577 0008fd 4E03          AADD #3, SP
    2578                      .dwcfi  cfa_offset, 1
    2579              $C$DW$232       .dwtag  DW_TAG_TI_branch
    2580                      .dwattr $C$DW$232, DW_AT_low_pc(0x00)
    2581                      .dwattr $C$DW$232, DW_AT_TI_return
    2582 0008ff 4804          RET
    2583                                                      ; return occurs
    2584                      .dwattr $C$DW$226, DW_AT_TI_end_file("../c5535_bsl_revc/ezdsp5535_v1/c55xx_csl/ccs_v4.0_examples/usb/
    2585                      .dwattr $C$DW$226, DW_AT_TI_end_line(0xf5)
    2586                      .dwattr $C$DW$226, DW_AT_TI_end_column(0x01)
    2587                      .dwendentry
    2588                      .dwendtag $C$DW$226
    2589              
    2590 000901               .sect   ".text"
    2591                      .align 4
    2592                      .global _CSL_usbPollTest
    2593              
    2594              $C$DW$233       .dwtag  DW_TAG_subprogram, DW_AT_name("CSL_usbPollTest")
    2595                      .dwattr $C$DW$233, DW_AT_low_pc(_CSL_usbPollTest)
    2596                      .dwattr $C$DW$233, DW_AT_high_pc(0x00)
    2597                      .dwattr $C$DW$233, DW_AT_TI_symbol_name("_CSL_usbPollTest")
    2598                      .dwattr $C$DW$233, DW_AT_external
    2599                      .dwattr $C$DW$233, DW_AT_type(*$C$DW$T$89)
    2600                      .dwattr $C$DW$233, DW_AT_TI_begin_file("../c5535_bsl_revc/ezdsp5535_v1/c55xx_csl/ccs_v4.0_examples/us
    2601                      .dwattr $C$DW$233, DW_AT_TI_begin_line(0x100)
    2602                      .dwattr $C$DW$233, DW_AT_TI_begin_column(0x0c)
    2603                      .dwattr $C$DW$233, DW_AT_TI_max_frame_size(0x14)
    2604                      .dwpsn  file "../c5535_bsl_revc/ezdsp5535_v1/c55xx_csl/ccs_v4.0_examples/usb/CSL_USB_PollExample/csl_
    2605              
    2606                      .dwfde $C$DW$CIE, _CSL_usbPollTest
    2607              ;*******************************************************************************
    2608              ;* FUNCTION NAME: CSL_usbPollTest                                              *
    2609              ;*                                                                             *
    2610              ;*   Function Uses Regs : AC0,AC0,T0,T1,AR0,XAR0,AR1,XAR1,AR2,AR3,XAR3,SP,TC1, *
TMS320C55x Assembler PC v4.4.1 Sat Sep 29 23:08:33 2018

Tools Copyright (c) 1996-2012 Texas Instruments Incorporated
csl_usb_poll_example.asm                                             PAGE   61

    2611              ;*                        M40,SATA,SATD,RDM,FRCT,SMUL                          *
    2612              ;*   Stack Frame        : Compact (No Frame Pointer, w/ debug)                 *
    2613              ;*   Total Frame Size   : 20 words                                             *
    2614              ;*                        (2 return address/alignment)                         *
    2615              ;*                        (3 function parameters)                              *
    2616              ;*                        (15 local values)                                    *
    2617              ;*   Min System Stack   : 1 word                                               *
    2618              ;*******************************************************************************
    2619 000904       _CSL_usbPollTest:
    2620                      .dwcfi  cfa_offset, 1
    2621                      .dwcfi  save_reg_to_mem, 91, -1
    2622 000904 4EED          AADD #-19, SP
    2623                      .dwcfi  cfa_offset, 20
    2624              $C$DW$234       .dwtag  DW_TAG_variable, DW_AT_name("status")
    2625                      .dwattr $C$DW$234, DW_AT_TI_symbol_name("_status")
    2626                      .dwattr $C$DW$234, DW_AT_type(*$C$DW$T$89)
    2627                      .dwattr $C$DW$234, DW_AT_location[DW_OP_bregx 0x24 3]
    2628              $C$DW$235       .dwtag  DW_TAG_variable, DW_AT_name("result")
    2629                      .dwattr $C$DW$235, DW_AT_TI_symbol_name("_result")
    2630                      .dwattr $C$DW$235, DW_AT_type(*$C$DW$T$89)
    2631                      .dwattr $C$DW$235, DW_AT_location[DW_OP_bregx 0x24 4]
    2632              $C$DW$236       .dwtag  DW_TAG_variable, DW_AT_name("pContext")
    2633                      .dwattr $C$DW$236, DW_AT_TI_symbol_name("_pContext")
    2634                      .dwattr $C$DW$236, DW_AT_type(*$C$DW$T$167)
    2635                      .dwattr $C$DW$236, DW_AT_location[DW_OP_bregx 0x24 6]
    2636              $C$DW$237       .dwtag  DW_TAG_variable, DW_AT_name("hEPx")
    2637                      .dwattr $C$DW$237, DW_AT_TI_symbol_name("_hEPx")
    2638                      .dwattr $C$DW$237, DW_AT_type(*$C$DW$T$116)
    2639                      .dwattr $C$DW$237, DW_AT_location[DW_OP_bregx 0x24 8]
    2640              $C$DW$238       .dwtag  DW_TAG_variable, DW_AT_name("txRxStatus")
    2641                      .dwattr $C$DW$238, DW_AT_TI_symbol_name("_txRxStatus")
    2642                      .dwattr $C$DW$238, DW_AT_type(*$C$DW$T$102)
    2643                      .dwattr $C$DW$238, DW_AT_location[DW_OP_bregx 0x24 10]
    2644              $C$DW$239       .dwtag  DW_TAG_variable, DW_AT_name("bytesRem")
    2645                      .dwattr $C$DW$239, DW_AT_TI_symbol_name("_bytesRem")
    2646                      .dwattr $C$DW$239, DW_AT_type(*$C$DW$T$19)
    2647                      .dwattr $C$DW$239, DW_AT_location[DW_OP_bregx 0x24 11]
    2648              $C$DW$240       .dwtag  DW_TAG_variable, DW_AT_name("eventMask")
    2649                      .dwattr $C$DW$240, DW_AT_TI_symbol_name("_eventMask")
    2650                      .dwattr $C$DW$240, DW_AT_type(*$C$DW$T$19)
    2651                      .dwattr $C$DW$240, DW_AT_location[DW_OP_bregx 0x24 12]
    2652              $C$DW$241       .dwtag  DW_TAG_variable, DW_AT_name("saveIndex")
    2653                      .dwattr $C$DW$241, DW_AT_TI_symbol_name("_saveIndex")
    2654                      .dwattr $C$DW$241, DW_AT_type(*$C$DW$T$19)
    2655                      .dwattr $C$DW$241, DW_AT_location[DW_OP_bregx 0x24 13]
    2656              $C$DW$242       .dwtag  DW_TAG_variable, DW_AT_name("endpt")
    2657                      .dwattr $C$DW$242, DW_AT_TI_symbol_name("_endpt")
    2658                      .dwattr $C$DW$242, DW_AT_type(*$C$DW$T$19)
    2659                      .dwattr $C$DW$242, DW_AT_location[DW_OP_bregx 0x24 14]
    2660              $C$DW$243       .dwtag  DW_TAG_variable, DW_AT_name("tempEpH")
    2661                      .dwattr $C$DW$243, DW_AT_TI_symbol_name("_tempEpH")
    2662                      .dwattr $C$DW$243, DW_AT_type(*$C$DW$T$116)
    2663                      .dwattr $C$DW$243, DW_AT_location[DW_OP_bregx 0x24 16]
    2664                      .dwpsn  file "../c5535_bsl_revc/ezdsp5535_v1/c55xx_csl/ccs_v4.0_examples/usb/CSL_USB_PollExample/csl_
    2665 000906 EC31          AMOV #_gUsbContext, XAR3 ; |269| 
TMS320C55x Assembler PC v4.4.1 Sat Sep 29 23:08:33 2018

Tools Copyright (c) 1996-2012 Texas Instruments Incorporated
csl_usb_poll_example.asm                                             PAGE   62

         000908 BE00 
         00090a 0000!
    2666 00090c EB0C          MOV XAR3, dbl(*SP(#6))
         00090e B5   
    2667                      .dwpsn  file "../c5535_bsl_revc/ezdsp5535_v1/c55xx_csl/ccs_v4.0_examples/usb/CSL_USB_PollExample/csl_
    2668 00090f E608          MOV #1, *SP(#4) ; |270| 
         000911 01   
    2669                      .dwpsn  file "../c5535_bsl_revc/ezdsp5535_v1/c55xx_csl/ccs_v4.0_examples/usb/CSL_USB_PollExample/csl_
    2670 000912 E631          MOV #0, *(#(_usbConfig+1)) ; |272| 
         000914 0000 
         000916 0069-
    2671                      .dwpsn  file "../c5535_bsl_revc/ezdsp5535_v1/c55xx_csl/ccs_v4.0_examples/usb/CSL_USB_PollExample/csl_
    2672 000918 E631          MOV #0, *(#_usbConfig) ; |273| 
         00091a 0000 
         00091c 0068-
    2673                      .dwpsn  file "../c5535_bsl_revc/ezdsp5535_v1/c55xx_csl/ccs_v4.0_examples/usb/CSL_USB_PollExample/csl_
    2674 00091e E631          MOV #50, *(#(_usbConfig+2)) ; |274| 
         000920 3200 
         000922 006A-
    2675                      .dwpsn  file "../c5535_bsl_revc/ezdsp5535_v1/c55xx_csl/ccs_v4.0_examples/usb/CSL_USB_PollExample/csl_
    2676 000924 7A00          MOV #(_CSL_suspendCallBack >> 16) << #16, AC0 ; |275| 
         000926 000A%
    2677 000928 7E00          OR #(_CSL_suspendCallBack & 0xffff), AC0, AC0 ; |275| 
         00092a 0000%
    2678 00092c EB31          MOV AC0, dbl(*(#(_usbConfig+4))) ; |275| 
         00092e 0800 
         000930 006C-
    2679                      .dwpsn  file "../c5535_bsl_revc/ezdsp5535_v1/c55xx_csl/ccs_v4.0_examples/usb/CSL_USB_PollExample/csl_
    2680 000932 7A00          MOV #(_CSL_selfWakeupCallBack >> 16) << #16, AC0 ; |276| 
         000934 000A%
    2681 000936 7E00          OR #(_CSL_selfWakeupCallBack & 0xffff), AC0, AC0 ; |276| 
         000938 0000%
    2682 00093a EB31          MOV AC0, dbl(*(#(_usbConfig+6))) ; |276| 
         00093c 0800 
         00093e 006E-
    2683                      .dwpsn  file "../c5535_bsl_revc/ezdsp5535_v1/c55xx_csl/ccs_v4.0_examples/usb/CSL_USB_PollExample/csl_
    2684 000940 7A00          MOV #(_CSL_startTransferCallback >> 16) << #16, AC0 ; |277| 
         000942 000A%
    2685 000944 7E00          OR #(_CSL_startTransferCallback & 0xffff), AC0, AC0 ; |277| 
         000946 0000%
    2686 000948 EB31          MOV AC0, dbl(*(#(_usbConfig+8))) ; |277| 
         00094a 0800 
         00094c 0070-
    2687                      .dwpsn  file "../c5535_bsl_revc/ezdsp5535_v1/c55xx_csl/ccs_v4.0_examples/usb/CSL_USB_PollExample/csl_
    2688 00094e 7A00          MOV #(_CSL_completeTransferCallback >> 16) << #16, AC0 ; |278| 
         000950 000A%
    2689 000952 7E00          OR #(_CSL_completeTransferCallback & 0xffff), AC0, AC0 ; |278| 
         000954 0000%
    2690 000956 EB31          MOV AC0, dbl(*(#(_usbConfig+10))) ; |278| 
         000958 0800 
         00095a 0072-
    2691                      .dwpsn  file "../c5535_bsl_revc/ezdsp5535_v1/c55xx_csl/ccs_v4.0_examples/usb/CSL_USB_PollExample/csl_
    2692 00095c EC31          AMOV #_usbCtrlOutEpObj, XAR3 ; |280| 
         00095e BE00 
         000960 0018-
TMS320C55x Assembler PC v4.4.1 Sat Sep 29 23:08:33 2018

Tools Copyright (c) 1996-2012 Texas Instruments Incorporated
csl_usb_poll_example.asm                                             PAGE   63

    2693 000962 EB31          MOV XAR3, dbl(*(#_hEpObjArray))
         000964 B500 
         000966 0008-
    2694                      .dwpsn  file "../c5535_bsl_revc/ezdsp5535_v1/c55xx_csl/ccs_v4.0_examples/usb/CSL_USB_PollExample/csl_
    2695 000968 EC31          AMOV #_usbCtrlInEpObj, XAR3 ; |281| 
         00096a BE00 
         00096c 002C-
    2696 00096e EB31          MOV XAR3, dbl(*(#(_hEpObjArray+2)))
         000970 B500 
         000972 000A-
    2697                      .dwpsn  file "../c5535_bsl_revc/ezdsp5535_v1/c55xx_csl/ccs_v4.0_examples/usb/CSL_USB_PollExample/csl_
    2698 000974 EC31          AMOV #_usbBulkOutEpObj, XAR3 ; |282| 
         000976 BE00 
         000978 0040-
    2699 00097a EB31          MOV XAR3, dbl(*(#(_hEpObjArray+4)))
         00097c B500 
         00097e 000C-
    2700                      .dwpsn  file "../c5535_bsl_revc/ezdsp5535_v1/c55xx_csl/ccs_v4.0_examples/usb/CSL_USB_PollExample/csl_
    2701 000980 EC31          AMOV #_usbBulkInEpObj, XAR3 ; |283| 
         000982 BE00 
         000984 0054-
    2702 000986 EB31          MOV XAR3, dbl(*(#(_hEpObjArray+6)))
         000988 B500 
         00098a 000E-
    2703                      .dwpsn  file "../c5535_bsl_revc/ezdsp5535_v1/c55xx_csl/ccs_v4.0_examples/usb/CSL_USB_PollExample/csl_
    2704              $C$DW$244       .dwtag  DW_TAG_TI_branch
    2705                      .dwattr $C$DW$244, DW_AT_low_pc(0x00)
    2706                      .dwattr $C$DW$244, DW_AT_name("_CSL_configSarForSelfWakeup")
    2707                      .dwattr $C$DW$244, DW_AT_TI_call
    2708 00098c 0809          CALL #_CSL_configSarForSelfWakeup ; |289| 
         00098e 55   
    2709                                                      ; call occurs [#_CSL_configSarForSelfWakeup] ; |289| 
    2710 00098f C406          MOV T0, *SP(#3) ; |289| 
    2711                      .dwpsn  file "../c5535_bsl_revc/ezdsp5535_v1/c55xx_csl/ccs_v4.0_examples/usb/CSL_USB_PollExample/csl_
    2712 000991 2249          MOV T0, AR1
    2713 000993 0409          BCC $C$L55,AR1 == #0 ; |290| 
         000995 12   
    2714                                                      ; branchcc occurs ; |290| 
    2715                      .dwpsn  file "../c5535_bsl_revc/ezdsp5535_v1/c55xx_csl/ccs_v4.0_examples/usb/CSL_USB_PollExample/csl_
    2716 000996 EC31          AMOV #$C$FSL4, XAR3 ; |292| 
         000998 BE00 
         00099a 0040+
    2717 00099c EB00          MOV XAR3, dbl(*SP(#0))
         00099e B5   
    2718              $C$DW$245       .dwtag  DW_TAG_TI_branch
    2719                      .dwattr $C$DW$245, DW_AT_low_pc(0x00)
    2720                      .dwattr $C$DW$245, DW_AT_name("_printf")
    2721                      .dwattr $C$DW$245, DW_AT_TI_call
    2722 00099f 6C00          CALL #_printf ; |292| 
         0009a1 0000!
    2723                                                      ; call occurs [#_printf] ; |292| 
    2724                      .dwpsn  file "../c5535_bsl_revc/ezdsp5535_v1/c55xx_csl/ccs_v4.0_examples/usb/CSL_USB_PollExample/csl_
    2725 0009a3 A408          MOV *SP(#4), T0 ; |293| 
    2726 0009a5 0608          B $C$L106 ; |293| 
         0009a7 97   
TMS320C55x Assembler PC v4.4.1 Sat Sep 29 23:08:33 2018

Tools Copyright (c) 1996-2012 Texas Instruments Incorporated
csl_usb_poll_example.asm                                             PAGE   64

    2727                                                      ; branch occurs ; |293| 
    2728 0009a8       $C$L55:    
    2729                      .dwpsn  file "../c5535_bsl_revc/ezdsp5535_v1/c55xx_csl/ccs_v4.0_examples/usb/CSL_USB_PollExample/csl_
    2730 0009a8 EC31          AMOV #_usbConfig, XAR0 ; |299| 
         0009aa 8E00 
         0009ac 0068-
    2731              $C$DW$246       .dwtag  DW_TAG_TI_branch
    2732                      .dwattr $C$DW$246, DW_AT_low_pc(0x00)
    2733                      .dwattr $C$DW$246, DW_AT_name("_USB_init")
    2734                      .dwattr $C$DW$246, DW_AT_TI_call
    2735 0009ae 6C00          CALL #_USB_init ; |299| 
         0009b0 0000!
    2736                                                      ; call occurs [#_USB_init] ; |299| 
    2737 0009b2 C406          MOV T0, *SP(#3) ; |299| 
    2738                      .dwpsn  file "../c5535_bsl_revc/ezdsp5535_v1/c55xx_csl/ccs_v4.0_examples/usb/CSL_USB_PollExample/csl_
    2739 0009b4 2249          MOV T0, AR1
    2740 0009b6 0409          BCC $C$L56,AR1 == #0 ; |300| 
         0009b8 12   
    2741                                                      ; branchcc occurs ; |300| 
    2742                      .dwpsn  file "../c5535_bsl_revc/ezdsp5535_v1/c55xx_csl/ccs_v4.0_examples/usb/CSL_USB_PollExample/csl_
    2743 0009b9 EC31          AMOV #$C$FSL5, XAR3 ; |302| 
         0009bb BE00 
         0009bd 005A+
    2744 0009bf EB00          MOV XAR3, dbl(*SP(#0))
         0009c1 B5   
    2745              $C$DW$247       .dwtag  DW_TAG_TI_branch
    2746                      .dwattr $C$DW$247, DW_AT_low_pc(0x00)
    2747                      .dwattr $C$DW$247, DW_AT_name("_printf")
    2748                      .dwattr $C$DW$247, DW_AT_TI_call
    2749 0009c2 6C00          CALL #_printf ; |302| 
         0009c4 0000!
    2750                                                      ; call occurs [#_printf] ; |302| 
    2751                      .dwpsn  file "../c5535_bsl_revc/ezdsp5535_v1/c55xx_csl/ccs_v4.0_examples/usb/CSL_USB_PollExample/csl_
    2752 0009c6 A408          MOV *SP(#4), T0 ; |303| 
    2753 0009c8 0608          B $C$L106 ; |303| 
         0009ca 74   
    2754                                                      ; branch occurs ; |303| 
    2755 0009cb       $C$L56:    
    2756                      .dwpsn  file "../c5535_bsl_revc/ezdsp5535_v1/c55xx_csl/ccs_v4.0_examples/usb/CSL_USB_PollExample/csl_
    2757              $C$DW$248       .dwtag  DW_TAG_TI_branch
    2758                      .dwattr $C$DW$248, DW_AT_low_pc(0x00)
    2759                      .dwattr $C$DW$248, DW_AT_name("_USB_resetDev")
    2760                      .dwattr $C$DW$248, DW_AT_TI_call
    2761              
    2762 0009cb 6C00          CALL #_USB_resetDev ; |307| 
         0009cd 0000!
    2763 0009cf 3D04  ||      MOV #0, T0
    2764              
    2765                                                      ; call occurs [#_USB_resetDev] ; |307| 
    2766 0009d1 C406          MOV T0, *SP(#3) ; |307| 
    2767                      .dwpsn  file "../c5535_bsl_revc/ezdsp5535_v1/c55xx_csl/ccs_v4.0_examples/usb/CSL_USB_PollExample/csl_
    2768 0009d3 2249          MOV T0, AR1
    2769 0009d5 0409          BCC $C$L57,AR1 == #0 ; |308| 
         0009d7 12   
    2770                                                      ; branchcc occurs ; |308| 
TMS320C55x Assembler PC v4.4.1 Sat Sep 29 23:08:33 2018

Tools Copyright (c) 1996-2012 Texas Instruments Incorporated
csl_usb_poll_example.asm                                             PAGE   65

    2771                      .dwpsn  file "../c5535_bsl_revc/ezdsp5535_v1/c55xx_csl/ccs_v4.0_examples/usb/CSL_USB_PollExample/csl_
    2772 0009d8 EC31          AMOV #$C$FSL6, XAR3 ; |310| 
         0009da BE00 
         0009dc 006C+
    2773 0009de EB00          MOV XAR3, dbl(*SP(#0))
         0009e0 B5   
    2774              $C$DW$249       .dwtag  DW_TAG_TI_branch
    2775                      .dwattr $C$DW$249, DW_AT_low_pc(0x00)
    2776                      .dwattr $C$DW$249, DW_AT_name("_printf")
    2777                      .dwattr $C$DW$249, DW_AT_TI_call
    2778 0009e1 6C00          CALL #_printf ; |310| 
         0009e3 0000!
    2779                                                      ; call occurs [#_printf] ; |310| 
    2780                      .dwpsn  file "../c5535_bsl_revc/ezdsp5535_v1/c55xx_csl/ccs_v4.0_examples/usb/CSL_USB_PollExample/csl_
    2781 0009e5 A408          MOV *SP(#4), T0 ; |311| 
    2782 0009e7 0608          B $C$L106 ; |311| 
         0009e9 55   
    2783                                                      ; branch occurs ; |311| 
    2784 0009ea       $C$L57:    
    2785                      .dwpsn  file "../c5535_bsl_revc/ezdsp5535_v1/c55xx_csl/ccs_v4.0_examples/usb/CSL_USB_PollExample/csl_
    2786 0009ea E618          MOV #61, *SP(#12) ; |315| 
         0009ec 3D   
    2787                      .dwpsn  file "../c5535_bsl_revc/ezdsp5535_v1/c55xx_csl/ccs_v4.0_examples/usb/CSL_USB_PollExample/csl_
    2788 0009ed ED31          MOV dbl(*(#_hEpObjArray)), XAR0
         0009ef 8F00 
         0009f1 0008-
    2789 0009f3 3C05          MOV #0, T1
    2790              
    2791 0009f9 3D04          MOV #0, T0
    2792 0009f5 7600  ||      MOV #64, AR2 ; |319| 
         0009f7 40A8 
    2793              
    2794 0009fb AB18          MOV *SP(#12), AR3 ; |319| 
    2795 0009fd 3D09  ||      MOV #0, AR1
    2796              
    2797              $C$DW$250       .dwtag  DW_TAG_TI_branch
    2798                      .dwattr $C$DW$250, DW_AT_low_pc(0x00)
    2799                      .dwattr $C$DW$250, DW_AT_name("_USB_initEndptObj")
    2800                      .dwattr $C$DW$250, DW_AT_TI_call
    2801              
    2802 0009ff 6C00          CALL #_USB_initEndptObj ; |319| 
         000a01 0000!
    2803 000a03 3D00  ||      MOV #0, AC0 ; |319| 
    2804              
    2805                                                      ; call occurs [#_USB_initEndptObj] ; |319| 
    2806 000a05 C406          MOV T0, *SP(#3) ; |319| 
    2807                      .dwpsn  file "../c5535_bsl_revc/ezdsp5535_v1/c55xx_csl/ccs_v4.0_examples/usb/CSL_USB_PollExample/csl_
    2808 000a07 2249          MOV T0, AR1
    2809 000a09 0409          BCC $C$L58,AR1 == #0 ; |322| 
         000a0b 12   
    2810                                                      ; branchcc occurs ; |322| 
    2811                      .dwpsn  file "../c5535_bsl_revc/ezdsp5535_v1/c55xx_csl/ccs_v4.0_examples/usb/CSL_USB_PollExample/csl_
    2812 000a0c EC31          AMOV #$C$FSL7, XAR3 ; |324| 
         000a0e BE00 
         000a10 007E+
TMS320C55x Assembler PC v4.4.1 Sat Sep 29 23:08:33 2018

Tools Copyright (c) 1996-2012 Texas Instruments Incorporated
csl_usb_poll_example.asm                                             PAGE   66

    2813 000a12 EB00          MOV XAR3, dbl(*SP(#0))
         000a14 B5   
    2814              $C$DW$251       .dwtag  DW_TAG_TI_branch
    2815                      .dwattr $C$DW$251, DW_AT_low_pc(0x00)
    2816                      .dwattr $C$DW$251, DW_AT_name("_printf")
    2817                      .dwattr $C$DW$251, DW_AT_TI_call
    2818 000a15 6C00          CALL #_printf ; |324| 
         000a17 0000!
    2819                                                      ; call occurs [#_printf] ; |324| 
    2820                      .dwpsn  file "../c5535_bsl_revc/ezdsp5535_v1/c55xx_csl/ccs_v4.0_examples/usb/CSL_USB_PollExample/csl_
    2821 000a19 A408          MOV *SP(#4), T0 ; |325| 
    2822 000a1b 0608          B $C$L106 ; |325| 
         000a1d 21   
    2823                                                      ; branch occurs ; |325| 
    2824 000a1e       $C$L58:    
    2825                      .dwpsn  file "../c5535_bsl_revc/ezdsp5535_v1/c55xx_csl/ccs_v4.0_examples/usb/CSL_USB_PollExample/csl_
    2826 000a1e ED31          MOV dbl(*(#(_hEpObjArray+2))), XAR0
         000a20 8F00 
         000a22 000A-
    2827 000a24 3C09          MOV #0, AR1
    2828              
    2829 000a2a 3D85          MOV #8, T1
    2830 000a26 7600  ||      MOV #64, AR2 ; |329| 
         000a28 40A8 
    2831              
    2832 000a30 3D04          MOV #0, T0
    2833 000a2c 7600  ||      MOV #32, AR3 ; |329| 
         000a2e 20B8 
    2834              
    2835              $C$DW$252       .dwtag  DW_TAG_TI_branch
    2836                      .dwattr $C$DW$252, DW_AT_low_pc(0x00)
    2837                      .dwattr $C$DW$252, DW_AT_name("_USB_initEndptObj")
    2838                      .dwattr $C$DW$252, DW_AT_TI_call
    2839              
    2840 000a32 6C00          CALL #_USB_initEndptObj ; |329| 
         000a34 0000!
    2841 000a36 3D00  ||      MOV #0, AC0 ; |329| 
    2842              
    2843                                                      ; call occurs [#_USB_initEndptObj] ; |329| 
    2844 000a38 C406          MOV T0, *SP(#3) ; |329| 
    2845                      .dwpsn  file "../c5535_bsl_revc/ezdsp5535_v1/c55xx_csl/ccs_v4.0_examples/usb/CSL_USB_PollExample/csl_
    2846 000a3a 2249          MOV T0, AR1
    2847 000a3c 0409          BCC $C$L59,AR1 == #0 ; |332| 
         000a3e 12   
    2848                                                      ; branchcc occurs ; |332| 
    2849                      .dwpsn  file "../c5535_bsl_revc/ezdsp5535_v1/c55xx_csl/ccs_v4.0_examples/usb/CSL_USB_PollExample/csl_
    2850 000a3f EC31          AMOV #$C$FSL7, XAR3 ; |334| 
         000a41 BE00 
         000a43 007E+
    2851 000a45 EB00          MOV XAR3, dbl(*SP(#0))
         000a47 B5   
    2852              $C$DW$253       .dwtag  DW_TAG_TI_branch
    2853                      .dwattr $C$DW$253, DW_AT_low_pc(0x00)
    2854                      .dwattr $C$DW$253, DW_AT_name("_printf")
    2855                      .dwattr $C$DW$253, DW_AT_TI_call
TMS320C55x Assembler PC v4.4.1 Sat Sep 29 23:08:33 2018

Tools Copyright (c) 1996-2012 Texas Instruments Incorporated
csl_usb_poll_example.asm                                             PAGE   67

    2856 000a48 6C00          CALL #_printf ; |334| 
         000a4a 0000!
    2857                                                      ; call occurs [#_printf] ; |334| 
    2858                      .dwpsn  file "../c5535_bsl_revc/ezdsp5535_v1/c55xx_csl/ccs_v4.0_examples/usb/CSL_USB_PollExample/csl_
    2859 000a4c A408          MOV *SP(#4), T0 ; |335| 
    2860 000a4e 0607          B $C$L106 ; |335| 
         000a50 EE   
    2861                                                      ; branch occurs ; |335| 
    2862 000a51       $C$L59:    
    2863                      .dwpsn  file "../c5535_bsl_revc/ezdsp5535_v1/c55xx_csl/ccs_v4.0_examples/usb/CSL_USB_PollExample/csl_
    2864 000a51 E618          MOV #33, *SP(#12) ; |339| 
         000a53 21   
    2865                      .dwpsn  file "../c5535_bsl_revc/ezdsp5535_v1/c55xx_csl/ccs_v4.0_examples/usb/CSL_USB_PollExample/csl_
    2866 000a54 ED31          MOV dbl(*(#(_hEpObjArray+4))), XAR0
         000a56 8F00 
         000a58 000C-
    2867 000a5a 3C95          MOV #9, T1
    2868              
    2869 000a60 3D04          MOV #0, T0
    2870 000a5c 7600  ||      MOV #64, AR2 ; |340| 
         000a5e 40A8 
    2871              
    2872 000a62 AB18          MOV *SP(#12), AR3 ; |340| 
    2873 000a64 3D19  ||      MOV #1, AR1
    2874              
    2875              $C$DW$254       .dwtag  DW_TAG_TI_branch
    2876                      .dwattr $C$DW$254, DW_AT_low_pc(0x00)
    2877                      .dwattr $C$DW$254, DW_AT_name("_USB_initEndptObj")
    2878                      .dwattr $C$DW$254, DW_AT_TI_call
    2879              
    2880 000a66 6C00          CALL #_USB_initEndptObj ; |340| 
         000a68 0000!
    2881 000a6a 3D00  ||      MOV #0, AC0 ; |340| 
    2882              
    2883                                                      ; call occurs [#_USB_initEndptObj] ; |340| 
    2884 000a6c C406          MOV T0, *SP(#3) ; |340| 
    2885                      .dwpsn  file "../c5535_bsl_revc/ezdsp5535_v1/c55xx_csl/ccs_v4.0_examples/usb/CSL_USB_PollExample/csl_
    2886 000a6e 2249          MOV T0, AR1
    2887 000a70 0409          BCC $C$L60,AR1 == #0 ; |343| 
         000a72 12   
    2888                                                      ; branchcc occurs ; |343| 
    2889                      .dwpsn  file "../c5535_bsl_revc/ezdsp5535_v1/c55xx_csl/ccs_v4.0_examples/usb/CSL_USB_PollExample/csl_
    2890 000a73 EC31          AMOV #$C$FSL7, XAR3 ; |345| 
         000a75 BE00 
         000a77 007E+
    2891 000a79 EB00          MOV XAR3, dbl(*SP(#0))
         000a7b B5   
    2892              $C$DW$255       .dwtag  DW_TAG_TI_branch
    2893                      .dwattr $C$DW$255, DW_AT_low_pc(0x00)
    2894                      .dwattr $C$DW$255, DW_AT_name("_printf")
    2895                      .dwattr $C$DW$255, DW_AT_TI_call
    2896 000a7c 6C00          CALL #_printf ; |345| 
         000a7e 0000!
    2897                                                      ; call occurs [#_printf] ; |345| 
    2898                      .dwpsn  file "../c5535_bsl_revc/ezdsp5535_v1/c55xx_csl/ccs_v4.0_examples/usb/CSL_USB_PollExample/csl_
TMS320C55x Assembler PC v4.4.1 Sat Sep 29 23:08:33 2018

Tools Copyright (c) 1996-2012 Texas Instruments Incorporated
csl_usb_poll_example.asm                                             PAGE   68

    2899 000a80 A408          MOV *SP(#4), T0 ; |346| 
    2900 000a82 0607          B $C$L106 ; |346| 
         000a84 BA   
    2901                                                      ; branch occurs ; |346| 
    2902 000a85       $C$L60:    
    2903                      .dwpsn  file "../c5535_bsl_revc/ezdsp5535_v1/c55xx_csl/ccs_v4.0_examples/usb/CSL_USB_PollExample/csl_
    2904 000a85 ED31          MOV dbl(*(#(_hEpObjArray+6))), XAR0
         000a87 8F00 
         000a89 000E-
    2905 000a8b 3C19          MOV #1, AR1
    2906              
    2907 000a91 3D25          MOV #2, T1
    2908 000a8d 7600  ||      MOV #64, AR2 ; |350| 
         000a8f 40A8 
    2909              
    2910 000a97 3D04          MOV #0, T0
    2911 000a93 7600  ||      MOV #32, AR3 ; |350| 
         000a95 20B8 
    2912              
    2913              $C$DW$256       .dwtag  DW_TAG_TI_branch
    2914                      .dwattr $C$DW$256, DW_AT_low_pc(0x00)
    2915                      .dwattr $C$DW$256, DW_AT_name("_USB_initEndptObj")
    2916                      .dwattr $C$DW$256, DW_AT_TI_call
    2917              
    2918 000a99 6C00          CALL #_USB_initEndptObj ; |350| 
         000a9b 0000!
    2919 000a9d 3D00  ||      MOV #0, AC0 ; |350| 
    2920              
    2921                                                      ; call occurs [#_USB_initEndptObj] ; |350| 
    2922 000a9f C406          MOV T0, *SP(#3) ; |350| 
    2923                      .dwpsn  file "../c5535_bsl_revc/ezdsp5535_v1/c55xx_csl/ccs_v4.0_examples/usb/CSL_USB_PollExample/csl_
    2924 000aa1 2249          MOV T0, AR1
    2925 000aa3 0409          BCC $C$L61,AR1 == #0 ; |353| 
         000aa5 12   
    2926                                                      ; branchcc occurs ; |353| 
    2927                      .dwpsn  file "../c5535_bsl_revc/ezdsp5535_v1/c55xx_csl/ccs_v4.0_examples/usb/CSL_USB_PollExample/csl_
    2928 000aa6 EC31          AMOV #$C$FSL7, XAR3 ; |355| 
         000aa8 BE00 
         000aaa 007E+
    2929 000aac EB00          MOV XAR3, dbl(*SP(#0))
         000aae B5   
    2930              $C$DW$257       .dwtag  DW_TAG_TI_branch
    2931                      .dwattr $C$DW$257, DW_AT_low_pc(0x00)
    2932                      .dwattr $C$DW$257, DW_AT_name("_printf")
    2933                      .dwattr $C$DW$257, DW_AT_TI_call
    2934 000aaf 6C00          CALL #_printf ; |355| 
         000ab1 0000!
    2935                                                      ; call occurs [#_printf] ; |355| 
    2936                      .dwpsn  file "../c5535_bsl_revc/ezdsp5535_v1/c55xx_csl/ccs_v4.0_examples/usb/CSL_USB_PollExample/csl_
    2937 000ab3 A408          MOV *SP(#4), T0 ; |356| 
    2938 000ab5 0607          B $C$L106 ; |356| 
         000ab7 87   
    2939                                                      ; branch occurs ; |356| 
    2940 000ab8       $C$L61:    
    2941                      .dwpsn  file "../c5535_bsl_revc/ezdsp5535_v1/c55xx_csl/ccs_v4.0_examples/usb/CSL_USB_PollExample/csl_
TMS320C55x Assembler PC v4.4.1 Sat Sep 29 23:08:33 2018

Tools Copyright (c) 1996-2012 Texas Instruments Incorporated
csl_usb_poll_example.asm                                             PAGE   69

    2942 000ab8 EC31          AMOV #_hEpObjArray, XAR0 ; |360| 
         000aba 8E00 
         000abc 0008-
    2943 000abe 3C04          MOV #0, T0
    2944              $C$DW$258       .dwtag  DW_TAG_TI_branch
    2945                      .dwattr $C$DW$258, DW_AT_low_pc(0x00)
    2946                      .dwattr $C$DW$258, DW_AT_name("_USB_setParams")
    2947                      .dwattr $C$DW$258, DW_AT_TI_call
    2948              
    2949 000ac0 6C00          CALL #_USB_setParams ; |360| 
         000ac2 0000!
    2950 000ac4 3D05  ||      MOV #0, T1
    2951              
    2952                                                      ; call occurs [#_USB_setParams] ; |360| 
    2953 000ac6 C406          MOV T0, *SP(#3) ; |360| 
    2954                      .dwpsn  file "../c5535_bsl_revc/ezdsp5535_v1/c55xx_csl/ccs_v4.0_examples/usb/CSL_USB_PollExample/csl_
    2955 000ac8 2249          MOV T0, AR1
    2956 000aca 0409          BCC $C$L62,AR1 == #0 ; |361| 
         000acc 12   
    2957                                                      ; branchcc occurs ; |361| 
    2958                      .dwpsn  file "../c5535_bsl_revc/ezdsp5535_v1/c55xx_csl/ccs_v4.0_examples/usb/CSL_USB_PollExample/csl_
    2959 000acd EC31          AMOV #$C$FSL8, XAR3 ; |363| 
         000acf BE00 
         000ad1 009A+
    2960 000ad3 EB00          MOV XAR3, dbl(*SP(#0))
         000ad5 B5   
    2961              $C$DW$259       .dwtag  DW_TAG_TI_branch
    2962                      .dwattr $C$DW$259, DW_AT_low_pc(0x00)
    2963                      .dwattr $C$DW$259, DW_AT_name("_printf")
    2964                      .dwattr $C$DW$259, DW_AT_TI_call
    2965 000ad6 6C00          CALL #_printf ; |363| 
         000ad8 0000!
    2966                                                      ; call occurs [#_printf] ; |363| 
    2967                      .dwpsn  file "../c5535_bsl_revc/ezdsp5535_v1/c55xx_csl/ccs_v4.0_examples/usb/CSL_USB_PollExample/csl_
    2968 000ada A408          MOV *SP(#4), T0 ; |364| 
    2969 000adc 0607          B $C$L106 ; |364| 
         000ade 60   
    2970                                                      ; branch occurs ; |364| 
    2971 000adf       $C$L62:    
    2972                      .dwpsn  file "../c5535_bsl_revc/ezdsp5535_v1/c55xx_csl/ccs_v4.0_examples/usb/CSL_USB_PollExample/csl_
    2973              $C$DW$260       .dwtag  DW_TAG_TI_branch
    2974                      .dwattr $C$DW$260, DW_AT_low_pc(0x00)
    2975                      .dwattr $C$DW$260, DW_AT_name("_USB_connectDev")
    2976                      .dwattr $C$DW$260, DW_AT_TI_call
    2977              
    2978 000adf 6C00          CALL #_USB_connectDev ; |368| 
         000ae1 0000!
    2979 000ae3 3D04  ||      MOV #0, T0
    2980              
    2981                                                      ; call occurs [#_USB_connectDev] ; |368| 
    2982 000ae5 C406          MOV T0, *SP(#3) ; |368| 
    2983                      .dwpsn  file "../c5535_bsl_revc/ezdsp5535_v1/c55xx_csl/ccs_v4.0_examples/usb/CSL_USB_PollExample/csl_
    2984 000ae7 2249          MOV T0, AR1
    2985 000ae9 0409          BCC $C$L63,AR1 == #0 ; |369| 
         000aeb 12   
TMS320C55x Assembler PC v4.4.1 Sat Sep 29 23:08:33 2018

Tools Copyright (c) 1996-2012 Texas Instruments Incorporated
csl_usb_poll_example.asm                                             PAGE   70

    2986                                                      ; branchcc occurs ; |369| 
    2987                      .dwpsn  file "../c5535_bsl_revc/ezdsp5535_v1/c55xx_csl/ccs_v4.0_examples/usb/CSL_USB_PollExample/csl_
    2988 000aec EC31          AMOV #$C$FSL9, XAR3 ; |371| 
         000aee BE00 
         000af0 00B2+
    2989 000af2 EB00          MOV XAR3, dbl(*SP(#0))
         000af4 B5   
    2990              $C$DW$261       .dwtag  DW_TAG_TI_branch
    2991                      .dwattr $C$DW$261, DW_AT_low_pc(0x00)
    2992                      .dwattr $C$DW$261, DW_AT_name("_printf")
    2993                      .dwattr $C$DW$261, DW_AT_TI_call
    2994 000af5 6C00          CALL #_printf ; |371| 
         000af7 0000!
    2995                                                      ; call occurs [#_printf] ; |371| 
    2996                      .dwpsn  file "../c5535_bsl_revc/ezdsp5535_v1/c55xx_csl/ccs_v4.0_examples/usb/CSL_USB_PollExample/csl_
    2997 000af9 A408          MOV *SP(#4), T0 ; |372| 
    2998 000afb 0607          B $C$L106 ; |372| 
         000afd 41   
    2999                                                      ; branch occurs ; |372| 
    3000 000afe       $C$L63:    
    3001                      .dwpsn  file "../c5535_bsl_revc/ezdsp5535_v1/c55xx_csl/ccs_v4.0_examples/usb/CSL_USB_PollExample/csl_
    3002 000afe EC31          AMOV #_deviceDesc, XAR3 ; |375| 
         000b00 BE00 
         000b02 0184-
    3003 000b04 EB31          MOV XAR3, dbl(*(#_deviceDescPtr))
         000b06 B500 
         000b08 007A-
    3004                      .dwpsn  file "../c5535_bsl_revc/ezdsp5535_v1/c55xx_csl/ccs_v4.0_examples/usb/CSL_USB_PollExample/csl_
    3005 000b0a EC31          AMOV #_cfgDesc, XAR3 ; |376| 
         000b0c BE00 
         000b0e 018D-
    3006 000b10 EB31          MOV XAR3, dbl(*(#_cfgDescPtr))
         000b12 B500 
         000b14 007C-
    3007                      .dwpsn  file "../c5535_bsl_revc/ezdsp5535_v1/c55xx_csl/ccs_v4.0_examples/usb/CSL_USB_PollExample/csl_
    3008 000b16 EC31          AMOV #_strDesc, XAR3 ; |377| 
         000b18 BE00 
         000b1a 01B5-
    3009 000b1c EB31          MOV XAR3, dbl(*(#_strDescPtr))
         000b1e B500 
         000b20 007E-
    3010                      .dwpsn  file "../c5535_bsl_revc/ezdsp5535_v1/c55xx_csl/ccs_v4.0_examples/usb/CSL_USB_PollExample/csl_
    3011 000b22 E631          MOV #1, *(#_selfWakeupServiced) ; |378| 
         000b24 0100 
         000b26 0006-
    3012                      .dwpsn  file "../c5535_bsl_revc/ezdsp5535_v1/c55xx_csl/ccs_v4.0_examples/usb/CSL_USB_PollExample/csl_
    3013 000b28 F031          CMP *(#_stopRunning) == #1, TC1 ; |380| 
         000b2a 0001 
         000b2c 0000 
         000b2e 82-  
    3014 000b2f 6D64          BCC $C$L105,TC1 ; |380| 
         000b31 0707 
    3015                                                      ; branchcc occurs ; |380| 
    3016 000b33       $C$L64:    
    3017 000b33       $C$DW$L$_CSL_usbPollTest$20$B:
TMS320C55x Assembler PC v4.4.1 Sat Sep 29 23:08:33 2018

Tools Copyright (c) 1996-2012 Texas Instruments Incorporated
csl_usb_poll_example.asm                                             PAGE   71

    3018                      .dwpsn  file "../c5535_bsl_revc/ezdsp5535_v1/c55xx_csl/ccs_v4.0_examples/usb/CSL_USB_PollExample/csl_
    3019 000b33 7600          MOV #56, T0 ; |383| 
         000b35 3848 
    3020 000b37 AB31          MOV *(#_usbRegisters), AR3 ; |383| 
         000b39 0000 
         000b3b 00!  
    3021 000b3c A96B          MOV port(*AR3(T0)), AR1 ; |383| 
         000b3e 99   
    3022 000b3f ED0C          MOV dbl(*SP(#6)), XAR3
         000b41 BF   
    3023 000b42 C96D          MOV AR1, *AR3(#94) ; |383| 
         000b44 005E 
    3024                      .dwpsn  file "../c5535_bsl_revc/ezdsp5535_v1/c55xx_csl/ccs_v4.0_examples/usb/CSL_USB_PollExample/csl_
    3025 000b46 7600          MOV #57, T0 ; |384| 
         000b48 3948 
    3026 000b4a AB31          MOV *(#_usbRegisters), AR3 ; |384| 
         000b4c 0000 
         000b4e 00!  
    3027 000b4f A96B          MOV port(*AR3(T0)), AR1 ; |384| 
         000b51 99   
    3028 000b52 ED0C          MOV dbl(*SP(#6)), XAR3
         000b54 BF   
    3029 000b55 C96D          MOV AR1, *AR3(#95) ; |384| 
         000b57 005F 
    3030                      .dwpsn  file "../c5535_bsl_revc/ezdsp5535_v1/c55xx_csl/ccs_v4.0_examples/usb/CSL_USB_PollExample/csl_
    3031 000b59 ED0C          MOV dbl(*SP(#6)), XAR3
         000b5b BF   
    3032 000b5c A96D          MOV *AR3(#94), AR1 ; |387| 
         000b5e 005E 
    3033 000b60 0409          BCC $C$L65,AR1 == #0 ; |387| 
         000b62 10   
    3034                                                      ; branchcc occurs ; |387| 
    3035 000b63       $C$DW$L$_CSL_usbPollTest$20$E:
    3036 000b63       $C$DW$L$_CSL_usbPollTest$21$B:
    3037                      .dwpsn  file "../c5535_bsl_revc/ezdsp5535_v1/c55xx_csl/ccs_v4.0_examples/usb/CSL_USB_PollExample/csl_
    3038 000b63 7600          MOV #40, T0 ; |389| 
         000b65 2848 
    3039 000b67 A96D          MOV *AR3(#94), AR1 ; |389| 
         000b69 005E 
    3040 000b6b AB31          MOV *(#_usbRegisters), AR3 ; |389| 
         000b6d 0000 
         000b6f 00!  
    3041 000b70 C96B          MOV AR1, port(*AR3(T0)) ; |389| 
         000b72 9A   
    3042 000b73       $C$DW$L$_CSL_usbPollTest$21$E:
    3043 000b73       $C$L65:    
    3044 000b73       $C$DW$L$_CSL_usbPollTest$22$B:
    3045                      .dwpsn  file "../c5535_bsl_revc/ezdsp5535_v1/c55xx_csl/ccs_v4.0_examples/usb/CSL_USB_PollExample/csl_
    3046 000b73 ED0C          MOV dbl(*SP(#6)), XAR3
         000b75 BF   
    3047 000b76 A96D          MOV *AR3(#95), AR1 ; |392| 
         000b78 005F 
    3048 000b7a 0409          BCC $C$L66,AR1 == #0 ; |392| 
         000b7c 10   
    3049                                                      ; branchcc occurs ; |392| 
TMS320C55x Assembler PC v4.4.1 Sat Sep 29 23:08:33 2018

Tools Copyright (c) 1996-2012 Texas Instruments Incorporated
csl_usb_poll_example.asm                                             PAGE   72

    3050 000b7d       $C$DW$L$_CSL_usbPollTest$22$E:
    3051 000b7d       $C$DW$L$_CSL_usbPollTest$23$B:
    3052                      .dwpsn  file "../c5535_bsl_revc/ezdsp5535_v1/c55xx_csl/ccs_v4.0_examples/usb/CSL_USB_PollExample/csl_
    3053 000b7d 7600          MOV #41, T0 ; |394| 
         000b7f 2948 
    3054 000b81 A96D          MOV *AR3(#95), AR1 ; |394| 
         000b83 005F 
    3055 000b85 AB31          MOV *(#_usbRegisters), AR3 ; |394| 
         000b87 0000 
         000b89 00!  
    3056 000b8a C96B          MOV AR1, port(*AR3(T0)) ; |394| 
         000b8c 9A   
    3057 000b8d       $C$DW$L$_CSL_usbPollTest$23$E:
    3058 000b8d       $C$L66:    
    3059 000b8d       $C$DW$L$_CSL_usbPollTest$24$B:
    3060                      .dwpsn  file "../c5535_bsl_revc/ezdsp5535_v1/c55xx_csl/ccs_v4.0_examples/usb/CSL_USB_PollExample/csl_
    3061 000b8d ED0C          MOV dbl(*SP(#6)), XAR3
         000b8f BF   
    3062 000b90 DC6D          BTST #2, *AR3(#95), TC1 ; |398| 
         000b92 2000 
         000b94 5F   
    3063 000b95 0474          BCC $C$L68,!TC1 ; |398| 
         000b97 6A   
    3064                                                      ; branchcc occurs ; |398| 
    3065 000b98       $C$DW$L$_CSL_usbPollTest$24$E:
    3066 000b98       $C$DW$L$_CSL_usbPollTest$25$B:
    3067                      .dwpsn  file "../c5535_bsl_revc/ezdsp5535_v1/c55xx_csl/ccs_v4.0_examples/usb/CSL_USB_PollExample/csl_
    3068 000b98 7604          MOV #1038, T0 ; |400| 
         000b9a 0E48 
    3069 000b9c AB31          MOV *(#_usbRegisters), AR3 ; |400| 
         000b9e 0000 
         000ba0 00!  
    3070 000ba1 DF6B          MOV uns(low_byte(port(*AR3(T0)))), AR1 ; |400| 
         000ba3 93   
         000ba4 99   
    3071 000ba5 C96B          MOV AR1, port(*AR3(T0)) ; |400| 
         000ba7 9A   
    3072                      .dwpsn  file "../c5535_bsl_revc/ezdsp5535_v1/c55xx_csl/ccs_v4.0_examples/usb/CSL_USB_PollExample/csl_
    3073 000ba8 F031          CMP *(#_usbBulkOutEpObj) == #9, TC1 ; |402| 
         000baa 0009 
         000bac 0000 
         000bae 40-  
    3074 000baf 0474          BCC $C$L67,!TC1 ; |402| 
         000bb1 29   
    3075                                                      ; branchcc occurs ; |402| 
    3076 000bb2       $C$DW$L$_CSL_usbPollTest$25$E:
    3077 000bb2       $C$DW$L$_CSL_usbPollTest$26$B:
    3078                      .dwpsn  file "../c5535_bsl_revc/ezdsp5535_v1/c55xx_csl/ccs_v4.0_examples/usb/CSL_USB_PollExample/csl_
    3079 000bb2 AB31          MOV *(#_usbRegisters), AR3 ; |404| 
         000bb4 0000 
         000bb6 00!  
    3080 000bb7 A96B          MOV port(*AR3(T0)), AR1 ; |404| 
         000bb9 99   
    3081 000bba 7DFF          AND #0xfff0, AR1, AC0 ; |404| 
         000bbc F009 
TMS320C55x Assembler PC v4.4.1 Sat Sep 29 23:08:33 2018

Tools Copyright (c) 1996-2012 Texas Instruments Incorporated
csl_usb_poll_example.asm                                             PAGE   73

    3082 000bbe EC00          BSET @#0, AC0 ; |404| 
         000bc0 00   
    3083 000bc1 C06B          MOV AC0, port(*AR3(T0)) ; |404| 
         000bc3 9A   
    3084                      .dwpsn  file "../c5535_bsl_revc/ezdsp5535_v1/c55xx_csl/ccs_v4.0_examples/usb/CSL_USB_PollExample/csl_
    3085 000bc4 7604          MOV #1042, T0 ; |406| 
         000bc6 1248 
    3086 000bc8 AB31          MOV *(#_usbRegisters), AR3 ; |406| 
         000bca 0000 
         000bcc 00!  
    3087 000bcd A96B          MOV port(*AR3(T0)), AR1 ; |406| 
         000bcf 99   
    3088 000bd0 EC00          BCLR @#0, AR1 ; |406| 
         000bd2 92   
    3089 000bd3 EC00          BSET @#0, AR1 ; |406| 
         000bd5 90   
    3090 000bd6 C96B          MOV AR1, port(*AR3(T0)) ; |406| 
         000bd8 9A   
    3091                      .dwpsn  file "../c5535_bsl_revc/ezdsp5535_v1/c55xx_csl/ccs_v4.0_examples/usb/CSL_USB_PollExample/csl_
    3092 000bd9 4A27          B $C$L68  ; |408| 
    3093                                                      ; branch occurs ; |408| 
    3094 000bdb       $C$DW$L$_CSL_usbPollTest$26$E:
    3095 000bdb       $C$L67:    
    3096 000bdb       $C$DW$L$_CSL_usbPollTest$27$B:
    3097                      .dwpsn  file "../c5535_bsl_revc/ezdsp5535_v1/c55xx_csl/ccs_v4.0_examples/usb/CSL_USB_PollExample/csl_
    3098 000bdb AB31          MOV *(#_usbRegisters), AR3 ; |411| 
         000bdd 0000 
         000bdf 00!  
    3099 000be0 A96B          MOV port(*AR3(T0)), AR1 ; |411| 
         000be2 99   
    3100 000be3 7DFF          AND #0xfff0, AR1, AC0 ; |411| 
         000be5 F009 
    3101 000be7 EC02          BSET @#1, AC0 ; |411| 
         000be9 00   
    3102 000bea C06B          MOV AC0, port(*AR3(T0)) ; |411| 
         000bec 9A   
    3103                      .dwpsn  file "../c5535_bsl_revc/ezdsp5535_v1/c55xx_csl/ccs_v4.0_examples/usb/CSL_USB_PollExample/csl_
    3104 000bed 7604          MOV #1042, T0 ; |413| 
         000bef 1248 
    3105 000bf1 AB31          MOV *(#_usbRegisters), AR3 ; |413| 
         000bf3 0000 
         000bf5 00!  
    3106 000bf6 A96B          MOV port(*AR3(T0)), AR1 ; |413| 
         000bf8 99   
    3107 000bf9 EC00          BCLR @#0, AR1 ; |413| 
         000bfb 92   
    3108 000bfc EC00          BSET @#0, AR1 ; |413| 
         000bfe 90   
    3109 000bff C96B          MOV AR1, port(*AR3(T0)) ; |413| 
         000c01 9A   
    3110 000c02       $C$DW$L$_CSL_usbPollTest$27$E:
    3111 000c02       $C$L68:    
    3112 000c02       $C$DW$L$_CSL_usbPollTest$28$B:
    3113                      .dwpsn  file "../c5535_bsl_revc/ezdsp5535_v1/c55xx_csl/ccs_v4.0_examples/usb/CSL_USB_PollExample/csl_
    3114 000c02 ED0C          MOV dbl(*SP(#6)), XAR3
TMS320C55x Assembler PC v4.4.1 Sat Sep 29 23:08:33 2018

Tools Copyright (c) 1996-2012 Texas Instruments Incorporated
csl_usb_poll_example.asm                                             PAGE   74

         000c04 BF   
    3115 000c05 DC6D          BTST #1, *AR3(#95), TC1 ; |419| 
         000c07 1000 
         000c09 5F   
    3116 000c0a 0474          BCC $C$L69,!TC1 ; |419| 
         000c0c 39   
    3117                                                      ; branchcc occurs ; |419| 
    3118 000c0d       $C$DW$L$_CSL_usbPollTest$28$E:
    3119 000c0d       $C$DW$L$_CSL_usbPollTest$29$B:
    3120                      .dwpsn  file "../c5535_bsl_revc/ezdsp5535_v1/c55xx_csl/ccs_v4.0_examples/usb/CSL_USB_PollExample/csl_
    3121 000c0d 3C04          MOV #0, T0
    3122              $C$DW$262       .dwtag  DW_TAG_TI_branch
    3123                      .dwattr $C$DW$262, DW_AT_low_pc(0x00)
    3124                      .dwattr $C$DW$262, DW_AT_name("_USB_setRemoteWakeup")
    3125                      .dwattr $C$DW$262, DW_AT_TI_call
    3126              
    3127 000c0f 6C00          CALL #_USB_setRemoteWakeup ; |421| 
         000c11 0000!
    3128 000c13 3D15  ||      MOV #1, T1
    3129              
    3130                                                      ; call occurs [#_USB_setRemoteWakeup] ; |421| 
    3131                      .dwpsn  file "../c5535_bsl_revc/ezdsp5535_v1/c55xx_csl/ccs_v4.0_examples/usb/CSL_USB_PollExample/csl_
    3132 000c15 3C15          MOV #1, T1
    3133              $C$DW$263       .dwtag  DW_TAG_TI_branch
    3134                      .dwattr $C$DW$263, DW_AT_low_pc(0x00)
    3135                      .dwattr $C$DW$263, DW_AT_name("_USB_issueRemoteWakeup")
    3136                      .dwattr $C$DW$263, DW_AT_TI_call
    3137              
    3138 000c17 6C00          CALL #_USB_issueRemoteWakeup ; |422| 
         000c19 0000!
    3139 000c1b 3D04  ||      MOV #0, T0
    3140              
    3141                                                      ; call occurs [#_USB_issueRemoteWakeup] ; |422| 
    3142 000c1d C406          MOV T0, *SP(#3) ; |422| 
    3143                      .dwpsn  file "../c5535_bsl_revc/ezdsp5535_v1/c55xx_csl/ccs_v4.0_examples/usb/CSL_USB_PollExample/csl_
    3144              $C$DW$264       .dwtag  DW_TAG_TI_branch
    3145                      .dwattr $C$DW$264, DW_AT_low_pc(0x00)
    3146                      .dwattr $C$DW$264, DW_AT_name("_USB_delay")
    3147                      .dwattr $C$DW$264, DW_AT_TI_call
    3148              
    3149 000c1f 0806          CALL #_USB_delay ; |424| 
         000c21 54   
    3150 000c22 3DA0  ||      MOV #10, AC0 ; |424| 
    3151              
    3152                                                      ; call occurs [#_USB_delay] ; |424| 
    3153                      .dwpsn  file "../c5535_bsl_revc/ezdsp5535_v1/c55xx_csl/ccs_v4.0_examples/usb/CSL_USB_PollExample/csl_
    3154 000c24 3C04          MOV #0, T0
    3155              $C$DW$265       .dwtag  DW_TAG_TI_branch
    3156                      .dwattr $C$DW$265, DW_AT_low_pc(0x00)
    3157                      .dwattr $C$DW$265, DW_AT_name("_USB_issueRemoteWakeup")
    3158                      .dwattr $C$DW$265, DW_AT_TI_call
    3159              
    3160 000c26 6C00          CALL #_USB_issueRemoteWakeup ; |425| 
         000c28 0000!
    3161 000c2a 3D05  ||      MOV #0, T1
TMS320C55x Assembler PC v4.4.1 Sat Sep 29 23:08:33 2018

Tools Copyright (c) 1996-2012 Texas Instruments Incorporated
csl_usb_poll_example.asm                                             PAGE   75

    3162              
    3163                                                      ; call occurs [#_USB_issueRemoteWakeup] ; |425| 
    3164 000c2c C406          MOV T0, *SP(#3) ; |425| 
    3165                      .dwpsn  file "../c5535_bsl_revc/ezdsp5535_v1/c55xx_csl/ccs_v4.0_examples/usb/CSL_USB_PollExample/csl_
    3166 000c2e 2249          MOV T0, AR1
    3167 000c30 0409          BCC $C$L69,AR1 == #0 ; |426| 
         000c32 13   
    3168                                                      ; branchcc occurs ; |426| 
    3169 000c33       $C$DW$L$_CSL_usbPollTest$29$E:
    3170 000c33       $C$DW$L$_CSL_usbPollTest$30$B:
    3171                      .dwpsn  file "../c5535_bsl_revc/ezdsp5535_v1/c55xx_csl/ccs_v4.0_examples/usb/CSL_USB_PollExample/csl_
    3172 000c33 EC31          AMOV #$C$FSL10, XAR3 ; |428| 
         000c35 BE00 
         000c37 00C6+
    3173 000c39 EB00          MOV XAR3, dbl(*SP(#0))
         000c3b B5   
    3174              $C$DW$266       .dwtag  DW_TAG_TI_branch
    3175                      .dwattr $C$DW$266, DW_AT_low_pc(0x00)
    3176                      .dwattr $C$DW$266, DW_AT_name("_printf")
    3177                      .dwattr $C$DW$266, DW_AT_TI_call
    3178 000c3c 6C00          CALL #_printf ; |428| 
         000c3e 0000!
    3179                                                      ; call occurs [#_printf] ; |428| 
    3180                      .dwpsn  file "../c5535_bsl_revc/ezdsp5535_v1/c55xx_csl/ccs_v4.0_examples/usb/CSL_USB_PollExample/csl_
    3181 000c40 E631          MOV #0, *(#_PaSs_StAtE) ; |431| 
         000c42 0000 
         000c44 0205-
    3182 000c46       $C$DW$L$_CSL_usbPollTest$30$E:
    3183 000c46       $C$L69:    
    3184 000c46       $C$DW$L$_CSL_usbPollTest$31$B:
    3185                      .dwpsn  file "../c5535_bsl_revc/ezdsp5535_v1/c55xx_csl/ccs_v4.0_examples/usb/CSL_USB_PollExample/csl_
    3186 000c46 ED0C          MOV dbl(*SP(#6)), XAR3
         000c48 BF   
    3187 000c49 DC6D          BTST #0, *AR3(#94), TC1 ; |437| 
         000c4b 0000 
         000c4d 5E   
    3188 000c4e 6D74          BCC $C$L92,!TC1 ; |437| 
         000c50 03B5 
    3189                                                      ; branchcc occurs ; |437| 
    3190 000c52       $C$DW$L$_CSL_usbPollTest$31$E:
    3191 000c52       $C$DW$L$_CSL_usbPollTest$32$B:
    3192                      .dwpsn  file "../c5535_bsl_revc/ezdsp5535_v1/c55xx_csl/ccs_v4.0_examples/usb/CSL_USB_PollExample/csl_
    3193 000c52 7604          MOV #1038, T0 ; |439| 
         000c54 0E48 
    3194 000c56 AB31          MOV *(#_usbRegisters), AR3 ; |439| 
         000c58 0000 
         000c5a 00!  
    3195 000c5b A96B          MOV port(*AR3(T0)), AR1 ; |439| 
         000c5d 99   
    3196 000c5e C91A          MOV AR1, *SP(#13) ; |439| 
    3197                      .dwpsn  file "../c5535_bsl_revc/ezdsp5535_v1/c55xx_csl/ccs_v4.0_examples/usb/CSL_USB_PollExample/csl_
    3198 000c60 A96B          MOV port(*AR3(T0)), AR1 ; |440| 
         000c62 99   
    3199 000c63 7DFF          AND #0xfff0, AR1, AC0 ; |440| 
         000c65 F009 
TMS320C55x Assembler PC v4.4.1 Sat Sep 29 23:08:33 2018

Tools Copyright (c) 1996-2012 Texas Instruments Incorporated
csl_usb_poll_example.asm                                             PAGE   76

    3200 000c67 C06B          MOV AC0, port(*AR3(T0)) ; |440| 
         000c69 9A   
    3201                      .dwpsn  file "../c5535_bsl_revc/ezdsp5535_v1/c55xx_csl/ccs_v4.0_examples/usb/CSL_USB_PollExample/csl_
    3202 000c6a EC31          AMOV #_usbSetup, XAR0 ; |443| 
         000c6c 8E00 
         000c6e 0074-
    3203 000c70 3C15          MOV #1, T1
    3204              $C$DW$267       .dwtag  DW_TAG_TI_branch
    3205                      .dwattr $C$DW$267, DW_AT_low_pc(0x00)
    3206                      .dwattr $C$DW$267, DW_AT_name("_USB_getSetupPacket")
    3207                      .dwattr $C$DW$267, DW_AT_TI_call
    3208              
    3209 000c72 6C00          CALL #_USB_getSetupPacket ; |443| 
         000c74 0000!
    3210 000c76 3D04  ||      MOV #0, T0
    3211              
    3212                                                      ; call occurs [#_USB_getSetupPacket] ; |443| 
    3213                      .dwpsn  file "../c5535_bsl_revc/ezdsp5535_v1/c55xx_csl/ccs_v4.0_examples/usb/CSL_USB_PollExample/csl_
    3214 000c78 7604          MOV #1042, T0 ; |445| 
         000c7a 1248 
    3215 000c7c AB31          MOV *(#_usbRegisters), AR3 ; |445| 
         000c7e 0000 
         000c80 00!  
    3216 000c81 A96B          MOV port(*AR3(T0)), AR1 ; |445| 
         000c83 99   
    3217              
    3218 000c84 1801          AND #0x0001, AR1, AR1 ; |445| 
         000c86 99   
    3219 000c87 3D1A  ||      MOV #1, AR2
    3220              
    3221 000c89 129C          CMPU AR1 != AR2, TC1 ; |445| 
         000c8b A4   
    3222 000c8c 6D64          BCC $C$L90,TC1 ; |445| 
         000c8e 0355 
    3223                                                      ; branchcc occurs ; |445| 
    3224 000c90       $C$DW$L$_CSL_usbPollTest$32$E:
    3225 000c90       $C$DW$L$_CSL_usbPollTest$33$B:
    3226                      .dwpsn  file "../c5535_bsl_revc/ezdsp5535_v1/c55xx_csl/ccs_v4.0_examples/usb/CSL_USB_PollExample/csl_
    3227 000c90 A96B          MOV port(*AR3(T0)), AR1 ; |449| 
         000c92 99   
    3228 000c93 EC0C          BCLR @#6, AR1 ; |449| 
         000c95 92   
    3229 000c96 EC0C          BSET @#6, AR1 ; |449| 
         000c98 90   
    3230 000c99 C96B          MOV AR1, port(*AR3(T0)) ; |449| 
         000c9b 9A   
    3231                      .dwpsn  file "../c5535_bsl_revc/ezdsp5535_v1/c55xx_csl/ccs_v4.0_examples/usb/CSL_USB_PollExample/csl_
    3232 000c9c 0603          B $C$L88  ; |453| 
         000c9e 02   
    3233                                                      ; branch occurs ; |453| 
    3234 000c9f       $C$DW$L$_CSL_usbPollTest$33$E:
    3235 000c9f       $C$L70:    
    3236 000c9f       $C$DW$L$_CSL_usbPollTest$35$B:
    3237                      .dwpsn  file "../c5535_bsl_revc/ezdsp5535_v1/c55xx_csl/ccs_v4.0_examples/usb/CSL_USB_PollExample/csl_
    3238 000c9f DF31          MOV uns(low_byte(*(#(_usbSetup+4)))), AR1 ; |463| 
TMS320C55x Assembler PC v4.4.1 Sat Sep 29 23:08:33 2018

Tools Copyright (c) 1996-2012 Texas Instruments Incorporated
csl_usb_poll_example.asm                                             PAGE   77

         000ca1 9300 
         000ca3 0078-
    3239 000ca5 C91C          MOV AR1, *SP(#14) ; |463| 
    3240                      .dwpsn  file "../c5535_bsl_revc/ezdsp5535_v1/c55xx_csl/ccs_v4.0_examples/usb/CSL_USB_PollExample/csl_
    3241 000ca7 2295          MOV AR1, T1
    3242              $C$DW$268       .dwtag  DW_TAG_TI_branch
    3243                      .dwattr $C$DW$268, DW_AT_low_pc(0x00)
    3244                      .dwattr $C$DW$268, DW_AT_name("_USB_epNumToHandle")
    3245                      .dwattr $C$DW$268, DW_AT_TI_call
    3246              
    3247 000ca9 6C00          CALL #_USB_epNumToHandle ; |464| 
         000cab 0000!
    3248 000cad 3D04  ||      MOV #0, T0
    3249              
    3250                                                      ; call occurs [#_USB_epNumToHandle] ; |464| 
    3251 000caf EB10          MOV XAR0, dbl(*SP(#8))
         000cb1 85   
    3252                      .dwpsn  file "../c5535_bsl_revc/ezdsp5535_v1/c55xx_csl/ccs_v4.0_examples/usb/CSL_USB_PollExample/csl_
    3253 000cb2 EC06          AMAR *SP(#3), XAR1
         000cb4 9E   
    3254              $C$DW$269       .dwtag  DW_TAG_TI_branch
    3255                      .dwattr $C$DW$269, DW_AT_low_pc(0x00)
    3256                      .dwattr $C$DW$269, DW_AT_name("_USB_getEndptStall")
    3257                      .dwattr $C$DW$269, DW_AT_TI_call
    3258 000cb5 6C00          CALL #_USB_getEndptStall ; |465| 
         000cb7 0000!
    3259                                                      ; call occurs [#_USB_getEndptStall] ; |465| 
    3260 000cb9 0414          BCC $C$L73,T0 != #0 ; |465| 
         000cbb 2C   
    3261                                                      ; branchcc occurs ; |465| 
    3262 000cbc       $C$DW$L$_CSL_usbPollTest$35$E:
    3263 000cbc       $C$DW$L$_CSL_usbPollTest$36$B:
    3264                      .dwpsn  file "../c5535_bsl_revc/ezdsp5535_v1/c55xx_csl/ccs_v4.0_examples/usb/CSL_USB_PollExample/csl_
    3265 000cbc ED10          MOV dbl(*SP(#8)), XAR0
         000cbe 8F   
    3266              $C$DW$270       .dwtag  DW_TAG_TI_branch
    3267                      .dwattr $C$DW$270, DW_AT_low_pc(0x00)
    3268                      .dwattr $C$DW$270, DW_AT_name("_USB_stallEndpt")
    3269                      .dwattr $C$DW$270, DW_AT_TI_call
    3270 000cbf 6C00          CALL #_USB_stallEndpt ; |467| 
         000cc1 0000!
    3271                                                      ; call occurs [#_USB_stallEndpt] ; |467| 
    3272                      .dwpsn  file "../c5535_bsl_revc/ezdsp5535_v1/c55xx_csl/ccs_v4.0_examples/usb/CSL_USB_PollExample/csl_
    3273 000cc3 4A23          B $C$L73  ; |469| 
    3274                                                      ; branch occurs ; |469| 
    3275 000cc5       $C$DW$L$_CSL_usbPollTest$36$E:
    3276 000cc5       $C$L71:    
    3277 000cc5       $C$DW$L$_CSL_usbPollTest$37$B:
    3278                      .dwpsn  file "../c5535_bsl_revc/ezdsp5535_v1/c55xx_csl/ccs_v4.0_examples/usb/CSL_USB_PollExample/csl_
    3279              $C$DW$271       .dwtag  DW_TAG_TI_branch
    3280                      .dwattr $C$DW$271, DW_AT_low_pc(0x00)
    3281                      .dwattr $C$DW$271, DW_AT_name("_USB_getRemoteWakeupStat")
    3282                      .dwattr $C$DW$271, DW_AT_TI_call
    3283              
    3284 000cc5 6C00          CALL #_USB_getRemoteWakeupStat ; |472| 
TMS320C55x Assembler PC v4.4.1 Sat Sep 29 23:08:33 2018

Tools Copyright (c) 1996-2012 Texas Instruments Incorporated
csl_usb_poll_example.asm                                             PAGE   78

         000cc7 0000!
    3285 000cc9 3D04  ||      MOV #0, T0
    3286              
    3287                                                      ; call occurs [#_USB_getRemoteWakeupStat] ; |472| 
    3288 000ccb 0414          BCC $C$L73,T0 != #0 ; |472| 
         000ccd 1A   
    3289                                                      ; branchcc occurs ; |472| 
    3290 000cce       $C$DW$L$_CSL_usbPollTest$37$E:
    3291 000cce       $C$DW$L$_CSL_usbPollTest$38$B:
    3292                      .dwpsn  file "../c5535_bsl_revc/ezdsp5535_v1/c55xx_csl/ccs_v4.0_examples/usb/CSL_USB_PollExample/csl_
    3293 000cce 3C04          MOV #0, T0
    3294              $C$DW$272       .dwtag  DW_TAG_TI_branch
    3295                      .dwattr $C$DW$272, DW_AT_low_pc(0x00)
    3296                      .dwattr $C$DW$272, DW_AT_name("_USB_setRemoteWakeup")
    3297                      .dwattr $C$DW$272, DW_AT_TI_call
    3298              
    3299 000cd0 6C00          CALL #_USB_setRemoteWakeup ; |474| 
         000cd2 0000!
    3300 000cd4 3D15  ||      MOV #1, T1
    3301              
    3302                                                      ; call occurs [#_USB_setRemoteWakeup] ; |474| 
    3303                      .dwpsn  file "../c5535_bsl_revc/ezdsp5535_v1/c55xx_csl/ccs_v4.0_examples/usb/CSL_USB_PollExample/csl_
    3304 000cd6 4A10          B $C$L73  ; |476| 
    3305                                                      ; branch occurs ; |476| 
    3306 000cd8       $C$DW$L$_CSL_usbPollTest$38$E:
    3307 000cd8       $C$L72:    
    3308 000cd8       $C$DW$L$_CSL_usbPollTest$40$B:
    3309                      .dwpsn  file "../c5535_bsl_revc/ezdsp5535_v1/c55xx_csl/ccs_v4.0_examples/usb/CSL_USB_PollExample/csl_
    3310 000cd8 A931          MOV *(#(_usbSetup+3)), AR1 ; |457| 
         000cda 0000 
         000cdc 77-  
    3311 000cdd 0409          BCC $C$L70,AR1 == #0 ; |457| 
         000cdf BF   
    3312                                                      ; branchcc occurs ; |457| 
    3313 000ce0       $C$DW$L$_CSL_usbPollTest$40$E:
    3314 000ce0       $C$DW$L$_CSL_usbPollTest$41$B:
    3315 000ce0 3C1A          MOV #1, AR2
    3316 000ce2 1290          CMPU AR1 == AR2, TC1 ; |457| 
         000ce4 A4   
    3317 000ce5 0464          BCC $C$L71,TC1 ; |457| 
         000ce7 DD   
    3318                                                      ; branchcc occurs ; |457| 
    3319 000ce8       $C$DW$L$_CSL_usbPollTest$41$E:
    3320 000ce8       $C$L73:    
    3321 000ce8       $C$DW$L$_CSL_usbPollTest$42$B:
    3322                      .dwpsn  file "../c5535_bsl_revc/ezdsp5535_v1/c55xx_csl/ccs_v4.0_examples/usb/CSL_USB_PollExample/csl_
    3323 000ce8 7604          MOV #1042, T0 ; |482| 
         000cea 1248 
    3324 000cec AB31          MOV *(#_usbRegisters), AR3 ; |482| 
         000cee 0000 
         000cf0 00!  
    3325 000cf1 A96B          MOV port(*AR3(T0)), AR1 ; |482| 
         000cf3 99   
    3326 000cf4 EC0C          BCLR @#6, AR1 ; |482| 
         000cf6 92   
TMS320C55x Assembler PC v4.4.1 Sat Sep 29 23:08:33 2018

Tools Copyright (c) 1996-2012 Texas Instruments Incorporated
csl_usb_poll_example.asm                                             PAGE   79

    3327 000cf7 EC0C          BSET @#6, AR1 ; |482| 
         000cf9 90   
    3328 000cfa C96B          MOV AR1, port(*AR3(T0)) ; |482| 
         000cfc 9A   
    3329                      .dwpsn  file "../c5535_bsl_revc/ezdsp5535_v1/c55xx_csl/ccs_v4.0_examples/usb/CSL_USB_PollExample/csl_
    3330 000cfd AB31          MOV *(#_usbRegisters), AR3 ; |484| 
         000cff 0000 
         000d01 00!  
    3331 000d02 A96B          MOV port(*AR3(T0)), AR1 ; |484| 
         000d04 99   
    3332 000d05 EC06          BCLR @#3, AR1 ; |484| 
         000d07 92   
    3333 000d08 EC06          BSET @#3, AR1 ; |484| 
         000d0a 90   
    3334 000d0b C96B          MOV AR1, port(*AR3(T0)) ; |484| 
         000d0d 9A   
    3335                      .dwpsn  file "../c5535_bsl_revc/ezdsp5535_v1/c55xx_csl/ccs_v4.0_examples/usb/CSL_USB_PollExample/csl_
    3336 000d0e 0602          B $C$L91  ; |486| 
         000d10 E8   
    3337                                                      ; branch occurs ; |486| 
    3338 000d11       $C$DW$L$_CSL_usbPollTest$42$E:
    3339 000d11       $C$L74:    
    3340 000d11       $C$DW$L$_CSL_usbPollTest$44$B:
    3341                      .dwpsn  file "../c5535_bsl_revc/ezdsp5535_v1/c55xx_csl/ccs_v4.0_examples/usb/CSL_USB_PollExample/csl_
    3342 000d11 DF31          MOV uns(low_byte(*(#(_usbSetup+4)))), AR1 ; |492| 
         000d13 9300 
         000d15 0078-
    3343 000d17 C91C          MOV AR1, *SP(#14) ; |492| 
    3344                      .dwpsn  file "../c5535_bsl_revc/ezdsp5535_v1/c55xx_csl/ccs_v4.0_examples/usb/CSL_USB_PollExample/csl_
    3345 000d19 2295          MOV AR1, T1
    3346              $C$DW$273       .dwtag  DW_TAG_TI_branch
    3347                      .dwattr $C$DW$273, DW_AT_low_pc(0x00)
    3348                      .dwattr $C$DW$273, DW_AT_name("_USB_epNumToHandle")
    3349                      .dwattr $C$DW$273, DW_AT_TI_call
    3350              
    3351 000d1b 6C00          CALL #_USB_epNumToHandle ; |493| 
         000d1d 0000!
    3352 000d1f 3D04  ||      MOV #0, T0
    3353              
    3354                                                      ; call occurs [#_USB_epNumToHandle] ; |493| 
    3355 000d21 EB10          MOV XAR0, dbl(*SP(#8))
         000d23 85   
    3356                      .dwpsn  file "../c5535_bsl_revc/ezdsp5535_v1/c55xx_csl/ccs_v4.0_examples/usb/CSL_USB_PollExample/csl_
    3357 000d24 EC06          AMAR *SP(#3), XAR1
         000d26 9E   
    3358              $C$DW$274       .dwtag  DW_TAG_TI_branch
    3359                      .dwattr $C$DW$274, DW_AT_low_pc(0x00)
    3360                      .dwattr $C$DW$274, DW_AT_name("_USB_getEndptStall")
    3361                      .dwattr $C$DW$274, DW_AT_TI_call
    3362 000d27 6C00          CALL #_USB_getEndptStall ; |494| 
         000d29 0000!
    3363                                                      ; call occurs [#_USB_getEndptStall] ; |494| 
    3364 000d2b 6D04          BCC $C$L91,T0 == #0 ; |494| 
         000d2d 02CA 
    3365                                                      ; branchcc occurs ; |494| 
TMS320C55x Assembler PC v4.4.1 Sat Sep 29 23:08:33 2018

Tools Copyright (c) 1996-2012 Texas Instruments Incorporated
csl_usb_poll_example.asm                                             PAGE   80

    3366 000d2f       $C$DW$L$_CSL_usbPollTest$44$E:
    3367 000d2f       $C$DW$L$_CSL_usbPollTest$45$B:
    3368                      .dwpsn  file "../c5535_bsl_revc/ezdsp5535_v1/c55xx_csl/ccs_v4.0_examples/usb/CSL_USB_PollExample/csl_
    3369 000d2f ED10          MOV dbl(*SP(#8)), XAR0
         000d31 8F   
    3370              $C$DW$275       .dwtag  DW_TAG_TI_branch
    3371                      .dwattr $C$DW$275, DW_AT_low_pc(0x00)
    3372                      .dwattr $C$DW$275, DW_AT_name("_USB_clearEndptStall")
    3373                      .dwattr $C$DW$275, DW_AT_TI_call
    3374 000d32 6C00          CALL #_USB_clearEndptStall ; |496| 
         000d34 0000!
    3375                                                      ; call occurs [#_USB_clearEndptStall] ; |496| 
    3376                      .dwpsn  file "../c5535_bsl_revc/ezdsp5535_v1/c55xx_csl/ccs_v4.0_examples/usb/CSL_USB_PollExample/csl_
    3377 000d36 0602          B $C$L91  ; |498| 
         000d38 C0   
    3378                                                      ; branch occurs ; |498| 
    3379 000d39       $C$DW$L$_CSL_usbPollTest$45$E:
    3380 000d39       $C$L75:    
    3381 000d39       $C$DW$L$_CSL_usbPollTest$46$B:
    3382                      .dwpsn  file "../c5535_bsl_revc/ezdsp5535_v1/c55xx_csl/ccs_v4.0_examples/usb/CSL_USB_PollExample/csl_
    3383              $C$DW$276       .dwtag  DW_TAG_TI_branch
    3384                      .dwattr $C$DW$276, DW_AT_low_pc(0x00)
    3385                      .dwattr $C$DW$276, DW_AT_name("_USB_getRemoteWakeupStat")
    3386                      .dwattr $C$DW$276, DW_AT_TI_call
    3387              
    3388 000d39 6C00          CALL #_USB_getRemoteWakeupStat ; |501| 
         000d3b 0000!
    3389 000d3d 3D04  ||      MOV #0, T0
    3390              
    3391                                                      ; call occurs [#_USB_getRemoteWakeupStat] ; |501| 
    3392 000d3f 6D04          BCC $C$L91,T0 == #0 ; |501| 
         000d41 02B6 
    3393                                                      ; branchcc occurs ; |501| 
    3394 000d43       $C$DW$L$_CSL_usbPollTest$46$E:
    3395 000d43       $C$DW$L$_CSL_usbPollTest$47$B:
    3396                      .dwpsn  file "../c5535_bsl_revc/ezdsp5535_v1/c55xx_csl/ccs_v4.0_examples/usb/CSL_USB_PollExample/csl_
    3397 000d43 3C04          MOV #0, T0
    3398              $C$DW$277       .dwtag  DW_TAG_TI_branch
    3399                      .dwattr $C$DW$277, DW_AT_low_pc(0x00)
    3400                      .dwattr $C$DW$277, DW_AT_name("_USB_setRemoteWakeup")
    3401                      .dwattr $C$DW$277, DW_AT_TI_call
    3402              
    3403 000d45 6C00          CALL #_USB_setRemoteWakeup ; |503| 
         000d47 0000!
    3404 000d49 3D05  ||      MOV #0, T1
    3405              
    3406                                                      ; call occurs [#_USB_setRemoteWakeup] ; |503| 
    3407                      .dwpsn  file "../c5535_bsl_revc/ezdsp5535_v1/c55xx_csl/ccs_v4.0_examples/usb/CSL_USB_PollExample/csl_
    3408 000d4b 0602          B $C$L91  ; |506| 
         000d4d AB   
    3409                                                      ; branch occurs ; |506| 
    3410 000d4e       $C$DW$L$_CSL_usbPollTest$47$E:
    3411 000d4e       $C$L76:    
    3412 000d4e       $C$DW$L$_CSL_usbPollTest$49$B:
    3413                      .dwpsn  file "../c5535_bsl_revc/ezdsp5535_v1/c55xx_csl/ccs_v4.0_examples/usb/CSL_USB_PollExample/csl_
TMS320C55x Assembler PC v4.4.1 Sat Sep 29 23:08:33 2018

Tools Copyright (c) 1996-2012 Texas Instruments Incorporated
csl_usb_poll_example.asm                                             PAGE   81

    3414 000d4e A931          MOV *(#(_usbSetup+3)), AR1 ; |489| 
         000d50 0000 
         000d52 77-  
    3415 000d53 0409          BCC $C$L74,AR1 == #0 ; |489| 
         000d55 BB   
    3416                                                      ; branchcc occurs ; |489| 
    3417 000d56       $C$DW$L$_CSL_usbPollTest$49$E:
    3418 000d56       $C$DW$L$_CSL_usbPollTest$50$B:
    3419 000d56 1290          CMPU AR1 == AR2, TC1 ; |489| 
         000d58 A4   
    3420 000d59 0464          BCC $C$L75,TC1 ; |489| 
         000d5b DD   
    3421                                                      ; branchcc occurs ; |489| 
    3422 000d5c       $C$DW$L$_CSL_usbPollTest$50$E:
    3423 000d5c       $C$DW$L$_CSL_usbPollTest$51$B:
    3424 000d5c 0602          B $C$L91  ; |489| 
         000d5e 9A   
    3425                                                      ; branch occurs ; |489| 
    3426 000d5f       $C$DW$L$_CSL_usbPollTest$51$E:
    3427 000d5f       $C$L77:    
    3428 000d5f       $C$DW$L$_CSL_usbPollTest$53$B:
    3429                      .dwpsn  file "../c5535_bsl_revc/ezdsp5535_v1/c55xx_csl/ccs_v4.0_examples/usb/CSL_USB_PollExample/csl_
    3430 000d5f DF31          MOV uns(low_byte(*(#(_usbSetup+4)))), AR1 ; |515| 
         000d61 9300 
         000d63 0078-
    3431 000d65 C91C          MOV AR1, *SP(#14) ; |515| 
    3432                      .dwpsn  file "../c5535_bsl_revc/ezdsp5535_v1/c55xx_csl/ccs_v4.0_examples/usb/CSL_USB_PollExample/csl_
    3433 000d67 3C04          MOV #0, T0
    3434              $C$DW$278       .dwtag  DW_TAG_TI_branch
    3435                      .dwattr $C$DW$278, DW_AT_low_pc(0x00)
    3436                      .dwattr $C$DW$278, DW_AT_name("_USB_epNumToHandle")
    3437                      .dwattr $C$DW$278, DW_AT_TI_call
    3438              
    3439 000d69 6C00          CALL #_USB_epNumToHandle ; |516| 
         000d6b 0000!
    3440 000d6d 2395  ||      MOV AR1, T1
    3441              
    3442                                                      ; call occurs [#_USB_epNumToHandle] ; |516| 
    3443 000d6f EB10          MOV XAR0, dbl(*SP(#8))
         000d71 85   
    3444                      .dwpsn  file "../c5535_bsl_revc/ezdsp5535_v1/c55xx_csl/ccs_v4.0_examples/usb/CSL_USB_PollExample/csl_
    3445 000d72 3C04          MOV #0, T0
    3446 000d74 EC31          AMOV #0, XAR1 ; |517| 
         000d76 9E00 
         000d78 0000 
    3447              $C$DW$279       .dwtag  DW_TAG_TI_branch
    3448                      .dwattr $C$DW$279, DW_AT_low_pc(0x00)
    3449                      .dwattr $C$DW$279, DW_AT_name("_USB_postTransaction")
    3450                      .dwattr $C$DW$279, DW_AT_TI_call
    3451              
    3452 000d7a 6C00          CALL #_USB_postTransaction ; |517| 
         000d7c 0000!
    3453 000d7e 3D05  ||      MOV #0, T1
    3454              
    3455                                                      ; call occurs [#_USB_postTransaction] ; |517| 
TMS320C55x Assembler PC v4.4.1 Sat Sep 29 23:08:33 2018

Tools Copyright (c) 1996-2012 Texas Instruments Incorporated
csl_usb_poll_example.asm                                             PAGE   82

    3456                      .dwpsn  file "../c5535_bsl_revc/ezdsp5535_v1/c55xx_csl/ccs_v4.0_examples/usb/CSL_USB_PollExample/csl_
    3457 000d80 7604          MOV #1042, T0 ; |521| 
         000d82 1248 
    3458 000d84 AB31          MOV *(#_usbRegisters), AR3 ; |521| 
         000d86 0000 
         000d88 00!  
    3459 000d89 A96B          MOV port(*AR3(T0)), AR1 ; |521| 
         000d8b 99   
    3460 000d8c EC0C          BCLR @#6, AR1 ; |521| 
         000d8e 92   
    3461 000d8f EC0C          BSET @#6, AR1 ; |521| 
         000d91 90   
    3462 000d92 C96B          MOV AR1, port(*AR3(T0)) ; |521| 
         000d94 9A   
    3463                      .dwpsn  file "../c5535_bsl_revc/ezdsp5535_v1/c55xx_csl/ccs_v4.0_examples/usb/CSL_USB_PollExample/csl_
    3464 000d95 AB31          MOV *(#_usbRegisters), AR3 ; |523| 
         000d97 0000 
         000d99 00!  
    3465 000d9a A96B          MOV port(*AR3(T0)), AR1 ; |523| 
         000d9c 99   
    3466 000d9d EC06          BCLR @#3, AR1 ; |523| 
         000d9f 92   
    3467 000da0 EC06          BSET @#3, AR1 ; |523| 
         000da2 90   
    3468 000da3 C96B          MOV AR1, port(*AR3(T0)) ; |523| 
         000da5 9A   
    3469                      .dwpsn  file "../c5535_bsl_revc/ezdsp5535_v1/c55xx_csl/ccs_v4.0_examples/usb/CSL_USB_PollExample/csl_
    3470 000da6 0602          B $C$L91  ; |526| 
         000da8 50   
    3471                                                      ; branch occurs ; |526| 
    3472 000da9       $C$DW$L$_CSL_usbPollTest$53$E:
    3473 000da9       $C$L78:    
    3474 000da9       $C$DW$L$_CSL_usbPollTest$55$B:
    3475                      .dwpsn  file "../c5535_bsl_revc/ezdsp5535_v1/c55xx_csl/ccs_v4.0_examples/usb/CSL_USB_PollExample/csl_
    3476 000da9 EC31          AMOV #_deviceDesc, XAR3 ; |533| 
         000dab BE00 
         000dad 0184-
    3477 000daf EB31          MOV XAR3, dbl(*(#_deviceDescPtr))
         000db1 B500 
         000db3 007A-
    3478                      .dwpsn  file "../c5535_bsl_revc/ezdsp5535_v1/c55xx_csl/ccs_v4.0_examples/usb/CSL_USB_PollExample/csl_
    3479 000db5 ED31          MOV dbl(*(#(_hEpObjArray+2))), XAR0
         000db7 8F00 
         000db9 000A-
    3480 000dbb DF31          MOV uns(low_byte(*(#_deviceDesc))), T0 ; |534| 
         000dbd 4300 
         000dbf 0184-
    3481 000dc1 7600          MOV #128, T1 ; |534| 
         000dc3 8058 
    3482 000dc5 ED31          MOV dbl(*(#_deviceDescPtr)), XAR1
         000dc7 9F00 
         000dc9 007A-
    3483              $C$DW$280       .dwtag  DW_TAG_TI_branch
    3484                      .dwattr $C$DW$280, DW_AT_low_pc(0x00)
    3485                      .dwattr $C$DW$280, DW_AT_name("_USB_postTransaction")
TMS320C55x Assembler PC v4.4.1 Sat Sep 29 23:08:33 2018

Tools Copyright (c) 1996-2012 Texas Instruments Incorporated
csl_usb_poll_example.asm                                             PAGE   83

    3486                      .dwattr $C$DW$280, DW_AT_TI_call
    3487 000dcb 6C00          CALL #_USB_postTransaction ; |534| 
         000dcd 0000!
    3488                                                      ; call occurs [#_USB_postTransaction] ; |534| 
    3489 000dcf C406          MOV T0, *SP(#3) ; |534| 
    3490                      .dwpsn  file "../c5535_bsl_revc/ezdsp5535_v1/c55xx_csl/ccs_v4.0_examples/usb/CSL_USB_PollExample/csl_
    3491 000dd1 0601          B $C$L86  ; |537| 
         000dd3 51   
    3492                                                      ; branch occurs ; |537| 
    3493 000dd4       $C$DW$L$_CSL_usbPollTest$55$E:
    3494 000dd4       $C$L79:    
    3495 000dd4       $C$DW$L$_CSL_usbPollTest$56$B:
    3496                      .dwpsn  file "../c5535_bsl_revc/ezdsp5535_v1/c55xx_csl/ccs_v4.0_examples/usb/CSL_USB_PollExample/csl_
    3497 000dd4 F031          CMP *(#(_usbSetup+5)) == #9, TC1 ; |540| 
         000dd6 0009 
         000dd8 0000 
         000dda 79-  
    3498 000ddb 0474          BCC $C$L80,!TC1 ; |540| 
         000ddd 27   
    3499                                                      ; branchcc occurs ; |540| 
    3500 000dde       $C$DW$L$_CSL_usbPollTest$56$E:
    3501 000dde       $C$DW$L$_CSL_usbPollTest$57$B:
    3502                      .dwpsn  file "../c5535_bsl_revc/ezdsp5535_v1/c55xx_csl/ccs_v4.0_examples/usb/CSL_USB_PollExample/csl_
    3503 000dde EC31          AMOV #_cfgDesc, XAR3 ; |542| 
         000de0 BE00 
         000de2 018D-
    3504 000de4 EB31          MOV XAR3, dbl(*(#_cfgDescPtr))
         000de6 B500 
         000de8 007C-
    3505                      .dwpsn  file "../c5535_bsl_revc/ezdsp5535_v1/c55xx_csl/ccs_v4.0_examples/usb/CSL_USB_PollExample/csl_
    3506 000dea ED31          MOV dbl(*(#(_hEpObjArray+2))), XAR0
         000dec 8F00 
         000dee 000A-
    3507 000df0 7600          MOV #128, T1 ; |543| 
         000df2 8058 
    3508 000df4 ED31          MOV dbl(*(#_cfgDescPtr)), XAR1
         000df6 9F00 
         000df8 007C-
    3509              $C$DW$281       .dwtag  DW_TAG_TI_branch
    3510                      .dwattr $C$DW$281, DW_AT_low_pc(0x00)
    3511                      .dwattr $C$DW$281, DW_AT_name("_USB_postTransaction")
    3512                      .dwattr $C$DW$281, DW_AT_TI_call
    3513              
    3514 000dfa 6C00          CALL #_USB_postTransaction ; |543| 
         000dfc 0000!
    3515 000dfe 3D94  ||      MOV #9, T0
    3516              
    3517                                                      ; call occurs [#_USB_postTransaction] ; |543| 
    3518 000e00 C406          MOV T0, *SP(#3) ; |543| 
    3519                      .dwpsn  file "../c5535_bsl_revc/ezdsp5535_v1/c55xx_csl/ccs_v4.0_examples/usb/CSL_USB_PollExample/csl_
    3520 000e02 0601          B $C$L86  ; |546| 
         000e04 20   
    3521                                                      ; branch occurs ; |546| 
    3522 000e05       $C$DW$L$_CSL_usbPollTest$57$E:
    3523 000e05       $C$L80:    
TMS320C55x Assembler PC v4.4.1 Sat Sep 29 23:08:33 2018

Tools Copyright (c) 1996-2012 Texas Instruments Incorporated
csl_usb_poll_example.asm                                             PAGE   84

    3524 000e05       $C$DW$L$_CSL_usbPollTest$58$B:
    3525                      .dwpsn  file "../c5535_bsl_revc/ezdsp5535_v1/c55xx_csl/ccs_v4.0_examples/usb/CSL_USB_PollExample/csl_
    3526 000e05 EC31          AMOV #_cfgDesc, XAR3 ; |549| 
         000e07 BE00 
         000e09 018D-
    3527 000e0b EB31          MOV XAR3, dbl(*(#_cfgDescPtr))
         000e0d B500 
         000e0f 007C-
    3528                      .dwpsn  file "../c5535_bsl_revc/ezdsp5535_v1/c55xx_csl/ccs_v4.0_examples/usb/CSL_USB_PollExample/csl_
    3529 000e11 ED31          MOV dbl(*(#(_hEpObjArray+2))), XAR0
         000e13 8F00 
         000e15 000A-
    3530 000e17 A431          MOV *(#(_cfgDesc+1)), T0 ; |550| 
         000e19 0001 
         000e1b 8E-  
    3531 000e1c 7600          MOV #128, T1 ; |550| 
         000e1e 8058 
    3532 000e20 ED31          MOV dbl(*(#_cfgDescPtr)), XAR1
         000e22 9F00 
         000e24 007C-
    3533              $C$DW$282       .dwtag  DW_TAG_TI_branch
    3534                      .dwattr $C$DW$282, DW_AT_low_pc(0x00)
    3535                      .dwattr $C$DW$282, DW_AT_name("_USB_postTransaction")
    3536                      .dwattr $C$DW$282, DW_AT_TI_call
    3537 000e26 6C00          CALL #_USB_postTransaction ; |550| 
         000e28 0000!
    3538                                                      ; call occurs [#_USB_postTransaction] ; |550| 
    3539 000e2a C406          MOV T0, *SP(#3) ; |550| 
    3540                      .dwpsn  file "../c5535_bsl_revc/ezdsp5535_v1/c55xx_csl/ccs_v4.0_examples/usb/CSL_USB_PollExample/csl_
    3541 000e2c 0600          B $C$L86  ; |555| 
         000e2e F6   
    3542                                                      ; branch occurs ; |555| 
    3543 000e2f       $C$DW$L$_CSL_usbPollTest$58$E:
    3544 000e2f       $C$L81:    
    3545 000e2f       $C$DW$L$_CSL_usbPollTest$59$B:
    3546                      .dwpsn  file "../c5535_bsl_revc/ezdsp5535_v1/c55xx_csl/ccs_v4.0_examples/usb/CSL_USB_PollExample/csl_
    3547 000e2f DF31          MOV uns(low_byte(*(#(_usbSetup+3)))), AR1 ; |558| 
         000e31 9300 
         000e33 0077-
    3548 000e35 0419          BCC $C$L82,AR1 != #0 ; |558| 
         000e37 28   
    3549                                                      ; branchcc occurs ; |558| 
    3550 000e38       $C$DW$L$_CSL_usbPollTest$59$E:
    3551 000e38       $C$DW$L$_CSL_usbPollTest$60$B:
    3552                      .dwpsn  file "../c5535_bsl_revc/ezdsp5535_v1/c55xx_csl/ccs_v4.0_examples/usb/CSL_USB_PollExample/csl_
    3553 000e38 EC31          AMOV #_strDesc, XAR3 ; |560| 
         000e3a BE00 
         000e3c 01B5-
    3554 000e3e EB31          MOV XAR3, dbl(*(#_strDescPtr))
         000e40 B500 
         000e42 007E-
    3555                      .dwpsn  file "../c5535_bsl_revc/ezdsp5535_v1/c55xx_csl/ccs_v4.0_examples/usb/CSL_USB_PollExample/csl_
    3556 000e44 ED31          MOV dbl(*(#(_hEpObjArray+2))), XAR0
         000e46 8F00 
         000e48 000A-
TMS320C55x Assembler PC v4.4.1 Sat Sep 29 23:08:33 2018

Tools Copyright (c) 1996-2012 Texas Instruments Incorporated
csl_usb_poll_example.asm                                             PAGE   85

    3557 000e4a DF31          MOV uns(low_byte(*(#_strDesc))), T0 ; |561| 
         000e4c 4300 
         000e4e 01B5-
    3558 000e50 7600          MOV #128, T1 ; |561| 
         000e52 8058 
    3559 000e54 ED31          MOV dbl(*(#_strDescPtr)), XAR1
         000e56 9F00 
         000e58 007E-
    3560              $C$DW$283       .dwtag  DW_TAG_TI_branch
    3561                      .dwattr $C$DW$283, DW_AT_low_pc(0x00)
    3562                      .dwattr $C$DW$283, DW_AT_name("_USB_postTransaction")
    3563                      .dwattr $C$DW$283, DW_AT_TI_call
    3564 000e5a 6C00          CALL #_USB_postTransaction ; |561| 
         000e5c 0000!
    3565                                                      ; call occurs [#_USB_postTransaction] ; |561| 
    3566 000e5e C406          MOV T0, *SP(#3) ; |561| 
    3567 000e60       $C$DW$L$_CSL_usbPollTest$60$E:
    3568 000e60       $C$L82:    
    3569 000e60       $C$DW$L$_CSL_usbPollTest$61$B:
    3570                      .dwpsn  file "../c5535_bsl_revc/ezdsp5535_v1/c55xx_csl/ccs_v4.0_examples/usb/CSL_USB_PollExample/csl_
    3571 000e60 3C1A          MOV #1, AR2
    3572 000e62 DF31          MOV uns(low_byte(*(#(_usbSetup+3)))), AR1 ; |565| 
         000e64 9300 
         000e66 0077-
    3573 000e68 129C          CMPU AR1 != AR2, TC1 ; |565| 
         000e6a A4   
    3574 000e6b 0464          BCC $C$L83,TC1 ; |565| 
         000e6d 28   
    3575                                                      ; branchcc occurs ; |565| 
    3576 000e6e       $C$DW$L$_CSL_usbPollTest$61$E:
    3577 000e6e       $C$DW$L$_CSL_usbPollTest$62$B:
    3578                      .dwpsn  file "../c5535_bsl_revc/ezdsp5535_v1/c55xx_csl/ccs_v4.0_examples/usb/CSL_USB_PollExample/csl_
    3579 000e6e EC31          AMOV #(_strDesc+20), XAR3 ; |567| 
         000e70 BE00 
         000e72 01C9-
    3580 000e74 EB31          MOV XAR3, dbl(*(#_strDescPtr))
         000e76 B500 
         000e78 007E-
    3581                      .dwpsn  file "../c5535_bsl_revc/ezdsp5535_v1/c55xx_csl/ccs_v4.0_examples/usb/CSL_USB_PollExample/csl_
    3582 000e7a ED31          MOV dbl(*(#(_hEpObjArray+2))), XAR0
         000e7c 8F00 
         000e7e 000A-
    3583 000e80 DF31          MOV uns(low_byte(*(#(_strDesc+20)))), T0 ; |568| 
         000e82 4300 
         000e84 01C9-
    3584 000e86 7600          MOV #128, T1 ; |568| 
         000e88 8058 
    3585 000e8a ED31          MOV dbl(*(#_strDescPtr)), XAR1
         000e8c 9F00 
         000e8e 007E-
    3586              $C$DW$284       .dwtag  DW_TAG_TI_branch
    3587                      .dwattr $C$DW$284, DW_AT_low_pc(0x00)
    3588                      .dwattr $C$DW$284, DW_AT_name("_USB_postTransaction")
    3589                      .dwattr $C$DW$284, DW_AT_TI_call
    3590 000e90 6C00          CALL #_USB_postTransaction ; |568| 
TMS320C55x Assembler PC v4.4.1 Sat Sep 29 23:08:33 2018

Tools Copyright (c) 1996-2012 Texas Instruments Incorporated
csl_usb_poll_example.asm                                             PAGE   86

         000e92 0000!
    3591                                                      ; call occurs [#_USB_postTransaction] ; |568| 
    3592 000e94 C406          MOV T0, *SP(#3) ; |568| 
    3593 000e96       $C$DW$L$_CSL_usbPollTest$62$E:
    3594 000e96       $C$L83:    
    3595 000e96       $C$DW$L$_CSL_usbPollTest$63$B:
    3596                      .dwpsn  file "../c5535_bsl_revc/ezdsp5535_v1/c55xx_csl/ccs_v4.0_examples/usb/CSL_USB_PollExample/csl_
    3597 000e96 3C2A          MOV #2, AR2
    3598 000e98 DF31          MOV uns(low_byte(*(#(_usbSetup+3)))), AR1 ; |572| 
         000e9a 9300 
         000e9c 0077-
    3599 000e9e 129C          CMPU AR1 != AR2, TC1 ; |572| 
         000ea0 A4   
    3600 000ea1 0464          BCC $C$L84,TC1 ; |572| 
         000ea3 28   
    3601                                                      ; branchcc occurs ; |572| 
    3602 000ea4       $C$DW$L$_CSL_usbPollTest$63$E:
    3603 000ea4       $C$DW$L$_CSL_usbPollTest$64$B:
    3604                      .dwpsn  file "../c5535_bsl_revc/ezdsp5535_v1/c55xx_csl/ccs_v4.0_examples/usb/CSL_USB_PollExample/csl_
    3605 000ea4 EC31          AMOV #(_strDesc+40), XAR3 ; |574| 
         000ea6 BE00 
         000ea8 01DD-
    3606 000eaa EB31          MOV XAR3, dbl(*(#_strDescPtr))
         000eac B500 
         000eae 007E-
    3607                      .dwpsn  file "../c5535_bsl_revc/ezdsp5535_v1/c55xx_csl/ccs_v4.0_examples/usb/CSL_USB_PollExample/csl_
    3608 000eb0 ED31          MOV dbl(*(#(_hEpObjArray+2))), XAR0
         000eb2 8F00 
         000eb4 000A-
    3609 000eb6 DF31          MOV uns(low_byte(*(#(_strDesc+40)))), T0 ; |575| 
         000eb8 4300 
         000eba 01DD-
    3610 000ebc 7600          MOV #128, T1 ; |575| 
         000ebe 8058 
    3611 000ec0 ED31          MOV dbl(*(#_strDescPtr)), XAR1
         000ec2 9F00 
         000ec4 007E-
    3612              $C$DW$285       .dwtag  DW_TAG_TI_branch
    3613                      .dwattr $C$DW$285, DW_AT_low_pc(0x00)
    3614                      .dwattr $C$DW$285, DW_AT_name("_USB_postTransaction")
    3615                      .dwattr $C$DW$285, DW_AT_TI_call
    3616 000ec6 6C00          CALL #_USB_postTransaction ; |575| 
         000ec8 0000!
    3617                                                      ; call occurs [#_USB_postTransaction] ; |575| 
    3618 000eca C406          MOV T0, *SP(#3) ; |575| 
    3619 000ecc       $C$DW$L$_CSL_usbPollTest$64$E:
    3620 000ecc       $C$L84:    
    3621 000ecc       $C$DW$L$_CSL_usbPollTest$65$B:
    3622                      .dwpsn  file "../c5535_bsl_revc/ezdsp5535_v1/c55xx_csl/ccs_v4.0_examples/usb/CSL_USB_PollExample/csl_
    3623 000ecc 3C3A          MOV #3, AR2
    3624 000ece DF31          MOV uns(low_byte(*(#(_usbSetup+3)))), AR1 ; |579| 
         000ed0 9300 
         000ed2 0077-
    3625 000ed4 129C          CMPU AR1 != AR2, TC1 ; |579| 
         000ed6 A4   
TMS320C55x Assembler PC v4.4.1 Sat Sep 29 23:08:33 2018

Tools Copyright (c) 1996-2012 Texas Instruments Incorporated
csl_usb_poll_example.asm                                             PAGE   87

    3626 000ed7 0464          BCC $C$L86,TC1 ; |579| 
         000ed9 4B   
    3627                                                      ; branchcc occurs ; |579| 
    3628 000eda       $C$DW$L$_CSL_usbPollTest$65$E:
    3629 000eda       $C$DW$L$_CSL_usbPollTest$66$B:
    3630                      .dwpsn  file "../c5535_bsl_revc/ezdsp5535_v1/c55xx_csl/ccs_v4.0_examples/usb/CSL_USB_PollExample/csl_
    3631 000eda EC31          AMOV #(_strDesc+60), XAR3 ; |581| 
         000edc BE00 
         000ede 01F1-
    3632 000ee0 EB31          MOV XAR3, dbl(*(#_strDescPtr))
         000ee2 B500 
         000ee4 007E-
    3633                      .dwpsn  file "../c5535_bsl_revc/ezdsp5535_v1/c55xx_csl/ccs_v4.0_examples/usb/CSL_USB_PollExample/csl_
    3634 000ee6 ED31          MOV dbl(*(#(_hEpObjArray+2))), XAR0
         000ee8 8F00 
         000eea 000A-
    3635 000eec DF31          MOV uns(low_byte(*(#(_strDesc+60)))), T0 ; |582| 
         000eee 4300 
         000ef0 01F1-
    3636 000ef2 7600          MOV #128, T1 ; |582| 
         000ef4 8058 
    3637 000ef6 ED31          MOV dbl(*(#_strDescPtr)), XAR1
         000ef8 9F00 
         000efa 007E-
    3638              $C$DW$286       .dwtag  DW_TAG_TI_branch
    3639                      .dwattr $C$DW$286, DW_AT_low_pc(0x00)
    3640                      .dwattr $C$DW$286, DW_AT_name("_USB_postTransaction")
    3641                      .dwattr $C$DW$286, DW_AT_TI_call
    3642 000efc 6C00          CALL #_USB_postTransaction ; |582| 
         000efe 0000!
    3643                                                      ; call occurs [#_USB_postTransaction] ; |582| 
    3644 000f00 C406          MOV T0, *SP(#3) ; |582| 
    3645                      .dwpsn  file "../c5535_bsl_revc/ezdsp5535_v1/c55xx_csl/ccs_v4.0_examples/usb/CSL_USB_PollExample/csl_
    3646 000f02 4A21          B $C$L86  ; |586| 
    3647                                                      ; branch occurs ; |586| 
    3648 000f04       $C$DW$L$_CSL_usbPollTest$66$E:
    3649 000f04       $C$L85:    
    3650 000f04       $C$DW$L$_CSL_usbPollTest$68$B:
    3651                      .dwpsn  file "../c5535_bsl_revc/ezdsp5535_v1/c55xx_csl/ccs_v4.0_examples/usb/CSL_USB_PollExample/csl_
    3652 000f04 3C1A          MOV #1, AR2
    3653 000f06 DF31          MOV uns(high_byte(*(#(_usbSetup+3)))), AR1 ; |530| 
         000f08 9100 
         000f0a 0077-
    3654 000f0c 1290          CMPU AR1 == AR2, TC1 ; |530| 
         000f0e A4   
    3655 000f0f 6D64          BCC $C$L78,TC1 ; |530| 
         000f11 FE96 
    3656                                                      ; branchcc occurs ; |530| 
    3657 000f13       $C$DW$L$_CSL_usbPollTest$68$E:
    3658 000f13       $C$DW$L$_CSL_usbPollTest$69$B:
    3659 000f13 3C2A          MOV #2, AR2
    3660 000f15 1290          CMPU AR1 == AR2, TC1 ; |530| 
         000f17 A4   
    3661 000f18 6D64          BCC $C$L79,TC1 ; |530| 
         000f1a FEB8 
TMS320C55x Assembler PC v4.4.1 Sat Sep 29 23:08:33 2018

Tools Copyright (c) 1996-2012 Texas Instruments Incorporated
csl_usb_poll_example.asm                                             PAGE   88

    3662                                                      ; branchcc occurs ; |530| 
    3663 000f1c       $C$DW$L$_CSL_usbPollTest$69$E:
    3664 000f1c       $C$DW$L$_CSL_usbPollTest$70$B:
    3665 000f1c 3C3A          MOV #3, AR2
    3666 000f1e 1290          CMPU AR1 == AR2, TC1 ; |530| 
         000f20 A4   
    3667 000f21 6D64          BCC $C$L81,TC1 ; |530| 
         000f23 FF0A 
    3668                                                      ; branchcc occurs ; |530| 
    3669 000f25       $C$DW$L$_CSL_usbPollTest$70$E:
    3670 000f25       $C$L86:    
    3671 000f25       $C$DW$L$_CSL_usbPollTest$71$B:
    3672                      .dwpsn  file "../c5535_bsl_revc/ezdsp5535_v1/c55xx_csl/ccs_v4.0_examples/usb/CSL_USB_PollExample/csl_
    3673 000f25 EC31          AMOV #_deviceDesc, XAR3 ; |592| 
         000f27 BE00 
         000f29 0184-
    3674 000f2b EB31          MOV XAR3, dbl(*(#_deviceDescPtr))
         000f2d B500 
         000f2f 007A-
    3675                      .dwpsn  file "../c5535_bsl_revc/ezdsp5535_v1/c55xx_csl/ccs_v4.0_examples/usb/CSL_USB_PollExample/csl_
    3676 000f31 EC31          AMOV #_cfgDesc, XAR3 ; |593| 
         000f33 BE00 
         000f35 018D-
    3677 000f37 EB31          MOV XAR3, dbl(*(#_cfgDescPtr))
         000f39 B500 
         000f3b 007C-
    3678                      .dwpsn  file "../c5535_bsl_revc/ezdsp5535_v1/c55xx_csl/ccs_v4.0_examples/usb/CSL_USB_PollExample/csl_
    3679 000f3d EC31          AMOV #_strDesc, XAR3 ; |594| 
         000f3f BE00 
         000f41 01B5-
    3680 000f43 EB31          MOV XAR3, dbl(*(#_strDescPtr))
         000f45 B500 
         000f47 007E-
    3681                      .dwpsn  file "../c5535_bsl_revc/ezdsp5535_v1/c55xx_csl/ccs_v4.0_examples/usb/CSL_USB_PollExample/csl_
    3682 000f49 7604          MOV #1042, T0 ; |596| 
         000f4b 1248 
    3683 000f4d AB31          MOV *(#_usbRegisters), AR3 ; |596| 
         000f4f 0000 
         000f51 00!  
    3684 000f52 A96B          MOV port(*AR3(T0)), AR1 ; |596| 
         000f54 99   
    3685 000f55 EC02          BCLR @#1, AR1 ; |596| 
         000f57 92   
    3686 000f58 EC02          BSET @#1, AR1 ; |596| 
         000f5a 90   
    3687 000f5b C96B          MOV AR1, port(*AR3(T0)) ; |596| 
         000f5d 9A   
    3688                      .dwpsn  file "../c5535_bsl_revc/ezdsp5535_v1/c55xx_csl/ccs_v4.0_examples/usb/CSL_USB_PollExample/csl_
    3689 000f5e AB31          MOV *(#_usbRegisters), AR3 ; |598| 
         000f60 0000 
         000f62 00!  
    3690 000f63 A96B          MOV port(*AR3(T0)), AR1 ; |598| 
         000f65 99   
    3691 000f66 EC06          BCLR @#3, AR1 ; |598| 
         000f68 92   
TMS320C55x Assembler PC v4.4.1 Sat Sep 29 23:08:33 2018

Tools Copyright (c) 1996-2012 Texas Instruments Incorporated
csl_usb_poll_example.asm                                             PAGE   89

    3692 000f69 EC06          BSET @#3, AR1 ; |598| 
         000f6b 90   
    3693 000f6c C96B          MOV AR1, port(*AR3(T0)) ; |598| 
         000f6e 9A   
    3694                      .dwpsn  file "../c5535_bsl_revc/ezdsp5535_v1/c55xx_csl/ccs_v4.0_examples/usb/CSL_USB_PollExample/csl_
    3695 000f6f 0600          B $C$L91  ; |600| 
         000f71 87   
    3696                                                      ; branch occurs ; |600| 
    3697 000f72       $C$DW$L$_CSL_usbPollTest$71$E:
    3698 000f72       $C$L87:    
    3699 000f72       $C$DW$L$_CSL_usbPollTest$72$B:
    3700                      .dwpsn  file "../c5535_bsl_revc/ezdsp5535_v1/c55xx_csl/ccs_v4.0_examples/usb/CSL_USB_PollExample/csl_
    3701 000f72 A931          MOV *(#(_usbSetup+3)), AR1 ; |603| 
         000f74 0000 
         000f76 77-  
    3702 000f77 C931          MOV AR1, *(#_devAddr) ; |603| 
         000f79 0000 
         000f7b 07-  
    3703                      .dwpsn  file "../c5535_bsl_revc/ezdsp5535_v1/c55xx_csl/ccs_v4.0_examples/usb/CSL_USB_PollExample/csl_
    3704 000f7c AB31          MOV *(#_usbRegisters), AR3 ; |604| 
         000f7e 0000 
         000f80 00!  
    3705 000f81 A96B          MOV port(*AR3(T0)), AR1 ; |604| 
         000f83 99   
    3706 000f84 EC0C          BCLR @#6, AR1 ; |604| 
         000f86 92   
    3707 000f87 EC0C          BSET @#6, AR1 ; |604| 
         000f89 90   
    3708 000f8a C96B          MOV AR1, port(*AR3(T0)) ; |604| 
         000f8c 9A   
    3709                      .dwpsn  file "../c5535_bsl_revc/ezdsp5535_v1/c55xx_csl/ccs_v4.0_examples/usb/CSL_USB_PollExample/csl_
    3710 000f8d AB31          MOV *(#_usbRegisters), AR3 ; |606| 
         000f8f 0000 
         000f91 00!  
    3711 000f92 A96B          MOV port(*AR3(T0)), AR1 ; |606| 
         000f94 99   
    3712 000f95 EC06          BCLR @#3, AR1 ; |606| 
         000f97 92   
    3713 000f98 EC06          BSET @#3, AR1 ; |606| 
         000f9a 90   
    3714 000f9b C96B          MOV AR1, port(*AR3(T0)) ; |606| 
         000f9d 9A   
    3715                      .dwpsn  file "../c5535_bsl_revc/ezdsp5535_v1/c55xx_csl/ccs_v4.0_examples/usb/CSL_USB_PollExample/csl_
    3716 000f9e 0600          B $C$L91  ; |608| 
         000fa0 58   
    3717                                                      ; branch occurs ; |608| 
    3718 000fa1       $C$DW$L$_CSL_usbPollTest$72$E:
    3719 000fa1       $C$L88:    
    3720 000fa1       $C$DW$L$_CSL_usbPollTest$74$B:
    3721                      .dwpsn  file "../c5535_bsl_revc/ezdsp5535_v1/c55xx_csl/ccs_v4.0_examples/usb/CSL_USB_PollExample/csl_
    3722 000fa1 3C6A          MOV #6, AR2
    3723 000fa3 A931          MOV *(#(_usbSetup+2)), AR1 ; |453| 
         000fa5 0000 
         000fa7 76-  
    3724 000fa8 12A4          CMP AR1 > AR2, TC1 ; |453| 
TMS320C55x Assembler PC v4.4.1 Sat Sep 29 23:08:33 2018

Tools Copyright (c) 1996-2012 Texas Instruments Incorporated
csl_usb_poll_example.asm                                             PAGE   90

         000faa 90   
    3725 000fab 0464          BCC $C$L89,TC1 ; |453| 
         000fad 23   
    3726                                                      ; branchcc occurs ; |453| 
    3727 000fae       $C$DW$L$_CSL_usbPollTest$74$E:
    3728 000fae       $C$DW$L$_CSL_usbPollTest$75$B:
    3729 000fae 1290          CMP AR1 == AR2, TC1 ; |453| 
         000fb0 A0   
    3730 000fb1 6D64          BCC $C$L85,TC1 ; |453| 
         000fb3 FF4F 
    3731                                                      ; branchcc occurs ; |453| 
    3732 000fb5       $C$DW$L$_CSL_usbPollTest$75$E:
    3733 000fb5       $C$DW$L$_CSL_usbPollTest$76$B:
    3734 000fb5 3C1A          MOV #1, AR2
    3735 000fb7 1290          CMPU AR1 == AR2, TC1 ; |453| 
         000fb9 A4   
    3736 000fba 6D64          BCC $C$L76,TC1 ; |453| 
         000fbc FD90 
    3737                                                      ; branchcc occurs ; |453| 
    3738 000fbe       $C$DW$L$_CSL_usbPollTest$76$E:
    3739 000fbe       $C$DW$L$_CSL_usbPollTest$77$B:
    3740 000fbe 3C3A          MOV #3, AR2
    3741 000fc0 1290          CMPU AR1 == AR2, TC1 ; |453| 
         000fc2 A4   
    3742 000fc3 6D64          BCC $C$L72,TC1 ; |453| 
         000fc5 FD11 
    3743                                                      ; branchcc occurs ; |453| 
    3744 000fc7       $C$DW$L$_CSL_usbPollTest$77$E:
    3745 000fc7       $C$DW$L$_CSL_usbPollTest$78$B:
    3746 000fc7 3C5A          MOV #5, AR2
    3747 000fc9 1290          CMPU AR1 == AR2, TC1 ; |453| 
         000fcb A4   
    3748 000fcc 0464          BCC $C$L87,TC1 ; |453| 
         000fce A3   
    3749                                                      ; branchcc occurs ; |453| 
    3750 000fcf       $C$DW$L$_CSL_usbPollTest$78$E:
    3751 000fcf       $C$DW$L$_CSL_usbPollTest$79$B:
    3752 000fcf 4A28          B $C$L91  ; |453| 
    3753                                                      ; branch occurs ; |453| 
    3754 000fd1       $C$DW$L$_CSL_usbPollTest$79$E:
    3755 000fd1       $C$L89:    
    3756 000fd1       $C$DW$L$_CSL_usbPollTest$80$B:
    3757 000fd1 3C9A          MOV #9, AR2
    3758 000fd3 1290          CMPU AR1 == AR2, TC1 ; |453| 
         000fd5 A4   
    3759 000fd6 6D64          BCC $C$L77,TC1 ; |453| 
         000fd8 FD85 
    3760                                                      ; branchcc occurs ; |453| 
    3761 000fda       $C$DW$L$_CSL_usbPollTest$80$E:
    3762 000fda       $C$DW$L$_CSL_usbPollTest$81$B:
    3763 000fda 3CBA          MOV #11, AR2
    3764 000fdc 1290          CMPU AR1 == AR2, TC1 ; |453| 
         000fde A4   
    3765 000fdf 6D64          BCC $C$L77,TC1 ; |453| 
         000fe1 FD7C 
TMS320C55x Assembler PC v4.4.1 Sat Sep 29 23:08:33 2018

Tools Copyright (c) 1996-2012 Texas Instruments Incorporated
csl_usb_poll_example.asm                                             PAGE   91

    3766                                                      ; branchcc occurs ; |453| 
    3767 000fe3       $C$DW$L$_CSL_usbPollTest$81$E:
    3768 000fe3       $C$DW$L$_CSL_usbPollTest$82$B:
    3769 000fe3 4A14          B $C$L91  ; |453| 
    3770                                                      ; branch occurs ; |453| 
    3771 000fe5       $C$DW$L$_CSL_usbPollTest$82$E:
    3772 000fe5       $C$L90:    
    3773 000fe5       $C$DW$L$_CSL_usbPollTest$84$B:
    3774                      .dwpsn  file "../c5535_bsl_revc/ezdsp5535_v1/c55xx_csl/ccs_v4.0_examples/usb/CSL_USB_PollExample/csl_
    3775 000fe5 F031          CMP *(#(_usbSetup+2)) == #5, TC1 ; |616| 
         000fe7 0005 
         000fe9 0000 
         000feb 76-  
    3776 000fec 65F4          BCC $C$L91,!TC1 ; |616| 
    3777                                                      ; branchcc occurs ; |616| 
    3778 000fee       $C$DW$L$_CSL_usbPollTest$84$E:
    3779 000fee       $C$DW$L$_CSL_usbPollTest$85$B:
    3780                      .dwpsn  file "../c5535_bsl_revc/ezdsp5535_v1/c55xx_csl/ccs_v4.0_examples/usb/CSL_USB_PollExample/csl_
    3781 000fee A531          MOV *(#_devAddr), T1 ; |618| 
         000ff0 0000 
         000ff2 07-  
    3782              $C$DW$287       .dwtag  DW_TAG_TI_branch
    3783                      .dwattr $C$DW$287, DW_AT_low_pc(0x00)
    3784                      .dwattr $C$DW$287, DW_AT_name("_USB_setDevAddr")
    3785                      .dwattr $C$DW$287, DW_AT_TI_call
    3786              
    3787 000ff3 6C00          CALL #_USB_setDevAddr ; |618| 
         000ff5 0000!
    3788 000ff7 3D04  ||      MOV #0, T0
    3789              
    3790                                                      ; call occurs [#_USB_setDevAddr] ; |618| 
    3791 000ff9       $C$DW$L$_CSL_usbPollTest$85$E:
    3792 000ff9       $C$L91:    
    3793 000ff9       $C$DW$L$_CSL_usbPollTest$86$B:
    3794                      .dwpsn  file "../c5535_bsl_revc/ezdsp5535_v1/c55xx_csl/ccs_v4.0_examples/usb/CSL_USB_PollExample/csl_
    3795 000ff9 AB31          MOV *(#_usbRegisters), AR3 ; |622| 
         000ffb 0000 
         000ffd 00!  
    3796 000ffe 7604          MOV #1038, T0 ; |622| 
         001000 0E48 
    3797 001002 A91A          MOV *SP(#13), AR1 ; |622| 
    3798 001004 C96B          MOV AR1, port(*AR3(T0)) ; |622| 
         001006 9A   
    3799 001007       $C$DW$L$_CSL_usbPollTest$86$E:
    3800 001007       $C$L92:    
    3801 001007       $C$DW$L$_CSL_usbPollTest$87$B:
    3802                      .dwpsn  file "../c5535_bsl_revc/ezdsp5535_v1/c55xx_csl/ccs_v4.0_examples/usb/CSL_USB_PollExample/csl_
    3803 001007 ED0C          MOV dbl(*SP(#6)), XAR3
         001009 BF   
    3804 00100a DC6D          BTST #9, *AR3(#94), TC1 ; |626| 
         00100c 9000 
         00100e 5E   
    3805 00100f 0464          BCC $C$L93,TC1 ; |626| 
         001011 18   
    3806                                                      ; branchcc occurs ; |626| 
TMS320C55x Assembler PC v4.4.1 Sat Sep 29 23:08:33 2018

Tools Copyright (c) 1996-2012 Texas Instruments Incorporated
csl_usb_poll_example.asm                                             PAGE   92

    3807 001012       $C$DW$L$_CSL_usbPollTest$87$E:
    3808 001012       $C$DW$L$_CSL_usbPollTest$88$B:
    3809 001012 DC6D          BTST #10, *AR3(#94), TC1 ; |626| 
         001014 A000 
         001016 5E   
    3810 001017 0464          BCC $C$L93,TC1 ; |626| 
         001019 10   
    3811                                                      ; branchcc occurs ; |626| 
    3812 00101a       $C$DW$L$_CSL_usbPollTest$88$E:
    3813 00101a       $C$DW$L$_CSL_usbPollTest$89$B:
    3814 00101a DC6D          BTST #11, *AR3(#94), TC1 ; |626| 
         00101c B000 
         00101e 5E   
    3815 00101f 64E4          BCC $C$L93,TC1 ; |626| 
    3816                                                      ; branchcc occurs ; |626| 
    3817 001021       $C$DW$L$_CSL_usbPollTest$89$E:
    3818 001021       $C$DW$L$_CSL_usbPollTest$90$B:
    3819 001021 DC6D          BTST #12, *AR3(#94), TC1 ; |626| 
         001023 C000 
         001025 5E   
    3820 001026 6D74          BCC $C$L96,!TC1 ; |626| 
         001028 008D 
    3821                                                      ; branchcc occurs ; |626| 
    3822 00102a       $C$DW$L$_CSL_usbPollTest$90$E:
    3823 00102a       $C$L93:    
    3824 00102a       $C$DW$L$_CSL_usbPollTest$91$B:
    3825                      .dwpsn  file "../c5535_bsl_revc/ezdsp5535_v1/c55xx_csl/ccs_v4.0_examples/usb/CSL_USB_PollExample/csl_
    3826 00102a ED6D          MOV dbl(*AR3(#98)), XAR0
         00102c 8F00 
         00102e 62   
    3827 00102f 1424          AADD #36, AR0 ; |633| 
         001031 84   
    3828              $C$DW$288       .dwtag  DW_TAG_TI_branch
    3829                      .dwattr $C$DW$288, DW_AT_low_pc(0x00)
    3830                      .dwattr $C$DW$288, DW_AT_name("_USB_isValidDataInFifoOut")
    3831                      .dwattr $C$DW$288, DW_AT_TI_call
    3832 001032 08F3          CALL #_USB_isValidDataInFifoOut ; |633| 
         001034 2B   
    3833                                                      ; call occurs [#_USB_isValidDataInFifoOut] ; |633| 
    3834 001035 0404          BCC $C$L94,T0 == #0 ; |633| 
         001037 14   
    3835                                                      ; branchcc occurs ; |633| 
    3836 001038       $C$DW$L$_CSL_usbPollTest$91$E:
    3837 001038       $C$DW$L$_CSL_usbPollTest$92$B:
    3838                      .dwpsn  file "../c5535_bsl_revc/ezdsp5535_v1/c55xx_csl/ccs_v4.0_examples/usb/CSL_USB_PollExample/csl_
    3839 001038 3C04          MOV #0, T0
    3840              $C$DW$289       .dwtag  DW_TAG_TI_branch
    3841                      .dwattr $C$DW$289, DW_AT_low_pc(0x00)
    3842                      .dwattr $C$DW$289, DW_AT_name("_USB_epNumToHandle")
    3843                      .dwattr $C$DW$289, DW_AT_TI_call
    3844              
    3845 00103a 6C00          CALL #_USB_epNumToHandle ; |636| 
         00103c 0000!
    3846 00103e 3D25  ||      MOV #2, T1
    3847              
TMS320C55x Assembler PC v4.4.1 Sat Sep 29 23:08:33 2018

Tools Copyright (c) 1996-2012 Texas Instruments Incorporated
csl_usb_poll_example.asm                                             PAGE   93

    3848                                                      ; call occurs [#_USB_epNumToHandle] ; |636| 
    3849 001040 EB20          MOV XAR0, dbl(*SP(#16))
         001042 85   
    3850                      .dwpsn  file "../c5535_bsl_revc/ezdsp5535_v1/c55xx_csl/ccs_v4.0_examples/usb/CSL_USB_PollExample/csl_
    3851              $C$DW$290       .dwtag  DW_TAG_TI_branch
    3852                      .dwattr $C$DW$290, DW_AT_low_pc(0x00)
    3853                      .dwattr $C$DW$290, DW_AT_name("_USB_getDataCountReadFromFifo")
    3854                      .dwattr $C$DW$290, DW_AT_TI_call
    3855 001043 6C00          CALL #_USB_getDataCountReadFromFifo ; |637| 
         001045 0000!
    3856                                                      ; call occurs [#_USB_getDataCountReadFromFifo] ; |637| 
    3857 001047 C431          MOV T0, *(#_usb_income_num_bytes) ; |637| 
         001049 0002 
         00104b 07-  
    3858 00104c       $C$DW$L$_CSL_usbPollTest$92$E:
    3859 00104c       $C$L94:    
    3860 00104c       $C$DW$L$_CSL_usbPollTest$93$B:
    3861                      .dwpsn  file "../c5535_bsl_revc/ezdsp5535_v1/c55xx_csl/ccs_v4.0_examples/usb/CSL_USB_PollExample/csl_
    3862 00104c ED31          MOV dbl(*(#(_hEpObjArray+6))), XAR0
         00104e 8F00 
         001050 000E-
    3863 001052 A431          MOV *(#_usb_income_num_bytes), T0 ; |640| 
         001054 0002 
         001056 07-  
    3864 001057 EC31          AMOV #_usbDataBuffer, XAR1 ; |640| 
         001059 9E00 
         00105b 0084-
    3865              $C$DW$291       .dwtag  DW_TAG_TI_branch
    3866                      .dwattr $C$DW$291, DW_AT_low_pc(0x00)
    3867                      .dwattr $C$DW$291, DW_AT_name("_USB_postTransaction")
    3868                      .dwattr $C$DW$291, DW_AT_TI_call
    3869              
    3870 00105d 6C00          CALL #_USB_postTransaction ; |640| 
         00105f 0000!
    3871 001061 3D05  ||      MOV #0, T1
    3872              
    3873                                                      ; call occurs [#_USB_postTransaction] ; |640| 
    3874 001063 C406          MOV T0, *SP(#3) ; |640| 
    3875                      .dwpsn  file "../c5535_bsl_revc/ezdsp5535_v1/c55xx_csl/ccs_v4.0_examples/usb/CSL_USB_PollExample/csl_
    3876 001065 2249          MOV T0, AR1
    3877 001067 0409          BCC $C$L95,AR1 == #0 ; |642| 
         001069 12   
    3878                                                      ; branchcc occurs ; |642| 
    3879 00106a       $C$DW$L$_CSL_usbPollTest$93$E:
    3880                      .dwpsn  file "../c5535_bsl_revc/ezdsp5535_v1/c55xx_csl/ccs_v4.0_examples/usb/CSL_USB_PollExample/csl_
    3881 00106a EC31          AMOV #$C$FSL11, XAR3 ; |644| 
         00106c BE00 
         00106e 00DA+
    3882 001070 EB00          MOV XAR3, dbl(*SP(#0))
         001072 B5   
    3883              $C$DW$292       .dwtag  DW_TAG_TI_branch
    3884                      .dwattr $C$DW$292, DW_AT_low_pc(0x00)
    3885                      .dwattr $C$DW$292, DW_AT_name("_printf")
    3886                      .dwattr $C$DW$292, DW_AT_TI_call
    3887 001073 6C00          CALL #_printf ; |644| 
TMS320C55x Assembler PC v4.4.1 Sat Sep 29 23:08:33 2018

Tools Copyright (c) 1996-2012 Texas Instruments Incorporated
csl_usb_poll_example.asm                                             PAGE   94

         001075 0000!
    3888                                                      ; call occurs [#_printf] ; |644| 
    3889                      .dwpsn  file "../c5535_bsl_revc/ezdsp5535_v1/c55xx_csl/ccs_v4.0_examples/usb/CSL_USB_PollExample/csl_
    3890 001077 A408          MOV *SP(#4), T0 ; |645| 
    3891 001079 0601          B $C$L106 ; |645| 
         00107b C3   
    3892                                                      ; branch occurs ; |645| 
    3893 00107c       $C$L95:    
    3894 00107c       $C$DW$L$_CSL_usbPollTest$95$B:
    3895                      .dwpsn  file "../c5535_bsl_revc/ezdsp5535_v1/c55xx_csl/ccs_v4.0_examples/usb/CSL_USB_PollExample/csl_
    3896 00107c EC06          AMAR *SP(#3), XAR1
         00107e 9E   
    3897 00107f ED31          MOV dbl(*(#(_hEpObjArray+6))), XAR0
         001081 8F00 
         001083 000E-
    3898              $C$DW$293       .dwtag  DW_TAG_TI_branch
    3899                      .dwattr $C$DW$293, DW_AT_low_pc(0x00)
    3900                      .dwattr $C$DW$293, DW_AT_name("_USB_isTransactionDone")
    3901                      .dwattr $C$DW$293, DW_AT_TI_call
    3902 001085 6C00          CALL #_USB_isTransactionDone ; |649| 
         001087 0000!
    3903                                                      ; call occurs [#_USB_isTransactionDone] ; |649| 
    3904 001089 C414          MOV T0, *SP(#10) ; |649| 
    3905                      .dwpsn  file "../c5535_bsl_revc/ezdsp5535_v1/c55xx_csl/ccs_v4.0_examples/usb/CSL_USB_PollExample/csl_
    3906 00108b F014          CMP *SP(#10) == #1, TC1 ; |650| 
         00108d 0001 
    3907 00108f 0464          BCC $C$L96,TC1 ; |650| 
         001091 25   
    3908                                                      ; branchcc occurs ; |650| 
    3909 001092       $C$DW$L$_CSL_usbPollTest$95$E:
    3910 001092       $C$DW$L$_CSL_usbPollTest$96$B:
    3911                      .dwpsn  file "../c5535_bsl_revc/ezdsp5535_v1/c55xx_csl/ccs_v4.0_examples/usb/CSL_USB_PollExample/csl_
    3912 001092 EC06          AMAR *SP(#3), XAR1
         001094 9E   
    3913 001095 ED31          MOV dbl(*(#(_hEpObjArray+6))), XAR0
         001097 8F00 
         001099 000E-
    3914              $C$DW$294       .dwtag  DW_TAG_TI_branch
    3915                      .dwattr $C$DW$294, DW_AT_low_pc(0x00)
    3916                      .dwattr $C$DW$294, DW_AT_name("_USB_bytesRemaining")
    3917                      .dwattr $C$DW$294, DW_AT_TI_call
    3918 00109b 6C00          CALL #_USB_bytesRemaining ; |652| 
         00109d 0000!
    3919                                                      ; call occurs [#_USB_bytesRemaining] ; |652| 
    3920 00109f C416          MOV T0, *SP(#11) ; |652| 
    3921                      .dwpsn  file "../c5535_bsl_revc/ezdsp5535_v1/c55xx_csl/ccs_v4.0_examples/usb/CSL_USB_PollExample/csl_
    3922 0010a1 2249          MOV T0, AR1
    3923 0010a3 0409          BCC $C$L96,AR1 == #0 ; |653| 
         0010a5 11   
    3924                                                      ; branchcc occurs ; |653| 
    3925 0010a6       $C$DW$L$_CSL_usbPollTest$96$E:
    3926 0010a6       $C$DW$L$_CSL_usbPollTest$97$B:
    3927                      .dwpsn  file "../c5535_bsl_revc/ezdsp5535_v1/c55xx_csl/ccs_v4.0_examples/usb/CSL_USB_PollExample/csl_
    3928 0010a6 EC31          AMOV #$C$FSL12, XAR3 ; |655| 
         0010a8 BE00 
TMS320C55x Assembler PC v4.4.1 Sat Sep 29 23:08:33 2018

Tools Copyright (c) 1996-2012 Texas Instruments Incorporated
csl_usb_poll_example.asm                                             PAGE   95

         0010aa 00F2+
    3929 0010ac EB00          MOV XAR3, dbl(*SP(#0))
         0010ae B5   
    3930 0010af A916          MOV *SP(#11), AR1 ; |655| 
    3931 0010b1 C904          MOV AR1, *SP(#2) ; |655| 
    3932              $C$DW$295       .dwtag  DW_TAG_TI_branch
    3933                      .dwattr $C$DW$295, DW_AT_low_pc(0x00)
    3934                      .dwattr $C$DW$295, DW_AT_name("_printf")
    3935                      .dwattr $C$DW$295, DW_AT_TI_call
    3936 0010b3 6C00          CALL #_printf ; |655| 
         0010b5 0000!
    3937                                                      ; call occurs [#_printf] ; |655| 
    3938 0010b7       $C$DW$L$_CSL_usbPollTest$97$E:
    3939 0010b7       $C$L96:    
    3940 0010b7       $C$DW$L$_CSL_usbPollTest$98$B:
    3941                      .dwpsn  file "../c5535_bsl_revc/ezdsp5535_v1/c55xx_csl/ccs_v4.0_examples/usb/CSL_USB_PollExample/csl_
    3942 0010b7 ED0C          MOV dbl(*SP(#6)), XAR3
         0010b9 BF   
    3943 0010ba DC6D          BTST #1, *AR3(#94), TC1 ; |661| 
         0010bc 1000 
         0010be 5E   
    3944 0010bf 0464          BCC $C$L97,TC1 ; |661| 
         0010c1 16   
    3945                                                      ; branchcc occurs ; |661| 
    3946 0010c2       $C$DW$L$_CSL_usbPollTest$98$E:
    3947 0010c2       $C$DW$L$_CSL_usbPollTest$99$B:
    3948 0010c2 DC6D          BTST #2, *AR3(#94), TC1 ; |661| 
         0010c4 2000 
         0010c6 5E   
    3949 0010c7 67E4          BCC $C$L97,TC1 ; |661| 
    3950                                                      ; branchcc occurs ; |661| 
    3951 0010c9       $C$DW$L$_CSL_usbPollTest$99$E:
    3952 0010c9       $C$DW$L$_CSL_usbPollTest$100$B:
    3953 0010c9 DC6D          BTST #3, *AR3(#94), TC1 ; |661| 
         0010cb 3000 
         0010cd 5E   
    3954 0010ce 6464          BCC $C$L97,TC1 ; |661| 
    3955                                                      ; branchcc occurs ; |661| 
    3956 0010d0       $C$DW$L$_CSL_usbPollTest$100$E:
    3957 0010d0       $C$DW$L$_CSL_usbPollTest$101$B:
    3958 0010d0 DC6D          BTST #4, *AR3(#94), TC1 ; |661| 
         0010d2 4000 
         0010d4 5E   
    3959 0010d5 0474          BCC $C$L99,!TC1 ; |661| 
         0010d7 6D   
    3960                                                      ; branchcc occurs ; |661| 
    3961 0010d8       $C$DW$L$_CSL_usbPollTest$101$E:
    3962 0010d8       $C$L97:    
    3963 0010d8       $C$DW$L$_CSL_usbPollTest$102$B:
    3964                      .dwpsn  file "../c5535_bsl_revc/ezdsp5535_v1/c55xx_csl/ccs_v4.0_examples/usb/CSL_USB_PollExample/csl_
    3965 0010d8 ED31          MOV dbl(*(#(_hEpObjArray+4))), XAR0
         0010da 8F00 
         0010dc 000C-
    3966 0010de A431          MOV *(#_usb_income_num_bytes), T0 ; |666| 
         0010e0 0002 
TMS320C55x Assembler PC v4.4.1 Sat Sep 29 23:08:33 2018

Tools Copyright (c) 1996-2012 Texas Instruments Incorporated
csl_usb_poll_example.asm                                             PAGE   96

         0010e2 07-  
    3967 0010e3 EC31          AMOV #_usbDataBuffer, XAR1 ; |666| 
         0010e5 9E00 
         0010e7 0084-
    3968 0010e9 7600          MOV #128, T1 ; |666| 
         0010eb 8058 
    3969              $C$DW$296       .dwtag  DW_TAG_TI_branch
    3970                      .dwattr $C$DW$296, DW_AT_low_pc(0x00)
    3971                      .dwattr $C$DW$296, DW_AT_name("_USB_postTransaction")
    3972                      .dwattr $C$DW$296, DW_AT_TI_call
    3973 0010ed 6C00          CALL #_USB_postTransaction ; |666| 
         0010ef 0000!
    3974                                                      ; call occurs [#_USB_postTransaction] ; |666| 
    3975 0010f1 C406          MOV T0, *SP(#3) ; |666| 
    3976                      .dwpsn  file "../c5535_bsl_revc/ezdsp5535_v1/c55xx_csl/ccs_v4.0_examples/usb/CSL_USB_PollExample/csl_
    3977 0010f3 2249          MOV T0, AR1
    3978 0010f5 0409          BCC $C$L98,AR1 == #0 ; |668| 
         0010f7 12   
    3979                                                      ; branchcc occurs ; |668| 
    3980 0010f8       $C$DW$L$_CSL_usbPollTest$102$E:
    3981                      .dwpsn  file "../c5535_bsl_revc/ezdsp5535_v1/c55xx_csl/ccs_v4.0_examples/usb/CSL_USB_PollExample/csl_
    3982 0010f8 EC31          AMOV #$C$FSL11, XAR3 ; |670| 
         0010fa BE00 
         0010fc 00DA+
    3983 0010fe EB00          MOV XAR3, dbl(*SP(#0))
         001100 B5   
    3984              $C$DW$297       .dwtag  DW_TAG_TI_branch
    3985                      .dwattr $C$DW$297, DW_AT_low_pc(0x00)
    3986                      .dwattr $C$DW$297, DW_AT_name("_printf")
    3987                      .dwattr $C$DW$297, DW_AT_TI_call
    3988 001101 6C00          CALL #_printf ; |670| 
         001103 0000!
    3989                                                      ; call occurs [#_printf] ; |670| 
    3990                      .dwpsn  file "../c5535_bsl_revc/ezdsp5535_v1/c55xx_csl/ccs_v4.0_examples/usb/CSL_USB_PollExample/csl_
    3991 001105 A408          MOV *SP(#4), T0 ; |671| 
    3992 001107 0601          B $C$L106 ; |671| 
         001109 35   
    3993                                                      ; branch occurs ; |671| 
    3994 00110a       $C$L98:    
    3995 00110a       $C$DW$L$_CSL_usbPollTest$104$B:
    3996                      .dwpsn  file "../c5535_bsl_revc/ezdsp5535_v1/c55xx_csl/ccs_v4.0_examples/usb/CSL_USB_PollExample/csl_
    3997 00110a EC06          AMAR *SP(#3), XAR1
         00110c 9E   
    3998 00110d ED31          MOV dbl(*(#(_hEpObjArray+4))), XAR0
         00110f 8F00 
         001111 000C-
    3999              $C$DW$298       .dwtag  DW_TAG_TI_branch
    4000                      .dwattr $C$DW$298, DW_AT_low_pc(0x00)
    4001                      .dwattr $C$DW$298, DW_AT_name("_USB_isTransactionDone")
    4002                      .dwattr $C$DW$298, DW_AT_TI_call
    4003 001113 6C00          CALL #_USB_isTransactionDone ; |675| 
         001115 0000!
    4004                                                      ; call occurs [#_USB_isTransactionDone] ; |675| 
    4005 001117 C414          MOV T0, *SP(#10) ; |675| 
    4006                      .dwpsn  file "../c5535_bsl_revc/ezdsp5535_v1/c55xx_csl/ccs_v4.0_examples/usb/CSL_USB_PollExample/csl_
TMS320C55x Assembler PC v4.4.1 Sat Sep 29 23:08:33 2018

Tools Copyright (c) 1996-2012 Texas Instruments Incorporated
csl_usb_poll_example.asm                                             PAGE   97

    4007 001119 F014          CMP *SP(#10) == #1, TC1 ; |676| 
         00111b 0001 
    4008 00111d 0464          BCC $C$L99,TC1 ; |676| 
         00111f 25   
    4009                                                      ; branchcc occurs ; |676| 
    4010 001120       $C$DW$L$_CSL_usbPollTest$104$E:
    4011 001120       $C$DW$L$_CSL_usbPollTest$105$B:
    4012                      .dwpsn  file "../c5535_bsl_revc/ezdsp5535_v1/c55xx_csl/ccs_v4.0_examples/usb/CSL_USB_PollExample/csl_
    4013 001120 EC06          AMAR *SP(#3), XAR1
         001122 9E   
    4014 001123 ED31          MOV dbl(*(#(_hEpObjArray+4))), XAR0
         001125 8F00 
         001127 000C-
    4015              $C$DW$299       .dwtag  DW_TAG_TI_branch
    4016                      .dwattr $C$DW$299, DW_AT_low_pc(0x00)
    4017                      .dwattr $C$DW$299, DW_AT_name("_USB_bytesRemaining")
    4018                      .dwattr $C$DW$299, DW_AT_TI_call
    4019 001129 6C00          CALL #_USB_bytesRemaining ; |678| 
         00112b 0000!
    4020                                                      ; call occurs [#_USB_bytesRemaining] ; |678| 
    4021 00112d C416          MOV T0, *SP(#11) ; |678| 
    4022                      .dwpsn  file "../c5535_bsl_revc/ezdsp5535_v1/c55xx_csl/ccs_v4.0_examples/usb/CSL_USB_PollExample/csl_
    4023 00112f 2249          MOV T0, AR1
    4024 001131 0409          BCC $C$L99,AR1 == #0 ; |679| 
         001133 11   
    4025                                                      ; branchcc occurs ; |679| 
    4026 001134       $C$DW$L$_CSL_usbPollTest$105$E:
    4027 001134       $C$DW$L$_CSL_usbPollTest$106$B:
    4028                      .dwpsn  file "../c5535_bsl_revc/ezdsp5535_v1/c55xx_csl/ccs_v4.0_examples/usb/CSL_USB_PollExample/csl_
    4029 001134 EC31          AMOV #$C$FSL12, XAR3 ; |681| 
         001136 BE00 
         001138 00F2+
    4030 00113a EB00          MOV XAR3, dbl(*SP(#0))
         00113c B5   
    4031 00113d A916          MOV *SP(#11), AR1 ; |681| 
    4032 00113f C904          MOV AR1, *SP(#2) ; |681| 
    4033              $C$DW$300       .dwtag  DW_TAG_TI_branch
    4034                      .dwattr $C$DW$300, DW_AT_low_pc(0x00)
    4035                      .dwattr $C$DW$300, DW_AT_name("_printf")
    4036                      .dwattr $C$DW$300, DW_AT_TI_call
    4037 001141 6C00          CALL #_printf ; |681| 
         001143 0000!
    4038                                                      ; call occurs [#_printf] ; |681| 
    4039 001145       $C$DW$L$_CSL_usbPollTest$106$E:
    4040 001145       $C$L99:    
    4041 001145       $C$DW$L$_CSL_usbPollTest$107$B:
    4042                      .dwpsn  file "../c5535_bsl_revc/ezdsp5535_v1/c55xx_csl/ccs_v4.0_examples/usb/CSL_USB_PollExample/csl_
    4043 001145 ED0C          MOV dbl(*SP(#6)), XAR3
         001147 BF   
    4044 001148 DC6D          BTST #4, *AR3(#95), TC1 ; |687| 
         00114a 4000 
         00114c 5F   
    4045 00114d 0474          BCC $C$L100,!TC1 ; |687| 
         00114f 1F   
    4046                                                      ; branchcc occurs ; |687| 
TMS320C55x Assembler PC v4.4.1 Sat Sep 29 23:08:33 2018

Tools Copyright (c) 1996-2012 Texas Instruments Incorporated
csl_usb_poll_example.asm                                             PAGE   98

    4047 001150       $C$DW$L$_CSL_usbPollTest$107$E:
    4048 001150       $C$DW$L$_CSL_usbPollTest$108$B:
    4049                      .dwpsn  file "../c5535_bsl_revc/ezdsp5535_v1/c55xx_csl/ccs_v4.0_examples/usb/CSL_USB_PollExample/csl_
    4050              $C$DW$301       .dwtag  DW_TAG_TI_branch
    4051                      .dwattr $C$DW$301, DW_AT_low_pc(0x00)
    4052                      .dwattr $C$DW$301, DW_AT_name("_USB_connectDev")
    4053                      .dwattr $C$DW$301, DW_AT_TI_call
    4054              
    4055 001150 6C00          CALL #_USB_connectDev ; |689| 
         001152 0000!
    4056 001154 3D04  ||      MOV #0, T0
    4057              
    4058                                                      ; call occurs [#_USB_connectDev] ; |689| 
    4059 001156 C406          MOV T0, *SP(#3) ; |689| 
    4060                      .dwpsn  file "../c5535_bsl_revc/ezdsp5535_v1/c55xx_csl/ccs_v4.0_examples/usb/CSL_USB_PollExample/csl_
    4061 001158 2249          MOV T0, AR1
    4062 00115a 0409          BCC $C$L100,AR1 == #0 ; |690| 
         00115c 12   
    4063                                                      ; branchcc occurs ; |690| 
    4064 00115d       $C$DW$L$_CSL_usbPollTest$108$E:
    4065                      .dwpsn  file "../c5535_bsl_revc/ezdsp5535_v1/c55xx_csl/ccs_v4.0_examples/usb/CSL_USB_PollExample/csl_
    4066 00115d EC31          AMOV #$C$FSL9, XAR3 ; |692| 
         00115f BE00 
         001161 00B2+
    4067 001163 EB00          MOV XAR3, dbl(*SP(#0))
         001165 B5   
    4068              $C$DW$302       .dwtag  DW_TAG_TI_branch
    4069                      .dwattr $C$DW$302, DW_AT_low_pc(0x00)
    4070                      .dwattr $C$DW$302, DW_AT_name("_printf")
    4071                      .dwattr $C$DW$302, DW_AT_TI_call
    4072 001166 6C00          CALL #_printf ; |692| 
         001168 0000!
    4073                                                      ; call occurs [#_printf] ; |692| 
    4074                      .dwpsn  file "../c5535_bsl_revc/ezdsp5535_v1/c55xx_csl/ccs_v4.0_examples/usb/CSL_USB_PollExample/csl_
    4075 00116a A408          MOV *SP(#4), T0 ; |693| 
    4076 00116c 0600          B $C$L106 ; |693| 
         00116e D0   
    4077                                                      ; branch occurs ; |693| 
    4078 00116f       $C$L100:    
    4079 00116f       $C$DW$L$_CSL_usbPollTest$110$B:
    4080                      .dwpsn  file "../c5535_bsl_revc/ezdsp5535_v1/c55xx_csl/ccs_v4.0_examples/usb/CSL_USB_PollExample/csl_
    4081 00116f ED0C          MOV dbl(*SP(#6)), XAR3
         001171 BF   
    4082 001172 DC6D          BTST #5, *AR3(#95), TC1 ; |698| 
         001174 5000 
         001176 5F   
    4083 001177 0474          BCC $C$L101,!TC1 ; |698| 
         001179 25   
    4084                                                      ; branchcc occurs ; |698| 
    4085 00117a       $C$DW$L$_CSL_usbPollTest$110$E:
    4086 00117a       $C$DW$L$_CSL_usbPollTest$111$B:
    4087                      .dwpsn  file "../c5535_bsl_revc/ezdsp5535_v1/c55xx_csl/ccs_v4.0_examples/usb/CSL_USB_PollExample/csl_
    4088              $C$DW$303       .dwtag  DW_TAG_TI_branch
    4089                      .dwattr $C$DW$303, DW_AT_low_pc(0x00)
    4090                      .dwattr $C$DW$303, DW_AT_name("_USB_disconnectDev")
TMS320C55x Assembler PC v4.4.1 Sat Sep 29 23:08:33 2018

Tools Copyright (c) 1996-2012 Texas Instruments Incorporated
csl_usb_poll_example.asm                                             PAGE   99

    4091                      .dwattr $C$DW$303, DW_AT_TI_call
    4092              
    4093 00117a 6C00          CALL #_USB_disconnectDev ; |700| 
         00117c 0000!
    4094 00117e 3D04  ||      MOV #0, T0
    4095              
    4096                                                      ; call occurs [#_USB_disconnectDev] ; |700| 
    4097 001180 C406          MOV T0, *SP(#3) ; |700| 
    4098                      .dwpsn  file "../c5535_bsl_revc/ezdsp5535_v1/c55xx_csl/ccs_v4.0_examples/usb/CSL_USB_PollExample/csl_
    4099 001182 E631          MOV #1, *(#_usbDevDisconnect) ; |701| 
         001184 0100 
         001186 0083-
    4100                      .dwpsn  file "../c5535_bsl_revc/ezdsp5535_v1/c55xx_csl/ccs_v4.0_examples/usb/CSL_USB_PollExample/csl_
    4101 001188 2249          MOV T0, AR1
    4102 00118a 0409          BCC $C$L101,AR1 == #0 ; |702| 
         00118c 12   
    4103                                                      ; branchcc occurs ; |702| 
    4104 00118d       $C$DW$L$_CSL_usbPollTest$111$E:
    4105                      .dwpsn  file "../c5535_bsl_revc/ezdsp5535_v1/c55xx_csl/ccs_v4.0_examples/usb/CSL_USB_PollExample/csl_
    4106 00118d EC31          AMOV #$C$FSL13, XAR3 ; |704| 
         00118f BE00 
         001191 0108+
    4107 001193 EB00          MOV XAR3, dbl(*SP(#0))
         001195 B5   
    4108              $C$DW$304       .dwtag  DW_TAG_TI_branch
    4109                      .dwattr $C$DW$304, DW_AT_low_pc(0x00)
    4110                      .dwattr $C$DW$304, DW_AT_name("_printf")
    4111                      .dwattr $C$DW$304, DW_AT_TI_call
    4112 001196 6C00          CALL #_printf ; |704| 
         001198 0000!
    4113                                                      ; call occurs [#_printf] ; |704| 
    4114                      .dwpsn  file "../c5535_bsl_revc/ezdsp5535_v1/c55xx_csl/ccs_v4.0_examples/usb/CSL_USB_PollExample/csl_
    4115 00119a A408          MOV *SP(#4), T0 ; |705| 
    4116 00119c 0600          B $C$L106 ; |705| 
         00119e A0   
    4117                                                      ; branch occurs ; |705| 
    4118 00119f       $C$L101:    
    4119 00119f       $C$DW$L$_CSL_usbPollTest$113$B:
    4120                      .dwpsn  file "../c5535_bsl_revc/ezdsp5535_v1/c55xx_csl/ccs_v4.0_examples/usb/CSL_USB_PollExample/csl_
    4121 00119f ED0C          MOV dbl(*SP(#6)), XAR3
         0011a1 BF   
    4122 0011a2 DC6D          BTST #0, *AR3(#95), TC1 ; |710| 
         0011a4 0000 
         0011a6 5F   
    4123 0011a7 0474          BCC $C$L102,!TC1 ; |710| 
         0011a9 1F   
    4124                                                      ; branchcc occurs ; |710| 
    4125 0011aa       $C$DW$L$_CSL_usbPollTest$113$E:
    4126 0011aa       $C$DW$L$_CSL_usbPollTest$114$B:
    4127                      .dwpsn  file "../c5535_bsl_revc/ezdsp5535_v1/c55xx_csl/ccs_v4.0_examples/usb/CSL_USB_PollExample/csl_
    4128              $C$DW$305       .dwtag  DW_TAG_TI_branch
    4129                      .dwattr $C$DW$305, DW_AT_low_pc(0x00)
    4130                      .dwattr $C$DW$305, DW_AT_name("_USB_suspendDevice")
    4131                      .dwattr $C$DW$305, DW_AT_TI_call
    4132              
TMS320C55x Assembler PC v4.4.1 Sat Sep 29 23:08:33 2018

Tools Copyright (c) 1996-2012 Texas Instruments Incorporated
csl_usb_poll_example.asm                                             PAGE  100

    4133 0011aa 6C00          CALL #_USB_suspendDevice ; |712| 
         0011ac 0000!
    4134 0011ae 3D04  ||      MOV #0, T0
    4135              
    4136                                                      ; call occurs [#_USB_suspendDevice] ; |712| 
    4137 0011b0 C406          MOV T0, *SP(#3) ; |712| 
    4138                      .dwpsn  file "../c5535_bsl_revc/ezdsp5535_v1/c55xx_csl/ccs_v4.0_examples/usb/CSL_USB_PollExample/csl_
    4139 0011b2 2249          MOV T0, AR1
    4140 0011b4 0409          BCC $C$L102,AR1 == #0 ; |713| 
         0011b6 12   
    4141                                                      ; branchcc occurs ; |713| 
    4142 0011b7       $C$DW$L$_CSL_usbPollTest$114$E:
    4143                      .dwpsn  file "../c5535_bsl_revc/ezdsp5535_v1/c55xx_csl/ccs_v4.0_examples/usb/CSL_USB_PollExample/csl_
    4144 0011b7 EC31          AMOV #$C$FSL14, XAR3 ; |715| 
         0011b9 BE00 
         0011bb 0120+
    4145 0011bd EB00          MOV XAR3, dbl(*SP(#0))
         0011bf B5   
    4146              $C$DW$306       .dwtag  DW_TAG_TI_branch
    4147                      .dwattr $C$DW$306, DW_AT_low_pc(0x00)
    4148                      .dwattr $C$DW$306, DW_AT_name("_printf")
    4149                      .dwattr $C$DW$306, DW_AT_TI_call
    4150 0011c0 6C00          CALL #_printf ; |715| 
         0011c2 0000!
    4151                                                      ; call occurs [#_printf] ; |715| 
    4152                      .dwpsn  file "../c5535_bsl_revc/ezdsp5535_v1/c55xx_csl/ccs_v4.0_examples/usb/CSL_USB_PollExample/csl_
    4153 0011c4 A408          MOV *SP(#4), T0 ; |716| 
    4154 0011c6 0600          B $C$L106 ; |716| 
         0011c8 76   
    4155                                                      ; branch occurs ; |716| 
    4156 0011c9       $C$L102:    
    4157 0011c9       $C$DW$L$_CSL_usbPollTest$116$B:
    4158                      .dwpsn  file "../c5535_bsl_revc/ezdsp5535_v1/c55xx_csl/ccs_v4.0_examples/usb/CSL_USB_PollExample/csl_
    4159 0011c9 F031          CMP *(#_usbDevDisconnect) == #1, TC1 ; |720| 
         0011cb 0001 
         0011cd 0000 
         0011cf 83-  
    4160 0011d0 0474          BCC $C$L104,!TC1 ; |720| 
         0011d2 5C   
    4161                                                      ; branchcc occurs ; |720| 
    4162 0011d3       $C$DW$L$_CSL_usbPollTest$116$E:
    4163 0011d3       $C$DW$L$_CSL_usbPollTest$117$B:
    4164 0011d3 7604          MOV #1121, T0 ; |720| 
         0011d5 6148 
    4165 0011d7 AB31          MOV *(#_usbRegisters), AR3 ; |720| 
         0011d9 0000 
         0011db 00!  
    4166 0011dc A96B          MOV port(*AR3(T0)), AR1 ; |720| 
         0011de 99   
    4167 0011df 1818          AND #0x0018, AR1, AC0 ; |720| 
         0011e1 09   
    4168              
    4169 0011e2 76FF          BFXTR #0xfff8, AC0, AR1 ; |720| 
         0011e4 F890 
    4170 0011e6 3D3A  ||      MOV #3, AR2
TMS320C55x Assembler PC v4.4.1 Sat Sep 29 23:08:33 2018

Tools Copyright (c) 1996-2012 Texas Instruments Incorporated
csl_usb_poll_example.asm                                             PAGE  101

    4171              
    4172 0011e8 1290          CMPU AR1 == AR2, TC1 ; |720| 
         0011ea A4   
    4173 0011eb 0464          BCC $C$L104,TC1 ; |720| 
         0011ed 41   
    4174                                                      ; branchcc occurs ; |720| 
    4175 0011ee       $C$DW$L$_CSL_usbPollTest$117$E:
    4176 0011ee       $C$DW$L$_CSL_usbPollTest$118$B:
    4177                      .dwpsn  file "../c5535_bsl_revc/ezdsp5535_v1/c55xx_csl/ccs_v4.0_examples/usb/CSL_USB_PollExample/csl_
    4178 0011ee EC31          AMOV #$C$FSL15, XAR3 ; |724| 
         0011f0 BE00 
         0011f2 0134+
    4179 0011f4 EB00          MOV XAR3, dbl(*SP(#0))
         0011f6 B5   
    4180              $C$DW$307       .dwtag  DW_TAG_TI_branch
    4181                      .dwattr $C$DW$307, DW_AT_low_pc(0x00)
    4182                      .dwattr $C$DW$307, DW_AT_name("_printf")
    4183                      .dwattr $C$DW$307, DW_AT_TI_call
    4184 0011f7 6C00          CALL #_printf ; |724| 
         0011f9 0000!
    4185                                                      ; call occurs [#_printf] ; |724| 
    4186 0011fb 7604          MOV #1121, T0 ; |726| 
         0011fd 6148 
    4187 0011ff 3C39          MOV #3, AR1
    4188                      .dwpsn  file "../c5535_bsl_revc/ezdsp5535_v1/c55xx_csl/ccs_v4.0_examples/usb/CSL_USB_PollExample/csl_
    4189 001201       $C$DW$L$_CSL_usbPollTest$118$E:
    4190 001201       $C$L103:    
    4191 001201       $C$DW$L$_CSL_usbPollTest$119$B:
    4192                      .dwpsn  file "../c5535_bsl_revc/ezdsp5535_v1/c55xx_csl/ccs_v4.0_examples/usb/CSL_USB_PollExample/csl_
    4193 001201 AB31          MOV *(#_usbRegisters), AR3 ; |726| 
         001203 0000 
         001205 00!  
    4194 001206 AA6B          MOV port(*AR3(T0)), AR2 ; |726| 
         001208 99   
    4195 001209 1818          AND #0x0018, AR2, AC0 ; |726| 
         00120b 0A   
    4196 00120c 76FF          BFXTR #0xfff8, AC0, AR2 ; |726| 
         00120e F8A0 
    4197 001210 12AC          CMPU AR2 != AR1, TC1 ; |726| 
         001212 94   
    4198 001213 0464          BCC $C$L103,TC1 ; |726| 
         001215 EB   
    4199                                                      ; branchcc occurs ; |726| 
    4200 001216       $C$DW$L$_CSL_usbPollTest$119$E:
    4201 001216       $C$DW$L$_CSL_usbPollTest$120$B:
    4202                      .dwpsn  file "../c5535_bsl_revc/ezdsp5535_v1/c55xx_csl/ccs_v4.0_examples/usb/CSL_USB_PollExample/csl_
    4203 001216 EC31          AMOV #$C$FSL16, XAR3 ; |729| 
         001218 BE00 
         00121a 0150+
    4204 00121c EB00          MOV XAR3, dbl(*SP(#0))
         00121e B5   
    4205              $C$DW$308       .dwtag  DW_TAG_TI_branch
    4206                      .dwattr $C$DW$308, DW_AT_low_pc(0x00)
    4207                      .dwattr $C$DW$308, DW_AT_name("_printf")
    4208                      .dwattr $C$DW$308, DW_AT_TI_call
TMS320C55x Assembler PC v4.4.1 Sat Sep 29 23:08:33 2018

Tools Copyright (c) 1996-2012 Texas Instruments Incorporated
csl_usb_poll_example.asm                                             PAGE  102

    4209 00121f 6C00          CALL #_printf ; |729| 
         001221 0000!
    4210                                                      ; call occurs [#_printf] ; |729| 
    4211                      .dwpsn  file "../c5535_bsl_revc/ezdsp5535_v1/c55xx_csl/ccs_v4.0_examples/usb/CSL_USB_PollExample/csl_
    4212 001223 E631          MOV #0, *(#_usbDevDisconnect) ; |731| 
         001225 0000 
         001227 0083-
    4213                      .dwpsn  file "../c5535_bsl_revc/ezdsp5535_v1/c55xx_csl/ccs_v4.0_examples/usb/CSL_USB_PollExample/csl_
    4214              $C$DW$309       .dwtag  DW_TAG_TI_branch
    4215                      .dwattr $C$DW$309, DW_AT_low_pc(0x00)
    4216                      .dwattr $C$DW$309, DW_AT_name("_USB_connectDev")
    4217                      .dwattr $C$DW$309, DW_AT_TI_call
    4218              
    4219 001229 6C00          CALL #_USB_connectDev ; |732| 
         00122b 0000!
    4220 00122d 3D04  ||      MOV #0, T0
    4221              
    4222                                                      ; call occurs [#_USB_connectDev] ; |732| 
    4223 00122f       $C$DW$L$_CSL_usbPollTest$120$E:
    4224 00122f       $C$L104:    
    4225 00122f       $C$DW$L$_CSL_usbPollTest$121$B:
    4226                      .dwpsn  file "../c5535_bsl_revc/ezdsp5535_v1/c55xx_csl/ccs_v4.0_examples/usb/CSL_USB_PollExample/csl_
    4227 00122f F031          CMP *(#_stopRunning) == #1, TC1 ; |380| 
         001231 0001 
         001233 0000 
         001235 82-  
    4228 001236 6D74          BCC $C$L64,!TC1 ; |380| 
         001238 F8F9 
    4229                                                      ; branchcc occurs ; |380| 
    4230 00123a       $C$DW$L$_CSL_usbPollTest$121$E:
    4231 00123a       $C$L105:    
    4232                      .dwpsn  file "../c5535_bsl_revc/ezdsp5535_v1/c55xx_csl/ccs_v4.0_examples/usb/CSL_USB_PollExample/csl_
    4233 00123a E608          MOV #0, *SP(#4) ; |736| 
         00123c 00   
    4234                      .dwpsn  file "../c5535_bsl_revc/ezdsp5535_v1/c55xx_csl/ccs_v4.0_examples/usb/CSL_USB_PollExample/csl_
    4235 00123d A408          MOV *SP(#4), T0 ; |737| 
    4236 00123f       $C$L106:    
    4237                      .dwpsn  file "../c5535_bsl_revc/ezdsp5535_v1/c55xx_csl/ccs_v4.0_examples/usb/CSL_USB_PollExample/csl_
    4238 00123f 4E13          AADD #19, SP
    4239                      .dwcfi  cfa_offset, 1
    4240              $C$DW$310       .dwtag  DW_TAG_TI_branch
    4241                      .dwattr $C$DW$310, DW_AT_low_pc(0x00)
    4242                      .dwattr $C$DW$310, DW_AT_TI_return
    4243 001241 4804          RET
    4244                                                      ; return occurs
    4245              
    4246              $C$DW$311       .dwtag  DW_TAG_TI_loop
    4247                      .dwattr $C$DW$311, DW_AT_name("F:\eZdsp_DBG\tmp1\c55x-sim2\foo\Debug\csl_usb_poll_example.asm:$C$L64:
    4248                      .dwattr $C$DW$311, DW_AT_TI_begin_file("../c5535_bsl_revc/ezdsp5535_v1/c55xx_csl/ccs_v4.0_examples/us
    4249                      .dwattr $C$DW$311, DW_AT_TI_begin_line(0x17c)
    4250                      .dwattr $C$DW$311, DW_AT_TI_end_line(0x2de)
    4251              $C$DW$312       .dwtag  DW_TAG_TI_loop_range
    4252                      .dwattr $C$DW$312, DW_AT_low_pc($C$DW$L$_CSL_usbPollTest$20$B)
    4253                      .dwattr $C$DW$312, DW_AT_high_pc($C$DW$L$_CSL_usbPollTest$20$E)
    4254              $C$DW$313       .dwtag  DW_TAG_TI_loop_range
TMS320C55x Assembler PC v4.4.1 Sat Sep 29 23:08:33 2018

Tools Copyright (c) 1996-2012 Texas Instruments Incorporated
csl_usb_poll_example.asm                                             PAGE  103

    4255                      .dwattr $C$DW$313, DW_AT_low_pc($C$DW$L$_CSL_usbPollTest$118$B)
    4256                      .dwattr $C$DW$313, DW_AT_high_pc($C$DW$L$_CSL_usbPollTest$118$E)
    4257              $C$DW$314       .dwtag  DW_TAG_TI_loop_range
    4258                      .dwattr $C$DW$314, DW_AT_low_pc($C$DW$L$_CSL_usbPollTest$102$B)
    4259                      .dwattr $C$DW$314, DW_AT_high_pc($C$DW$L$_CSL_usbPollTest$102$E)
    4260              $C$DW$315       .dwtag  DW_TAG_TI_loop_range
    4261                      .dwattr $C$DW$315, DW_AT_low_pc($C$DW$L$_CSL_usbPollTest$91$B)
    4262                      .dwattr $C$DW$315, DW_AT_high_pc($C$DW$L$_CSL_usbPollTest$91$E)
    4263              $C$DW$316       .dwtag  DW_TAG_TI_loop_range
    4264                      .dwattr $C$DW$316, DW_AT_low_pc($C$DW$L$_CSL_usbPollTest$92$B)
    4265                      .dwattr $C$DW$316, DW_AT_high_pc($C$DW$L$_CSL_usbPollTest$92$E)
    4266              $C$DW$317       .dwtag  DW_TAG_TI_loop_range
    4267                      .dwattr $C$DW$317, DW_AT_low_pc($C$DW$L$_CSL_usbPollTest$93$B)
    4268                      .dwattr $C$DW$317, DW_AT_high_pc($C$DW$L$_CSL_usbPollTest$93$E)
    4269              $C$DW$318       .dwtag  DW_TAG_TI_loop_range
    4270                      .dwattr $C$DW$318, DW_AT_low_pc($C$DW$L$_CSL_usbPollTest$78$B)
    4271                      .dwattr $C$DW$318, DW_AT_high_pc($C$DW$L$_CSL_usbPollTest$78$E)
    4272              $C$DW$319       .dwtag  DW_TAG_TI_loop_range
    4273                      .dwattr $C$DW$319, DW_AT_low_pc($C$DW$L$_CSL_usbPollTest$59$B)
    4274                      .dwattr $C$DW$319, DW_AT_high_pc($C$DW$L$_CSL_usbPollTest$59$E)
    4275              $C$DW$320       .dwtag  DW_TAG_TI_loop_range
    4276                      .dwattr $C$DW$320, DW_AT_low_pc($C$DW$L$_CSL_usbPollTest$60$B)
    4277                      .dwattr $C$DW$320, DW_AT_high_pc($C$DW$L$_CSL_usbPollTest$60$E)
    4278              $C$DW$321       .dwtag  DW_TAG_TI_loop_range
    4279                      .dwattr $C$DW$321, DW_AT_low_pc($C$DW$L$_CSL_usbPollTest$61$B)
    4280                      .dwattr $C$DW$321, DW_AT_high_pc($C$DW$L$_CSL_usbPollTest$61$E)
    4281              $C$DW$322       .dwtag  DW_TAG_TI_loop_range
    4282                      .dwattr $C$DW$322, DW_AT_low_pc($C$DW$L$_CSL_usbPollTest$62$B)
    4283                      .dwattr $C$DW$322, DW_AT_high_pc($C$DW$L$_CSL_usbPollTest$62$E)
    4284              $C$DW$323       .dwtag  DW_TAG_TI_loop_range
    4285                      .dwattr $C$DW$323, DW_AT_low_pc($C$DW$L$_CSL_usbPollTest$63$B)
    4286                      .dwattr $C$DW$323, DW_AT_high_pc($C$DW$L$_CSL_usbPollTest$63$E)
    4287              $C$DW$324       .dwtag  DW_TAG_TI_loop_range
    4288                      .dwattr $C$DW$324, DW_AT_low_pc($C$DW$L$_CSL_usbPollTest$64$B)
    4289                      .dwattr $C$DW$324, DW_AT_high_pc($C$DW$L$_CSL_usbPollTest$64$E)
    4290              $C$DW$325       .dwtag  DW_TAG_TI_loop_range
    4291                      .dwattr $C$DW$325, DW_AT_low_pc($C$DW$L$_CSL_usbPollTest$69$B)
    4292                      .dwattr $C$DW$325, DW_AT_high_pc($C$DW$L$_CSL_usbPollTest$69$E)
    4293              $C$DW$326       .dwtag  DW_TAG_TI_loop_range
    4294                      .dwattr $C$DW$326, DW_AT_low_pc($C$DW$L$_CSL_usbPollTest$56$B)
    4295                      .dwattr $C$DW$326, DW_AT_high_pc($C$DW$L$_CSL_usbPollTest$56$E)
    4296              $C$DW$327       .dwtag  DW_TAG_TI_loop_range
    4297                      .dwattr $C$DW$327, DW_AT_low_pc($C$DW$L$_CSL_usbPollTest$68$B)
    4298                      .dwattr $C$DW$327, DW_AT_high_pc($C$DW$L$_CSL_usbPollTest$68$E)
    4299              $C$DW$328       .dwtag  DW_TAG_TI_loop_range
    4300                      .dwattr $C$DW$328, DW_AT_low_pc($C$DW$L$_CSL_usbPollTest$55$B)
    4301                      .dwattr $C$DW$328, DW_AT_high_pc($C$DW$L$_CSL_usbPollTest$55$E)
    4302              $C$DW$329       .dwtag  DW_TAG_TI_loop_range
    4303                      .dwattr $C$DW$329, DW_AT_low_pc($C$DW$L$_CSL_usbPollTest$57$B)
    4304                      .dwattr $C$DW$329, DW_AT_high_pc($C$DW$L$_CSL_usbPollTest$57$E)
    4305              $C$DW$330       .dwtag  DW_TAG_TI_loop_range
    4306                      .dwattr $C$DW$330, DW_AT_low_pc($C$DW$L$_CSL_usbPollTest$58$B)
    4307                      .dwattr $C$DW$330, DW_AT_high_pc($C$DW$L$_CSL_usbPollTest$58$E)
    4308              $C$DW$331       .dwtag  DW_TAG_TI_loop_range
    4309                      .dwattr $C$DW$331, DW_AT_low_pc($C$DW$L$_CSL_usbPollTest$65$B)
TMS320C55x Assembler PC v4.4.1 Sat Sep 29 23:08:33 2018

Tools Copyright (c) 1996-2012 Texas Instruments Incorporated
csl_usb_poll_example.asm                                             PAGE  104

    4310                      .dwattr $C$DW$331, DW_AT_high_pc($C$DW$L$_CSL_usbPollTest$65$E)
    4311              $C$DW$332       .dwtag  DW_TAG_TI_loop_range
    4312                      .dwattr $C$DW$332, DW_AT_low_pc($C$DW$L$_CSL_usbPollTest$66$B)
    4313                      .dwattr $C$DW$332, DW_AT_high_pc($C$DW$L$_CSL_usbPollTest$66$E)
    4314              $C$DW$333       .dwtag  DW_TAG_TI_loop_range
    4315                      .dwattr $C$DW$333, DW_AT_low_pc($C$DW$L$_CSL_usbPollTest$70$B)
    4316                      .dwattr $C$DW$333, DW_AT_high_pc($C$DW$L$_CSL_usbPollTest$70$E)
    4317              $C$DW$334       .dwtag  DW_TAG_TI_loop_range
    4318                      .dwattr $C$DW$334, DW_AT_low_pc($C$DW$L$_CSL_usbPollTest$80$B)
    4319                      .dwattr $C$DW$334, DW_AT_high_pc($C$DW$L$_CSL_usbPollTest$80$E)
    4320              $C$DW$335       .dwtag  DW_TAG_TI_loop_range
    4321                      .dwattr $C$DW$335, DW_AT_low_pc($C$DW$L$_CSL_usbPollTest$81$B)
    4322                      .dwattr $C$DW$335, DW_AT_high_pc($C$DW$L$_CSL_usbPollTest$81$E)
    4323              $C$DW$336       .dwtag  DW_TAG_TI_loop_range
    4324                      .dwattr $C$DW$336, DW_AT_low_pc($C$DW$L$_CSL_usbPollTest$50$B)
    4325                      .dwattr $C$DW$336, DW_AT_high_pc($C$DW$L$_CSL_usbPollTest$50$E)
    4326              $C$DW$337       .dwtag  DW_TAG_TI_loop_range
    4327                      .dwattr $C$DW$337, DW_AT_low_pc($C$DW$L$_CSL_usbPollTest$49$B)
    4328                      .dwattr $C$DW$337, DW_AT_high_pc($C$DW$L$_CSL_usbPollTest$49$E)
    4329              $C$DW$338       .dwtag  DW_TAG_TI_loop_range
    4330                      .dwattr $C$DW$338, DW_AT_low_pc($C$DW$L$_CSL_usbPollTest$32$B)
    4331                      .dwattr $C$DW$338, DW_AT_high_pc($C$DW$L$_CSL_usbPollTest$32$E)
    4332              $C$DW$339       .dwtag  DW_TAG_TI_loop_range
    4333                      .dwattr $C$DW$339, DW_AT_low_pc($C$DW$L$_CSL_usbPollTest$33$B)
    4334                      .dwattr $C$DW$339, DW_AT_high_pc($C$DW$L$_CSL_usbPollTest$33$E)
    4335              $C$DW$340       .dwtag  DW_TAG_TI_loop_range
    4336                      .dwattr $C$DW$340, DW_AT_low_pc($C$DW$L$_CSL_usbPollTest$74$B)
    4337                      .dwattr $C$DW$340, DW_AT_high_pc($C$DW$L$_CSL_usbPollTest$74$E)
    4338              $C$DW$341       .dwtag  DW_TAG_TI_loop_range
    4339                      .dwattr $C$DW$341, DW_AT_low_pc($C$DW$L$_CSL_usbPollTest$75$B)
    4340                      .dwattr $C$DW$341, DW_AT_high_pc($C$DW$L$_CSL_usbPollTest$75$E)
    4341              $C$DW$342       .dwtag  DW_TAG_TI_loop_range
    4342                      .dwattr $C$DW$342, DW_AT_low_pc($C$DW$L$_CSL_usbPollTest$76$B)
    4343                      .dwattr $C$DW$342, DW_AT_high_pc($C$DW$L$_CSL_usbPollTest$76$E)
    4344              $C$DW$343       .dwtag  DW_TAG_TI_loop_range
    4345                      .dwattr $C$DW$343, DW_AT_low_pc($C$DW$L$_CSL_usbPollTest$77$B)
    4346                      .dwattr $C$DW$343, DW_AT_high_pc($C$DW$L$_CSL_usbPollTest$77$E)
    4347              $C$DW$344       .dwtag  DW_TAG_TI_loop_range
    4348                      .dwattr $C$DW$344, DW_AT_low_pc($C$DW$L$_CSL_usbPollTest$40$B)
    4349                      .dwattr $C$DW$344, DW_AT_high_pc($C$DW$L$_CSL_usbPollTest$40$E)
    4350              $C$DW$345       .dwtag  DW_TAG_TI_loop_range
    4351                      .dwattr $C$DW$345, DW_AT_low_pc($C$DW$L$_CSL_usbPollTest$35$B)
    4352                      .dwattr $C$DW$345, DW_AT_high_pc($C$DW$L$_CSL_usbPollTest$35$E)
    4353              $C$DW$346       .dwtag  DW_TAG_TI_loop_range
    4354                      .dwattr $C$DW$346, DW_AT_low_pc($C$DW$L$_CSL_usbPollTest$36$B)
    4355                      .dwattr $C$DW$346, DW_AT_high_pc($C$DW$L$_CSL_usbPollTest$36$E)
    4356              $C$DW$347       .dwtag  DW_TAG_TI_loop_range
    4357                      .dwattr $C$DW$347, DW_AT_low_pc($C$DW$L$_CSL_usbPollTest$37$B)
    4358                      .dwattr $C$DW$347, DW_AT_high_pc($C$DW$L$_CSL_usbPollTest$37$E)
    4359              $C$DW$348       .dwtag  DW_TAG_TI_loop_range
    4360                      .dwattr $C$DW$348, DW_AT_low_pc($C$DW$L$_CSL_usbPollTest$38$B)
    4361                      .dwattr $C$DW$348, DW_AT_high_pc($C$DW$L$_CSL_usbPollTest$38$E)
    4362              $C$DW$349       .dwtag  DW_TAG_TI_loop_range
    4363                      .dwattr $C$DW$349, DW_AT_low_pc($C$DW$L$_CSL_usbPollTest$41$B)
    4364                      .dwattr $C$DW$349, DW_AT_high_pc($C$DW$L$_CSL_usbPollTest$41$E)
TMS320C55x Assembler PC v4.4.1 Sat Sep 29 23:08:33 2018

Tools Copyright (c) 1996-2012 Texas Instruments Incorporated
csl_usb_poll_example.asm                                             PAGE  105

    4365              $C$DW$350       .dwtag  DW_TAG_TI_loop_range
    4366                      .dwattr $C$DW$350, DW_AT_low_pc($C$DW$L$_CSL_usbPollTest$42$B)
    4367                      .dwattr $C$DW$350, DW_AT_high_pc($C$DW$L$_CSL_usbPollTest$42$E)
    4368              $C$DW$351       .dwtag  DW_TAG_TI_loop_range
    4369                      .dwattr $C$DW$351, DW_AT_low_pc($C$DW$L$_CSL_usbPollTest$44$B)
    4370                      .dwattr $C$DW$351, DW_AT_high_pc($C$DW$L$_CSL_usbPollTest$44$E)
    4371              $C$DW$352       .dwtag  DW_TAG_TI_loop_range
    4372                      .dwattr $C$DW$352, DW_AT_low_pc($C$DW$L$_CSL_usbPollTest$45$B)
    4373                      .dwattr $C$DW$352, DW_AT_high_pc($C$DW$L$_CSL_usbPollTest$45$E)
    4374              $C$DW$353       .dwtag  DW_TAG_TI_loop_range
    4375                      .dwattr $C$DW$353, DW_AT_low_pc($C$DW$L$_CSL_usbPollTest$46$B)
    4376                      .dwattr $C$DW$353, DW_AT_high_pc($C$DW$L$_CSL_usbPollTest$46$E)
    4377              $C$DW$354       .dwtag  DW_TAG_TI_loop_range
    4378                      .dwattr $C$DW$354, DW_AT_low_pc($C$DW$L$_CSL_usbPollTest$47$B)
    4379                      .dwattr $C$DW$354, DW_AT_high_pc($C$DW$L$_CSL_usbPollTest$47$E)
    4380              $C$DW$355       .dwtag  DW_TAG_TI_loop_range
    4381                      .dwattr $C$DW$355, DW_AT_low_pc($C$DW$L$_CSL_usbPollTest$51$B)
    4382                      .dwattr $C$DW$355, DW_AT_high_pc($C$DW$L$_CSL_usbPollTest$51$E)
    4383              $C$DW$356       .dwtag  DW_TAG_TI_loop_range
    4384                      .dwattr $C$DW$356, DW_AT_low_pc($C$DW$L$_CSL_usbPollTest$53$B)
    4385                      .dwattr $C$DW$356, DW_AT_high_pc($C$DW$L$_CSL_usbPollTest$53$E)
    4386              $C$DW$357       .dwtag  DW_TAG_TI_loop_range
    4387                      .dwattr $C$DW$357, DW_AT_low_pc($C$DW$L$_CSL_usbPollTest$71$B)
    4388                      .dwattr $C$DW$357, DW_AT_high_pc($C$DW$L$_CSL_usbPollTest$71$E)
    4389              $C$DW$358       .dwtag  DW_TAG_TI_loop_range
    4390                      .dwattr $C$DW$358, DW_AT_low_pc($C$DW$L$_CSL_usbPollTest$72$B)
    4391                      .dwattr $C$DW$358, DW_AT_high_pc($C$DW$L$_CSL_usbPollTest$72$E)
    4392              $C$DW$359       .dwtag  DW_TAG_TI_loop_range
    4393                      .dwattr $C$DW$359, DW_AT_low_pc($C$DW$L$_CSL_usbPollTest$79$B)
    4394                      .dwattr $C$DW$359, DW_AT_high_pc($C$DW$L$_CSL_usbPollTest$79$E)
    4395              $C$DW$360       .dwtag  DW_TAG_TI_loop_range
    4396                      .dwattr $C$DW$360, DW_AT_low_pc($C$DW$L$_CSL_usbPollTest$82$B)
    4397                      .dwattr $C$DW$360, DW_AT_high_pc($C$DW$L$_CSL_usbPollTest$82$E)
    4398              $C$DW$361       .dwtag  DW_TAG_TI_loop_range
    4399                      .dwattr $C$DW$361, DW_AT_low_pc($C$DW$L$_CSL_usbPollTest$84$B)
    4400                      .dwattr $C$DW$361, DW_AT_high_pc($C$DW$L$_CSL_usbPollTest$84$E)
    4401              $C$DW$362       .dwtag  DW_TAG_TI_loop_range
    4402                      .dwattr $C$DW$362, DW_AT_low_pc($C$DW$L$_CSL_usbPollTest$85$B)
    4403                      .dwattr $C$DW$362, DW_AT_high_pc($C$DW$L$_CSL_usbPollTest$85$E)
    4404              $C$DW$363       .dwtag  DW_TAG_TI_loop_range
    4405                      .dwattr $C$DW$363, DW_AT_low_pc($C$DW$L$_CSL_usbPollTest$25$B)
    4406                      .dwattr $C$DW$363, DW_AT_high_pc($C$DW$L$_CSL_usbPollTest$25$E)
    4407              $C$DW$364       .dwtag  DW_TAG_TI_loop_range
    4408                      .dwattr $C$DW$364, DW_AT_low_pc($C$DW$L$_CSL_usbPollTest$21$B)
    4409                      .dwattr $C$DW$364, DW_AT_high_pc($C$DW$L$_CSL_usbPollTest$21$E)
    4410              $C$DW$365       .dwtag  DW_TAG_TI_loop_range
    4411                      .dwattr $C$DW$365, DW_AT_low_pc($C$DW$L$_CSL_usbPollTest$22$B)
    4412                      .dwattr $C$DW$365, DW_AT_high_pc($C$DW$L$_CSL_usbPollTest$22$E)
    4413              $C$DW$366       .dwtag  DW_TAG_TI_loop_range
    4414                      .dwattr $C$DW$366, DW_AT_low_pc($C$DW$L$_CSL_usbPollTest$23$B)
    4415                      .dwattr $C$DW$366, DW_AT_high_pc($C$DW$L$_CSL_usbPollTest$23$E)
    4416              $C$DW$367       .dwtag  DW_TAG_TI_loop_range
    4417                      .dwattr $C$DW$367, DW_AT_low_pc($C$DW$L$_CSL_usbPollTest$24$B)
    4418                      .dwattr $C$DW$367, DW_AT_high_pc($C$DW$L$_CSL_usbPollTest$24$E)
    4419              $C$DW$368       .dwtag  DW_TAG_TI_loop_range
TMS320C55x Assembler PC v4.4.1 Sat Sep 29 23:08:33 2018

Tools Copyright (c) 1996-2012 Texas Instruments Incorporated
csl_usb_poll_example.asm                                             PAGE  106

    4420                      .dwattr $C$DW$368, DW_AT_low_pc($C$DW$L$_CSL_usbPollTest$26$B)
    4421                      .dwattr $C$DW$368, DW_AT_high_pc($C$DW$L$_CSL_usbPollTest$26$E)
    4422              $C$DW$369       .dwtag  DW_TAG_TI_loop_range
    4423                      .dwattr $C$DW$369, DW_AT_low_pc($C$DW$L$_CSL_usbPollTest$27$B)
    4424                      .dwattr $C$DW$369, DW_AT_high_pc($C$DW$L$_CSL_usbPollTest$27$E)
    4425              $C$DW$370       .dwtag  DW_TAG_TI_loop_range
    4426                      .dwattr $C$DW$370, DW_AT_low_pc($C$DW$L$_CSL_usbPollTest$28$B)
    4427                      .dwattr $C$DW$370, DW_AT_high_pc($C$DW$L$_CSL_usbPollTest$28$E)
    4428              $C$DW$371       .dwtag  DW_TAG_TI_loop_range
    4429                      .dwattr $C$DW$371, DW_AT_low_pc($C$DW$L$_CSL_usbPollTest$29$B)
    4430                      .dwattr $C$DW$371, DW_AT_high_pc($C$DW$L$_CSL_usbPollTest$29$E)
    4431              $C$DW$372       .dwtag  DW_TAG_TI_loop_range
    4432                      .dwattr $C$DW$372, DW_AT_low_pc($C$DW$L$_CSL_usbPollTest$30$B)
    4433                      .dwattr $C$DW$372, DW_AT_high_pc($C$DW$L$_CSL_usbPollTest$30$E)
    4434              $C$DW$373       .dwtag  DW_TAG_TI_loop_range
    4435                      .dwattr $C$DW$373, DW_AT_low_pc($C$DW$L$_CSL_usbPollTest$31$B)
    4436                      .dwattr $C$DW$373, DW_AT_high_pc($C$DW$L$_CSL_usbPollTest$31$E)
    4437              $C$DW$374       .dwtag  DW_TAG_TI_loop_range
    4438                      .dwattr $C$DW$374, DW_AT_low_pc($C$DW$L$_CSL_usbPollTest$86$B)
    4439                      .dwattr $C$DW$374, DW_AT_high_pc($C$DW$L$_CSL_usbPollTest$86$E)
    4440              $C$DW$375       .dwtag  DW_TAG_TI_loop_range
    4441                      .dwattr $C$DW$375, DW_AT_low_pc($C$DW$L$_CSL_usbPollTest$87$B)
    4442                      .dwattr $C$DW$375, DW_AT_high_pc($C$DW$L$_CSL_usbPollTest$87$E)
    4443              $C$DW$376       .dwtag  DW_TAG_TI_loop_range
    4444                      .dwattr $C$DW$376, DW_AT_low_pc($C$DW$L$_CSL_usbPollTest$88$B)
    4445                      .dwattr $C$DW$376, DW_AT_high_pc($C$DW$L$_CSL_usbPollTest$88$E)
    4446              $C$DW$377       .dwtag  DW_TAG_TI_loop_range
    4447                      .dwattr $C$DW$377, DW_AT_low_pc($C$DW$L$_CSL_usbPollTest$89$B)
    4448                      .dwattr $C$DW$377, DW_AT_high_pc($C$DW$L$_CSL_usbPollTest$89$E)
    4449              $C$DW$378       .dwtag  DW_TAG_TI_loop_range
    4450                      .dwattr $C$DW$378, DW_AT_low_pc($C$DW$L$_CSL_usbPollTest$90$B)
    4451                      .dwattr $C$DW$378, DW_AT_high_pc($C$DW$L$_CSL_usbPollTest$90$E)
    4452              $C$DW$379       .dwtag  DW_TAG_TI_loop_range
    4453                      .dwattr $C$DW$379, DW_AT_low_pc($C$DW$L$_CSL_usbPollTest$95$B)
    4454                      .dwattr $C$DW$379, DW_AT_high_pc($C$DW$L$_CSL_usbPollTest$95$E)
    4455              $C$DW$380       .dwtag  DW_TAG_TI_loop_range
    4456                      .dwattr $C$DW$380, DW_AT_low_pc($C$DW$L$_CSL_usbPollTest$96$B)
    4457                      .dwattr $C$DW$380, DW_AT_high_pc($C$DW$L$_CSL_usbPollTest$96$E)
    4458              $C$DW$381       .dwtag  DW_TAG_TI_loop_range
    4459                      .dwattr $C$DW$381, DW_AT_low_pc($C$DW$L$_CSL_usbPollTest$97$B)
    4460                      .dwattr $C$DW$381, DW_AT_high_pc($C$DW$L$_CSL_usbPollTest$97$E)
    4461              $C$DW$382       .dwtag  DW_TAG_TI_loop_range
    4462                      .dwattr $C$DW$382, DW_AT_low_pc($C$DW$L$_CSL_usbPollTest$98$B)
    4463                      .dwattr $C$DW$382, DW_AT_high_pc($C$DW$L$_CSL_usbPollTest$98$E)
    4464              $C$DW$383       .dwtag  DW_TAG_TI_loop_range
    4465                      .dwattr $C$DW$383, DW_AT_low_pc($C$DW$L$_CSL_usbPollTest$99$B)
    4466                      .dwattr $C$DW$383, DW_AT_high_pc($C$DW$L$_CSL_usbPollTest$99$E)
    4467              $C$DW$384       .dwtag  DW_TAG_TI_loop_range
    4468                      .dwattr $C$DW$384, DW_AT_low_pc($C$DW$L$_CSL_usbPollTest$100$B)
    4469                      .dwattr $C$DW$384, DW_AT_high_pc($C$DW$L$_CSL_usbPollTest$100$E)
    4470              $C$DW$385       .dwtag  DW_TAG_TI_loop_range
    4471                      .dwattr $C$DW$385, DW_AT_low_pc($C$DW$L$_CSL_usbPollTest$101$B)
    4472                      .dwattr $C$DW$385, DW_AT_high_pc($C$DW$L$_CSL_usbPollTest$101$E)
    4473              $C$DW$386       .dwtag  DW_TAG_TI_loop_range
    4474                      .dwattr $C$DW$386, DW_AT_low_pc($C$DW$L$_CSL_usbPollTest$104$B)
TMS320C55x Assembler PC v4.4.1 Sat Sep 29 23:08:33 2018

Tools Copyright (c) 1996-2012 Texas Instruments Incorporated
csl_usb_poll_example.asm                                             PAGE  107

    4475                      .dwattr $C$DW$386, DW_AT_high_pc($C$DW$L$_CSL_usbPollTest$104$E)
    4476              $C$DW$387       .dwtag  DW_TAG_TI_loop_range
    4477                      .dwattr $C$DW$387, DW_AT_low_pc($C$DW$L$_CSL_usbPollTest$105$B)
    4478                      .dwattr $C$DW$387, DW_AT_high_pc($C$DW$L$_CSL_usbPollTest$105$E)
    4479              $C$DW$388       .dwtag  DW_TAG_TI_loop_range
    4480                      .dwattr $C$DW$388, DW_AT_low_pc($C$DW$L$_CSL_usbPollTest$106$B)
    4481                      .dwattr $C$DW$388, DW_AT_high_pc($C$DW$L$_CSL_usbPollTest$106$E)
    4482              $C$DW$389       .dwtag  DW_TAG_TI_loop_range
    4483                      .dwattr $C$DW$389, DW_AT_low_pc($C$DW$L$_CSL_usbPollTest$107$B)
    4484                      .dwattr $C$DW$389, DW_AT_high_pc($C$DW$L$_CSL_usbPollTest$107$E)
    4485              $C$DW$390       .dwtag  DW_TAG_TI_loop_range
    4486                      .dwattr $C$DW$390, DW_AT_low_pc($C$DW$L$_CSL_usbPollTest$108$B)
    4487                      .dwattr $C$DW$390, DW_AT_high_pc($C$DW$L$_CSL_usbPollTest$108$E)
    4488              $C$DW$391       .dwtag  DW_TAG_TI_loop_range
    4489                      .dwattr $C$DW$391, DW_AT_low_pc($C$DW$L$_CSL_usbPollTest$110$B)
    4490                      .dwattr $C$DW$391, DW_AT_high_pc($C$DW$L$_CSL_usbPollTest$110$E)
    4491              $C$DW$392       .dwtag  DW_TAG_TI_loop_range
    4492                      .dwattr $C$DW$392, DW_AT_low_pc($C$DW$L$_CSL_usbPollTest$111$B)
    4493                      .dwattr $C$DW$392, DW_AT_high_pc($C$DW$L$_CSL_usbPollTest$111$E)
    4494              $C$DW$393       .dwtag  DW_TAG_TI_loop_range
    4495                      .dwattr $C$DW$393, DW_AT_low_pc($C$DW$L$_CSL_usbPollTest$113$B)
    4496                      .dwattr $C$DW$393, DW_AT_high_pc($C$DW$L$_CSL_usbPollTest$113$E)
    4497              $C$DW$394       .dwtag  DW_TAG_TI_loop_range
    4498                      .dwattr $C$DW$394, DW_AT_low_pc($C$DW$L$_CSL_usbPollTest$114$B)
    4499                      .dwattr $C$DW$394, DW_AT_high_pc($C$DW$L$_CSL_usbPollTest$114$E)
    4500              $C$DW$395       .dwtag  DW_TAG_TI_loop_range
    4501                      .dwattr $C$DW$395, DW_AT_low_pc($C$DW$L$_CSL_usbPollTest$116$B)
    4502                      .dwattr $C$DW$395, DW_AT_high_pc($C$DW$L$_CSL_usbPollTest$116$E)
    4503              $C$DW$396       .dwtag  DW_TAG_TI_loop_range
    4504                      .dwattr $C$DW$396, DW_AT_low_pc($C$DW$L$_CSL_usbPollTest$117$B)
    4505                      .dwattr $C$DW$396, DW_AT_high_pc($C$DW$L$_CSL_usbPollTest$117$E)
    4506              $C$DW$397       .dwtag  DW_TAG_TI_loop_range
    4507                      .dwattr $C$DW$397, DW_AT_low_pc($C$DW$L$_CSL_usbPollTest$120$B)
    4508                      .dwattr $C$DW$397, DW_AT_high_pc($C$DW$L$_CSL_usbPollTest$120$E)
    4509              $C$DW$398       .dwtag  DW_TAG_TI_loop_range
    4510                      .dwattr $C$DW$398, DW_AT_low_pc($C$DW$L$_CSL_usbPollTest$121$B)
    4511                      .dwattr $C$DW$398, DW_AT_high_pc($C$DW$L$_CSL_usbPollTest$121$E)
    4512              
    4513              $C$DW$399       .dwtag  DW_TAG_TI_loop
    4514                      .dwattr $C$DW$399, DW_AT_name("F:\eZdsp_DBG\tmp1\c55x-sim2\foo\Debug\csl_usb_poll_example.asm:$C$L103
    4515                      .dwattr $C$DW$399, DW_AT_TI_begin_file("../c5535_bsl_revc/ezdsp5535_v1/c55xx_csl/ccs_v4.0_examples/us
    4516                      .dwattr $C$DW$399, DW_AT_TI_begin_line(0x2d6)
    4517                      .dwattr $C$DW$399, DW_AT_TI_end_line(0x2d6)
    4518              $C$DW$400       .dwtag  DW_TAG_TI_loop_range
    4519                      .dwattr $C$DW$400, DW_AT_low_pc($C$DW$L$_CSL_usbPollTest$119$B)
    4520                      .dwattr $C$DW$400, DW_AT_high_pc($C$DW$L$_CSL_usbPollTest$119$E)
    4521                      .dwendtag $C$DW$399
    4522              
    4523                      .dwendtag $C$DW$311
    4524              
    4525                      .dwattr $C$DW$233, DW_AT_TI_end_file("../c5535_bsl_revc/ezdsp5535_v1/c55xx_csl/ccs_v4.0_examples/usb/
    4526                      .dwattr $C$DW$233, DW_AT_TI_end_line(0x2e2)
    4527                      .dwattr $C$DW$233, DW_AT_TI_end_column(0x01)
    4528                      .dwendentry
    4529                      .dwendtag $C$DW$233
TMS320C55x Assembler PC v4.4.1 Sat Sep 29 23:08:33 2018

Tools Copyright (c) 1996-2012 Texas Instruments Incorporated
csl_usb_poll_example.asm                                             PAGE  108

    4530              
    4531 001243               .sect   ".text"
    4532                      .align 4
    4533                      .global _CSL_suspendCallBack
    4534              
    4535              $C$DW$401       .dwtag  DW_TAG_subprogram, DW_AT_name("CSL_suspendCallBack")
    4536                      .dwattr $C$DW$401, DW_AT_low_pc(_CSL_suspendCallBack)
    4537                      .dwattr $C$DW$401, DW_AT_high_pc(0x00)
    4538                      .dwattr $C$DW$401, DW_AT_TI_symbol_name("_CSL_suspendCallBack")
    4539                      .dwattr $C$DW$401, DW_AT_external
    4540                      .dwattr $C$DW$401, DW_AT_TI_begin_file("../c5535_bsl_revc/ezdsp5535_v1/c55xx_csl/ccs_v4.0_examples/us
    4541                      .dwattr $C$DW$401, DW_AT_TI_begin_line(0x2ec)
    4542                      .dwattr $C$DW$401, DW_AT_TI_begin_column(0x06)
    4543                      .dwattr $C$DW$401, DW_AT_TI_max_frame_size(0x04)
    4544                      .dwpsn  file "../c5535_bsl_revc/ezdsp5535_v1/c55xx_csl/ccs_v4.0_examples/usb/CSL_USB_PollExample/csl_
    4545              
    4546                      .dwfde $C$DW$CIE, _CSL_suspendCallBack
    4547              $C$DW$402       .dwtag  DW_TAG_formal_parameter, DW_AT_name("status")
    4548                      .dwattr $C$DW$402, DW_AT_TI_symbol_name("_status")
    4549                      .dwattr $C$DW$402, DW_AT_type(*$C$DW$T$89)
    4550                      .dwattr $C$DW$402, DW_AT_location[DW_OP_reg12]
    4551              ;*******************************************************************************
    4552              ;* FUNCTION NAME: CSL_suspendCallBack                                          *
    4553              ;*                                                                             *
    4554              ;*   Function Uses Regs : T0,AR3,XAR3,SP,M40,SATA,SATD,RDM,FRCT,SMUL           *
    4555              ;*   Stack Frame        : Compact (No Frame Pointer, w/ debug)                 *
    4556              ;*   Total Frame Size   : 4 words                                              *
    4557              ;*                        (1 return address/alignment)                         *
    4558              ;*                        (2 function parameters)                              *
    4559              ;*                        (1 local values)                                     *
    4560              ;*   Min System Stack   : 1 word                                               *
    4561              ;*******************************************************************************
    4562 001244       _CSL_suspendCallBack:
    4563                      .dwcfi  cfa_offset, 1
    4564                      .dwcfi  save_reg_to_mem, 91, -1
    4565 001244 4EFD          AADD #-3, SP
    4566                      .dwcfi  cfa_offset, 4
    4567              $C$DW$403       .dwtag  DW_TAG_variable, DW_AT_name("status")
    4568                      .dwattr $C$DW$403, DW_AT_TI_symbol_name("_status")
    4569                      .dwattr $C$DW$403, DW_AT_type(*$C$DW$T$89)
    4570                      .dwattr $C$DW$403, DW_AT_location[DW_OP_bregx 0x24 2]
    4571 001246 C404          MOV T0, *SP(#2) ; |749| 
    4572                      .dwpsn  file "../c5535_bsl_revc/ezdsp5535_v1/c55xx_csl/ccs_v4.0_examples/usb/CSL_USB_PollExample/csl_
    4573 001248 EC31          AMOV #$C$FSL17, XAR3 ; |750| 
         00124a BE00 
         00124c 0172+
    4574 00124e EB00          MOV XAR3, dbl(*SP(#0))
         001250 B5   
    4575              $C$DW$404       .dwtag  DW_TAG_TI_branch
    4576                      .dwattr $C$DW$404, DW_AT_low_pc(0x00)
    4577                      .dwattr $C$DW$404, DW_AT_name("_printf")
    4578                      .dwattr $C$DW$404, DW_AT_TI_call
    4579 001251 6C00          CALL #_printf ; |750| 
         001253 0000!
    4580                                                      ; call occurs [#_printf] ; |750| 
TMS320C55x Assembler PC v4.4.1 Sat Sep 29 23:08:33 2018

Tools Copyright (c) 1996-2012 Texas Instruments Incorporated
csl_usb_poll_example.asm                                             PAGE  109

    4581                      .dwpsn  file "../c5535_bsl_revc/ezdsp5535_v1/c55xx_csl/ccs_v4.0_examples/usb/CSL_USB_PollExample/csl_
    4582 001255 4E03          AADD #3, SP
    4583                      .dwcfi  cfa_offset, 1
    4584              $C$DW$405       .dwtag  DW_TAG_TI_branch
    4585                      .dwattr $C$DW$405, DW_AT_low_pc(0x00)
    4586                      .dwattr $C$DW$405, DW_AT_TI_return
    4587 001257 4804          RET
    4588                                                      ; return occurs
    4589                      .dwattr $C$DW$401, DW_AT_TI_end_file("../c5535_bsl_revc/ezdsp5535_v1/c55xx_csl/ccs_v4.0_examples/usb/
    4590                      .dwattr $C$DW$401, DW_AT_TI_end_line(0x2ef)
    4591                      .dwattr $C$DW$401, DW_AT_TI_end_column(0x01)
    4592                      .dwendentry
    4593                      .dwendtag $C$DW$401
    4594              
    4595 001259               .sect   ".text"
    4596                      .align 4
    4597                      .global _CSL_selfWakeupCallBack
    4598              
    4599              $C$DW$406       .dwtag  DW_TAG_subprogram, DW_AT_name("CSL_selfWakeupCallBack")
    4600                      .dwattr $C$DW$406, DW_AT_low_pc(_CSL_selfWakeupCallBack)
    4601                      .dwattr $C$DW$406, DW_AT_high_pc(0x00)
    4602                      .dwattr $C$DW$406, DW_AT_TI_symbol_name("_CSL_selfWakeupCallBack")
    4603                      .dwattr $C$DW$406, DW_AT_external
    4604                      .dwattr $C$DW$406, DW_AT_TI_begin_file("../c5535_bsl_revc/ezdsp5535_v1/c55xx_csl/ccs_v4.0_examples/us
    4605                      .dwattr $C$DW$406, DW_AT_TI_begin_line(0x2fe)
    4606                      .dwattr $C$DW$406, DW_AT_TI_begin_column(0x06)
    4607                      .dwattr $C$DW$406, DW_AT_TI_max_frame_size(0x04)
    4608                      .dwpsn  file "../c5535_bsl_revc/ezdsp5535_v1/c55xx_csl/ccs_v4.0_examples/usb/CSL_USB_PollExample/csl_
    4609              
    4610                      .dwfde $C$DW$CIE, _CSL_selfWakeupCallBack
    4611              $C$DW$407       .dwtag  DW_TAG_formal_parameter, DW_AT_name("status")
    4612                      .dwattr $C$DW$407, DW_AT_TI_symbol_name("_status")
    4613                      .dwattr $C$DW$407, DW_AT_type(*$C$DW$T$89)
    4614                      .dwattr $C$DW$407, DW_AT_location[DW_OP_reg12]
    4615              ;*******************************************************************************
    4616              ;* FUNCTION NAME: CSL_selfWakeupCallBack                                       *
    4617              ;*                                                                             *
    4618              ;*   Function Uses Regs : T0,AR3,XAR3,SP,M40,SATA,SATD,RDM,FRCT,SMUL           *
    4619              ;*   Stack Frame        : Compact (No Frame Pointer, w/ debug)                 *
    4620              ;*   Total Frame Size   : 4 words                                              *
    4621              ;*                        (1 return address/alignment)                         *
    4622              ;*                        (2 function parameters)                              *
    4623              ;*                        (1 local values)                                     *
    4624              ;*   Min System Stack   : 1 word                                               *
    4625              ;*******************************************************************************
    4626 00125c       _CSL_selfWakeupCallBack:
    4627                      .dwcfi  cfa_offset, 1
    4628                      .dwcfi  save_reg_to_mem, 91, -1
    4629 00125c 4EFD          AADD #-3, SP
    4630                      .dwcfi  cfa_offset, 4
    4631              $C$DW$408       .dwtag  DW_TAG_variable, DW_AT_name("status")
    4632                      .dwattr $C$DW$408, DW_AT_TI_symbol_name("_status")
    4633                      .dwattr $C$DW$408, DW_AT_type(*$C$DW$T$89)
    4634                      .dwattr $C$DW$408, DW_AT_location[DW_OP_bregx 0x24 2]
    4635 00125e C404          MOV T0, *SP(#2) ; |767| 
TMS320C55x Assembler PC v4.4.1 Sat Sep 29 23:08:33 2018

Tools Copyright (c) 1996-2012 Texas Instruments Incorporated
csl_usb_poll_example.asm                                             PAGE  110

    4636                      .dwpsn  file "../c5535_bsl_revc/ezdsp5535_v1/c55xx_csl/ccs_v4.0_examples/usb/CSL_USB_PollExample/csl_
    4637 001260 EC31          AMOV #$C$FSL18, XAR3 ; |768| 
         001262 BE00 
         001264 018A+
    4638 001266 EB00          MOV XAR3, dbl(*SP(#0))
         001268 B5   
    4639              $C$DW$409       .dwtag  DW_TAG_TI_branch
    4640                      .dwattr $C$DW$409, DW_AT_low_pc(0x00)
    4641                      .dwattr $C$DW$409, DW_AT_name("_printf")
    4642                      .dwattr $C$DW$409, DW_AT_TI_call
    4643 001269 6C00          CALL #_printf ; |768| 
         00126b 0000!
    4644                                                      ; call occurs [#_printf] ; |768| 
    4645                      .dwpsn  file "../c5535_bsl_revc/ezdsp5535_v1/c55xx_csl/ccs_v4.0_examples/usb/CSL_USB_PollExample/csl_
    4646 00126d E631          MOV #1, *(#_selfWakeupServiced) ; |769| 
         00126f 0100 
         001271 0006-
    4647                      .dwpsn  file "../c5535_bsl_revc/ezdsp5535_v1/c55xx_csl/ccs_v4.0_examples/usb/CSL_USB_PollExample/csl_
    4648 001273 4E03          AADD #3, SP
    4649                      .dwcfi  cfa_offset, 1
    4650              $C$DW$410       .dwtag  DW_TAG_TI_branch
    4651                      .dwattr $C$DW$410, DW_AT_low_pc(0x00)
    4652                      .dwattr $C$DW$410, DW_AT_TI_return
    4653 001275 4804          RET
    4654                                                      ; return occurs
    4655                      .dwattr $C$DW$406, DW_AT_TI_end_file("../c5535_bsl_revc/ezdsp5535_v1/c55xx_csl/ccs_v4.0_examples/usb/
    4656                      .dwattr $C$DW$406, DW_AT_TI_end_line(0x302)
    4657                      .dwattr $C$DW$406, DW_AT_TI_end_column(0x01)
    4658                      .dwendentry
    4659                      .dwendtag $C$DW$406
    4660              
    4661 001277               .sect   ".text"
    4662                      .align 4
    4663              
    4664              $C$DW$411       .dwtag  DW_TAG_subprogram, DW_AT_name("USB_delay")
    4665                      .dwattr $C$DW$411, DW_AT_low_pc(_USB_delay)
    4666                      .dwattr $C$DW$411, DW_AT_high_pc(0x00)
    4667                      .dwattr $C$DW$411, DW_AT_TI_symbol_name("_USB_delay")
    4668                      .dwattr $C$DW$411, DW_AT_TI_begin_file("../c5535_bsl_revc/ezdsp5535_v1/c55xx_csl/ccs_v4.0_examples/us
    4669                      .dwattr $C$DW$411, DW_AT_TI_begin_line(0x30b)
    4670                      .dwattr $C$DW$411, DW_AT_TI_begin_column(0x0d)
    4671                      .dwattr $C$DW$411, DW_AT_TI_max_frame_size(0x0a)
    4672                      .dwpsn  file "../c5535_bsl_revc/ezdsp5535_v1/c55xx_csl/ccs_v4.0_examples/usb/CSL_USB_PollExample/csl_
    4673              
    4674                      .dwfde $C$DW$CIE, _USB_delay
    4675              $C$DW$412       .dwtag  DW_TAG_formal_parameter, DW_AT_name("mSecs")
    4676                      .dwattr $C$DW$412, DW_AT_TI_symbol_name("_mSecs")
    4677                      .dwattr $C$DW$412, DW_AT_type(*$C$DW$T$97)
    4678                      .dwattr $C$DW$412, DW_AT_location[DW_OP_reg0]
    4679              ;*******************************************************************************
    4680              ;* FUNCTION NAME: USB_delay                                                    *
    4681              ;*                                                                             *
    4682              ;*   Function Uses Regs : AC0,AC0,AC1,AC1,AR3,XAR3,SP,CARRY,TC1,M40,SATA,SATD, *
    4683              ;*                        RDM,FRCT,SMUL                                        *
    4684              ;*   Stack Frame        : Compact (No Frame Pointer, w/ debug)                 *
TMS320C55x Assembler PC v4.4.1 Sat Sep 29 23:08:33 2018

Tools Copyright (c) 1996-2012 Texas Instruments Incorporated
csl_usb_poll_example.asm                                             PAGE  111

    4685              ;*   Total Frame Size   : 10 words                                             *
    4686              ;*                        (2 return address/alignment)                         *
    4687              ;*                        (8 local values)                                     *
    4688              ;*   Min System Stack   : 1 word                                               *
    4689              ;*******************************************************************************
    4690 001278       _USB_delay:
    4691                      .dwcfi  cfa_offset, 1
    4692                      .dwcfi  save_reg_to_mem, 91, -1
    4693 001278 4EF7          AADD #-9, SP
    4694                      .dwcfi  cfa_offset, 10
    4695              $C$DW$413       .dwtag  DW_TAG_variable, DW_AT_name("mSecs")
    4696                      .dwattr $C$DW$413, DW_AT_TI_symbol_name("_mSecs")
    4697                      .dwattr $C$DW$413, DW_AT_type(*$C$DW$T$97)
    4698                      .dwattr $C$DW$413, DW_AT_location[DW_OP_bregx 0x24 0]
    4699              $C$DW$414       .dwtag  DW_TAG_variable, DW_AT_name("delay")
    4700                      .dwattr $C$DW$414, DW_AT_TI_symbol_name("_delay")
    4701                      .dwattr $C$DW$414, DW_AT_type(*$C$DW$T$267)
    4702                      .dwattr $C$DW$414, DW_AT_location[DW_OP_bregx 0x24 2]
    4703              $C$DW$415       .dwtag  DW_TAG_variable, DW_AT_name("msecCount")
    4704                      .dwattr $C$DW$415, DW_AT_TI_symbol_name("_msecCount")
    4705                      .dwattr $C$DW$415, DW_AT_type(*$C$DW$T$267)
    4706                      .dwattr $C$DW$415, DW_AT_location[DW_OP_bregx 0x24 4]
    4707              $C$DW$416       .dwtag  DW_TAG_variable, DW_AT_name("sysClk")
    4708                      .dwattr $C$DW$416, DW_AT_TI_symbol_name("_sysClk")
    4709                      .dwattr $C$DW$416, DW_AT_type(*$C$DW$T$267)
    4710                      .dwattr $C$DW$416, DW_AT_location[DW_OP_bregx 0x24 6]
    4711 00127a EB00          MOV AC0, dbl(*SP(#0)) ; |780| 
         00127c 08   
    4712                      .dwpsn  file "../c5535_bsl_revc/ezdsp5535_v1/c55xx_csl/ccs_v4.0_examples/usb/CSL_USB_PollExample/csl_
    4713 00127d EC31          AMOV #100000, XAR3 ; |785| 
         00127f BE01 
         001281 86A0 
    4714 001283 90B0          MOV XAR3, AC0
    4715 001285 EB0C          MOV AC0, dbl(*SP(#6)) ; |785| 
         001287 08   
    4716                      .dwpsn  file "../c5535_bsl_revc/ezdsp5535_v1/c55xx_csl/ccs_v4.0_examples/usb/CSL_USB_PollExample/csl_
    4717 001288 3C00          MOV #0, AC0 ; |787| 
    4718 00128a EB08          MOV AC0, dbl(*SP(#4)) ; |787| 
         00128c 08   
    4719 00128d 20            NOP
    4720 00128e 20            NOP
    4721                      .dwpsn  file "../c5535_bsl_revc/ezdsp5535_v1/c55xx_csl/ccs_v4.0_examples/usb/CSL_USB_PollExample/csl_
    4722 00128f ED00          MOV dbl(*SP(#0)), AC0 ; |787| 
         001291 08   
    4723 001292 ED08          MOV dbl(*SP(#4)), AC1 ; |787| 
         001294 18   
    4724 001295 1218          CMPU AC1 >= AC0, TC1 ; |787| 
         001297 04   
    4725 001298 0464          BCC $C$L110,TC1 ; |787| 
         00129a 43   
    4726                                                      ; branchcc occurs ; |787| 
    4727 00129b       $C$L107:    
    4728 00129b       $C$DW$L$_USB_delay$2$B:
    4729                      .dwpsn  file "../c5535_bsl_revc/ezdsp5535_v1/c55xx_csl/ccs_v4.0_examples/usb/CSL_USB_PollExample/csl_
    4730 00129b 3C00          MOV #0, AC0 ; |789| 
TMS320C55x Assembler PC v4.4.1 Sat Sep 29 23:08:33 2018

Tools Copyright (c) 1996-2012 Texas Instruments Incorporated
csl_usb_poll_example.asm                                             PAGE  112

    4731 00129d EB04          MOV AC0, dbl(*SP(#2)) ; |789| 
         00129f 08   
    4732 0012a0 20            NOP
    4733 0012a1 20            NOP
    4734 0012a2 20            NOP
    4735                      .dwpsn  file "../c5535_bsl_revc/ezdsp5535_v1/c55xx_csl/ccs_v4.0_examples/usb/CSL_USB_PollExample/csl_
    4736 0012a3 ED0C          MOV dbl(*SP(#6)), AC0 ; |789| 
         0012a5 08   
    4737 0012a6 ED04          MOV dbl(*SP(#2)), AC1 ; |789| 
         0012a8 18   
    4738 0012a9 1218          CMPU AC1 >= AC0, TC1 ; |789| 
         0012ab 04   
    4739 0012ac 0464          BCC $C$L109,TC1 ; |789| 
         0012ae 18   
    4740                                                      ; branchcc occurs ; |789| 
    4741 0012af       $C$DW$L$_USB_delay$2$E:
    4742 0012af       $C$L108:    
    4743 0012af       $C$DW$L$_USB_delay$3$B:
    4744                      .dwpsn  file "../c5535_bsl_revc/ezdsp5535_v1/c55xx_csl/ccs_v4.0_examples/usb/CSL_USB_PollExample/csl_
    4745 0012af 20            NOP
    4746                      .dwpsn  file "../c5535_bsl_revc/ezdsp5535_v1/c55xx_csl/ccs_v4.0_examples/usb/CSL_USB_PollExample/csl_
    4747 0012b0 ED04          MOV dbl(*SP(#2)), AC0 ; |789| 
         0012b2 08   
    4748 0012b3 4010          ADD #1, AC0 ; |789| 
    4749 0012b5 EB04          MOV AC0, dbl(*SP(#2)) ; |789| 
         0012b7 08   
    4750 0012b8 20            NOP
    4751 0012b9 20            NOP
    4752 0012ba 20            NOP
    4753                      .dwpsn  file "../c5535_bsl_revc/ezdsp5535_v1/c55xx_csl/ccs_v4.0_examples/usb/CSL_USB_PollExample/csl_
    4754 0012bb ED0C          MOV dbl(*SP(#6)), AC0 ; |789| 
         0012bd 08   
    4755 0012be ED04          MOV dbl(*SP(#2)), AC1 ; |789| 
         0012c0 18   
    4756 0012c1 1214          CMPU AC1 < AC0, TC1 ; |789| 
         0012c3 04   
    4757 0012c4 0464          BCC $C$L108,TC1 ; |789| 
         0012c6 E8   
    4758                                                      ; branchcc occurs ; |789| 
    4759 0012c7       $C$DW$L$_USB_delay$3$E:
    4760 0012c7       $C$L109:    
    4761 0012c7       $C$DW$L$_USB_delay$4$B:
    4762                      .dwpsn  file "../c5535_bsl_revc/ezdsp5535_v1/c55xx_csl/ccs_v4.0_examples/usb/CSL_USB_PollExample/csl_
    4763 0012c7 ED08          MOV dbl(*SP(#4)), AC0 ; |787| 
         0012c9 08   
    4764 0012ca 4010          ADD #1, AC0 ; |787| 
    4765 0012cc EB08          MOV AC0, dbl(*SP(#4)) ; |787| 
         0012ce 08   
    4766 0012cf 20            NOP
    4767 0012d0 20            NOP
    4768 0012d1 20            NOP
    4769                      .dwpsn  file "../c5535_bsl_revc/ezdsp5535_v1/c55xx_csl/ccs_v4.0_examples/usb/CSL_USB_PollExample/csl_
    4770 0012d2 ED08          MOV dbl(*SP(#4)), AC1 ; |787| 
         0012d4 18   
    4771 0012d5 ED00          MOV dbl(*SP(#0)), AC0 ; |787| 
TMS320C55x Assembler PC v4.4.1 Sat Sep 29 23:08:33 2018

Tools Copyright (c) 1996-2012 Texas Instruments Incorporated
csl_usb_poll_example.asm                                             PAGE  113

         0012d7 08   
    4772 0012d8 1214          CMPU AC1 < AC0, TC1 ; |787| 
         0012da 04   
    4773 0012db 0464          BCC $C$L107,TC1 ; |787| 
         0012dd BD   
    4774                                                      ; branchcc occurs ; |787| 
    4775 0012de       $C$DW$L$_USB_delay$4$E:
    4776                      .dwpsn  file "../c5535_bsl_revc/ezdsp5535_v1/c55xx_csl/ccs_v4.0_examples/usb/CSL_USB_PollExample/csl_
    4777 0012de       $C$L110:    
    4778 0012de 4E09          AADD #9, SP
    4779                      .dwcfi  cfa_offset, 1
    4780              $C$DW$417       .dwtag  DW_TAG_TI_branch
    4781                      .dwattr $C$DW$417, DW_AT_low_pc(0x00)
    4782                      .dwattr $C$DW$417, DW_AT_TI_return
    4783 0012e0 4804          RET
    4784                                                      ; return occurs
    4785              
    4786              $C$DW$418       .dwtag  DW_TAG_TI_loop
    4787                      .dwattr $C$DW$418, DW_AT_name("F:\eZdsp_DBG\tmp1\c55x-sim2\foo\Debug\csl_usb_poll_example.asm:$C$L107
    4788                      .dwattr $C$DW$418, DW_AT_TI_begin_file("../c5535_bsl_revc/ezdsp5535_v1/c55xx_csl/ccs_v4.0_examples/us
    4789                      .dwattr $C$DW$418, DW_AT_TI_begin_line(0x313)
    4790                      .dwattr $C$DW$418, DW_AT_TI_end_line(0x319)
    4791              $C$DW$419       .dwtag  DW_TAG_TI_loop_range
    4792                      .dwattr $C$DW$419, DW_AT_low_pc($C$DW$L$_USB_delay$2$B)
    4793                      .dwattr $C$DW$419, DW_AT_high_pc($C$DW$L$_USB_delay$2$E)
    4794              $C$DW$420       .dwtag  DW_TAG_TI_loop_range
    4795                      .dwattr $C$DW$420, DW_AT_low_pc($C$DW$L$_USB_delay$4$B)
    4796                      .dwattr $C$DW$420, DW_AT_high_pc($C$DW$L$_USB_delay$4$E)
    4797              
    4798              $C$DW$421       .dwtag  DW_TAG_TI_loop
    4799                      .dwattr $C$DW$421, DW_AT_name("F:\eZdsp_DBG\tmp1\c55x-sim2\foo\Debug\csl_usb_poll_example.asm:$C$L108
    4800                      .dwattr $C$DW$421, DW_AT_TI_begin_file("../c5535_bsl_revc/ezdsp5535_v1/c55xx_csl/ccs_v4.0_examples/us
    4801                      .dwattr $C$DW$421, DW_AT_TI_begin_line(0x315)
    4802                      .dwattr $C$DW$421, DW_AT_TI_end_line(0x318)
    4803              $C$DW$422       .dwtag  DW_TAG_TI_loop_range
    4804                      .dwattr $C$DW$422, DW_AT_low_pc($C$DW$L$_USB_delay$3$B)
    4805                      .dwattr $C$DW$422, DW_AT_high_pc($C$DW$L$_USB_delay$3$E)
    4806                      .dwendtag $C$DW$421
    4807              
    4808                      .dwendtag $C$DW$418
    4809              
    4810                      .dwattr $C$DW$411, DW_AT_TI_end_file("../c5535_bsl_revc/ezdsp5535_v1/c55xx_csl/ccs_v4.0_examples/usb/
    4811                      .dwattr $C$DW$411, DW_AT_TI_end_line(0x31a)
    4812                      .dwattr $C$DW$411, DW_AT_TI_end_column(0x01)
    4813                      .dwendentry
    4814                      .dwendtag $C$DW$411
    4815              
    4816 0012e2               .sect   ".text"
    4817                      .align 4
    4818                      .global _CSL_configSarForSelfWakeup
    4819              
    4820              $C$DW$423       .dwtag  DW_TAG_subprogram, DW_AT_name("CSL_configSarForSelfWakeup")
    4821                      .dwattr $C$DW$423, DW_AT_low_pc(_CSL_configSarForSelfWakeup)
    4822                      .dwattr $C$DW$423, DW_AT_high_pc(0x00)
    4823                      .dwattr $C$DW$423, DW_AT_TI_symbol_name("_CSL_configSarForSelfWakeup")
TMS320C55x Assembler PC v4.4.1 Sat Sep 29 23:08:33 2018

Tools Copyright (c) 1996-2012 Texas Instruments Incorporated
csl_usb_poll_example.asm                                             PAGE  114

    4824                      .dwattr $C$DW$423, DW_AT_external
    4825                      .dwattr $C$DW$423, DW_AT_type(*$C$DW$T$89)
    4826                      .dwattr $C$DW$423, DW_AT_TI_begin_file("../c5535_bsl_revc/ezdsp5535_v1/c55xx_csl/ccs_v4.0_examples/us
    4827                      .dwattr $C$DW$423, DW_AT_TI_begin_line(0x324)
    4828                      .dwattr $C$DW$423, DW_AT_TI_begin_column(0x0c)
    4829                      .dwattr $C$DW$423, DW_AT_TI_max_frame_size(0x0c)
    4830                      .dwpsn  file "../c5535_bsl_revc/ezdsp5535_v1/c55xx_csl/ccs_v4.0_examples/usb/CSL_USB_PollExample/csl_
    4831              
    4832                      .dwfde $C$DW$CIE, _CSL_configSarForSelfWakeup
    4833              ;*******************************************************************************
    4834              ;* FUNCTION NAME: CSL_configSarForSelfWakeup                                   *
    4835              ;*                                                                             *
    4836              ;*   Function Uses Regs : AC0,AC0,T0,AR0,XAR0,AR1,XAR1,AR3,XAR3,SP,M40,SATA,   *
    4837              ;*                        SATD,RDM,FRCT,SMUL                                   *
    4838              ;*   Stack Frame        : Compact (No Frame Pointer, w/ debug)                 *
    4839              ;*   Total Frame Size   : 12 words                                             *
    4840              ;*                        (2 return address/alignment)                         *
    4841              ;*                        (2 function parameters)                              *
    4842              ;*                        (8 local values)                                     *
    4843              ;*   Min System Stack   : 1 word                                               *
    4844              ;*******************************************************************************
    4845 0012e4       _CSL_configSarForSelfWakeup:
    4846                      .dwcfi  cfa_offset, 1
    4847                      .dwcfi  save_reg_to_mem, 91, -1
    4848 0012e4 4EF5          AADD #-11, SP
    4849                      .dwcfi  cfa_offset, 12
    4850              $C$DW$424       .dwtag  DW_TAG_variable, DW_AT_name("param")
    4851                      .dwattr $C$DW$424, DW_AT_TI_symbol_name("_param")
    4852                      .dwattr $C$DW$424, DW_AT_type(*$C$DW$T$153)
    4853                      .dwattr $C$DW$424, DW_AT_location[DW_OP_bregx 0x24 2]
    4854              $C$DW$425       .dwtag  DW_TAG_variable, DW_AT_name("result")
    4855                      .dwattr $C$DW$425, DW_AT_TI_symbol_name("_result")
    4856                      .dwattr $C$DW$425, DW_AT_type(*$C$DW$T$89)
    4857                      .dwattr $C$DW$425, DW_AT_location[DW_OP_bregx 0x24 6]
    4858              $C$DW$426       .dwtag  DW_TAG_variable, DW_AT_name("status")
    4859                      .dwattr $C$DW$426, DW_AT_TI_symbol_name("_status")
    4860                      .dwattr $C$DW$426, DW_AT_type(*$C$DW$T$89)
    4861                      .dwattr $C$DW$426, DW_AT_location[DW_OP_bregx 0x24 7]
    4862              $C$DW$427       .dwtag  DW_TAG_variable, DW_AT_name("flag")
    4863                      .dwattr $C$DW$427, DW_AT_TI_symbol_name("_flag")
    4864                      .dwattr $C$DW$427, DW_AT_type(*$C$DW$T$95)
    4865                      .dwattr $C$DW$427, DW_AT_location[DW_OP_bregx 0x24 8]
    4866              $C$DW$428       .dwtag  DW_TAG_variable, DW_AT_name("chanNo")
    4867                      .dwattr $C$DW$428, DW_AT_TI_symbol_name("_chanNo")
    4868                      .dwattr $C$DW$428, DW_AT_type(*$C$DW$T$10)
    4869                      .dwattr $C$DW$428, DW_AT_location[DW_OP_bregx 0x24 9]
    4870                      .dwpsn  file "../c5535_bsl_revc/ezdsp5535_v1/c55xx_csl/ccs_v4.0_examples/usb/CSL_USB_PollExample/csl_
    4871 0012e6 E610          MOV #1, *SP(#8) ; |812| 
         0012e8 01   
    4872                      .dwpsn  file "../c5535_bsl_revc/ezdsp5535_v1/c55xx_csl/ccs_v4.0_examples/usb/CSL_USB_PollExample/csl_
    4873 0012e9 E60C          MOV #1, *SP(#6) ; |814| 
         0012eb 01   
    4874                      .dwpsn  file "../c5535_bsl_revc/ezdsp5535_v1/c55xx_csl/ccs_v4.0_examples/usb/CSL_USB_PollExample/csl_
    4875              $C$DW$429       .dwtag  DW_TAG_TI_branch
    4876                      .dwattr $C$DW$429, DW_AT_low_pc(0x00)
TMS320C55x Assembler PC v4.4.1 Sat Sep 29 23:08:33 2018

Tools Copyright (c) 1996-2012 Texas Instruments Incorporated
csl_usb_poll_example.asm                                             PAGE  115

    4877                      .dwattr $C$DW$429, DW_AT_name("_IRQ_globalDisable")
    4878                      .dwattr $C$DW$429, DW_AT_TI_call
    4879 0012ec 6C00          CALL #_IRQ_globalDisable ; |817| 
         0012ee 0000!
    4880                                                      ; call occurs [#_IRQ_globalDisable] ; |817| 
    4881                      .dwpsn  file "../c5535_bsl_revc/ezdsp5535_v1/c55xx_csl/ccs_v4.0_examples/usb/CSL_USB_PollExample/csl_
    4882 0012f0 7A00          MOV #(_VECSTART >> 16) << #16, AC0 ; |819| 
         0012f2 000A%
    4883 0012f4 7E00          OR #(_VECSTART & 0xffff), AC0, AC0 ; |819| 
         0012f6 0000%
    4884              $C$DW$430       .dwtag  DW_TAG_TI_branch
    4885                      .dwattr $C$DW$430, DW_AT_low_pc(0x00)
    4886                      .dwattr $C$DW$430, DW_AT_name("_IRQ_setVecs")
    4887                      .dwattr $C$DW$430, DW_AT_TI_call
    4888 0012f8 6C00          CALL #_IRQ_setVecs ; |819| 
         0012fa 0000!
    4889                                                      ; call occurs [#_IRQ_setVecs] ; |819| 
    4890                      .dwpsn  file "../c5535_bsl_revc/ezdsp5535_v1/c55xx_csl/ccs_v4.0_examples/usb/CSL_USB_PollExample/csl_
    4891              $C$DW$431       .dwtag  DW_TAG_TI_branch
    4892                      .dwattr $C$DW$431, DW_AT_low_pc(0x00)
    4893                      .dwattr $C$DW$431, DW_AT_name("_SAR_init")
    4894                      .dwattr $C$DW$431, DW_AT_TI_call
    4895 0012fc 6C00          CALL #_SAR_init ; |822| 
         0012fe 0000!
    4896                                                      ; call occurs [#_SAR_init] ; |822| 
    4897 001300 C40E          MOV T0, *SP(#7) ; |822| 
    4898                      .dwpsn  file "../c5535_bsl_revc/ezdsp5535_v1/c55xx_csl/ccs_v4.0_examples/usb/CSL_USB_PollExample/csl_
    4899 001302 2249          MOV T0, AR1
    4900 001304 0409          BCC $C$L111,AR1 == #0 ; |823| 
         001306 12   
    4901                                                      ; branchcc occurs ; |823| 
    4902                      .dwpsn  file "../c5535_bsl_revc/ezdsp5535_v1/c55xx_csl/ccs_v4.0_examples/usb/CSL_USB_PollExample/csl_
    4903 001307 EC31          AMOV #$C$FSL19, XAR3 ; |825| 
         001309 BE00 
         00130b 01A6+
    4904 00130d EB00          MOV XAR3, dbl(*SP(#0))
         00130f B5   
    4905              $C$DW$432       .dwtag  DW_TAG_TI_branch
    4906                      .dwattr $C$DW$432, DW_AT_low_pc(0x00)
    4907                      .dwattr $C$DW$432, DW_AT_name("_printf")
    4908                      .dwattr $C$DW$432, DW_AT_TI_call
    4909 001310 6C00          CALL #_printf ; |825| 
         001312 0000!
    4910                                                      ; call occurs [#_printf] ; |825| 
    4911                      .dwpsn  file "../c5535_bsl_revc/ezdsp5535_v1/c55xx_csl/ccs_v4.0_examples/usb/CSL_USB_PollExample/csl_
    4912 001314 A40C          MOV *SP(#6), T0 ; |826| 
    4913 001316 0601          B $C$L118 ; |826| 
         001318 20   
    4914                                                      ; branch occurs ; |826| 
    4915 001319       $C$L111:    
    4916                      .dwpsn  file "../c5535_bsl_revc/ezdsp5535_v1/c55xx_csl/ccs_v4.0_examples/usb/CSL_USB_PollExample/csl_
    4917 001319 EC31          AMOV #_SarObj, XAR0 ; |830| 
         00131b 8E00 
         00131d 0000-
    4918              $C$DW$433       .dwtag  DW_TAG_TI_branch
TMS320C55x Assembler PC v4.4.1 Sat Sep 29 23:08:33 2018

Tools Copyright (c) 1996-2012 Texas Instruments Incorporated
csl_usb_poll_example.asm                                             PAGE  116

    4919                      .dwattr $C$DW$433, DW_AT_low_pc(0x00)
    4920                      .dwattr $C$DW$433, DW_AT_name("_SAR_chanOpen")
    4921                      .dwattr $C$DW$433, DW_AT_TI_call
    4922              
    4923 00131f 6C00          CALL #_SAR_chanOpen ; |830| 
         001321 0000!
    4924 001323 3D34  ||      MOV #3, T0
    4925              
    4926                                                      ; call occurs [#_SAR_chanOpen] ; |830| 
    4927 001325 C40E          MOV T0, *SP(#7) ; |830| 
    4928                      .dwpsn  file "../c5535_bsl_revc/ezdsp5535_v1/c55xx_csl/ccs_v4.0_examples/usb/CSL_USB_PollExample/csl_
    4929 001327 2249          MOV T0, AR1
    4930 001329 0409          BCC $C$L112,AR1 == #0 ; |831| 
         00132b 12   
    4931                                                      ; branchcc occurs ; |831| 
    4932                      .dwpsn  file "../c5535_bsl_revc/ezdsp5535_v1/c55xx_csl/ccs_v4.0_examples/usb/CSL_USB_PollExample/csl_
    4933 00132c EC31          AMOV #$C$FSL20, XAR3 ; |833| 
         00132e BE00 
         001330 01BA+
    4934 001332 EB00          MOV XAR3, dbl(*SP(#0))
         001334 B5   
    4935              $C$DW$434       .dwtag  DW_TAG_TI_branch
    4936                      .dwattr $C$DW$434, DW_AT_low_pc(0x00)
    4937                      .dwattr $C$DW$434, DW_AT_name("_printf")
    4938                      .dwattr $C$DW$434, DW_AT_TI_call
    4939 001335 6C00          CALL #_printf ; |833| 
         001337 0000!
    4940                                                      ; call occurs [#_printf] ; |833| 
    4941                      .dwpsn  file "../c5535_bsl_revc/ezdsp5535_v1/c55xx_csl/ccs_v4.0_examples/usb/CSL_USB_PollExample/csl_
    4942 001339 A40C          MOV *SP(#6), T0 ; |834| 
    4943 00133b 0600          B $C$L118 ; |834| 
         00133d FB   
    4944                                                      ; branch occurs ; |834| 
    4945 00133e       $C$L112:    
    4946                      .dwpsn  file "../c5535_bsl_revc/ezdsp5535_v1/c55xx_csl/ccs_v4.0_examples/usb/CSL_USB_PollExample/csl_
    4947 00133e EC31          AMOV #_SarObj, XAR3 ; |836| 
         001340 BE00 
         001342 0000-
    4948 001344 EB31          MOV XAR3, dbl(*(#_SarHandle))
         001346 B500 
         001348 0004-
    4949                      .dwpsn  file "../c5535_bsl_revc/ezdsp5535_v1/c55xx_csl/ccs_v4.0_examples/usb/CSL_USB_PollExample/csl_
    4950 00134a ED31          MOV dbl(*(#_SarHandle)), XAR0
         00134c 8F00 
         00134e 0004-
    4951              $C$DW$435       .dwtag  DW_TAG_TI_branch
    4952                      .dwattr $C$DW$435, DW_AT_low_pc(0x00)
    4953                      .dwattr $C$DW$435, DW_AT_name("_SAR_chanInit")
    4954                      .dwattr $C$DW$435, DW_AT_TI_call
    4955 001350 6C00          CALL #_SAR_chanInit ; |839| 
         001352 0000!
    4956                                                      ; call occurs [#_SAR_chanInit] ; |839| 
    4957 001354 C40E          MOV T0, *SP(#7) ; |839| 
    4958                      .dwpsn  file "../c5535_bsl_revc/ezdsp5535_v1/c55xx_csl/ccs_v4.0_examples/usb/CSL_USB_PollExample/csl_
    4959 001356 2249          MOV T0, AR1
TMS320C55x Assembler PC v4.4.1 Sat Sep 29 23:08:33 2018

Tools Copyright (c) 1996-2012 Texas Instruments Incorporated
csl_usb_poll_example.asm                                             PAGE  117

    4960 001358 0409          BCC $C$L113,AR1 == #0 ; |840| 
         00135a 12   
    4961                                                      ; branchcc occurs ; |840| 
    4962                      .dwpsn  file "../c5535_bsl_revc/ezdsp5535_v1/c55xx_csl/ccs_v4.0_examples/usb/CSL_USB_PollExample/csl_
    4963 00135b EC31          AMOV #$C$FSL21, XAR3 ; |842| 
         00135d BE00 
         00135f 01D2+
    4964 001361 EB00          MOV XAR3, dbl(*SP(#0))
         001363 B5   
    4965              $C$DW$436       .dwtag  DW_TAG_TI_branch
    4966                      .dwattr $C$DW$436, DW_AT_low_pc(0x00)
    4967                      .dwattr $C$DW$436, DW_AT_name("_printf")
    4968                      .dwattr $C$DW$436, DW_AT_TI_call
    4969 001364 6C00          CALL #_printf ; |842| 
         001366 0000!
    4970                                                      ; call occurs [#_printf] ; |842| 
    4971                      .dwpsn  file "../c5535_bsl_revc/ezdsp5535_v1/c55xx_csl/ccs_v4.0_examples/usb/CSL_USB_PollExample/csl_
    4972 001368 A40C          MOV *SP(#6), T0 ; |843| 
    4973 00136a 0600          B $C$L118 ; |843| 
         00136c CC   
    4974                                                      ; branch occurs ; |843| 
    4975 00136d       $C$L113:    
    4976                      .dwpsn  file "../c5535_bsl_revc/ezdsp5535_v1/c55xx_csl/ccs_v4.0_examples/usb/CSL_USB_PollExample/csl_
    4977              $C$DW$437       .dwtag  DW_TAG_TI_branch
    4978                      .dwattr $C$DW$437, DW_AT_low_pc(0x00)
    4979                      .dwattr $C$DW$437, DW_AT_name("_IRQ_clear")
    4980                      .dwattr $C$DW$437, DW_AT_TI_call
    4981              
    4982 00136d 6C00          CALL #_IRQ_clear ; |847| 
         00136f 0000!
    4983 001371 3DD4  ||      MOV #13, T0
    4984              
    4985                                                      ; call occurs [#_IRQ_clear] ; |847| 
    4986                      .dwpsn  file "../c5535_bsl_revc/ezdsp5535_v1/c55xx_csl/ccs_v4.0_examples/usb/CSL_USB_PollExample/csl_
    4987 001373 EC10          AMAR *SP(#8), XAR0
         001375 8E   
    4988              $C$DW$438       .dwtag  DW_TAG_TI_branch
    4989                      .dwattr $C$DW$438, DW_AT_low_pc(0x00)
    4990                      .dwattr $C$DW$438, DW_AT_name("_IRQ_test")
    4991                      .dwattr $C$DW$438, DW_AT_TI_call
    4992              
    4993 001376 6C00          CALL #_IRQ_test ; |848| 
         001378 0000!
    4994 00137a 3DD4  ||      MOV #13, T0
    4995              
    4996                                                      ; call occurs [#_IRQ_test] ; |848| 
    4997                      .dwpsn  file "../c5535_bsl_revc/ezdsp5535_v1/c55xx_csl/ccs_v4.0_examples/usb/CSL_USB_PollExample/csl_
    4998 00137c 7A00          MOV #(_sar_isr >> 16) << #16, AC0 ; |851| 
         00137e 000A%
    4999 001380 7E00          OR #(_sar_isr & 0xffff), AC0, AC0 ; |851| 
         001382 0000%
    5000              $C$DW$439       .dwtag  DW_TAG_TI_branch
    5001                      .dwattr $C$DW$439, DW_AT_low_pc(0x00)
    5002                      .dwattr $C$DW$439, DW_AT_name("_IRQ_plug")
    5003                      .dwattr $C$DW$439, DW_AT_TI_call
TMS320C55x Assembler PC v4.4.1 Sat Sep 29 23:08:33 2018

Tools Copyright (c) 1996-2012 Texas Instruments Incorporated
csl_usb_poll_example.asm                                             PAGE  118

    5004              
    5005 001384 6C00          CALL #_IRQ_plug ; |851| 
         001386 0000!
    5006 001388 3DD4  ||      MOV #13, T0
    5007              
    5008                                                      ; call occurs [#_IRQ_plug] ; |851| 
    5009                      .dwpsn  file "../c5535_bsl_revc/ezdsp5535_v1/c55xx_csl/ccs_v4.0_examples/usb/CSL_USB_PollExample/csl_
    5010 00138a E606          MOV #1, *SP(#3) ; |853| 
         00138c 01   
    5011                      .dwpsn  file "../c5535_bsl_revc/ezdsp5535_v1/c55xx_csl/ccs_v4.0_examples/usb/CSL_USB_PollExample/csl_
    5012 00138d E608          MOV #0, *SP(#4) ; |854| 
         00138f 00   
    5013                      .dwpsn  file "../c5535_bsl_revc/ezdsp5535_v1/c55xx_csl/ccs_v4.0_examples/usb/CSL_USB_PollExample/csl_
    5014 001390 E604          MOV #17, *SP(#2) ; |855| 
         001392 11   
    5015                      .dwpsn  file "../c5535_bsl_revc/ezdsp5535_v1/c55xx_csl/ccs_v4.0_examples/usb/CSL_USB_PollExample/csl_
    5016 001393 E60A          MOV #2, *SP(#5) ; |856| 
         001395 02   
    5017                      .dwpsn  file "../c5535_bsl_revc/ezdsp5535_v1/c55xx_csl/ccs_v4.0_examples/usb/CSL_USB_PollExample/csl_
    5018 001396 ED31          MOV dbl(*(#_SarHandle)), XAR0
         001398 8F00 
         00139a 0004-
    5019 00139c EC04          AMAR *SP(#2), XAR1
         00139e 9E   
    5020              $C$DW$440       .dwtag  DW_TAG_TI_branch
    5021                      .dwattr $C$DW$440, DW_AT_low_pc(0x00)
    5022                      .dwattr $C$DW$440, DW_AT_name("_SAR_chanSetup")
    5023                      .dwattr $C$DW$440, DW_AT_TI_call
    5024 00139f 6C00          CALL #_SAR_chanSetup ; |859| 
         0013a1 0000!
    5025                                                      ; call occurs [#_SAR_chanSetup] ; |859| 
    5026 0013a3 C40E          MOV T0, *SP(#7) ; |859| 
    5027                      .dwpsn  file "../c5535_bsl_revc/ezdsp5535_v1/c55xx_csl/ccs_v4.0_examples/usb/CSL_USB_PollExample/csl_
    5028 0013a5 2249          MOV T0, AR1
    5029 0013a7 0409          BCC $C$L114,AR1 == #0 ; |860| 
         0013a9 12   
    5030                                                      ; branchcc occurs ; |860| 
    5031                      .dwpsn  file "../c5535_bsl_revc/ezdsp5535_v1/c55xx_csl/ccs_v4.0_examples/usb/CSL_USB_PollExample/csl_
    5032 0013aa EC31          AMOV #$C$FSL22, XAR3 ; |862| 
         0013ac BE00 
         0013ae 01EA+
    5033 0013b0 EB00          MOV XAR3, dbl(*SP(#0))
         0013b2 B5   
    5034              $C$DW$441       .dwtag  DW_TAG_TI_branch
    5035                      .dwattr $C$DW$441, DW_AT_low_pc(0x00)
    5036                      .dwattr $C$DW$441, DW_AT_name("_printf")
    5037                      .dwattr $C$DW$441, DW_AT_TI_call
    5038 0013b3 6C00          CALL #_printf ; |862| 
         0013b5 0000!
    5039                                                      ; call occurs [#_printf] ; |862| 
    5040                      .dwpsn  file "../c5535_bsl_revc/ezdsp5535_v1/c55xx_csl/ccs_v4.0_examples/usb/CSL_USB_PollExample/csl_
    5041 0013b7 A40C          MOV *SP(#6), T0 ; |863| 
    5042 0013b9 0600          B $C$L118 ; |863| 
         0013bb 7D   
    5043                                                      ; branch occurs ; |863| 
TMS320C55x Assembler PC v4.4.1 Sat Sep 29 23:08:33 2018

Tools Copyright (c) 1996-2012 Texas Instruments Incorporated
csl_usb_poll_example.asm                                             PAGE  119

    5044 0013bc       $C$L114:    
    5045                      .dwpsn  file "../c5535_bsl_revc/ezdsp5535_v1/c55xx_csl/ccs_v4.0_examples/usb/CSL_USB_PollExample/csl_
    5046 0013bc ED31          MOV dbl(*(#_SarHandle)), XAR0
         0013be 8F00 
         0013c0 0004-
    5047              $C$DW$442       .dwtag  DW_TAG_TI_branch
    5048                      .dwattr $C$DW$442, DW_AT_low_pc(0x00)
    5049                      .dwattr $C$DW$442, DW_AT_name("_SAR_chanCycSet")
    5050                      .dwattr $C$DW$442, DW_AT_TI_call
    5051              
    5052 0013c2 6C00          CALL #_SAR_chanCycSet ; |867| 
         0013c4 0000!
    5053 0013c6 3D04  ||      MOV #0, T0
    5054              
    5055                                                      ; call occurs [#_SAR_chanCycSet] ; |867| 
    5056 0013c8 C40E          MOV T0, *SP(#7) ; |867| 
    5057                      .dwpsn  file "../c5535_bsl_revc/ezdsp5535_v1/c55xx_csl/ccs_v4.0_examples/usb/CSL_USB_PollExample/csl_
    5058 0013ca 2249          MOV T0, AR1
    5059 0013cc 0409          BCC $C$L115,AR1 == #0 ; |868| 
         0013ce 12   
    5060                                                      ; branchcc occurs ; |868| 
    5061                      .dwpsn  file "../c5535_bsl_revc/ezdsp5535_v1/c55xx_csl/ccs_v4.0_examples/usb/CSL_USB_PollExample/csl_
    5062 0013cf EC31          AMOV #$C$FSL23, XAR3 ; |870| 
         0013d1 BE00 
         0013d3 0204+
    5063 0013d5 EB00          MOV XAR3, dbl(*SP(#0))
         0013d7 B5   
    5064              $C$DW$443       .dwtag  DW_TAG_TI_branch
    5065                      .dwattr $C$DW$443, DW_AT_low_pc(0x00)
    5066                      .dwattr $C$DW$443, DW_AT_name("_printf")
    5067                      .dwattr $C$DW$443, DW_AT_TI_call
    5068 0013d8 6C00          CALL #_printf ; |870| 
         0013da 0000!
    5069                                                      ; call occurs [#_printf] ; |870| 
    5070                      .dwpsn  file "../c5535_bsl_revc/ezdsp5535_v1/c55xx_csl/ccs_v4.0_examples/usb/CSL_USB_PollExample/csl_
    5071 0013dc A40C          MOV *SP(#6), T0 ; |871| 
    5072 0013de 0600          B $C$L118 ; |871| 
         0013e0 58   
    5073                                                      ; branch occurs ; |871| 
    5074 0013e1       $C$L115:    
    5075                      .dwpsn  file "../c5535_bsl_revc/ezdsp5535_v1/c55xx_csl/ccs_v4.0_examples/usb/CSL_USB_PollExample/csl_
    5076 0013e1 EC12          AMAR *SP(#9), XAR1
         0013e3 9E   
    5077 0013e4 ED31          MOV dbl(*(#_SarHandle)), XAR0
         0013e6 8F00 
         0013e8 0004-
    5078              $C$DW$444       .dwtag  DW_TAG_TI_branch
    5079                      .dwattr $C$DW$444, DW_AT_low_pc(0x00)
    5080                      .dwattr $C$DW$444, DW_AT_name("_SAR_A2DMeasParamSet")
    5081                      .dwattr $C$DW$444, DW_AT_TI_call
    5082              
    5083 0013ea 6C00          CALL #_SAR_A2DMeasParamSet ; |875| 
         0013ec 0000!
    5084 0013ee 3D04  ||      MOV #0, T0
    5085              
TMS320C55x Assembler PC v4.4.1 Sat Sep 29 23:08:33 2018

Tools Copyright (c) 1996-2012 Texas Instruments Incorporated
csl_usb_poll_example.asm                                             PAGE  120

    5086                                                      ; call occurs [#_SAR_A2DMeasParamSet] ; |875| 
    5087 0013f0 C40E          MOV T0, *SP(#7) ; |875| 
    5088                      .dwpsn  file "../c5535_bsl_revc/ezdsp5535_v1/c55xx_csl/ccs_v4.0_examples/usb/CSL_USB_PollExample/csl_
    5089 0013f2 2249          MOV T0, AR1
    5090 0013f4 0409          BCC $C$L116,AR1 == #0 ; |876| 
         0013f6 11   
    5091                                                      ; branchcc occurs ; |876| 
    5092                      .dwpsn  file "../c5535_bsl_revc/ezdsp5535_v1/c55xx_csl/ccs_v4.0_examples/usb/CSL_USB_PollExample/csl_
    5093 0013f7 EC31          AMOV #$C$FSL24, XAR3 ; |878| 
         0013f9 BE00 
         0013fb 021E+
    5094 0013fd EB00          MOV XAR3, dbl(*SP(#0))
         0013ff B5   
    5095              $C$DW$445       .dwtag  DW_TAG_TI_branch
    5096                      .dwattr $C$DW$445, DW_AT_low_pc(0x00)
    5097                      .dwattr $C$DW$445, DW_AT_name("_printf")
    5098                      .dwattr $C$DW$445, DW_AT_TI_call
    5099 001400 6C00          CALL #_printf ; |878| 
         001402 0000!
    5100                                                      ; call occurs [#_printf] ; |878| 
    5101                      .dwpsn  file "../c5535_bsl_revc/ezdsp5535_v1/c55xx_csl/ccs_v4.0_examples/usb/CSL_USB_PollExample/csl_
    5102 001404 A40C          MOV *SP(#6), T0 ; |879| 
    5103 001406 4A31          B $C$L118 ; |879| 
    5104                                                      ; branch occurs ; |879| 
    5105 001408       $C$L116:    
    5106                      .dwpsn  file "../c5535_bsl_revc/ezdsp5535_v1/c55xx_csl/ccs_v4.0_examples/usb/CSL_USB_PollExample/csl_
    5107              $C$DW$446       .dwtag  DW_TAG_TI_branch
    5108                      .dwattr $C$DW$446, DW_AT_low_pc(0x00)
    5109                      .dwattr $C$DW$446, DW_AT_name("_IRQ_enable")
    5110                      .dwattr $C$DW$446, DW_AT_TI_call
    5111              
    5112 001408 6C00          CALL #_IRQ_enable ; |883| 
         00140a 0000!
    5113 00140c 3DD4  ||      MOV #13, T0
    5114              
    5115                                                      ; call occurs [#_IRQ_enable] ; |883| 
    5116                      .dwpsn  file "../c5535_bsl_revc/ezdsp5535_v1/c55xx_csl/ccs_v4.0_examples/usb/CSL_USB_PollExample/csl_
    5117              $C$DW$447       .dwtag  DW_TAG_TI_branch
    5118                      .dwattr $C$DW$447, DW_AT_low_pc(0x00)
    5119                      .dwattr $C$DW$447, DW_AT_name("_IRQ_globalEnable")
    5120                      .dwattr $C$DW$447, DW_AT_TI_call
    5121 00140e 6C00          CALL #_IRQ_globalEnable ; |884| 
         001410 0000!
    5122                                                      ; call occurs [#_IRQ_globalEnable] ; |884| 
    5123                      .dwpsn  file "../c5535_bsl_revc/ezdsp5535_v1/c55xx_csl/ccs_v4.0_examples/usb/CSL_USB_PollExample/csl_
    5124 001412 ED31          MOV dbl(*(#_SarHandle)), XAR0
         001414 8F00 
         001416 0004-
    5125              $C$DW$448       .dwtag  DW_TAG_TI_branch
    5126                      .dwattr $C$DW$448, DW_AT_low_pc(0x00)
    5127                      .dwattr $C$DW$448, DW_AT_name("_SAR_startConversion")
    5128                      .dwattr $C$DW$448, DW_AT_TI_call
    5129 001418 6C00          CALL #_SAR_startConversion ; |887| 
         00141a 0000!
    5130                                                      ; call occurs [#_SAR_startConversion] ; |887| 
TMS320C55x Assembler PC v4.4.1 Sat Sep 29 23:08:33 2018

Tools Copyright (c) 1996-2012 Texas Instruments Incorporated
csl_usb_poll_example.asm                                             PAGE  121

    5131 00141c C40E          MOV T0, *SP(#7) ; |887| 
    5132                      .dwpsn  file "../c5535_bsl_revc/ezdsp5535_v1/c55xx_csl/ccs_v4.0_examples/usb/CSL_USB_PollExample/csl_
    5133 00141e 2249          MOV T0, AR1
    5134 001420 0409          BCC $C$L117,AR1 == #0 ; |888| 
         001422 11   
    5135                                                      ; branchcc occurs ; |888| 
    5136                      .dwpsn  file "../c5535_bsl_revc/ezdsp5535_v1/c55xx_csl/ccs_v4.0_examples/usb/CSL_USB_PollExample/csl_
    5137 001423 EC31          AMOV #$C$FSL25, XAR3 ; |890| 
         001425 BE00 
         001427 023C+
    5138 001429 EB00          MOV XAR3, dbl(*SP(#0))
         00142b B5   
    5139              $C$DW$449       .dwtag  DW_TAG_TI_branch
    5140                      .dwattr $C$DW$449, DW_AT_low_pc(0x00)
    5141                      .dwattr $C$DW$449, DW_AT_name("_printf")
    5142                      .dwattr $C$DW$449, DW_AT_TI_call
    5143 00142c 6C00          CALL #_printf ; |890| 
         00142e 0000!
    5144                                                      ; call occurs [#_printf] ; |890| 
    5145                      .dwpsn  file "../c5535_bsl_revc/ezdsp5535_v1/c55xx_csl/ccs_v4.0_examples/usb/CSL_USB_PollExample/csl_
    5146 001430 A40C          MOV *SP(#6), T0 ; |891| 
    5147 001432 4A05          B $C$L118 ; |891| 
    5148                                                      ; branch occurs ; |891| 
    5149 001434       $C$L117:    
    5150                      .dwpsn  file "../c5535_bsl_revc/ezdsp5535_v1/c55xx_csl/ccs_v4.0_examples/usb/CSL_USB_PollExample/csl_
    5151 001434 E60C          MOV #0, *SP(#6) ; |894| 
         001436 00   
    5152                      .dwpsn  file "../c5535_bsl_revc/ezdsp5535_v1/c55xx_csl/ccs_v4.0_examples/usb/CSL_USB_PollExample/csl_
    5153 001437 A40C          MOV *SP(#6), T0 ; |895| 
    5154 001439       $C$L118:    
    5155                      .dwpsn  file "../c5535_bsl_revc/ezdsp5535_v1/c55xx_csl/ccs_v4.0_examples/usb/CSL_USB_PollExample/csl_
    5156 001439 4E0B          AADD #11, SP
    5157                      .dwcfi  cfa_offset, 1
    5158              $C$DW$450       .dwtag  DW_TAG_TI_branch
    5159                      .dwattr $C$DW$450, DW_AT_low_pc(0x00)
    5160                      .dwattr $C$DW$450, DW_AT_TI_return
    5161 00143b 4804          RET
    5162                                                      ; return occurs
    5163                      .dwattr $C$DW$423, DW_AT_TI_end_file("../c5535_bsl_revc/ezdsp5535_v1/c55xx_csl/ccs_v4.0_examples/usb/
    5164                      .dwattr $C$DW$423, DW_AT_TI_end_line(0x380)
    5165                      .dwattr $C$DW$423, DW_AT_TI_end_column(0x01)
    5166                      .dwendentry
    5167                      .dwendtag $C$DW$423
    5168              
    5169 000000               .sect   ".text:retain"
    5170                      .align 4
    5171                      .global _sar_isr
    5172              
    5173              $C$DW$451       .dwtag  DW_TAG_subprogram, DW_AT_name("sar_isr")
    5174                      .dwattr $C$DW$451, DW_AT_low_pc(_sar_isr)
    5175                      .dwattr $C$DW$451, DW_AT_high_pc(0x00)
    5176                      .dwattr $C$DW$451, DW_AT_TI_symbol_name("_sar_isr")
    5177                      .dwattr $C$DW$451, DW_AT_external
    5178                      .dwattr $C$DW$451, DW_AT_TI_begin_file("../c5535_bsl_revc/ezdsp5535_v1/c55xx_csl/ccs_v4.0_examples/us
    5179                      .dwattr $C$DW$451, DW_AT_TI_begin_line(0x38a)
TMS320C55x Assembler PC v4.4.1 Sat Sep 29 23:08:33 2018

Tools Copyright (c) 1996-2012 Texas Instruments Incorporated
csl_usb_poll_example.asm                                             PAGE  122

    5180                      .dwattr $C$DW$451, DW_AT_TI_begin_column(0x10)
    5181                      .dwattr $C$DW$451, DW_AT_TI_interrupt
    5182                      .dwattr $C$DW$451, DW_AT_TI_max_frame_size(0x2f)
    5183                      .dwpsn  file "../c5535_bsl_revc/ezdsp5535_v1/c55xx_csl/ccs_v4.0_examples/usb/CSL_USB_PollExample/csl_
    5184              
    5185                      .dwfde $C$DW$CIE, _sar_isr
    5186              ;*******************************************************************************
    5187              ;* INTERRUPT NAME: sar_isr                                                     *
    5188              ;*                                                                             *
    5189              ;*   Function Uses Regs : AC0,AC0,AC1,AC1,AC2,AC2,AC3,AC3,T0,T1,AR0,XAR0,AR1,  *
    5190              ;*                        XAR1,AR2,AR3,AR4,SP,BKC,BK03,BK47,ST1,ST2,ST3,BRC0,  *
    5191              ;*                        RSA0,REA0,BRS1,BRC1,RSA1,REA1,CSR,RPTC,CDP,TRN0,TRN1,*
    5192              ;*                        BSA01,BSA23,BSA45,BSA67,BSAC,TC1,M40,SATA,SATD,RDM,  *
    5193              ;*                        FRCT,SMUL                                            *
    5194              ;*   Save On Entry Regs : AC0,AC0,AC1,AC1,AC2,AC2,AC3,AC3,T0,T1,AR0,AR1,AR2,   *
    5195              ;*                        AR3,AR4,BKC,BK03,BK47,BRC0,RSA0,REA0,BRS1,BRC1,RSA1, *
    5196              ;*                        REA1,CSR,RPTC,CDP,TRN0,TRN1,BSA01,BSA23,BSA45,BSA67, *
    5197              ;*                        BSAC                                                 *
    5198              ;*******************************************************************************
    5199 000000       _sar_isr:
    5200                      .dwcfi  cfa_offset, 3
    5201                      .dwcfi  save_reg_to_mem, 91, -3
    5202 000000 F406          AND #0xf91f, mmap(ST1_55)
         000002 F91F 
         000004 98   
    5203 000005 F506          OR #0x4100, mmap(ST1_55)
         000007 4100 
         000009 98   
    5204 00000a F496          AND #0xfa00, mmap(ST2_55)
         00000c FA00 
         00000e 98   
    5205 00000f F596          OR #0x8000, mmap(ST2_55)
         000011 8000 
         000013 98   
    5206 000014 B508          PSH mmap(ST3_55)
         000016 98   
    5207                      .dwcfi  cfa_offset, 4
    5208                      .dwcfi  save_reg_to_mem, 42, -4
    5209 000017 5007          PSH dbl(AC0)
    5210                      .dwcfi  cfa_offset, 5
    5211                      .dwcfi  save_reg_to_mem, 0, -5
    5212                      .dwcfi  cfa_offset, 6
    5213                      .dwcfi  save_reg_to_mem, 1, -6
    5214 000019 B514          PSH mmap(AC0G)
         00001b 98   
    5215                      .dwcfi  cfa_offset, 7
    5216                      .dwcfi  save_reg_to_mem, 2, -7
    5217 00001c 5017          PSH dbl(AC1)
    5218                      .dwcfi  cfa_offset, 8
    5219                      .dwcfi  save_reg_to_mem, 3, -8
    5220                      .dwcfi  cfa_offset, 9
    5221                      .dwcfi  save_reg_to_mem, 4, -9
    5222 00001e B51A          PSH mmap(AC1G)
         000020 98   
    5223                      .dwcfi  cfa_offset, 10
TMS320C55x Assembler PC v4.4.1 Sat Sep 29 23:08:33 2018

Tools Copyright (c) 1996-2012 Texas Instruments Incorporated
csl_usb_poll_example.asm                                             PAGE  123

    5224                      .dwcfi  save_reg_to_mem, 5, -10
    5225 000021 5027          PSH dbl(AC2)
    5226                      .dwcfi  cfa_offset, 11
    5227                      .dwcfi  save_reg_to_mem, 6, -11
    5228                      .dwcfi  cfa_offset, 12
    5229                      .dwcfi  save_reg_to_mem, 7, -12
    5230 000023 B54C          PSH mmap(AC2G)
         000025 98   
    5231                      .dwcfi  cfa_offset, 13
    5232                      .dwcfi  save_reg_to_mem, 8, -13
    5233 000026 5037          PSH dbl(AC3)
    5234                      .dwcfi  cfa_offset, 14
    5235                      .dwcfi  save_reg_to_mem, 9, -14
    5236                      .dwcfi  cfa_offset, 15
    5237                      .dwcfi  save_reg_to_mem, 10, -15
    5238 000028 B554          PSH mmap(AC3G)
         00002a 98   
    5239                      .dwcfi  cfa_offset, 16
    5240                      .dwcfi  save_reg_to_mem, 11, -16
    5241 00002b 5046          PSH T0
    5242                      .dwcfi  cfa_offset, 17
    5243                      .dwcfi  save_reg_to_mem, 12, -17
    5244 00002d 5056          PSH T1
    5245                      .dwcfi  cfa_offset, 18
    5246                      .dwcfi  save_reg_to_mem, 13, -18
    5247 00002f 5085          PSHBOTH XAR0
    5248                      .dwcfi  cfa_offset, 19
    5249                      .dwcfi  save_reg_to_mem, 16, -19
    5250 000031 5095          PSHBOTH XAR1
    5251                      .dwcfi  cfa_offset, 20
    5252                      .dwcfi  save_reg_to_mem, 18, -20
    5253 000033 50A5          PSHBOTH XAR2
    5254                      .dwcfi  cfa_offset, 21
    5255                      .dwcfi  save_reg_to_mem, 20, -21
    5256 000035 50B5          PSHBOTH XAR3
    5257                      .dwcfi  cfa_offset, 22
    5258                      .dwcfi  save_reg_to_mem, 22, -22
    5259 000037 50C5          PSHBOTH XAR4
    5260                      .dwcfi  cfa_offset, 23
    5261                      .dwcfi  save_reg_to_mem, 24, -23
    5262 000039 B562          PSH mmap(BKC)
         00003b 98   
    5263                      .dwcfi  cfa_offset, 24
    5264                      .dwcfi  save_reg_to_mem, 37, -24
    5265 00003c B532          PSH mmap(BK03)
         00003e 98   
    5266                      .dwcfi  cfa_offset, 25
    5267                      .dwcfi  save_reg_to_mem, 38, -25
    5268 00003f B560          PSH mmap(BK47)
         000041 98   
    5269                      .dwcfi  cfa_offset, 26
    5270                      .dwcfi  save_reg_to_mem, 39, -26
    5271 000042 B534          PSH mmap(BRC0)
         000044 98   
    5272                      .dwcfi  cfa_offset, 27
TMS320C55x Assembler PC v4.4.1 Sat Sep 29 23:08:33 2018

Tools Copyright (c) 1996-2012 Texas Instruments Incorporated
csl_usb_poll_example.asm                                             PAGE  124

    5273                      .dwcfi  save_reg_to_mem, 47, -27
    5274 000045 B57A          PSH mmap(RSA0L)
         000047 98   
    5275                      .dwcfi  cfa_offset, 28
    5276                      .dwcfi  save_reg_to_mem, 48, -28
    5277 000048 B578          PSH mmap(RSA0H)
         00004a 98   
    5278                      .dwcfi  cfa_offset, 29
    5279                      .dwcfi  save_reg_to_mem, 49, -29
    5280 00004b B57E          PSH mmap(REA0L)
         00004d 98   
    5281                      .dwcfi  cfa_offset, 30
    5282                      .dwcfi  save_reg_to_mem, 50, -30
    5283 00004e B57C          PSH mmap(REA0H)
         000050 98   
    5284                      .dwcfi  cfa_offset, 31
    5285                      .dwcfi  save_reg_to_mem, 51, -31
    5286 000051 B574          PSH mmap(BRS1)
         000053 98   
    5287                      .dwcfi  cfa_offset, 32
    5288                      .dwcfi  save_reg_to_mem, 52, -32
    5289 000054 B572          PSH mmap(BRC1)
         000056 98   
    5290                      .dwcfi  cfa_offset, 33
    5291                      .dwcfi  save_reg_to_mem, 53, -33
    5292 000057 B582          PSH mmap(RSA1L)
         000059 98   
    5293                      .dwcfi  cfa_offset, 34
    5294                      .dwcfi  save_reg_to_mem, 54, -34
    5295 00005a B580          PSH mmap(RSA1H)
         00005c 98   
    5296                      .dwcfi  cfa_offset, 35
    5297                      .dwcfi  save_reg_to_mem, 55, -35
    5298 00005d B586          PSH mmap(REA1L)
         00005f 98   
    5299                      .dwcfi  cfa_offset, 36
    5300                      .dwcfi  save_reg_to_mem, 56, -36
    5301 000060 B584          PSH mmap(REA1H)
         000062 98   
    5302                      .dwcfi  cfa_offset, 37
    5303                      .dwcfi  save_reg_to_mem, 57, -37
    5304 000063 B576          PSH mmap(CSR)
         000065 98   
    5305                      .dwcfi  cfa_offset, 38
    5306                      .dwcfi  save_reg_to_mem, 58, -38
    5307 000066 B588          PSH mmap(RPTC)
         000068 98   
    5308                      .dwcfi  cfa_offset, 39
    5309                      .dwcfi  save_reg_to_mem, 59, -39
    5310 000069 5075          PSHBOTH XCDP
    5311                      .dwcfi  cfa_offset, 40
    5312                      .dwcfi  save_reg_to_mem, 60, -40
    5313 00006b B51E          PSH mmap(TRN0)
         00006d 98   
    5314                      .dwcfi  cfa_offset, 41
TMS320C55x Assembler PC v4.4.1 Sat Sep 29 23:08:33 2018

Tools Copyright (c) 1996-2012 Texas Instruments Incorporated
csl_usb_poll_example.asm                                             PAGE  125

    5315                      .dwcfi  save_reg_to_mem, 62, -41
    5316 00006e B570          PSH mmap(TRN1)
         000070 98   
    5317                      .dwcfi  cfa_offset, 42
    5318                      .dwcfi  save_reg_to_mem, 63, -42
    5319 000071 B564          PSH mmap(BSA01)
         000073 98   
    5320                      .dwcfi  cfa_offset, 43
    5321                      .dwcfi  save_reg_to_mem, 64, -43
    5322 000074 B566          PSH mmap(BSA23)
         000076 98   
    5323                      .dwcfi  cfa_offset, 44
    5324                      .dwcfi  save_reg_to_mem, 65, -44
    5325 000077 B568          PSH mmap(BSA45)
         000079 98   
    5326                      .dwcfi  cfa_offset, 45
    5327                      .dwcfi  save_reg_to_mem, 66, -45
    5328 00007a B56A          PSH mmap(BSA67)
         00007c 98   
    5329                      .dwcfi  cfa_offset, 46
    5330                      .dwcfi  save_reg_to_mem, 67, -46
    5331 00007d B56C          PSH mmap(BSAC)
         00007f 98   
    5332                      .dwcfi  cfa_offset, 47
    5333                      .dwcfi  save_reg_to_mem, 68, -47
    5334 000080 EC00          AMAR *SP(#0), XAR1
         000082 9E   
    5335 000083 F49A          AND #0xfffe, mmap(SP)
         000085 FFFE 
         000087 98   
    5336 000088 5096          PSH AR1
    5337 00008a 4EFF          AADD #-1, SP
    5338                      .dwcfi  cfa_offset, 47
    5339                      .dwpsn  file "../c5535_bsl_revc/ezdsp5535_v1/c55xx_csl/ccs_v4.0_examples/usb/CSL_USB_PollExample/csl_
    5340 00008c 4617          BSET ST3_SMUL
    5341 00008e 4656          BCLR ST3_SATA
    5342 000090 EC31          AMOV #_readBuffer, XAR1 ; |908| 
         000092 9E00 
         000094 0003-
    5343 000096 ED31          MOV dbl(*(#_SarHandle)), XAR0
         000098 8F00 
         00009a 0004-
    5344              $C$DW$452       .dwtag  DW_TAG_TI_branch
    5345                      .dwattr $C$DW$452, DW_AT_low_pc(0x00)
    5346                      .dwattr $C$DW$452, DW_AT_name("_SAR_readData")
    5347                      .dwattr $C$DW$452, DW_AT_TI_call
    5348 00009c 6C00          CALL #_SAR_readData ; |908| 
         00009e 0000!
    5349                                                      ; call occurs [#_SAR_readData] ; |908| 
    5350                      .dwpsn  file "../c5535_bsl_revc/ezdsp5535_v1/c55xx_csl/ccs_v4.0_examples/usb/CSL_USB_PollExample/csl_
    5351 0000a0 A931          MOV *(#_readBuffer), AR1 ; |910| 
         0000a2 0000 
         0000a4 03-  
    5352 0000a5 0419          BCC $C$L119,AR1 != #0 ; |910| 
         0000a7 1C   
TMS320C55x Assembler PC v4.4.1 Sat Sep 29 23:08:33 2018

Tools Copyright (c) 1996-2012 Texas Instruments Incorporated
csl_usb_poll_example.asm                                             PAGE  126

    5353                                                      ; branchcc occurs ; |910| 
    5354 0000a8 F031          CMP *(#_selfWakeupServiced) == #1, TC1 ; |910| 
         0000aa 0001 
         0000ac 0000 
         0000ae 06-  
    5355 0000af 0474          BCC $C$L119,!TC1 ; |910| 
         0000b1 12   
    5356                                                      ; branchcc occurs ; |910| 
    5357                      .dwpsn  file "../c5535_bsl_revc/ezdsp5535_v1/c55xx_csl/ccs_v4.0_examples/usb/CSL_USB_PollExample/csl_
    5358 0000b2 E631          MOV #0, *(#_selfWakeupServiced) ; |913| 
         0000b4 0000 
         0000b6 0006-
    5359                      .dwpsn  file "../c5535_bsl_revc/ezdsp5535_v1/c55xx_csl/ccs_v4.0_examples/usb/CSL_USB_PollExample/csl_
    5360 0000b8 ED31          MOV dbl(*(#_selfwakeupDelay)), AC0 ; |914| 
         0000ba 0800 
         0000bc 0080-
    5361              $C$DW$453       .dwtag  DW_TAG_TI_branch
    5362                      .dwattr $C$DW$453, DW_AT_low_pc(0x00)
    5363                      .dwattr $C$DW$453, DW_AT_name("_USB_selfwakeup")
    5364                      .dwattr $C$DW$453, DW_AT_TI_call
    5365              
    5366 0000be 6C00          CALL #_USB_selfwakeup ; |914| 
         0000c0 0000!
    5367 0000c2 3D04  ||      MOV #0, T0
    5368              
    5369                                                      ; call occurs [#_USB_selfwakeup] ; |914| 
    5370                      .dwpsn  file "../c5535_bsl_revc/ezdsp5535_v1/c55xx_csl/ccs_v4.0_examples/usb/CSL_USB_PollExample/csl_
    5371 0000c4       $C$L119:    
    5372 0000c4 4E01          AADD #1, SP
    5373                      .dwcfi  cfa_offset, 47
    5374 0000c6 BB9A          POP mmap(SP)
         0000c8 98   
    5375 0000c9 BB6C          POP mmap(BSAC)
         0000cb 98   
    5376                      .dwcfi  restore_reg, 68
    5377                      .dwcfi  cfa_offset, 46
    5378 0000cc BB6A          POP mmap(BSA67)
         0000ce 98   
    5379                      .dwcfi  restore_reg, 67
    5380                      .dwcfi  cfa_offset, 45
    5381 0000cf BB68          POP mmap(BSA45)
         0000d1 98   
    5382                      .dwcfi  restore_reg, 66
    5383                      .dwcfi  cfa_offset, 44
    5384 0000d2 BB66          POP mmap(BSA23)
         0000d4 98   
    5385                      .dwcfi  restore_reg, 65
    5386                      .dwcfi  cfa_offset, 43
    5387 0000d5 BB64          POP mmap(BSA01)
         0000d7 98   
    5388                      .dwcfi  restore_reg, 64
    5389                      .dwcfi  cfa_offset, 42
    5390 0000d8 BB70          POP mmap(TRN1)
         0000da 98   
    5391                      .dwcfi  restore_reg, 63
TMS320C55x Assembler PC v4.4.1 Sat Sep 29 23:08:33 2018

Tools Copyright (c) 1996-2012 Texas Instruments Incorporated
csl_usb_poll_example.asm                                             PAGE  127

    5392                      .dwcfi  cfa_offset, 41
    5393 0000db BB1E          POP mmap(TRN0)
         0000dd 98   
    5394                      .dwcfi  restore_reg, 62
    5395                      .dwcfi  cfa_offset, 40
    5396 0000de 5074          POPBOTH XCDP
    5397                      .dwcfi  restore_reg, 60
    5398                      .dwcfi  cfa_offset, 39
    5399 0000e0 BB88          POP mmap(RPTC)
         0000e2 98   
    5400                      .dwcfi  restore_reg, 59
    5401                      .dwcfi  cfa_offset, 38
    5402 0000e3 BB76          POP mmap(CSR)
         0000e5 98   
    5403                      .dwcfi  restore_reg, 58
    5404                      .dwcfi  cfa_offset, 37
    5405 0000e6 BB84          POP mmap(REA1H)
         0000e8 98   
    5406                      .dwcfi  restore_reg, 57
    5407                      .dwcfi  cfa_offset, 36
    5408 0000e9 BB86          POP mmap(REA1L)
         0000eb 98   
    5409                      .dwcfi  restore_reg, 56
    5410                      .dwcfi  cfa_offset, 35
    5411 0000ec BB80          POP mmap(RSA1H)
         0000ee 98   
    5412                      .dwcfi  restore_reg, 55
    5413                      .dwcfi  cfa_offset, 34
    5414 0000ef BB82          POP mmap(RSA1L)
         0000f1 98   
    5415                      .dwcfi  restore_reg, 54
    5416                      .dwcfi  cfa_offset, 33
    5417 0000f2 BB72          POP mmap(BRC1)
         0000f4 98   
    5418                      .dwcfi  restore_reg, 53
    5419                      .dwcfi  cfa_offset, 32
    5420 0000f5 BB74          POP mmap(BRS1)
         0000f7 98   
    5421                      .dwcfi  restore_reg, 52
    5422                      .dwcfi  cfa_offset, 31
    5423 0000f8 BB7C          POP mmap(REA0H)
         0000fa 98   
    5424                      .dwcfi  restore_reg, 51
    5425                      .dwcfi  cfa_offset, 30
    5426 0000fb BB7E          POP mmap(REA0L)
         0000fd 98   
    5427                      .dwcfi  restore_reg, 50
    5428                      .dwcfi  cfa_offset, 29
    5429 0000fe BB78          POP mmap(RSA0H)
         000100 98   
    5430                      .dwcfi  restore_reg, 49
    5431                      .dwcfi  cfa_offset, 28
    5432 000101 BB7A          POP mmap(RSA0L)
         000103 98   
    5433                      .dwcfi  restore_reg, 48
TMS320C55x Assembler PC v4.4.1 Sat Sep 29 23:08:33 2018

Tools Copyright (c) 1996-2012 Texas Instruments Incorporated
csl_usb_poll_example.asm                                             PAGE  128

    5434                      .dwcfi  cfa_offset, 27
    5435 000104 BB34          POP mmap(BRC0)
         000106 98   
    5436                      .dwcfi  restore_reg, 47
    5437                      .dwcfi  cfa_offset, 26
    5438 000107 BB60          POP mmap(BK47)
         000109 98   
    5439                      .dwcfi  restore_reg, 39
    5440                      .dwcfi  cfa_offset, 25
    5441 00010a BB32          POP mmap(BK03)
         00010c 98   
    5442                      .dwcfi  restore_reg, 38
    5443                      .dwcfi  cfa_offset, 24
    5444 00010d BB62          POP mmap(BKC)
         00010f 98   
    5445                      .dwcfi  restore_reg, 37
    5446                      .dwcfi  cfa_offset, 23
    5447 000110 50C4          POPBOTH XAR4
    5448                      .dwcfi  restore_reg, 24
    5449                      .dwcfi  cfa_offset, 22
    5450 000112 50B4          POPBOTH XAR3
    5451                      .dwcfi  restore_reg, 22
    5452                      .dwcfi  cfa_offset, 21
    5453 000114 50A4          POPBOTH XAR2
    5454                      .dwcfi  restore_reg, 20
    5455                      .dwcfi  cfa_offset, 20
    5456 000116 5094          POPBOTH XAR1
    5457                      .dwcfi  restore_reg, 18
    5458                      .dwcfi  cfa_offset, 19
    5459 000118 5084          POPBOTH XAR0
    5460                      .dwcfi  restore_reg, 16
    5461                      .dwcfi  cfa_offset, 18
    5462 00011a 5052          POP T1
    5463                      .dwcfi  restore_reg, 13
    5464                      .dwcfi  cfa_offset, 17
    5465 00011c 5042          POP T0
    5466                      .dwcfi  restore_reg, 12
    5467                      .dwcfi  cfa_offset, 16
    5468 00011e BB54          POP mmap(AC3G)
         000120 98   
    5469                      .dwcfi  restore_reg, 11
    5470                      .dwcfi  cfa_offset, 15
    5471                      .dwcfi  restore_reg, 10
    5472                      .dwcfi  cfa_offset, 14
    5473 000121 5033          POP dbl(AC3)
    5474                      .dwcfi  restore_reg, 9
    5475                      .dwcfi  cfa_offset, 13
    5476 000123 BB4C          POP mmap(AC2G)
         000125 98   
    5477                      .dwcfi  restore_reg, 8
    5478                      .dwcfi  cfa_offset, 12
    5479                      .dwcfi  restore_reg, 7
    5480                      .dwcfi  cfa_offset, 11
    5481 000126 5023          POP dbl(AC2)
    5482                      .dwcfi  restore_reg, 6
TMS320C55x Assembler PC v4.4.1 Sat Sep 29 23:08:33 2018

Tools Copyright (c) 1996-2012 Texas Instruments Incorporated
csl_usb_poll_example.asm                                             PAGE  129

    5483                      .dwcfi  cfa_offset, 10
    5484 000128 BB1A          POP mmap(AC1G)
         00012a 98   
    5485                      .dwcfi  restore_reg, 5
    5486                      .dwcfi  cfa_offset, 9
    5487                      .dwcfi  restore_reg, 4
    5488                      .dwcfi  cfa_offset, 8
    5489 00012b 5013          POP dbl(AC1)
    5490                      .dwcfi  restore_reg, 3
    5491                      .dwcfi  cfa_offset, 7
    5492 00012d BB14          POP mmap(AC0G)
         00012f 98   
    5493                      .dwcfi  restore_reg, 2
    5494                      .dwcfi  cfa_offset, 6
    5495                      .dwcfi  restore_reg, 1
    5496                      .dwcfi  cfa_offset, 5
    5497 000130 5003          POP dbl(AC0)
    5498                      .dwcfi  restore_reg, 0
    5499                      .dwcfi  cfa_offset, 4
    5500 000132 BB08          POP mmap(ST3_55)
         000134 98   
    5501                      .dwcfi  restore_reg, 43
    5502                      .dwcfi  cfa_offset, 3
    5503              $C$DW$454       .dwtag  DW_TAG_TI_branch
    5504                      .dwattr $C$DW$454, DW_AT_low_pc(0x00)
    5505                      .dwattr $C$DW$454, DW_AT_TI_return
    5506 000135 4805          RETI
    5507                                                      ; return occurs
    5508                      .dwattr $C$DW$451, DW_AT_TI_end_file("../c5535_bsl_revc/ezdsp5535_v1/c55xx_csl/ccs_v4.0_examples/usb/
    5509                      .dwattr $C$DW$451, DW_AT_TI_end_line(0x394)
    5510                      .dwattr $C$DW$451, DW_AT_TI_end_column(0x01)
    5511                      .dwendentry
    5512                      .dwendtag $C$DW$451
    5513              
    5514 00143d               .sect   ".text"
    5515                      .align 4
    5516                      .global _CSL_startTransferCallback
    5517              
    5518              $C$DW$455       .dwtag  DW_TAG_subprogram, DW_AT_name("CSL_startTransferCallback")
    5519                      .dwattr $C$DW$455, DW_AT_low_pc(_CSL_startTransferCallback)
    5520                      .dwattr $C$DW$455, DW_AT_high_pc(0x00)
    5521                      .dwattr $C$DW$455, DW_AT_TI_symbol_name("_CSL_startTransferCallback")
    5522                      .dwattr $C$DW$455, DW_AT_external
    5523                      .dwattr $C$DW$455, DW_AT_type(*$C$DW$T$89)
    5524                      .dwattr $C$DW$455, DW_AT_TI_begin_file("../c5535_bsl_revc/ezdsp5535_v1/c55xx_csl/ccs_v4.0_examples/us
    5525                      .dwattr $C$DW$455, DW_AT_TI_begin_line(0x39e)
    5526                      .dwattr $C$DW$455, DW_AT_TI_begin_column(0x0c)
    5527                      .dwattr $C$DW$455, DW_AT_TI_max_frame_size(0x0c)
    5528                      .dwpsn  file "../c5535_bsl_revc/ezdsp5535_v1/c55xx_csl/ccs_v4.0_examples/usb/CSL_USB_PollExample/csl_
    5529              
    5530                      .dwfde $C$DW$CIE, _CSL_startTransferCallback
    5531              $C$DW$456       .dwtag  DW_TAG_formal_parameter, DW_AT_name("vpContext")
    5532                      .dwattr $C$DW$456, DW_AT_TI_symbol_name("_vpContext")
    5533                      .dwattr $C$DW$456, DW_AT_type(*$C$DW$T$3)
    5534                      .dwattr $C$DW$456, DW_AT_location[DW_OP_reg17]
TMS320C55x Assembler PC v4.4.1 Sat Sep 29 23:08:33 2018

Tools Copyright (c) 1996-2012 Texas Instruments Incorporated
csl_usb_poll_example.asm                                             PAGE  130

    5535              $C$DW$457       .dwtag  DW_TAG_formal_parameter, DW_AT_name("vpeps")
    5536                      .dwattr $C$DW$457, DW_AT_TI_symbol_name("_vpeps")
    5537                      .dwattr $C$DW$457, DW_AT_type(*$C$DW$T$3)
    5538                      .dwattr $C$DW$457, DW_AT_location[DW_OP_reg19]
    5539              ;*******************************************************************************
    5540              ;* FUNCTION NAME: CSL_startTransferCallback                                    *
    5541              ;*                                                                             *
    5542              ;*   Function Uses Regs : AC0,AC0,AC1,AC1,T0,AR0,XAR0,AR1,XAR1,AR3,XAR3,SP,TC1,*
    5543              ;*                        M40,SATA,SATD,RDM,FRCT,SMUL                          *
    5544              ;*   Stack Frame        : Compact (No Frame Pointer, w/ debug)                 *
    5545              ;*   Total Frame Size   : 12 words                                             *
    5546              ;*                        (1 return address/alignment)                         *
    5547              ;*                        (11 local values)                                    *
    5548              ;*   Min System Stack   : 1 word                                               *
    5549              ;*******************************************************************************
    5550 001440       _CSL_startTransferCallback:
    5551                      .dwcfi  cfa_offset, 1
    5552                      .dwcfi  save_reg_to_mem, 91, -1
    5553 001440 4EF5          AADD #-11, SP
    5554                      .dwcfi  cfa_offset, 12
    5555              $C$DW$458       .dwtag  DW_TAG_variable, DW_AT_name("vpContext")
    5556                      .dwattr $C$DW$458, DW_AT_TI_symbol_name("_vpContext")
    5557                      .dwattr $C$DW$458, DW_AT_type(*$C$DW$T$3)
    5558                      .dwattr $C$DW$458, DW_AT_location[DW_OP_bregx 0x24 0]
    5559              $C$DW$459       .dwtag  DW_TAG_variable, DW_AT_name("vpeps")
    5560                      .dwattr $C$DW$459, DW_AT_TI_symbol_name("_vpeps")
    5561                      .dwattr $C$DW$459, DW_AT_type(*$C$DW$T$3)
    5562                      .dwattr $C$DW$459, DW_AT_location[DW_OP_bregx 0x24 2]
    5563              $C$DW$460       .dwtag  DW_TAG_variable, DW_AT_name("pContext")
    5564                      .dwattr $C$DW$460, DW_AT_TI_symbol_name("_pContext")
    5565                      .dwattr $C$DW$460, DW_AT_type(*$C$DW$T$167)
    5566                      .dwattr $C$DW$460, DW_AT_location[DW_OP_bregx 0x24 4]
    5567              $C$DW$461       .dwtag  DW_TAG_variable, DW_AT_name("peps")
    5568                      .dwattr $C$DW$461, DW_AT_TI_symbol_name("_peps")
    5569                      .dwattr $C$DW$461, DW_AT_type(*$C$DW$T$171)
    5570                      .dwattr $C$DW$461, DW_AT_location[DW_OP_bregx 0x24 6]
    5571              $C$DW$462       .dwtag  DW_TAG_variable, DW_AT_name("pTransfer")
    5572                      .dwattr $C$DW$462, DW_AT_TI_symbol_name("_pTransfer")
    5573                      .dwattr $C$DW$462, DW_AT_type(*$C$DW$T$173)
    5574                      .dwattr $C$DW$462, DW_AT_location[DW_OP_bregx 0x24 8]
    5575              $C$DW$463       .dwtag  DW_TAG_variable, DW_AT_name("status")
    5576                      .dwattr $C$DW$463, DW_AT_TI_symbol_name("_status")
    5577                      .dwattr $C$DW$463, DW_AT_type(*$C$DW$T$89)
    5578                      .dwattr $C$DW$463, DW_AT_location[DW_OP_bregx 0x24 10]
    5579 001442 EB04          MOV XAR1, dbl(*SP(#2))
         001444 95   
    5580 001445 EB00          MOV XAR0, dbl(*SP(#0))
         001447 85   
    5581                      .dwpsn  file "../c5535_bsl_revc/ezdsp5535_v1/c55xx_csl/ccs_v4.0_examples/usb/CSL_USB_PollExample/csl_
    5582 001448 E614          MOV #0, *SP(#10) ; |934| 
         00144a 00   
    5583                      .dwpsn  file "../c5535_bsl_revc/ezdsp5535_v1/c55xx_csl/ccs_v4.0_examples/usb/CSL_USB_PollExample/csl_
    5584 00144b ED00          MOV dbl(*SP(#0)), XAR3
         00144d BF   
    5585 00144e EB08          MOV XAR3, dbl(*SP(#4))
TMS320C55x Assembler PC v4.4.1 Sat Sep 29 23:08:33 2018

Tools Copyright (c) 1996-2012 Texas Instruments Incorporated
csl_usb_poll_example.asm                                             PAGE  131

         001450 B5   
    5586                      .dwpsn  file "../c5535_bsl_revc/ezdsp5535_v1/c55xx_csl/ccs_v4.0_examples/usb/CSL_USB_PollExample/csl_
    5587 001451 ED04          MOV dbl(*SP(#2)), XAR3
         001453 BF   
    5588 001454 EB0C          MOV XAR3, dbl(*SP(#6))
         001456 B5   
    5589                      .dwpsn  file "../c5535_bsl_revc/ezdsp5535_v1/c55xx_csl/ccs_v4.0_examples/usb/CSL_USB_PollExample/csl_
    5590 001457 ED08          MOV dbl(*SP(#4)), XAR3
         001459 BF   
    5591 00145a 90B0          MOV XAR3, AC0
    5592 00145c 6380          BCC $C$L120,AC0 == #0 ; |939| 
    5593                                                      ; branchcc occurs ; |939| 
    5594 00145e ED0C          MOV dbl(*SP(#6)), XAR3
         001460 BF   
    5595 001461 90B0          MOV XAR3, AC0
    5596 001463 6290          BCC $C$L121,AC0 != #0 ; |939| 
    5597                                                      ; branchcc occurs ; |939| 
    5598 001465       $C$L120:    
    5599                      .dwpsn  file "../c5535_bsl_revc/ezdsp5535_v1/c55xx_csl/ccs_v4.0_examples/usb/CSL_USB_PollExample/csl_
    5600 001465 3E64          MOV #-6, T0
    5601 001467 0600          B $C$L129 ; |941| 
         001469 7E   
    5602                                                      ; branch occurs ; |941| 
    5603 00146a       $C$L121:    
    5604                      .dwpsn  file "../c5535_bsl_revc/ezdsp5535_v1/c55xx_csl/ccs_v4.0_examples/usb/CSL_USB_PollExample/csl_
    5605 00146a ED08          MOV dbl(*SP(#4)), XAR3
         00146c BF   
    5606 00146d A96D          MOV *AR3(#23), AR1 ; |944| 
         00146f 0017 
    5607 001471 6299          BCC $C$L122,AR1 != #0 ; |944| 
    5608                                                      ; branchcc occurs ; |944| 
    5609                      .dwpsn  file "../c5535_bsl_revc/ezdsp5535_v1/c55xx_csl/ccs_v4.0_examples/usb/CSL_USB_PollExample/csl_
    5610 001473 3E64          MOV #-6, T0
    5611 001475 0600          B $C$L129 ; |946| 
         001477 70   
    5612                                                      ; branch occurs ; |946| 
    5613 001478       $C$L122:    
    5614                      .dwpsn  file "../c5535_bsl_revc/ezdsp5535_v1/c55xx_csl/ccs_v4.0_examples/usb/CSL_USB_PollExample/csl_
    5615 001478 ED0C          MOV dbl(*SP(#6)), XAR3
         00147a BF   
    5616 00147b A97D          MOV *AR3(short(#6)), AR1 ; |950| 
    5617 00147d 6299          BCC $C$L123,AR1 != #0 ; |950| 
    5618                                                      ; branchcc occurs ; |950| 
    5619                      .dwpsn  file "../c5535_bsl_revc/ezdsp5535_v1/c55xx_csl/ccs_v4.0_examples/usb/CSL_USB_PollExample/csl_
    5620 00147f 3E64          MOV #-6, T0
    5621 001481 0600          B $C$L129 ; |952| 
         001483 64   
    5622                                                      ; branch occurs ; |952| 
    5623 001484       $C$L123:    
    5624                      .dwpsn  file "../c5535_bsl_revc/ezdsp5535_v1/c55xx_csl/ccs_v4.0_examples/usb/CSL_USB_PollExample/csl_
    5625 001484 ED6D          MOV dbl(*AR3(#10)), XAR3
         001486 BF00 
         001488 0A   
    5626 001489 EB10          MOV XAR3, dbl(*SP(#8))
         00148b B5   
TMS320C55x Assembler PC v4.4.1 Sat Sep 29 23:08:33 2018

Tools Copyright (c) 1996-2012 Texas Instruments Incorporated
csl_usb_poll_example.asm                                             PAGE  132

    5627                      .dwpsn  file "../c5535_bsl_revc/ezdsp5535_v1/c55xx_csl/ccs_v4.0_examples/usb/CSL_USB_PollExample/csl_
    5628 00148c E66D          MOV #0, *AR3(#12) ; |956| 
         00148e 0000 
         001490 0C   
    5629                      .dwpsn  file "../c5535_bsl_revc/ezdsp5535_v1/c55xx_csl/ccs_v4.0_examples/usb/CSL_USB_PollExample/csl_
    5630 001491 ED10          MOV dbl(*SP(#8)), XAR3
         001493 BF   
    5631 001494 ED61          MOV dbl(*AR3), AC0 ; |958| 
         001496 08   
    5632 001497 0410          BCC $C$L125,AC0 != #0 ; |958| 
         001499 1E   
    5633                                                      ; branchcc occurs ; |958| 
    5634                      .dwpsn  file "../c5535_bsl_revc/ezdsp5535_v1/c55xx_csl/ccs_v4.0_examples/usb/CSL_USB_PollExample/csl_
    5635 00149a ED0C          MOV dbl(*SP(#6)), XAR3
         00149c BF   
    5636 00149d ED61          MOV dbl(*AR3), AC0 ; |960| 
         00149f 08   
    5637 0014a0 6510          BCC $C$L124,AC0 != #0 ; |960| 
    5638                                                      ; branchcc occurs ; |960| 
    5639                      .dwpsn  file "../c5535_bsl_revc/ezdsp5535_v1/c55xx_csl/ccs_v4.0_examples/usb/CSL_USB_PollExample/csl_
    5640 0014a2 ED08          MOV dbl(*SP(#4)), XAR0
         0014a4 8F   
    5641              $C$DW$464       .dwtag  DW_TAG_TI_branch
    5642                      .dwattr $C$DW$464, DW_AT_low_pc(0x00)
    5643                      .dwattr $C$DW$464, DW_AT_name("_USB_processEP0Out")
    5644                      .dwattr $C$DW$464, DW_AT_TI_call
    5645 0014a5 08EC          CALL #_USB_processEP0Out ; |962| 
         0014a7 18   
    5646                                                      ; call occurs [#_USB_processEP0Out] ; |962| 
    5647 0014a8 C414          MOV T0, *SP(#10) ; |962| 
    5648                      .dwpsn  file "../c5535_bsl_revc/ezdsp5535_v1/c55xx_csl/ccs_v4.0_examples/usb/CSL_USB_PollExample/csl_
    5649 0014aa 4A3A          B $C$L128 ; |963| 
    5650                                                      ; branch occurs ; |963| 
    5651 0014ac       $C$L124:    
    5652                      .dwpsn  file "../c5535_bsl_revc/ezdsp5535_v1/c55xx_csl/ccs_v4.0_examples/usb/CSL_USB_PollExample/csl_
    5653 0014ac ED08          MOV dbl(*SP(#4)), XAR0
         0014ae 8F   
    5654              $C$DW$465       .dwtag  DW_TAG_TI_branch
    5655                      .dwattr $C$DW$465, DW_AT_low_pc(0x00)
    5656                      .dwattr $C$DW$465, DW_AT_name("_USB_handleRx")
    5657                      .dwattr $C$DW$465, DW_AT_TI_call
    5658              
    5659 0014af 08F1          CALL #_USB_handleRx ; |966| 
         0014b1 C0   
    5660 0014b2 3D20  ||      MOV #2, AC0 ; |966| 
    5661              
    5662                                                      ; call occurs [#_USB_handleRx] ; |966| 
    5663 0014b4 C414          MOV T0, *SP(#10) ; |966| 
    5664                      .dwpsn  file "../c5535_bsl_revc/ezdsp5535_v1/c55xx_csl/ccs_v4.0_examples/usb/CSL_USB_PollExample/csl_
    5665 0014b6 4A2E          B $C$L128 ; |968| 
    5666                                                      ; branch occurs ; |968| 
    5667 0014b8       $C$L125:    
    5668                      .dwpsn  file "../c5535_bsl_revc/ezdsp5535_v1/c55xx_csl/ccs_v4.0_examples/usb/CSL_USB_PollExample/csl_
    5669 0014b8 7600          MOV #128, AC0 ; |969| 
         0014ba 8008 
TMS320C55x Assembler PC v4.4.1 Sat Sep 29 23:08:33 2018

Tools Copyright (c) 1996-2012 Texas Instruments Incorporated
csl_usb_poll_example.asm                                             PAGE  133

    5670 0014bc ED61          MOV dbl(*AR3), AC1 ; |969| 
         0014be 18   
    5671 0014bf 121C          CMPU AC1 != AC0, TC1 ; |969| 
         0014c1 04   
    5672 0014c2 0464          BCC $C$L127,TC1 ; |969| 
         0014c4 1E   
    5673                                                      ; branchcc occurs ; |969| 
    5674                      .dwpsn  file "../c5535_bsl_revc/ezdsp5535_v1/c55xx_csl/ccs_v4.0_examples/usb/CSL_USB_PollExample/csl_
    5675 0014c5 ED0C          MOV dbl(*SP(#6)), XAR3
         0014c7 BF   
    5676 0014c8 ED61          MOV dbl(*AR3), AC0 ; |971| 
         0014ca 08   
    5677 0014cb 6510          BCC $C$L126,AC0 != #0 ; |971| 
    5678                                                      ; branchcc occurs ; |971| 
    5679                      .dwpsn  file "../c5535_bsl_revc/ezdsp5535_v1/c55xx_csl/ccs_v4.0_examples/usb/CSL_USB_PollExample/csl_
    5680 0014cd ED08          MOV dbl(*SP(#4)), XAR0
         0014cf 8F   
    5681              $C$DW$466       .dwtag  DW_TAG_TI_branch
    5682                      .dwattr $C$DW$466, DW_AT_low_pc(0x00)
    5683                      .dwattr $C$DW$466, DW_AT_name("_USB_processEP0In")
    5684                      .dwattr $C$DW$466, DW_AT_TI_call
    5685 0014d0 08EC          CALL #_USB_processEP0In ; |973| 
         0014d2 B1   
    5686                                                      ; call occurs [#_USB_processEP0In] ; |973| 
    5687 0014d3 C414          MOV T0, *SP(#10) ; |973| 
    5688                      .dwpsn  file "../c5535_bsl_revc/ezdsp5535_v1/c55xx_csl/ccs_v4.0_examples/usb/CSL_USB_PollExample/csl_
    5689 0014d5 4A0F          B $C$L128 ; |974| 
    5690                                                      ; branch occurs ; |974| 
    5691 0014d7       $C$L126:    
    5692                      .dwpsn  file "../c5535_bsl_revc/ezdsp5535_v1/c55xx_csl/ccs_v4.0_examples/usb/CSL_USB_PollExample/csl_
    5693 0014d7 ED08          MOV dbl(*SP(#4)), XAR0
         0014d9 8F   
    5694              $C$DW$467       .dwtag  DW_TAG_TI_branch
    5695                      .dwattr $C$DW$467, DW_AT_low_pc(0x00)
    5696                      .dwattr $C$DW$467, DW_AT_name("_USB_handleTx")
    5697                      .dwattr $C$DW$467, DW_AT_TI_call
    5698              
    5699 0014da 08EF          CALL #_USB_handleTx ; |977| 
         0014dc 15   
    5700 0014dd 3D10  ||      MOV #1, AC0 ; |977| 
    5701              
    5702                                                      ; call occurs [#_USB_handleTx] ; |977| 
    5703 0014df C414          MOV T0, *SP(#10) ; |977| 
    5704                      .dwpsn  file "../c5535_bsl_revc/ezdsp5535_v1/c55xx_csl/ccs_v4.0_examples/usb/CSL_USB_PollExample/csl_
    5705 0014e1 4A03          B $C$L128 ; |979| 
    5706                                                      ; branch occurs ; |979| 
    5707 0014e3       $C$L127:    
    5708                      .dwpsn  file "../c5535_bsl_revc/ezdsp5535_v1/c55xx_csl/ccs_v4.0_examples/usb/CSL_USB_PollExample/csl_
    5709 0014e3 E614          MOV #-6, *SP(#10) ; |982| 
         0014e5 FA   
    5710 0014e6       $C$L128:    
    5711                      .dwpsn  file "../c5535_bsl_revc/ezdsp5535_v1/c55xx_csl/ccs_v4.0_examples/usb/CSL_USB_PollExample/csl_
    5712 0014e6 A414          MOV *SP(#10), T0 ; |985| 
    5713 0014e8       $C$L129:    
    5714                      .dwpsn  file "../c5535_bsl_revc/ezdsp5535_v1/c55xx_csl/ccs_v4.0_examples/usb/CSL_USB_PollExample/csl_
TMS320C55x Assembler PC v4.4.1 Sat Sep 29 23:08:33 2018

Tools Copyright (c) 1996-2012 Texas Instruments Incorporated
csl_usb_poll_example.asm                                             PAGE  134

    5715 0014e8 4E0B          AADD #11, SP
    5716                      .dwcfi  cfa_offset, 1
    5717              $C$DW$468       .dwtag  DW_TAG_TI_branch
    5718                      .dwattr $C$DW$468, DW_AT_low_pc(0x00)
    5719                      .dwattr $C$DW$468, DW_AT_TI_return
    5720 0014ea 4804          RET
    5721                                                      ; return occurs
    5722                      .dwattr $C$DW$455, DW_AT_TI_end_file("../c5535_bsl_revc/ezdsp5535_v1/c55xx_csl/ccs_v4.0_examples/usb/
    5723                      .dwattr $C$DW$455, DW_AT_TI_end_line(0x3da)
    5724                      .dwattr $C$DW$455, DW_AT_TI_end_column(0x01)
    5725                      .dwendentry
    5726                      .dwendtag $C$DW$455
    5727              
    5728 0014ec               .sect   ".text"
    5729                      .align 4
    5730                      .global _CSL_completeTransferCallback
    5731              
    5732              $C$DW$469       .dwtag  DW_TAG_subprogram, DW_AT_name("CSL_completeTransferCallback")
    5733                      .dwattr $C$DW$469, DW_AT_low_pc(_CSL_completeTransferCallback)
    5734                      .dwattr $C$DW$469, DW_AT_high_pc(0x00)
    5735                      .dwattr $C$DW$469, DW_AT_TI_symbol_name("_CSL_completeTransferCallback")
    5736                      .dwattr $C$DW$469, DW_AT_external
    5737                      .dwattr $C$DW$469, DW_AT_type(*$C$DW$T$89)
    5738                      .dwattr $C$DW$469, DW_AT_TI_begin_file("../c5535_bsl_revc/ezdsp5535_v1/c55xx_csl/ccs_v4.0_examples/us
    5739                      .dwattr $C$DW$469, DW_AT_TI_begin_line(0x3e5)
    5740                      .dwattr $C$DW$469, DW_AT_TI_begin_column(0x0c)
    5741                      .dwattr $C$DW$469, DW_AT_TI_max_frame_size(0x06)
    5742                      .dwpsn  file "../c5535_bsl_revc/ezdsp5535_v1/c55xx_csl/ccs_v4.0_examples/usb/CSL_USB_PollExample/csl_
    5743              
    5744                      .dwfde $C$DW$CIE, _CSL_completeTransferCallback
    5745              $C$DW$470       .dwtag  DW_TAG_formal_parameter, DW_AT_name("vpContext")
    5746                      .dwattr $C$DW$470, DW_AT_TI_symbol_name("_vpContext")
    5747                      .dwattr $C$DW$470, DW_AT_type(*$C$DW$T$3)
    5748                      .dwattr $C$DW$470, DW_AT_location[DW_OP_reg17]
    5749              $C$DW$471       .dwtag  DW_TAG_formal_parameter, DW_AT_name("vpeps")
    5750                      .dwattr $C$DW$471, DW_AT_TI_symbol_name("_vpeps")
    5751                      .dwattr $C$DW$471, DW_AT_type(*$C$DW$T$3)
    5752                      .dwattr $C$DW$471, DW_AT_location[DW_OP_reg19]
    5753              ;*******************************************************************************
    5754              ;* FUNCTION NAME: CSL_completeTransferCallback                                 *
    5755              ;*                                                                             *
    5756              ;*   Function Uses Regs : T0,AR0,XAR0,AR1,XAR1,SP,M40,SATA,SATD,RDM,FRCT,SMUL  *
    5757              ;*   Stack Frame        : Compact (No Frame Pointer, w/ debug)                 *
    5758              ;*   Total Frame Size   : 6 words                                              *
    5759              ;*                        (2 return address/alignment)                         *
    5760              ;*                        (4 local values)                                     *
    5761              ;*   Min System Stack   : 1 word                                               *
    5762              ;*******************************************************************************
    5763 0014ec       _CSL_completeTransferCallback:
    5764                      .dwcfi  cfa_offset, 1
    5765                      .dwcfi  save_reg_to_mem, 91, -1
    5766 0014ec 4EFB          AADD #-5, SP
    5767                      .dwcfi  cfa_offset, 6
    5768              $C$DW$472       .dwtag  DW_TAG_variable, DW_AT_name("vpContext")
    5769                      .dwattr $C$DW$472, DW_AT_TI_symbol_name("_vpContext")
TMS320C55x Assembler PC v4.4.1 Sat Sep 29 23:08:33 2018

Tools Copyright (c) 1996-2012 Texas Instruments Incorporated
csl_usb_poll_example.asm                                             PAGE  135

    5770                      .dwattr $C$DW$472, DW_AT_type(*$C$DW$T$3)
    5771                      .dwattr $C$DW$472, DW_AT_location[DW_OP_bregx 0x24 0]
    5772              $C$DW$473       .dwtag  DW_TAG_variable, DW_AT_name("vpeps")
    5773                      .dwattr $C$DW$473, DW_AT_TI_symbol_name("_vpeps")
    5774                      .dwattr $C$DW$473, DW_AT_type(*$C$DW$T$3)
    5775                      .dwattr $C$DW$473, DW_AT_location[DW_OP_bregx 0x24 2]
    5776 0014ee EB04          MOV XAR1, dbl(*SP(#2))
         0014f0 95   
    5777 0014f1 EB00          MOV XAR0, dbl(*SP(#0))
         0014f3 85   
    5778                      .dwpsn  file "../c5535_bsl_revc/ezdsp5535_v1/c55xx_csl/ccs_v4.0_examples/usb/CSL_USB_PollExample/csl_
    5779 0014f4 3C04          MOV #0, T0
    5780                      .dwpsn  file "../c5535_bsl_revc/ezdsp5535_v1/c55xx_csl/ccs_v4.0_examples/usb/CSL_USB_PollExample/csl_
    5781 0014f6 4E05          AADD #5, SP
    5782                      .dwcfi  cfa_offset, 1
    5783              $C$DW$474       .dwtag  DW_TAG_TI_branch
    5784                      .dwattr $C$DW$474, DW_AT_low_pc(0x00)
    5785                      .dwattr $C$DW$474, DW_AT_TI_return
    5786 0014f8 4804          RET
    5787                                                      ; return occurs
    5788                      .dwattr $C$DW$469, DW_AT_TI_end_file("../c5535_bsl_revc/ezdsp5535_v1/c55xx_csl/ccs_v4.0_examples/usb/
    5789                      .dwattr $C$DW$469, DW_AT_TI_end_line(0x3e9)
    5790                      .dwattr $C$DW$469, DW_AT_TI_end_column(0x01)
    5791                      .dwendentry
    5792                      .dwendtag $C$DW$469
    5793              
    5794              ;*******************************************************************************
    5795              ;* FAR STRINGS                                                                 *
    5796              ;*******************************************************************************
    5797 000000               .sect   ".const:.string"
    5798                      .align  2
    5799 000000 0055  $C$FSL1:        .string "USB Polled Mode Test!!",10,0
         000001 0053 
         000002 0042 
         000003 0020 
         000004 0050 
         000005 006F 
         000006 006C 
         000007 006C 
         000008 0065 
         000009 0064 
         00000a 0020 
         00000b 004D 
         00000c 006F 
         00000d 0064 
         00000e 0065 
         00000f 0020 
         000010 0054 
         000011 0065 
         000012 0073 
         000013 0074 
         000014 0021 
         000015 0021 
         000016 000A 
         000017 0000 
TMS320C55x Assembler PC v4.4.1 Sat Sep 29 23:08:33 2018

Tools Copyright (c) 1996-2012 Texas Instruments Incorporated
csl_usb_poll_example.asm                                             PAGE  136

    5800                      .align  2
    5801 000018 0055  $C$FSL2:        .string "USB Test Failed!!",10,0
         000019 0053 
         00001a 0042 
         00001b 0020 
         00001c 0054 
         00001d 0065 
         00001e 0073 
         00001f 0074 
         000020 0020 
         000021 0046 
         000022 0061 
         000023 0069 
         000024 006C 
         000025 0065 
         000026 0064 
         000027 0021 
         000028 0021 
         000029 000A 
         00002a 0000 
    5802                      .align  2
    5803 00002c 0055  $C$FSL3:        .string "USB Test Passed!!",10,0
         00002d 0053 
         00002e 0042 
         00002f 0020 
         000030 0054 
         000031 0065 
         000032 0073 
         000033 0074 
         000034 0020 
         000035 0050 
         000036 0061 
         000037 0073 
         000038 0073 
         000039 0065 
         00003a 0064 
         00003b 0021 
         00003c 0021 
         00003d 000A 
         00003e 0000 
    5804                      .align  2
    5805 000040 0053  $C$FSL4:        .string "SAR Configuration failed",10,0
         000041 0041 
         000042 0052 
         000043 0020 
         000044 0043 
         000045 006F 
         000046 006E 
         000047 0066 
         000048 0069 
         000049 0067 
         00004a 0075 
         00004b 0072 
         00004c 0061 
         00004d 0074 
TMS320C55x Assembler PC v4.4.1 Sat Sep 29 23:08:33 2018

Tools Copyright (c) 1996-2012 Texas Instruments Incorporated
csl_usb_poll_example.asm                                             PAGE  137

         00004e 0069 
         00004f 006F 
         000050 006E 
         000051 0020 
         000052 0066 
         000053 0061 
         000054 0069 
         000055 006C 
         000056 0065 
         000057 0064 
         000058 000A 
         000059 0000 
    5806                      .align  2
    5807 00005a 0055  $C$FSL5:        .string "USB init failed",10,0
         00005b 0053 
         00005c 0042 
         00005d 0020 
         00005e 0069 
         00005f 006E 
         000060 0069 
         000061 0074 
         000062 0020 
         000063 0066 
         000064 0061 
         000065 0069 
         000066 006C 
         000067 0065 
         000068 0064 
         000069 000A 
         00006a 0000 
    5808                      .align  2
    5809 00006c 0055  $C$FSL6:        .string "USB Reset failed",10,0
         00006d 0053 
         00006e 0042 
         00006f 0020 
         000070 0052 
         000071 0065 
         000072 0073 
         000073 0065 
         000074 0074 
         000075 0020 
         000076 0066 
         000077 0061 
         000078 0069 
         000079 006C 
         00007a 0065 
         00007b 0064 
         00007c 000A 
         00007d 0000 
    5810                      .align  2
    5811 00007e 0055  $C$FSL7:        .string "USB End point init failed",10,0
         00007f 0053 
         000080 0042 
         000081 0020 
         000082 0045 
TMS320C55x Assembler PC v4.4.1 Sat Sep 29 23:08:33 2018

Tools Copyright (c) 1996-2012 Texas Instruments Incorporated
csl_usb_poll_example.asm                                             PAGE  138

         000083 006E 
         000084 0064 
         000085 0020 
         000086 0070 
         000087 006F 
         000088 0069 
         000089 006E 
         00008a 0074 
         00008b 0020 
         00008c 0069 
         00008d 006E 
         00008e 0069 
         00008f 0074 
         000090 0020 
         000091 0066 
         000092 0061 
         000093 0069 
         000094 006C 
         000095 0065 
         000096 0064 
         000097 000A 
         000098 0000 
    5812                      .align  2
    5813 00009a 0055  $C$FSL8:        .string "USB Set params failed",10,0
         00009b 0053 
         00009c 0042 
         00009d 0020 
         00009e 0053 
         00009f 0065 
         0000a0 0074 
         0000a1 0020 
         0000a2 0070 
         0000a3 0061 
         0000a4 0072 
         0000a5 0061 
         0000a6 006D 
         0000a7 0073 
         0000a8 0020 
         0000a9 0066 
         0000aa 0061 
         0000ab 0069 
         0000ac 006C 
         0000ad 0065 
         0000ae 0064 
         0000af 000A 
         0000b0 0000 
    5814                      .align  2
    5815 0000b2 0055  $C$FSL9:        .string "USB Connect failed",10,0
         0000b3 0053 
         0000b4 0042 
         0000b5 0020 
         0000b6 0043 
         0000b7 006F 
         0000b8 006E 
         0000b9 006E 
TMS320C55x Assembler PC v4.4.1 Sat Sep 29 23:08:33 2018

Tools Copyright (c) 1996-2012 Texas Instruments Incorporated
csl_usb_poll_example.asm                                             PAGE  139

         0000ba 0065 
         0000bb 0063 
         0000bc 0074 
         0000bd 0020 
         0000be 0066 
         0000bf 0061 
         0000c0 0069 
         0000c1 006C 
         0000c2 0065 
         0000c3 0064 
         0000c4 000A 
         0000c5 0000 
    5816                      .align  2
    5817 0000c6 0055  $C$FSL10:       .string "USB Resume failed",10,0
         0000c7 0053 
         0000c8 0042 
         0000c9 0020 
         0000ca 0052 
         0000cb 0065 
         0000cc 0073 
         0000cd 0075 
         0000ce 006D 
         0000cf 0065 
         0000d0 0020 
         0000d1 0066 
         0000d2 0061 
         0000d3 0069 
         0000d4 006C 
         0000d5 0065 
         0000d6 0064 
         0000d7 000A 
         0000d8 0000 
    5818                      .align  2
    5819 0000da 0055  $C$FSL11:       .string "USB Transaction failed",10,0
         0000db 0053 
         0000dc 0042 
         0000dd 0020 
         0000de 0054 
         0000df 0072 
         0000e0 0061 
         0000e1 006E 
         0000e2 0073 
         0000e3 0061 
         0000e4 0063 
         0000e5 0074 
         0000e6 0069 
         0000e7 006F 
         0000e8 006E 
         0000e9 0020 
         0000ea 0066 
         0000eb 0061 
         0000ec 0069 
         0000ed 006C 
         0000ee 0065 
         0000ef 0064 
TMS320C55x Assembler PC v4.4.1 Sat Sep 29 23:08:33 2018

Tools Copyright (c) 1996-2012 Texas Instruments Incorporated
csl_usb_poll_example.asm                                             PAGE  140

         0000f0 000A 
         0000f1 0000 
    5820                      .align  2
    5821 0000f2 0042  $C$FSL12:       .string "Bytes remaining: %d",10,0
         0000f3 0079 
         0000f4 0074 
         0000f5 0065 
         0000f6 0073 
         0000f7 0020 
         0000f8 0072 
         0000f9 0065 
         0000fa 006D 
         0000fb 0061 
         0000fc 0069 
         0000fd 006E 
         0000fe 0069 
         0000ff 006E 
         000100 0067 
         000101 003A 
         000102 0020 
         000103 0025 
         000104 0064 
         000105 000A 
         000106 0000 
    5822                      .align  2
    5823 000108 0055  $C$FSL13:       .string "USB Disconnect failed",10,0
         000109 0053 
         00010a 0042 
         00010b 0020 
         00010c 0044 
         00010d 0069 
         00010e 0073 
         00010f 0063 
         000110 006F 
         000111 006E 
         000112 006E 
         000113 0065 
         000114 0063 
         000115 0074 
         000116 0020 
         000117 0066 
         000118 0061 
         000119 0069 
         00011a 006C 
         00011b 0065 
         00011c 0064 
         00011d 000A 
         00011e 0000 
    5824                      .align  2
    5825 000120 0055  $C$FSL14:       .string "USB Suspend failed",10,0
         000121 0053 
         000122 0042 
         000123 0020 
         000124 0053 
         000125 0075 
TMS320C55x Assembler PC v4.4.1 Sat Sep 29 23:08:33 2018

Tools Copyright (c) 1996-2012 Texas Instruments Incorporated
csl_usb_poll_example.asm                                             PAGE  141

         000126 0073 
         000127 0070 
         000128 0065 
         000129 006E 
         00012a 0064 
         00012b 0020 
         00012c 0066 
         00012d 0061 
         00012e 0069 
         00012f 006C 
         000130 0065 
         000131 0064 
         000132 000A 
         000133 0000 
    5826                      .align  2
    5827 000134 000A  $C$FSL15:       .string 10,"USB Cable Disconnected!!",10,0
         000135 0055 
         000136 0053 
         000137 0042 
         000138 0020 
         000139 0043 
         00013a 0061 
         00013b 0062 
         00013c 006C 
         00013d 0065 
         00013e 0020 
         00013f 0044 
         000140 0069 
         000141 0073 
         000142 0063 
         000143 006F 
         000144 006E 
         000145 006E 
         000146 0065 
         000147 0063 
         000148 0074 
         000149 0065 
         00014a 0064 
         00014b 0021 
         00014c 0021 
         00014d 000A 
         00014e 0000 
    5828                      .align  2
    5829 000150 0055  $C$FSL16:       .string "USB Cable Connection Detected!!",10,0
         000151 0053 
         000152 0042 
         000153 0020 
         000154 0043 
         000155 0061 
         000156 0062 
         000157 006C 
         000158 0065 
         000159 0020 
         00015a 0043 
         00015b 006F 
TMS320C55x Assembler PC v4.4.1 Sat Sep 29 23:08:33 2018

Tools Copyright (c) 1996-2012 Texas Instruments Incorporated
csl_usb_poll_example.asm                                             PAGE  142

         00015c 006E 
         00015d 006E 
         00015e 0065 
         00015f 0063 
         000160 0074 
         000161 0069 
         000162 006F 
         000163 006E 
         000164 0020 
         000165 0044 
         000166 0065 
         000167 0074 
         000168 0065 
         000169 0063 
         00016a 0074 
         00016b 0065 
         00016c 0064 
         00016d 0021 
         00016e 0021 
         00016f 000A 
         000170 0000 
    5830                      .align  2
    5831 000172 000A  $C$FSL17:       .string 10,"USB SUSPEND Callback",10,0
         000173 0055 
         000174 0053 
         000175 0042 
         000176 0020 
         000177 0053 
         000178 0055 
         000179 0053 
         00017a 0050 
         00017b 0045 
         00017c 004E 
         00017d 0044 
         00017e 0020 
         00017f 0043 
         000180 0061 
         000181 006C 
         000182 006C 
         000183 0062 
         000184 0061 
         000185 0063 
         000186 006B 
         000187 000A 
         000188 0000 
    5832                      .align  2
    5833 00018a 000A  $C$FSL18:       .string 10,"USB Self Wakeup CallBack",10,0
         00018b 0055 
         00018c 0053 
         00018d 0042 
         00018e 0020 
         00018f 0053 
         000190 0065 
         000191 006C 
         000192 0066 
TMS320C55x Assembler PC v4.4.1 Sat Sep 29 23:08:33 2018

Tools Copyright (c) 1996-2012 Texas Instruments Incorporated
csl_usb_poll_example.asm                                             PAGE  143

         000193 0020 
         000194 0057 
         000195 0061 
         000196 006B 
         000197 0065 
         000198 0075 
         000199 0070 
         00019a 0020 
         00019b 0043 
         00019c 0061 
         00019d 006C 
         00019e 006C 
         00019f 0042 
         0001a0 0061 
         0001a1 0063 
         0001a2 006B 
         0001a3 000A 
         0001a4 0000 
    5834                      .align  2
    5835 0001a6 0053  $C$FSL19:       .string "SAR Init Failed!!",10,0
         0001a7 0041 
         0001a8 0052 
         0001a9 0020 
         0001aa 0049 
         0001ab 006E 
         0001ac 0069 
         0001ad 0074 
         0001ae 0020 
         0001af 0046 
         0001b0 0061 
         0001b1 0069 
         0001b2 006C 
         0001b3 0065 
         0001b4 0064 
         0001b5 0021 
         0001b6 0021 
         0001b7 000A 
         0001b8 0000 
    5836                      .align  2
    5837 0001ba 0053  $C$FSL20:       .string "SAR_chanOpen Failed!!",10,0
         0001bb 0041 
         0001bc 0052 
         0001bd 005F 
         0001be 0063 
         0001bf 0068 
         0001c0 0061 
         0001c1 006E 
         0001c2 004F 
         0001c3 0070 
         0001c4 0065 
         0001c5 006E 
         0001c6 0020 
         0001c7 0046 
         0001c8 0061 
         0001c9 0069 
TMS320C55x Assembler PC v4.4.1 Sat Sep 29 23:08:33 2018

Tools Copyright (c) 1996-2012 Texas Instruments Incorporated
csl_usb_poll_example.asm                                             PAGE  144

         0001ca 006C 
         0001cb 0065 
         0001cc 0064 
         0001cd 0021 
         0001ce 0021 
         0001cf 000A 
         0001d0 0000 
    5838                      .align  2
    5839 0001d2 0053  $C$FSL21:       .string "SAR_chanInit Failed!!",10,0
         0001d3 0041 
         0001d4 0052 
         0001d5 005F 
         0001d6 0063 
         0001d7 0068 
         0001d8 0061 
         0001d9 006E 
         0001da 0049 
         0001db 006E 
         0001dc 0069 
         0001dd 0074 
         0001de 0020 
         0001df 0046 
         0001e0 0061 
         0001e1 0069 
         0001e2 006C 
         0001e3 0065 
         0001e4 0064 
         0001e5 0021 
         0001e6 0021 
         0001e7 000A 
         0001e8 0000 
    5840                      .align  2
    5841 0001ea 0053  $C$FSL22:       .string "SAR_chanConfig Failed!!",10,0
         0001eb 0041 
         0001ec 0052 
         0001ed 005F 
         0001ee 0063 
         0001ef 0068 
         0001f0 0061 
         0001f1 006E 
         0001f2 0043 
         0001f3 006F 
         0001f4 006E 
         0001f5 0066 
         0001f6 0069 
         0001f7 0067 
         0001f8 0020 
         0001f9 0046 
         0001fa 0061 
         0001fb 0069 
         0001fc 006C 
         0001fd 0065 
         0001fe 0064 
         0001ff 0021 
         000200 0021 
TMS320C55x Assembler PC v4.4.1 Sat Sep 29 23:08:33 2018

Tools Copyright (c) 1996-2012 Texas Instruments Incorporated
csl_usb_poll_example.asm                                             PAGE  145

         000201 000A 
         000202 0000 
    5842                      .align  2
    5843 000204 0053  $C$FSL23:       .string "SAR_chanCycSet Failed!!",10,0
         000205 0041 
         000206 0052 
         000207 005F 
         000208 0063 
         000209 0068 
         00020a 0061 
         00020b 006E 
         00020c 0043 
         00020d 0079 
         00020e 0063 
         00020f 0053 
         000210 0065 
         000211 0074 
         000212 0020 
         000213 0046 
         000214 0061 
         000215 0069 
         000216 006C 
         000217 0065 
         000218 0064 
         000219 0021 
         00021a 0021 
         00021b 000A 
         00021c 0000 
    5844                      .align  2
    5845 00021e 0053  $C$FSL24:       .string "SAR_A2DMeasParamSet Failed!!",10,0
         00021f 0041 
         000220 0052 
         000221 005F 
         000222 0041 
         000223 0032 
         000224 0044 
         000225 004D 
         000226 0065 
         000227 0061 
         000228 0073 
         000229 0050 
         00022a 0061 
         00022b 0072 
         00022c 0061 
         00022d 006D 
         00022e 0053 
         00022f 0065 
         000230 0074 
         000231 0020 
         000232 0046 
         000233 0061 
         000234 0069 
         000235 006C 
         000236 0065 
         000237 0064 
TMS320C55x Assembler PC v4.4.1 Sat Sep 29 23:08:33 2018

Tools Copyright (c) 1996-2012 Texas Instruments Incorporated
csl_usb_poll_example.asm                                             PAGE  146

         000238 0021 
         000239 0021 
         00023a 000A 
         00023b 0000 
    5846                      .align  2
    5847 00023c 0053  $C$FSL25:       .string "SAR_startConversion Failed!!",10,0
         00023d 0041 
         00023e 0052 
         00023f 005F 
         000240 0073 
         000241 0074 
         000242 0061 
         000243 0072 
         000244 0074 
         000245 0043 
         000246 006F 
         000247 006E 
         000248 0076 
         000249 0065 
         00024a 0072 
         00024b 0073 
         00024c 0069 
         00024d 006F 
         00024e 006E 
         00024f 0020 
         000250 0046 
         000251 0061 
         000252 0069 
         000253 006C 
         000254 0065 
         000255 0064 
         000256 0021 
         000257 0021 
         000258 000A 
         000259 0000 
    5848              ;******************************************************************************
    5849              ;* UNDEFINED EXTERNAL REFERENCES                                              *
    5850              ;******************************************************************************
    5851                      .global _printf
    5852                      .global _USB_init
    5853                      .global _USB_resetDev
    5854                      .global _USB_initEndptObj
    5855                      .global _USB_getSetupPacket
    5856                      .global _USB_postTransaction
    5857                      .global _USB_isTransactionDone
    5858                      .global _USB_bytesRemaining
    5859                      .global _USB_stallEndpt
    5860                      .global _USB_clearEndptStall
    5861                      .global _USB_getEndptStall
    5862                      .global _USB_epNumToHandle
    5863                      .global _USB_connectDev
    5864                      .global _USB_disconnectDev
    5865                      .global _USB_setRemoteWakeup
    5866                      .global _USB_getRemoteWakeupStat
    5867                      .global _USB_issueRemoteWakeup
TMS320C55x Assembler PC v4.4.1 Sat Sep 29 23:08:33 2018

Tools Copyright (c) 1996-2012 Texas Instruments Incorporated
csl_usb_poll_example.asm                                             PAGE  147

    5868                      .global _USB_setDevAddr
    5869                      .global _USB_suspendDevice
    5870                      .global _USB_selfwakeup
    5871                      .global _USB_setParams
    5872                      .global _USB_getDataCountReadFromFifo
    5873                      .global _IRQ_plug
    5874                      .global _IRQ_clear
    5875                      .global _IRQ_enable
    5876                      .global _IRQ_setVecs
    5877                      .global _IRQ_test
    5878                      .global _IRQ_globalDisable
    5879                      .global _IRQ_globalEnable
    5880                      .global _SAR_init
    5881                      .global _SAR_chanOpen
    5882                      .global _SAR_chanInit
    5883                      .global _SAR_chanSetup
    5884                      .global _SAR_chanCycSet
    5885                      .global _SAR_startConversion
    5886                      .global _SAR_A2DMeasParamSet
    5887                      .global _SAR_readData
    5888                      .global _VECSTART
    5889                      .global _usbRegisters
    5890                      .global _sysCtrlRegs
    5891                      .global _gUsbContext
    5892                      .global _memcpy
    5893              
    5894              ;*******************************************************************************
    5895              ;* TYPE INFORMATION                                                            *
    5896              ;*******************************************************************************
    5897              
    5898              $C$DW$T$29      .dwtag  DW_TAG_enumeration_type
    5899                      .dwattr $C$DW$T$29, DW_AT_byte_size(0x01)
    5900              $C$DW$475       .dwtag  DW_TAG_enumerator, DW_AT_name("CSL_SAR_POLLING"), DW_AT_const_value(0x00)
    5901              $C$DW$476       .dwtag  DW_TAG_enumerator, DW_AT_name("CSL_SAR_INTERRUPT"), DW_AT_const_value(0x01)
    5902              $C$DW$477       .dwtag  DW_TAG_enumerator, DW_AT_name("CSL_SAR_DMA"), DW_AT_const_value(0x02)
    5903                      .dwendtag $C$DW$T$29
    5904              
    5905              $C$DW$T$30      .dwtag  DW_TAG_typedef, DW_AT_name("CSL_SarOpMode")
    5906                      .dwattr $C$DW$T$30, DW_AT_type(*$C$DW$T$29)
    5907                      .dwattr $C$DW$T$30, DW_AT_language(DW_LANG_C)
    5908              
    5909              $C$DW$T$31      .dwtag  DW_TAG_enumeration_type
    5910                      .dwattr $C$DW$T$31, DW_AT_byte_size(0x01)
    5911              $C$DW$478       .dwtag  DW_TAG_enumerator, DW_AT_name("CSL_SAR_NO_DISCHARGE"), DW_AT_const_value(0x00)
    5912              $C$DW$479       .dwtag  DW_TAG_enumerator, DW_AT_name("CSL_SAR_DISCHARGE_ARRAY"), DW_AT_const_value(0x01)
    5913                      .dwendtag $C$DW$T$31
    5914              
    5915              $C$DW$T$32      .dwtag  DW_TAG_typedef, DW_AT_name("CSL_SarMultiCh")
    5916                      .dwattr $C$DW$T$32, DW_AT_type(*$C$DW$T$31)
    5917                      .dwattr $C$DW$T$32, DW_AT_language(DW_LANG_C)
    5918              
    5919              $C$DW$T$33      .dwtag  DW_TAG_enumeration_type
    5920                      .dwattr $C$DW$T$33, DW_AT_byte_size(0x01)
    5921              $C$DW$480       .dwtag  DW_TAG_enumerator, DW_AT_name("CSL_SAR_REF_0_8v"), DW_AT_const_value(0x00)
    5922              $C$DW$481       .dwtag  DW_TAG_enumerator, DW_AT_name("CSL_SAR_REF_1v"), DW_AT_const_value(0x01)
TMS320C55x Assembler PC v4.4.1 Sat Sep 29 23:08:33 2018

Tools Copyright (c) 1996-2012 Texas Instruments Incorporated
csl_usb_poll_example.asm                                             PAGE  148

    5923              $C$DW$482       .dwtag  DW_TAG_enumerator, DW_AT_name("CSL_SAR_REF_VIN"), DW_AT_const_value(0x02)
    5924                      .dwendtag $C$DW$T$33
    5925              
    5926              $C$DW$T$34      .dwtag  DW_TAG_typedef, DW_AT_name("CSL_RefVoltage")
    5927                      .dwattr $C$DW$T$34, DW_AT_type(*$C$DW$T$33)
    5928                      .dwattr $C$DW$T$34, DW_AT_language(DW_LANG_C)
    5929              
    5930              $C$DW$T$81      .dwtag  DW_TAG_enumeration_type
    5931                      .dwattr $C$DW$T$81, DW_AT_byte_size(0x01)
    5932              $C$DW$483       .dwtag  DW_TAG_enumerator, DW_AT_name("CSL_USB0"), DW_AT_const_value(0x00)
    5933              $C$DW$484       .dwtag  DW_TAG_enumerator, DW_AT_name("CSL_USB1"), DW_AT_const_value(0x01)
    5934              $C$DW$485       .dwtag  DW_TAG_enumerator, DW_AT_name("CSL_USB2"), DW_AT_const_value(0x02)
    5935                      .dwendtag $C$DW$T$81
    5936              
    5937              $C$DW$T$82      .dwtag  DW_TAG_typedef, DW_AT_name("CSL_UsbDevNum")
    5938                      .dwattr $C$DW$T$82, DW_AT_type(*$C$DW$T$81)
    5939                      .dwattr $C$DW$T$82, DW_AT_language(DW_LANG_C)
    5940              
    5941              $C$DW$T$83      .dwtag  DW_TAG_enumeration_type
    5942                      .dwattr $C$DW$T$83, DW_AT_byte_size(0x01)
    5943              $C$DW$486       .dwtag  DW_TAG_enumerator, DW_AT_name("CSL_USB_OPMODE_POLLED"), DW_AT_const_value(0x00)
    5944              $C$DW$487       .dwtag  DW_TAG_enumerator, DW_AT_name("CSL_USB_OPMODE_DMA"), DW_AT_const_value(0x01)
    5945              $C$DW$488       .dwtag  DW_TAG_enumerator, DW_AT_name("CSL_USB_OPMODE_DMA_TXONLY"), DW_AT_const_value(0x02)
    5946                      .dwendtag $C$DW$T$83
    5947              
    5948              $C$DW$T$84      .dwtag  DW_TAG_typedef, DW_AT_name("CSL_UsbOpMode")
    5949                      .dwattr $C$DW$T$84, DW_AT_type(*$C$DW$T$83)
    5950                      .dwattr $C$DW$T$84, DW_AT_language(DW_LANG_C)
    5951              
    5952              $C$DW$T$101     .dwtag  DW_TAG_enumeration_type
    5953                      .dwattr $C$DW$T$101, DW_AT_byte_size(0x01)
    5954              $C$DW$489       .dwtag  DW_TAG_enumerator, DW_AT_name("CSL_USB_FALSE"), DW_AT_const_value(0x00)
    5955              $C$DW$490       .dwtag  DW_TAG_enumerator, DW_AT_name("CSL_USB_TRUE"), DW_AT_const_value(0x01)
    5956                      .dwendtag $C$DW$T$101
    5957              
    5958              $C$DW$T$102     .dwtag  DW_TAG_typedef, DW_AT_name("CSL_UsbBoolean")
    5959                      .dwattr $C$DW$T$102, DW_AT_type(*$C$DW$T$101)
    5960                      .dwattr $C$DW$T$102, DW_AT_language(DW_LANG_C)
    5961              
    5962              $C$DW$T$105     .dwtag  DW_TAG_enumeration_type
    5963                      .dwattr $C$DW$T$105, DW_AT_byte_size(0x01)
    5964              $C$DW$491       .dwtag  DW_TAG_enumerator, DW_AT_name("CSL_USB_BS_UNKNOWN_SPEED"), DW_AT_const_value(0x00)
    5965              $C$DW$492       .dwtag  DW_TAG_enumerator, DW_AT_name("CSL_USB_BS_FULL_SPEED"), DW_AT_const_value(0x02)
    5966              $C$DW$493       .dwtag  DW_TAG_enumerator, DW_AT_name("CSL_USB_BS_HIGH_SPEED"), DW_AT_const_value(0x04)
    5967                      .dwendtag $C$DW$T$105
    5968              
    5969              $C$DW$T$106     .dwtag  DW_TAG_typedef, DW_AT_name("CSL_UsbBusSpeed")
    5970                      .dwattr $C$DW$T$106, DW_AT_type(*$C$DW$T$105)
    5971                      .dwattr $C$DW$T$106, DW_AT_language(DW_LANG_C)
    5972              
    5973              $C$DW$T$107     .dwtag  DW_TAG_enumeration_type
    5974                      .dwattr $C$DW$T$107, DW_AT_byte_size(0x01)
    5975              $C$DW$494       .dwtag  DW_TAG_enumerator, DW_AT_name("CSL_USB_EP0_IDLE"), DW_AT_const_value(0x00)
    5976              $C$DW$495       .dwtag  DW_TAG_enumerator, DW_AT_name("CSL_USB_EP0_STATUS_IN"), DW_AT_const_value(0x01)
    5977              $C$DW$496       .dwtag  DW_TAG_enumerator, DW_AT_name("CSL_USB_EP0_TX"), DW_AT_const_value(0x02)
TMS320C55x Assembler PC v4.4.1 Sat Sep 29 23:08:33 2018

Tools Copyright (c) 1996-2012 Texas Instruments Incorporated
csl_usb_poll_example.asm                                             PAGE  149

    5978              $C$DW$497       .dwtag  DW_TAG_enumerator, DW_AT_name("CSL_USB_EP0_RX"), DW_AT_const_value(0x03)
    5979                      .dwendtag $C$DW$T$107
    5980              
    5981              $C$DW$T$108     .dwtag  DW_TAG_typedef, DW_AT_name("CSL_UsbEp0State")
    5982                      .dwattr $C$DW$T$108, DW_AT_type(*$C$DW$T$107)
    5983                      .dwattr $C$DW$T$108, DW_AT_language(DW_LANG_C)
    5984              
    5985              $C$DW$T$109     .dwtag  DW_TAG_enumeration_type
    5986                      .dwattr $C$DW$T$109, DW_AT_byte_size(0x01)
    5987              $C$DW$498       .dwtag  DW_TAG_enumerator, DW_AT_name("CSL_USB_DEVICE_DETACH"), DW_AT_const_value(0x00)
    5988              $C$DW$499       .dwtag  DW_TAG_enumerator, DW_AT_name("CSL_USB_DEVICE_ATTACH"), DW_AT_const_value(0x01)
    5989                      .dwendtag $C$DW$T$109
    5990              
    5991              $C$DW$T$110     .dwtag  DW_TAG_typedef, DW_AT_name("CSL_UsbDeviceEvent")
    5992                      .dwattr $C$DW$T$110, DW_AT_type(*$C$DW$T$109)
    5993                      .dwattr $C$DW$T$110, DW_AT_language(DW_LANG_C)
    5994              
    5995              $C$DW$T$121     .dwtag  DW_TAG_enumeration_type
    5996                      .dwattr $C$DW$T$121, DW_AT_byte_size(0x01)
    5997              $C$DW$500       .dwtag  DW_TAG_enumerator, DW_AT_name("CSL_USB_OUT_EP0"), DW_AT_const_value(0x00)
    5998              $C$DW$501       .dwtag  DW_TAG_enumerator, DW_AT_name("CSL_USB_OUT_EP1"), DW_AT_const_value(0x01)
    5999              $C$DW$502       .dwtag  DW_TAG_enumerator, DW_AT_name("CSL_USB_OUT_EP2"), DW_AT_const_value(0x02)
    6000              $C$DW$503       .dwtag  DW_TAG_enumerator, DW_AT_name("CSL_USB_OUT_EP3"), DW_AT_const_value(0x03)
    6001              $C$DW$504       .dwtag  DW_TAG_enumerator, DW_AT_name("CSL_USB_OUT_EP4"), DW_AT_const_value(0x04)
    6002              $C$DW$505       .dwtag  DW_TAG_enumerator, DW_AT_name("CSL_USB_OUT_EP5"), DW_AT_const_value(0x05)
    6003              $C$DW$506       .dwtag  DW_TAG_enumerator, DW_AT_name("CSL_USB_OUT_EP6"), DW_AT_const_value(0x06)
    6004              $C$DW$507       .dwtag  DW_TAG_enumerator, DW_AT_name("CSL_USB_OUT_EP7"), DW_AT_const_value(0x07)
    6005              $C$DW$508       .dwtag  DW_TAG_enumerator, DW_AT_name("CSL_USB_IN_EP0"), DW_AT_const_value(0x08)
    6006              $C$DW$509       .dwtag  DW_TAG_enumerator, DW_AT_name("CSL_USB_IN_EP1"), DW_AT_const_value(0x09)
    6007              $C$DW$510       .dwtag  DW_TAG_enumerator, DW_AT_name("CSL_USB_IN_EP2"), DW_AT_const_value(0x0a)
    6008              $C$DW$511       .dwtag  DW_TAG_enumerator, DW_AT_name("CSL_USB_IN_EP3"), DW_AT_const_value(0x0b)
    6009              $C$DW$512       .dwtag  DW_TAG_enumerator, DW_AT_name("CSL_USB_IN_EP4"), DW_AT_const_value(0x0c)
    6010              $C$DW$513       .dwtag  DW_TAG_enumerator, DW_AT_name("CSL_USB_IN_EP5"), DW_AT_const_value(0x0d)
    6011              $C$DW$514       .dwtag  DW_TAG_enumerator, DW_AT_name("CSL_USB_IN_EP6"), DW_AT_const_value(0x0e)
    6012              $C$DW$515       .dwtag  DW_TAG_enumerator, DW_AT_name("CSL_USB_IN_EP7"), DW_AT_const_value(0x0f)
    6013                      .dwendtag $C$DW$T$121
    6014              
    6015              $C$DW$T$122     .dwtag  DW_TAG_typedef, DW_AT_name("CSL_UsbEpNum")
    6016                      .dwattr $C$DW$T$122, DW_AT_type(*$C$DW$T$121)
    6017                      .dwattr $C$DW$T$122, DW_AT_language(DW_LANG_C)
    6018              
    6019              $C$DW$T$123     .dwtag  DW_TAG_enumeration_type
    6020                      .dwattr $C$DW$T$123, DW_AT_byte_size(0x01)
    6021              $C$DW$516       .dwtag  DW_TAG_enumerator, DW_AT_name("CSL_USB_CTRL"), DW_AT_const_value(0x00)
    6022              $C$DW$517       .dwtag  DW_TAG_enumerator, DW_AT_name("CSL_USB_BULK"), DW_AT_const_value(0x01)
    6023              $C$DW$518       .dwtag  DW_TAG_enumerator, DW_AT_name("CSL_USB_INTR"), DW_AT_const_value(0x02)
    6024              $C$DW$519       .dwtag  DW_TAG_enumerator, DW_AT_name("CSL_USB_ISO"), DW_AT_const_value(0x03)
    6025              $C$DW$520       .dwtag  DW_TAG_enumerator, DW_AT_name("CSL_USB_HPORT"), DW_AT_const_value(0x04)
    6026                      .dwendtag $C$DW$T$123
    6027              
    6028              $C$DW$T$124     .dwtag  DW_TAG_typedef, DW_AT_name("CSL_UsbXferType")
    6029                      .dwattr $C$DW$T$124, DW_AT_type(*$C$DW$T$123)
    6030                      .dwattr $C$DW$T$124, DW_AT_language(DW_LANG_C)
    6031              
    6032              $C$DW$T$143     .dwtag  DW_TAG_enumeration_type
TMS320C55x Assembler PC v4.4.1 Sat Sep 29 23:08:33 2018

Tools Copyright (c) 1996-2012 Texas Instruments Incorporated
csl_usb_poll_example.asm                                             PAGE  150

    6033                      .dwattr $C$DW$T$143, DW_AT_byte_size(0x01)
    6034              $C$DW$521       .dwtag  DW_TAG_enumerator, DW_AT_name("CSL_SAR_CHAN_0"), DW_AT_const_value(0x00)
    6035              $C$DW$522       .dwtag  DW_TAG_enumerator, DW_AT_name("CSL_SAR_CHAN_1"), DW_AT_const_value(0x01)
    6036              $C$DW$523       .dwtag  DW_TAG_enumerator, DW_AT_name("CSL_SAR_CHAN_2"), DW_AT_const_value(0x02)
    6037              $C$DW$524       .dwtag  DW_TAG_enumerator, DW_AT_name("CSL_SAR_CHAN_3"), DW_AT_const_value(0x03)
    6038              $C$DW$525       .dwtag  DW_TAG_enumerator, DW_AT_name("CSL_SAR_CHAN_4"), DW_AT_const_value(0x04)
    6039              $C$DW$526       .dwtag  DW_TAG_enumerator, DW_AT_name("CSL_SAR_CHAN_5"), DW_AT_const_value(0x05)
    6040              $C$DW$527       .dwtag  DW_TAG_enumerator, DW_AT_name("CSL_SAR_NO_CHAN"), DW_AT_const_value(0x06)
    6041                      .dwendtag $C$DW$T$143
    6042              
    6043              $C$DW$T$144     .dwtag  DW_TAG_typedef, DW_AT_name("CSL_SarChanSel")
    6044                      .dwattr $C$DW$T$144, DW_AT_type(*$C$DW$T$143)
    6045                      .dwattr $C$DW$T$144, DW_AT_language(DW_LANG_C)
    6046              $C$DW$T$145     .dwtag  DW_TAG_pointer_type
    6047                      .dwattr $C$DW$T$145, DW_AT_type(*$C$DW$T$144)
    6048                      .dwattr $C$DW$T$145, DW_AT_address_class(0x17)
    6049              
    6050              $C$DW$T$146     .dwtag  DW_TAG_enumeration_type
    6051                      .dwattr $C$DW$T$146, DW_AT_byte_size(0x01)
    6052              $C$DW$528       .dwtag  DW_TAG_enumerator, DW_AT_name("CSL_SAR_CONTINUOUS_CONVERSION"), DW_AT_const_value(0x0
    6053              $C$DW$529       .dwtag  DW_TAG_enumerator, DW_AT_name("CSL_SAR_SINGLE_CONVERSION"), DW_AT_const_value(0x01)
    6054                      .dwendtag $C$DW$T$146
    6055              
    6056              $C$DW$T$147     .dwtag  DW_TAG_typedef, DW_AT_name("CSL_SarChanCyc")
    6057                      .dwattr $C$DW$T$147, DW_AT_type(*$C$DW$T$146)
    6058                      .dwattr $C$DW$T$147, DW_AT_language(DW_LANG_C)
    6059              
    6060              $C$DW$T$148     .dwtag  DW_TAG_enumeration_type
    6061                      .dwattr $C$DW$T$148, DW_AT_byte_size(0x01)
    6062              $C$DW$530       .dwtag  DW_TAG_enumerator, DW_AT_name("CSL_KEYPAD_MEAS"), DW_AT_const_value(0x00)
    6063              $C$DW$531       .dwtag  DW_TAG_enumerator, DW_AT_name("CSL_BATTRY_MEAS"), DW_AT_const_value(0x01)
    6064              $C$DW$532       .dwtag  DW_TAG_enumerator, DW_AT_name("CSL_INT_VOLT_MEAS"), DW_AT_const_value(0x02)
    6065              $C$DW$533       .dwtag  DW_TAG_enumerator, DW_AT_name("CSL_VOLUME_CTRL"), DW_AT_const_value(0x03)
    6066              $C$DW$534       .dwtag  DW_TAG_enumerator, DW_AT_name("CSL_TOUCH_SCREEN_XAXIS"), DW_AT_const_value(0x04)
    6067              $C$DW$535       .dwtag  DW_TAG_enumerator, DW_AT_name("CSL_TOUCH_SCREEN_YAXIS"), DW_AT_const_value(0x05)
    6068              $C$DW$536       .dwtag  DW_TAG_enumerator, DW_AT_name("CSL_PEN_PRESS_DOWN"), DW_AT_const_value(0x06)
    6069                      .dwendtag $C$DW$T$148
    6070              
    6071              $C$DW$T$149     .dwtag  DW_TAG_typedef, DW_AT_name("CSL_SARMeasParam")
    6072                      .dwattr $C$DW$T$149, DW_AT_type(*$C$DW$T$148)
    6073                      .dwattr $C$DW$T$149, DW_AT_language(DW_LANG_C)
    6074              
    6075              $C$DW$T$23      .dwtag  DW_TAG_structure_type
    6076                      .dwattr $C$DW$T$23, DW_AT_byte_size(0x1b)
    6077              $C$DW$537       .dwtag  DW_TAG_member
    6078                      .dwattr $C$DW$537, DW_AT_type(*$C$DW$T$21)
    6079                      .dwattr $C$DW$537, DW_AT_name("RSVD0")
    6080                      .dwattr $C$DW$537, DW_AT_TI_symbol_name("_RSVD0")
    6081                      .dwattr $C$DW$537, DW_AT_data_member_location[DW_OP_plus_uconst 0x0]
    6082                      .dwattr $C$DW$537, DW_AT_accessibility(DW_ACCESS_public)
    6083              $C$DW$538       .dwtag  DW_TAG_member
    6084                      .dwattr $C$DW$538, DW_AT_type(*$C$DW$T$20)
    6085                      .dwattr $C$DW$538, DW_AT_name("USBLDOCNTL")
    6086                      .dwattr $C$DW$538, DW_AT_TI_symbol_name("_USBLDOCNTL")
    6087                      .dwattr $C$DW$538, DW_AT_data_member_location[DW_OP_plus_uconst 0x4]
TMS320C55x Assembler PC v4.4.1 Sat Sep 29 23:08:33 2018

Tools Copyright (c) 1996-2012 Texas Instruments Incorporated
csl_usb_poll_example.asm                                             PAGE  151

    6088                      .dwattr $C$DW$538, DW_AT_accessibility(DW_ACCESS_public)
    6089              $C$DW$539       .dwtag  DW_TAG_member
    6090                      .dwattr $C$DW$539, DW_AT_type(*$C$DW$T$22)
    6091                      .dwattr $C$DW$539, DW_AT_name("RSVD1")
    6092                      .dwattr $C$DW$539, DW_AT_TI_symbol_name("_RSVD1")
    6093                      .dwattr $C$DW$539, DW_AT_data_member_location[DW_OP_plus_uconst 0x5]
    6094                      .dwattr $C$DW$539, DW_AT_accessibility(DW_ACCESS_public)
    6095              $C$DW$540       .dwtag  DW_TAG_member
    6096                      .dwattr $C$DW$540, DW_AT_type(*$C$DW$T$20)
    6097                      .dwattr $C$DW$540, DW_AT_name("SARCTRL")
    6098                      .dwattr $C$DW$540, DW_AT_TI_symbol_name("_SARCTRL")
    6099                      .dwattr $C$DW$540, DW_AT_data_member_location[DW_OP_plus_uconst 0x12]
    6100                      .dwattr $C$DW$540, DW_AT_accessibility(DW_ACCESS_public)
    6101              $C$DW$541       .dwtag  DW_TAG_member
    6102                      .dwattr $C$DW$541, DW_AT_type(*$C$DW$T$20)
    6103                      .dwattr $C$DW$541, DW_AT_name("RSVD2")
    6104                      .dwattr $C$DW$541, DW_AT_TI_symbol_name("_RSVD2")
    6105                      .dwattr $C$DW$541, DW_AT_data_member_location[DW_OP_plus_uconst 0x13]
    6106                      .dwattr $C$DW$541, DW_AT_accessibility(DW_ACCESS_public)
    6107              $C$DW$542       .dwtag  DW_TAG_member
    6108                      .dwattr $C$DW$542, DW_AT_type(*$C$DW$T$20)
    6109                      .dwattr $C$DW$542, DW_AT_name("SARDATA")
    6110                      .dwattr $C$DW$542, DW_AT_TI_symbol_name("_SARDATA")
    6111                      .dwattr $C$DW$542, DW_AT_data_member_location[DW_OP_plus_uconst 0x14]
    6112                      .dwattr $C$DW$542, DW_AT_accessibility(DW_ACCESS_public)
    6113              $C$DW$543       .dwtag  DW_TAG_member
    6114                      .dwattr $C$DW$543, DW_AT_type(*$C$DW$T$20)
    6115                      .dwattr $C$DW$543, DW_AT_name("RSVD3")
    6116                      .dwattr $C$DW$543, DW_AT_TI_symbol_name("_RSVD3")
    6117                      .dwattr $C$DW$543, DW_AT_data_member_location[DW_OP_plus_uconst 0x15]
    6118                      .dwattr $C$DW$543, DW_AT_accessibility(DW_ACCESS_public)
    6119              $C$DW$544       .dwtag  DW_TAG_member
    6120                      .dwattr $C$DW$544, DW_AT_type(*$C$DW$T$20)
    6121                      .dwattr $C$DW$544, DW_AT_name("SARCLKCTRL")
    6122                      .dwattr $C$DW$544, DW_AT_TI_symbol_name("_SARCLKCTRL")
    6123                      .dwattr $C$DW$544, DW_AT_data_member_location[DW_OP_plus_uconst 0x16]
    6124                      .dwattr $C$DW$544, DW_AT_accessibility(DW_ACCESS_public)
    6125              $C$DW$545       .dwtag  DW_TAG_member
    6126                      .dwattr $C$DW$545, DW_AT_type(*$C$DW$T$20)
    6127                      .dwattr $C$DW$545, DW_AT_name("RSVD4")
    6128                      .dwattr $C$DW$545, DW_AT_TI_symbol_name("_RSVD4")
    6129                      .dwattr $C$DW$545, DW_AT_data_member_location[DW_OP_plus_uconst 0x17]
    6130                      .dwattr $C$DW$545, DW_AT_accessibility(DW_ACCESS_public)
    6131              $C$DW$546       .dwtag  DW_TAG_member
    6132                      .dwattr $C$DW$546, DW_AT_type(*$C$DW$T$20)
    6133                      .dwattr $C$DW$546, DW_AT_name("SARPINCTRL")
    6134                      .dwattr $C$DW$546, DW_AT_TI_symbol_name("_SARPINCTRL")
    6135                      .dwattr $C$DW$546, DW_AT_data_member_location[DW_OP_plus_uconst 0x18]
    6136                      .dwattr $C$DW$546, DW_AT_accessibility(DW_ACCESS_public)
    6137              $C$DW$547       .dwtag  DW_TAG_member
    6138                      .dwattr $C$DW$547, DW_AT_type(*$C$DW$T$20)
    6139                      .dwattr $C$DW$547, DW_AT_name("RSVD5")
    6140                      .dwattr $C$DW$547, DW_AT_TI_symbol_name("_RSVD5")
    6141                      .dwattr $C$DW$547, DW_AT_data_member_location[DW_OP_plus_uconst 0x19]
    6142                      .dwattr $C$DW$547, DW_AT_accessibility(DW_ACCESS_public)
TMS320C55x Assembler PC v4.4.1 Sat Sep 29 23:08:33 2018

Tools Copyright (c) 1996-2012 Texas Instruments Incorporated
csl_usb_poll_example.asm                                             PAGE  152

    6143              $C$DW$548       .dwtag  DW_TAG_member
    6144                      .dwattr $C$DW$548, DW_AT_type(*$C$DW$T$20)
    6145                      .dwattr $C$DW$548, DW_AT_name("SARGPOCTRL")
    6146                      .dwattr $C$DW$548, DW_AT_TI_symbol_name("_SARGPOCTRL")
    6147                      .dwattr $C$DW$548, DW_AT_data_member_location[DW_OP_plus_uconst 0x1a]
    6148                      .dwattr $C$DW$548, DW_AT_accessibility(DW_ACCESS_public)
    6149                      .dwendtag $C$DW$T$23
    6150              
    6151              $C$DW$T$24      .dwtag  DW_TAG_typedef, DW_AT_name("CSL_AnactrlRegs")
    6152                      .dwattr $C$DW$T$24, DW_AT_type(*$C$DW$T$23)
    6153                      .dwattr $C$DW$T$24, DW_AT_language(DW_LANG_C)
    6154              $C$DW$549       .dwtag  DW_TAG_TI_far_type
    6155                      .dwattr $C$DW$549, DW_AT_type(*$C$DW$T$24)
    6156              $C$DW$550       .dwtag  DW_TAG_TI_ioport_type
    6157                      .dwattr $C$DW$550, DW_AT_type(*$C$DW$549)
    6158              $C$DW$T$25      .dwtag  DW_TAG_volatile_type
    6159                      .dwattr $C$DW$T$25, DW_AT_type(*$C$DW$550)
    6160              $C$DW$T$26      .dwtag  DW_TAG_pointer_type
    6161                      .dwattr $C$DW$T$26, DW_AT_type(*$C$DW$T$25)
    6162                      .dwattr $C$DW$T$26, DW_AT_address_class(0x10)
    6163              $C$DW$T$27      .dwtag  DW_TAG_typedef, DW_AT_name("CSL_SarRegsOvly")
    6164                      .dwattr $C$DW$T$27, DW_AT_type(*$C$DW$T$26)
    6165                      .dwattr $C$DW$T$27, DW_AT_language(DW_LANG_C)
    6166              
    6167              $C$DW$T$28      .dwtag  DW_TAG_structure_type
    6168                      .dwattr $C$DW$T$28, DW_AT_byte_size(0x03)
    6169              $C$DW$551       .dwtag  DW_TAG_member
    6170                      .dwattr $C$DW$551, DW_AT_type(*$C$DW$T$27)
    6171                      .dwattr $C$DW$551, DW_AT_name("baseAddr")
    6172                      .dwattr $C$DW$551, DW_AT_TI_symbol_name("_baseAddr")
    6173                      .dwattr $C$DW$551, DW_AT_data_member_location[DW_OP_plus_uconst 0x0]
    6174                      .dwattr $C$DW$551, DW_AT_accessibility(DW_ACCESS_public)
    6175              $C$DW$552       .dwtag  DW_TAG_member
    6176                      .dwattr $C$DW$552, DW_AT_type(*$C$DW$T$19)
    6177                      .dwattr $C$DW$552, DW_AT_name("chanNo")
    6178                      .dwattr $C$DW$552, DW_AT_TI_symbol_name("_chanNo")
    6179                      .dwattr $C$DW$552, DW_AT_data_member_location[DW_OP_plus_uconst 0x1]
    6180                      .dwattr $C$DW$552, DW_AT_accessibility(DW_ACCESS_public)
    6181              $C$DW$553       .dwtag  DW_TAG_member
    6182                      .dwattr $C$DW$553, DW_AT_type(*$C$DW$T$19)
    6183                      .dwattr $C$DW$553, DW_AT_name("status")
    6184                      .dwattr $C$DW$553, DW_AT_TI_symbol_name("_status")
    6185                      .dwattr $C$DW$553, DW_AT_data_member_location[DW_OP_plus_uconst 0x2]
    6186                      .dwattr $C$DW$553, DW_AT_accessibility(DW_ACCESS_public)
    6187                      .dwendtag $C$DW$T$28
    6188              
    6189              $C$DW$T$150     .dwtag  DW_TAG_typedef, DW_AT_name("CSL_SarHandleObj")
    6190                      .dwattr $C$DW$T$150, DW_AT_type(*$C$DW$T$28)
    6191                      .dwattr $C$DW$T$150, DW_AT_language(DW_LANG_C)
    6192              $C$DW$T$151     .dwtag  DW_TAG_pointer_type
    6193                      .dwattr $C$DW$T$151, DW_AT_type(*$C$DW$T$150)
    6194                      .dwattr $C$DW$T$151, DW_AT_address_class(0x17)
    6195              $C$DW$T$152     .dwtag  DW_TAG_typedef, DW_AT_name("SAR_Handle")
    6196                      .dwattr $C$DW$T$152, DW_AT_type(*$C$DW$T$151)
    6197                      .dwattr $C$DW$T$152, DW_AT_language(DW_LANG_C)
TMS320C55x Assembler PC v4.4.1 Sat Sep 29 23:08:33 2018

Tools Copyright (c) 1996-2012 Texas Instruments Incorporated
csl_usb_poll_example.asm                                             PAGE  153

    6198              
    6199              $C$DW$T$35      .dwtag  DW_TAG_structure_type
    6200                      .dwattr $C$DW$T$35, DW_AT_byte_size(0x04)
    6201              $C$DW$554       .dwtag  DW_TAG_member
    6202                      .dwattr $C$DW$554, DW_AT_type(*$C$DW$T$19)
    6203                      .dwattr $C$DW$554, DW_AT_name("SysClkDiv")
    6204                      .dwattr $C$DW$554, DW_AT_TI_symbol_name("_SysClkDiv")
    6205                      .dwattr $C$DW$554, DW_AT_data_member_location[DW_OP_plus_uconst 0x0]
    6206                      .dwattr $C$DW$554, DW_AT_accessibility(DW_ACCESS_public)
    6207              $C$DW$555       .dwtag  DW_TAG_member
    6208                      .dwattr $C$DW$555, DW_AT_type(*$C$DW$T$30)
    6209                      .dwattr $C$DW$555, DW_AT_name("OpMode")
    6210                      .dwattr $C$DW$555, DW_AT_TI_symbol_name("_OpMode")
    6211                      .dwattr $C$DW$555, DW_AT_data_member_location[DW_OP_plus_uconst 0x1]
    6212                      .dwattr $C$DW$555, DW_AT_accessibility(DW_ACCESS_public)
    6213              $C$DW$556       .dwtag  DW_TAG_member
    6214                      .dwattr $C$DW$556, DW_AT_type(*$C$DW$T$32)
    6215                      .dwattr $C$DW$556, DW_AT_name("MultiCh")
    6216                      .dwattr $C$DW$556, DW_AT_TI_symbol_name("_MultiCh")
    6217                      .dwattr $C$DW$556, DW_AT_data_member_location[DW_OP_plus_uconst 0x2]
    6218                      .dwattr $C$DW$556, DW_AT_accessibility(DW_ACCESS_public)
    6219              $C$DW$557       .dwtag  DW_TAG_member
    6220                      .dwattr $C$DW$557, DW_AT_type(*$C$DW$T$34)
    6221                      .dwattr $C$DW$557, DW_AT_name("RefVoltage")
    6222                      .dwattr $C$DW$557, DW_AT_TI_symbol_name("_RefVoltage")
    6223                      .dwattr $C$DW$557, DW_AT_data_member_location[DW_OP_plus_uconst 0x3]
    6224                      .dwattr $C$DW$557, DW_AT_accessibility(DW_ACCESS_public)
    6225                      .dwendtag $C$DW$T$35
    6226              
    6227              $C$DW$T$153     .dwtag  DW_TAG_typedef, DW_AT_name("CSL_SarChSetup")
    6228                      .dwattr $C$DW$T$153, DW_AT_type(*$C$DW$T$35)
    6229                      .dwattr $C$DW$T$153, DW_AT_language(DW_LANG_C)
    6230              $C$DW$T$154     .dwtag  DW_TAG_pointer_type
    6231                      .dwattr $C$DW$T$154, DW_AT_type(*$C$DW$T$153)
    6232                      .dwattr $C$DW$T$154, DW_AT_address_class(0x17)
    6233              
    6234              $C$DW$T$37      .dwtag  DW_TAG_structure_type
    6235                      .dwattr $C$DW$T$37, DW_AT_byte_size(0x08)
    6236              $C$DW$558       .dwtag  DW_TAG_member
    6237                      .dwattr $C$DW$558, DW_AT_type(*$C$DW$T$20)
    6238                      .dwattr $C$DW$558, DW_AT_name("TXFUNCADDR")
    6239                      .dwattr $C$DW$558, DW_AT_TI_symbol_name("_TXFUNCADDR")
    6240                      .dwattr $C$DW$558, DW_AT_data_member_location[DW_OP_plus_uconst 0x0]
    6241                      .dwattr $C$DW$558, DW_AT_accessibility(DW_ACCESS_public)
    6242              $C$DW$559       .dwtag  DW_TAG_member
    6243                      .dwattr $C$DW$559, DW_AT_type(*$C$DW$T$20)
    6244                      .dwattr $C$DW$559, DW_AT_name("TXHUBADDR_TXHUBPORT")
    6245                      .dwattr $C$DW$559, DW_AT_TI_symbol_name("_TXHUBADDR_TXHUBPORT")
    6246                      .dwattr $C$DW$559, DW_AT_data_member_location[DW_OP_plus_uconst 0x1]
    6247                      .dwattr $C$DW$559, DW_AT_accessibility(DW_ACCESS_public)
    6248              $C$DW$560       .dwtag  DW_TAG_member
    6249                      .dwattr $C$DW$560, DW_AT_type(*$C$DW$T$36)
    6250                      .dwattr $C$DW$560, DW_AT_name("RSVD0")
    6251                      .dwattr $C$DW$560, DW_AT_TI_symbol_name("_RSVD0")
    6252                      .dwattr $C$DW$560, DW_AT_data_member_location[DW_OP_plus_uconst 0x2]
TMS320C55x Assembler PC v4.4.1 Sat Sep 29 23:08:33 2018

Tools Copyright (c) 1996-2012 Texas Instruments Incorporated
csl_usb_poll_example.asm                                             PAGE  154

    6253                      .dwattr $C$DW$560, DW_AT_accessibility(DW_ACCESS_public)
    6254              $C$DW$561       .dwtag  DW_TAG_member
    6255                      .dwattr $C$DW$561, DW_AT_type(*$C$DW$T$20)
    6256                      .dwattr $C$DW$561, DW_AT_name("RXFUNCADDR")
    6257                      .dwattr $C$DW$561, DW_AT_TI_symbol_name("_RXFUNCADDR")
    6258                      .dwattr $C$DW$561, DW_AT_data_member_location[DW_OP_plus_uconst 0x4]
    6259                      .dwattr $C$DW$561, DW_AT_accessibility(DW_ACCESS_public)
    6260              $C$DW$562       .dwtag  DW_TAG_member
    6261                      .dwattr $C$DW$562, DW_AT_type(*$C$DW$T$20)
    6262                      .dwattr $C$DW$562, DW_AT_name("RXHUBADDR_RXHUBPORT")
    6263                      .dwattr $C$DW$562, DW_AT_TI_symbol_name("_RXHUBADDR_RXHUBPORT")
    6264                      .dwattr $C$DW$562, DW_AT_data_member_location[DW_OP_plus_uconst 0x5]
    6265                      .dwattr $C$DW$562, DW_AT_accessibility(DW_ACCESS_public)
    6266              $C$DW$563       .dwtag  DW_TAG_member
    6267                      .dwattr $C$DW$563, DW_AT_type(*$C$DW$T$36)
    6268                      .dwattr $C$DW$563, DW_AT_name("RSVD36")
    6269                      .dwattr $C$DW$563, DW_AT_TI_symbol_name("_RSVD36")
    6270                      .dwattr $C$DW$563, DW_AT_data_member_location[DW_OP_plus_uconst 0x6]
    6271                      .dwattr $C$DW$563, DW_AT_accessibility(DW_ACCESS_public)
    6272                      .dwendtag $C$DW$T$37
    6273              
    6274              $C$DW$T$53      .dwtag  DW_TAG_typedef, DW_AT_name("CSL_UsbEptrgRegs")
    6275                      .dwattr $C$DW$T$53, DW_AT_type(*$C$DW$T$37)
    6276                      .dwattr $C$DW$T$53, DW_AT_language(DW_LANG_C)
    6277              
    6278              $C$DW$T$54      .dwtag  DW_TAG_array_type
    6279                      .dwattr $C$DW$T$54, DW_AT_type(*$C$DW$T$53)
    6280                      .dwattr $C$DW$T$54, DW_AT_language(DW_LANG_C)
    6281                      .dwattr $C$DW$T$54, DW_AT_byte_size(0x28)
    6282              $C$DW$564       .dwtag  DW_TAG_subrange_type
    6283                      .dwattr $C$DW$564, DW_AT_upper_bound(0x04)
    6284                      .dwendtag $C$DW$T$54
    6285              
    6286              
    6287              $C$DW$T$39      .dwtag  DW_TAG_structure_type
    6288                      .dwattr $C$DW$T$39, DW_AT_byte_size(0x10)
    6289              $C$DW$565       .dwtag  DW_TAG_member
    6290                      .dwattr $C$DW$565, DW_AT_type(*$C$DW$T$20)
    6291                      .dwattr $C$DW$565, DW_AT_name("TXMAXP")
    6292                      .dwattr $C$DW$565, DW_AT_TI_symbol_name("_TXMAXP")
    6293                      .dwattr $C$DW$565, DW_AT_data_member_location[DW_OP_plus_uconst 0x0]
    6294                      .dwattr $C$DW$565, DW_AT_accessibility(DW_ACCESS_public)
    6295              $C$DW$566       .dwtag  DW_TAG_member
    6296                      .dwattr $C$DW$566, DW_AT_type(*$C$DW$T$20)
    6297                      .dwattr $C$DW$566, DW_AT_name("PERI_TXCSR")
    6298                      .dwattr $C$DW$566, DW_AT_TI_symbol_name("_PERI_TXCSR")
    6299                      .dwattr $C$DW$566, DW_AT_data_member_location[DW_OP_plus_uconst 0x1]
    6300                      .dwattr $C$DW$566, DW_AT_accessibility(DW_ACCESS_public)
    6301              $C$DW$567       .dwtag  DW_TAG_member
    6302                      .dwattr $C$DW$567, DW_AT_type(*$C$DW$T$36)
    6303                      .dwattr $C$DW$567, DW_AT_name("RSVD0")
    6304                      .dwattr $C$DW$567, DW_AT_TI_symbol_name("_RSVD0")
    6305                      .dwattr $C$DW$567, DW_AT_data_member_location[DW_OP_plus_uconst 0x2]
    6306                      .dwattr $C$DW$567, DW_AT_accessibility(DW_ACCESS_public)
    6307              $C$DW$568       .dwtag  DW_TAG_member
TMS320C55x Assembler PC v4.4.1 Sat Sep 29 23:08:33 2018

Tools Copyright (c) 1996-2012 Texas Instruments Incorporated
csl_usb_poll_example.asm                                             PAGE  155

    6308                      .dwattr $C$DW$568, DW_AT_type(*$C$DW$T$20)
    6309                      .dwattr $C$DW$568, DW_AT_name("RXMAXP")
    6310                      .dwattr $C$DW$568, DW_AT_TI_symbol_name("_RXMAXP")
    6311                      .dwattr $C$DW$568, DW_AT_data_member_location[DW_OP_plus_uconst 0x4]
    6312                      .dwattr $C$DW$568, DW_AT_accessibility(DW_ACCESS_public)
    6313              $C$DW$569       .dwtag  DW_TAG_member
    6314                      .dwattr $C$DW$569, DW_AT_type(*$C$DW$T$20)
    6315                      .dwattr $C$DW$569, DW_AT_name("PERI_RXCSR")
    6316                      .dwattr $C$DW$569, DW_AT_TI_symbol_name("_PERI_RXCSR")
    6317                      .dwattr $C$DW$569, DW_AT_data_member_location[DW_OP_plus_uconst 0x5]
    6318                      .dwattr $C$DW$569, DW_AT_accessibility(DW_ACCESS_public)
    6319              $C$DW$570       .dwtag  DW_TAG_member
    6320                      .dwattr $C$DW$570, DW_AT_type(*$C$DW$T$36)
    6321                      .dwattr $C$DW$570, DW_AT_name("RSVD1")
    6322                      .dwattr $C$DW$570, DW_AT_TI_symbol_name("_RSVD1")
    6323                      .dwattr $C$DW$570, DW_AT_data_member_location[DW_OP_plus_uconst 0x6]
    6324                      .dwattr $C$DW$570, DW_AT_accessibility(DW_ACCESS_public)
    6325              $C$DW$571       .dwtag  DW_TAG_member
    6326                      .dwattr $C$DW$571, DW_AT_type(*$C$DW$T$20)
    6327                      .dwattr $C$DW$571, DW_AT_name("RXCOUNT")
    6328                      .dwattr $C$DW$571, DW_AT_TI_symbol_name("_RXCOUNT")
    6329                      .dwattr $C$DW$571, DW_AT_data_member_location[DW_OP_plus_uconst 0x8]
    6330                      .dwattr $C$DW$571, DW_AT_accessibility(DW_ACCESS_public)
    6331              $C$DW$572       .dwtag  DW_TAG_member
    6332                      .dwattr $C$DW$572, DW_AT_type(*$C$DW$T$38)
    6333                      .dwattr $C$DW$572, DW_AT_name("RSVD41")
    6334                      .dwattr $C$DW$572, DW_AT_TI_symbol_name("_RSVD41")
    6335                      .dwattr $C$DW$572, DW_AT_data_member_location[DW_OP_plus_uconst 0x9]
    6336                      .dwattr $C$DW$572, DW_AT_accessibility(DW_ACCESS_public)
    6337                      .dwendtag $C$DW$T$39
    6338              
    6339              $C$DW$T$56      .dwtag  DW_TAG_typedef, DW_AT_name("CSL_UsbEpcsrRegs")
    6340                      .dwattr $C$DW$T$56, DW_AT_type(*$C$DW$T$39)
    6341                      .dwattr $C$DW$T$56, DW_AT_language(DW_LANG_C)
    6342              
    6343              $C$DW$T$57      .dwtag  DW_TAG_array_type
    6344                      .dwattr $C$DW$T$57, DW_AT_type(*$C$DW$T$56)
    6345                      .dwattr $C$DW$T$57, DW_AT_language(DW_LANG_C)
    6346                      .dwattr $C$DW$T$57, DW_AT_byte_size(0x40)
    6347              $C$DW$573       .dwtag  DW_TAG_subrange_type
    6348                      .dwattr $C$DW$573, DW_AT_upper_bound(0x03)
    6349                      .dwendtag $C$DW$T$57
    6350              
    6351              
    6352              $C$DW$T$42      .dwtag  DW_TAG_structure_type
    6353                      .dwattr $C$DW$T$42, DW_AT_byte_size(0x20)
    6354              $C$DW$574       .dwtag  DW_TAG_member
    6355                      .dwattr $C$DW$574, DW_AT_type(*$C$DW$T$20)
    6356                      .dwattr $C$DW$574, DW_AT_name("TXGCR1")
    6357                      .dwattr $C$DW$574, DW_AT_TI_symbol_name("_TXGCR1")
    6358                      .dwattr $C$DW$574, DW_AT_data_member_location[DW_OP_plus_uconst 0x0]
    6359                      .dwattr $C$DW$574, DW_AT_accessibility(DW_ACCESS_public)
    6360              $C$DW$575       .dwtag  DW_TAG_member
    6361                      .dwattr $C$DW$575, DW_AT_type(*$C$DW$T$20)
    6362                      .dwattr $C$DW$575, DW_AT_name("TXGCR2")
TMS320C55x Assembler PC v4.4.1 Sat Sep 29 23:08:33 2018

Tools Copyright (c) 1996-2012 Texas Instruments Incorporated
csl_usb_poll_example.asm                                             PAGE  156

    6363                      .dwattr $C$DW$575, DW_AT_TI_symbol_name("_TXGCR2")
    6364                      .dwattr $C$DW$575, DW_AT_data_member_location[DW_OP_plus_uconst 0x1]
    6365                      .dwattr $C$DW$575, DW_AT_accessibility(DW_ACCESS_public)
    6366              $C$DW$576       .dwtag  DW_TAG_member
    6367                      .dwattr $C$DW$576, DW_AT_type(*$C$DW$T$40)
    6368                      .dwattr $C$DW$576, DW_AT_name("RSVD0")
    6369                      .dwattr $C$DW$576, DW_AT_TI_symbol_name("_RSVD0")
    6370                      .dwattr $C$DW$576, DW_AT_data_member_location[DW_OP_plus_uconst 0x2]
    6371                      .dwattr $C$DW$576, DW_AT_accessibility(DW_ACCESS_public)
    6372              $C$DW$577       .dwtag  DW_TAG_member
    6373                      .dwattr $C$DW$577, DW_AT_type(*$C$DW$T$20)
    6374                      .dwattr $C$DW$577, DW_AT_name("RXGCR1")
    6375                      .dwattr $C$DW$577, DW_AT_TI_symbol_name("_RXGCR1")
    6376                      .dwattr $C$DW$577, DW_AT_data_member_location[DW_OP_plus_uconst 0x8]
    6377                      .dwattr $C$DW$577, DW_AT_accessibility(DW_ACCESS_public)
    6378              $C$DW$578       .dwtag  DW_TAG_member
    6379                      .dwattr $C$DW$578, DW_AT_type(*$C$DW$T$20)
    6380                      .dwattr $C$DW$578, DW_AT_name("RXGCR2")
    6381                      .dwattr $C$DW$578, DW_AT_TI_symbol_name("_RXGCR2")
    6382                      .dwattr $C$DW$578, DW_AT_data_member_location[DW_OP_plus_uconst 0x9]
    6383                      .dwattr $C$DW$578, DW_AT_accessibility(DW_ACCESS_public)
    6384              $C$DW$579       .dwtag  DW_TAG_member
    6385                      .dwattr $C$DW$579, DW_AT_type(*$C$DW$T$36)
    6386                      .dwattr $C$DW$579, DW_AT_name("RSVD1")
    6387                      .dwattr $C$DW$579, DW_AT_TI_symbol_name("_RSVD1")
    6388                      .dwattr $C$DW$579, DW_AT_data_member_location[DW_OP_plus_uconst 0xa]
    6389                      .dwattr $C$DW$579, DW_AT_accessibility(DW_ACCESS_public)
    6390              $C$DW$580       .dwtag  DW_TAG_member
    6391                      .dwattr $C$DW$580, DW_AT_type(*$C$DW$T$20)
    6392                      .dwattr $C$DW$580, DW_AT_name("RXHPCR1A")
    6393                      .dwattr $C$DW$580, DW_AT_TI_symbol_name("_RXHPCR1A")
    6394                      .dwattr $C$DW$580, DW_AT_data_member_location[DW_OP_plus_uconst 0xc]
    6395                      .dwattr $C$DW$580, DW_AT_accessibility(DW_ACCESS_public)
    6396              $C$DW$581       .dwtag  DW_TAG_member
    6397                      .dwattr $C$DW$581, DW_AT_type(*$C$DW$T$20)
    6398                      .dwattr $C$DW$581, DW_AT_name("RXHPCR2A")
    6399                      .dwattr $C$DW$581, DW_AT_TI_symbol_name("_RXHPCR2A")
    6400                      .dwattr $C$DW$581, DW_AT_data_member_location[DW_OP_plus_uconst 0xd]
    6401                      .dwattr $C$DW$581, DW_AT_accessibility(DW_ACCESS_public)
    6402              $C$DW$582       .dwtag  DW_TAG_member
    6403                      .dwattr $C$DW$582, DW_AT_type(*$C$DW$T$36)
    6404                      .dwattr $C$DW$582, DW_AT_name("RSVD2")
    6405                      .dwattr $C$DW$582, DW_AT_TI_symbol_name("_RSVD2")
    6406                      .dwattr $C$DW$582, DW_AT_data_member_location[DW_OP_plus_uconst 0xe]
    6407                      .dwattr $C$DW$582, DW_AT_accessibility(DW_ACCESS_public)
    6408              $C$DW$583       .dwtag  DW_TAG_member
    6409                      .dwattr $C$DW$583, DW_AT_type(*$C$DW$T$20)
    6410                      .dwattr $C$DW$583, DW_AT_name("RXHPCR1B")
    6411                      .dwattr $C$DW$583, DW_AT_TI_symbol_name("_RXHPCR1B")
    6412                      .dwattr $C$DW$583, DW_AT_data_member_location[DW_OP_plus_uconst 0x10]
    6413                      .dwattr $C$DW$583, DW_AT_accessibility(DW_ACCESS_public)
    6414              $C$DW$584       .dwtag  DW_TAG_member
    6415                      .dwattr $C$DW$584, DW_AT_type(*$C$DW$T$20)
    6416                      .dwattr $C$DW$584, DW_AT_name("RXHPCR2B")
    6417                      .dwattr $C$DW$584, DW_AT_TI_symbol_name("_RXHPCR2B")
TMS320C55x Assembler PC v4.4.1 Sat Sep 29 23:08:33 2018

Tools Copyright (c) 1996-2012 Texas Instruments Incorporated
csl_usb_poll_example.asm                                             PAGE  157

    6418                      .dwattr $C$DW$584, DW_AT_data_member_location[DW_OP_plus_uconst 0x11]
    6419                      .dwattr $C$DW$584, DW_AT_accessibility(DW_ACCESS_public)
    6420              $C$DW$585       .dwtag  DW_TAG_member
    6421                      .dwattr $C$DW$585, DW_AT_type(*$C$DW$T$41)
    6422                      .dwattr $C$DW$585, DW_AT_name("RSVD46")
    6423                      .dwattr $C$DW$585, DW_AT_TI_symbol_name("_RSVD46")
    6424                      .dwattr $C$DW$585, DW_AT_data_member_location[DW_OP_plus_uconst 0x12]
    6425                      .dwattr $C$DW$585, DW_AT_accessibility(DW_ACCESS_public)
    6426                      .dwendtag $C$DW$T$42
    6427              
    6428              $C$DW$T$60      .dwtag  DW_TAG_typedef, DW_AT_name("CSL_UsbChannelRegs")
    6429                      .dwattr $C$DW$T$60, DW_AT_type(*$C$DW$T$42)
    6430                      .dwattr $C$DW$T$60, DW_AT_language(DW_LANG_C)
    6431              
    6432              $C$DW$T$61      .dwtag  DW_TAG_array_type
    6433                      .dwattr $C$DW$T$61, DW_AT_type(*$C$DW$T$60)
    6434                      .dwattr $C$DW$T$61, DW_AT_language(DW_LANG_C)
    6435                      .dwattr $C$DW$T$61, DW_AT_byte_size(0x80)
    6436              $C$DW$586       .dwtag  DW_TAG_subrange_type
    6437                      .dwattr $C$DW$586, DW_AT_upper_bound(0x03)
    6438                      .dwendtag $C$DW$T$61
    6439              
    6440              
    6441              $C$DW$T$43      .dwtag  DW_TAG_structure_type
    6442                      .dwattr $C$DW$T$43, DW_AT_byte_size(0x04)
    6443              $C$DW$587       .dwtag  DW_TAG_member
    6444                      .dwattr $C$DW$587, DW_AT_type(*$C$DW$T$20)
    6445                      .dwattr $C$DW$587, DW_AT_name("ENTRYLSW")
    6446                      .dwattr $C$DW$587, DW_AT_TI_symbol_name("_ENTRYLSW")
    6447                      .dwattr $C$DW$587, DW_AT_data_member_location[DW_OP_plus_uconst 0x0]
    6448                      .dwattr $C$DW$587, DW_AT_accessibility(DW_ACCESS_public)
    6449              $C$DW$588       .dwtag  DW_TAG_member
    6450                      .dwattr $C$DW$588, DW_AT_type(*$C$DW$T$20)
    6451                      .dwattr $C$DW$588, DW_AT_name("ENTRYMSW")
    6452                      .dwattr $C$DW$588, DW_AT_TI_symbol_name("_ENTRYMSW")
    6453                      .dwattr $C$DW$588, DW_AT_data_member_location[DW_OP_plus_uconst 0x1]
    6454                      .dwattr $C$DW$588, DW_AT_accessibility(DW_ACCESS_public)
    6455              $C$DW$589       .dwtag  DW_TAG_member
    6456                      .dwattr $C$DW$589, DW_AT_type(*$C$DW$T$36)
    6457                      .dwattr $C$DW$589, DW_AT_name("RSVD49")
    6458                      .dwattr $C$DW$589, DW_AT_TI_symbol_name("_RSVD49")
    6459                      .dwattr $C$DW$589, DW_AT_data_member_location[DW_OP_plus_uconst 0x2]
    6460                      .dwattr $C$DW$589, DW_AT_accessibility(DW_ACCESS_public)
    6461                      .dwendtag $C$DW$T$43
    6462              
    6463              $C$DW$T$64      .dwtag  DW_TAG_typedef, DW_AT_name("CSL_UsbCdmaschetblwordRegs")
    6464                      .dwattr $C$DW$T$64, DW_AT_type(*$C$DW$T$43)
    6465                      .dwattr $C$DW$T$64, DW_AT_language(DW_LANG_C)
    6466              
    6467              $C$DW$T$65      .dwtag  DW_TAG_array_type
    6468                      .dwattr $C$DW$T$65, DW_AT_type(*$C$DW$T$64)
    6469                      .dwattr $C$DW$T$65, DW_AT_language(DW_LANG_C)
    6470                      .dwattr $C$DW$T$65, DW_AT_byte_size(0x100)
    6471              $C$DW$590       .dwtag  DW_TAG_subrange_type
    6472                      .dwattr $C$DW$590, DW_AT_upper_bound(0x3f)
TMS320C55x Assembler PC v4.4.1 Sat Sep 29 23:08:33 2018

Tools Copyright (c) 1996-2012 Texas Instruments Incorporated
csl_usb_poll_example.asm                                             PAGE  158

    6473                      .dwendtag $C$DW$T$65
    6474              
    6475              
    6476              $C$DW$T$45      .dwtag  DW_TAG_structure_type
    6477                      .dwattr $C$DW$T$45, DW_AT_byte_size(0x10)
    6478              $C$DW$591       .dwtag  DW_TAG_member
    6479                      .dwattr $C$DW$591, DW_AT_type(*$C$DW$T$20)
    6480                      .dwattr $C$DW$591, DW_AT_name("QMEMRBASE1")
    6481                      .dwattr $C$DW$591, DW_AT_TI_symbol_name("_QMEMRBASE1")
    6482                      .dwattr $C$DW$591, DW_AT_data_member_location[DW_OP_plus_uconst 0x0]
    6483                      .dwattr $C$DW$591, DW_AT_accessibility(DW_ACCESS_public)
    6484              $C$DW$592       .dwtag  DW_TAG_member
    6485                      .dwattr $C$DW$592, DW_AT_type(*$C$DW$T$20)
    6486                      .dwattr $C$DW$592, DW_AT_name("QMEMRBASE2")
    6487                      .dwattr $C$DW$592, DW_AT_TI_symbol_name("_QMEMRBASE2")
    6488                      .dwattr $C$DW$592, DW_AT_data_member_location[DW_OP_plus_uconst 0x1]
    6489                      .dwattr $C$DW$592, DW_AT_accessibility(DW_ACCESS_public)
    6490              $C$DW$593       .dwtag  DW_TAG_member
    6491                      .dwattr $C$DW$593, DW_AT_type(*$C$DW$T$36)
    6492                      .dwattr $C$DW$593, DW_AT_name("RSVD0")
    6493                      .dwattr $C$DW$593, DW_AT_TI_symbol_name("_RSVD0")
    6494                      .dwattr $C$DW$593, DW_AT_data_member_location[DW_OP_plus_uconst 0x2]
    6495                      .dwattr $C$DW$593, DW_AT_accessibility(DW_ACCESS_public)
    6496              $C$DW$594       .dwtag  DW_TAG_member
    6497                      .dwattr $C$DW$594, DW_AT_type(*$C$DW$T$20)
    6498                      .dwattr $C$DW$594, DW_AT_name("QMEMRCTRL1")
    6499                      .dwattr $C$DW$594, DW_AT_TI_symbol_name("_QMEMRCTRL1")
    6500                      .dwattr $C$DW$594, DW_AT_data_member_location[DW_OP_plus_uconst 0x4]
    6501                      .dwattr $C$DW$594, DW_AT_accessibility(DW_ACCESS_public)
    6502              $C$DW$595       .dwtag  DW_TAG_member
    6503                      .dwattr $C$DW$595, DW_AT_type(*$C$DW$T$20)
    6504                      .dwattr $C$DW$595, DW_AT_name("QMEMRCTRL2")
    6505                      .dwattr $C$DW$595, DW_AT_TI_symbol_name("_QMEMRCTRL2")
    6506                      .dwattr $C$DW$595, DW_AT_data_member_location[DW_OP_plus_uconst 0x5]
    6507                      .dwattr $C$DW$595, DW_AT_accessibility(DW_ACCESS_public)
    6508              $C$DW$596       .dwtag  DW_TAG_member
    6509                      .dwattr $C$DW$596, DW_AT_type(*$C$DW$T$44)
    6510                      .dwattr $C$DW$596, DW_AT_name("RSVD63")
    6511                      .dwattr $C$DW$596, DW_AT_TI_symbol_name("_RSVD63")
    6512                      .dwattr $C$DW$596, DW_AT_data_member_location[DW_OP_plus_uconst 0x6]
    6513                      .dwattr $C$DW$596, DW_AT_accessibility(DW_ACCESS_public)
    6514                      .dwendtag $C$DW$T$45
    6515              
    6516              $C$DW$T$70      .dwtag  DW_TAG_typedef, DW_AT_name("CSL_UsbQmmemregrRegs")
    6517                      .dwattr $C$DW$T$70, DW_AT_type(*$C$DW$T$45)
    6518                      .dwattr $C$DW$T$70, DW_AT_language(DW_LANG_C)
    6519              
    6520              $C$DW$T$71      .dwtag  DW_TAG_array_type
    6521                      .dwattr $C$DW$T$71, DW_AT_type(*$C$DW$T$70)
    6522                      .dwattr $C$DW$T$71, DW_AT_language(DW_LANG_C)
    6523                      .dwattr $C$DW$T$71, DW_AT_byte_size(0x100)
    6524              $C$DW$597       .dwtag  DW_TAG_subrange_type
    6525                      .dwattr $C$DW$597, DW_AT_upper_bound(0x0f)
    6526                      .dwendtag $C$DW$T$71
    6527              
TMS320C55x Assembler PC v4.4.1 Sat Sep 29 23:08:33 2018

Tools Copyright (c) 1996-2012 Texas Instruments Incorporated
csl_usb_poll_example.asm                                             PAGE  159

    6528              
    6529              $C$DW$T$47      .dwtag  DW_TAG_structure_type
    6530                      .dwattr $C$DW$T$47, DW_AT_byte_size(0x10)
    6531              $C$DW$598       .dwtag  DW_TAG_member
    6532                      .dwattr $C$DW$598, DW_AT_type(*$C$DW$T$46)
    6533                      .dwattr $C$DW$598, DW_AT_name("RSVD0")
    6534                      .dwattr $C$DW$598, DW_AT_TI_symbol_name("_RSVD0")
    6535                      .dwattr $C$DW$598, DW_AT_data_member_location[DW_OP_plus_uconst 0x0]
    6536                      .dwattr $C$DW$598, DW_AT_accessibility(DW_ACCESS_public)
    6537              $C$DW$599       .dwtag  DW_TAG_member
    6538                      .dwattr $C$DW$599, DW_AT_type(*$C$DW$T$20)
    6539                      .dwattr $C$DW$599, DW_AT_name("CTRL1D")
    6540                      .dwattr $C$DW$599, DW_AT_TI_symbol_name("_CTRL1D")
    6541                      .dwattr $C$DW$599, DW_AT_data_member_location[DW_OP_plus_uconst 0xc]
    6542                      .dwattr $C$DW$599, DW_AT_accessibility(DW_ACCESS_public)
    6543              $C$DW$600       .dwtag  DW_TAG_member
    6544                      .dwattr $C$DW$600, DW_AT_type(*$C$DW$T$20)
    6545                      .dwattr $C$DW$600, DW_AT_name("CTRL2D")
    6546                      .dwattr $C$DW$600, DW_AT_TI_symbol_name("_CTRL2D")
    6547                      .dwattr $C$DW$600, DW_AT_data_member_location[DW_OP_plus_uconst 0xd]
    6548                      .dwattr $C$DW$600, DW_AT_accessibility(DW_ACCESS_public)
    6549              $C$DW$601       .dwtag  DW_TAG_member
    6550                      .dwattr $C$DW$601, DW_AT_type(*$C$DW$T$36)
    6551                      .dwattr $C$DW$601, DW_AT_name("RSVD65")
    6552                      .dwattr $C$DW$601, DW_AT_TI_symbol_name("_RSVD65")
    6553                      .dwattr $C$DW$601, DW_AT_data_member_location[DW_OP_plus_uconst 0xe]
    6554                      .dwattr $C$DW$601, DW_AT_accessibility(DW_ACCESS_public)
    6555                      .dwendtag $C$DW$T$47
    6556              
    6557              $C$DW$T$73      .dwtag  DW_TAG_typedef, DW_AT_name("CSL_UsbQmqnRegs")
    6558                      .dwattr $C$DW$T$73, DW_AT_type(*$C$DW$T$47)
    6559                      .dwattr $C$DW$T$73, DW_AT_language(DW_LANG_C)
    6560              
    6561              $C$DW$T$74      .dwtag  DW_TAG_array_type
    6562                      .dwattr $C$DW$T$74, DW_AT_type(*$C$DW$T$73)
    6563                      .dwattr $C$DW$T$74, DW_AT_language(DW_LANG_C)
    6564                      .dwattr $C$DW$T$74, DW_AT_byte_size(0x400)
    6565              $C$DW$602       .dwtag  DW_TAG_subrange_type
    6566                      .dwattr $C$DW$602, DW_AT_upper_bound(0x3f)
    6567                      .dwendtag $C$DW$T$74
    6568              
    6569              
    6570              $C$DW$T$49      .dwtag  DW_TAG_structure_type
    6571                      .dwattr $C$DW$T$49, DW_AT_byte_size(0x10)
    6572              $C$DW$603       .dwtag  DW_TAG_member
    6573                      .dwattr $C$DW$603, DW_AT_type(*$C$DW$T$20)
    6574                      .dwattr $C$DW$603, DW_AT_name("QSTATA")
    6575                      .dwattr $C$DW$603, DW_AT_TI_symbol_name("_QSTATA")
    6576                      .dwattr $C$DW$603, DW_AT_data_member_location[DW_OP_plus_uconst 0x0]
    6577                      .dwattr $C$DW$603, DW_AT_accessibility(DW_ACCESS_public)
    6578              $C$DW$604       .dwtag  DW_TAG_member
    6579                      .dwattr $C$DW$604, DW_AT_type(*$C$DW$T$48)
    6580                      .dwattr $C$DW$604, DW_AT_name("RSVD0")
    6581                      .dwattr $C$DW$604, DW_AT_TI_symbol_name("_RSVD0")
    6582                      .dwattr $C$DW$604, DW_AT_data_member_location[DW_OP_plus_uconst 0x1]
TMS320C55x Assembler PC v4.4.1 Sat Sep 29 23:08:33 2018

Tools Copyright (c) 1996-2012 Texas Instruments Incorporated
csl_usb_poll_example.asm                                             PAGE  160

    6583                      .dwattr $C$DW$604, DW_AT_accessibility(DW_ACCESS_public)
    6584              $C$DW$605       .dwtag  DW_TAG_member
    6585                      .dwattr $C$DW$605, DW_AT_type(*$C$DW$T$20)
    6586                      .dwattr $C$DW$605, DW_AT_name("QSTAT1B")
    6587                      .dwattr $C$DW$605, DW_AT_TI_symbol_name("_QSTAT1B")
    6588                      .dwattr $C$DW$605, DW_AT_data_member_location[DW_OP_plus_uconst 0x4]
    6589                      .dwattr $C$DW$605, DW_AT_accessibility(DW_ACCESS_public)
    6590              $C$DW$606       .dwtag  DW_TAG_member
    6591                      .dwattr $C$DW$606, DW_AT_type(*$C$DW$T$20)
    6592                      .dwattr $C$DW$606, DW_AT_name("QSTAT2B")
    6593                      .dwattr $C$DW$606, DW_AT_TI_symbol_name("_QSTAT2B")
    6594                      .dwattr $C$DW$606, DW_AT_data_member_location[DW_OP_plus_uconst 0x5]
    6595                      .dwattr $C$DW$606, DW_AT_accessibility(DW_ACCESS_public)
    6596              $C$DW$607       .dwtag  DW_TAG_member
    6597                      .dwattr $C$DW$607, DW_AT_type(*$C$DW$T$36)
    6598                      .dwattr $C$DW$607, DW_AT_name("RSVD1")
    6599                      .dwattr $C$DW$607, DW_AT_TI_symbol_name("_RSVD1")
    6600                      .dwattr $C$DW$607, DW_AT_data_member_location[DW_OP_plus_uconst 0x6]
    6601                      .dwattr $C$DW$607, DW_AT_accessibility(DW_ACCESS_public)
    6602              $C$DW$608       .dwtag  DW_TAG_member
    6603                      .dwattr $C$DW$608, DW_AT_type(*$C$DW$T$20)
    6604                      .dwattr $C$DW$608, DW_AT_name("QSTAT1C")
    6605                      .dwattr $C$DW$608, DW_AT_TI_symbol_name("_QSTAT1C")
    6606                      .dwattr $C$DW$608, DW_AT_data_member_location[DW_OP_plus_uconst 0x8]
    6607                      .dwattr $C$DW$608, DW_AT_accessibility(DW_ACCESS_public)
    6608              $C$DW$609       .dwtag  DW_TAG_member
    6609                      .dwattr $C$DW$609, DW_AT_type(*$C$DW$T$38)
    6610                      .dwattr $C$DW$609, DW_AT_name("RSVD67")
    6611                      .dwattr $C$DW$609, DW_AT_TI_symbol_name("_RSVD67")
    6612                      .dwattr $C$DW$609, DW_AT_data_member_location[DW_OP_plus_uconst 0x9]
    6613                      .dwattr $C$DW$609, DW_AT_accessibility(DW_ACCESS_public)
    6614                      .dwendtag $C$DW$T$49
    6615              
    6616              $C$DW$T$76      .dwtag  DW_TAG_typedef, DW_AT_name("CSL_UsbQmqnsRegs")
    6617                      .dwattr $C$DW$T$76, DW_AT_type(*$C$DW$T$49)
    6618                      .dwattr $C$DW$T$76, DW_AT_language(DW_LANG_C)
    6619              
    6620              $C$DW$T$77      .dwtag  DW_TAG_array_type
    6621                      .dwattr $C$DW$T$77, DW_AT_type(*$C$DW$T$76)
    6622                      .dwattr $C$DW$T$77, DW_AT_language(DW_LANG_C)
    6623                      .dwattr $C$DW$T$77, DW_AT_byte_size(0x400)
    6624              $C$DW$610       .dwtag  DW_TAG_subrange_type
    6625                      .dwattr $C$DW$610, DW_AT_upper_bound(0x3f)
    6626                      .dwendtag $C$DW$T$77
    6627              
    6628              
    6629              $C$DW$T$78      .dwtag  DW_TAG_structure_type
    6630                      .dwattr $C$DW$T$78, DW_AT_byte_size(0x6c00)
    6631              $C$DW$611       .dwtag  DW_TAG_member
    6632                      .dwattr $C$DW$611, DW_AT_type(*$C$DW$T$20)
    6633                      .dwattr $C$DW$611, DW_AT_name("REVID1")
    6634                      .dwattr $C$DW$611, DW_AT_TI_symbol_name("_REVID1")
    6635                      .dwattr $C$DW$611, DW_AT_data_member_location[DW_OP_plus_uconst 0x0]
    6636                      .dwattr $C$DW$611, DW_AT_accessibility(DW_ACCESS_public)
    6637              $C$DW$612       .dwtag  DW_TAG_member
TMS320C55x Assembler PC v4.4.1 Sat Sep 29 23:08:33 2018

Tools Copyright (c) 1996-2012 Texas Instruments Incorporated
csl_usb_poll_example.asm                                             PAGE  161

    6638                      .dwattr $C$DW$612, DW_AT_type(*$C$DW$T$20)
    6639                      .dwattr $C$DW$612, DW_AT_name("REVID2")
    6640                      .dwattr $C$DW$612, DW_AT_TI_symbol_name("_REVID2")
    6641                      .dwattr $C$DW$612, DW_AT_data_member_location[DW_OP_plus_uconst 0x1]
    6642                      .dwattr $C$DW$612, DW_AT_accessibility(DW_ACCESS_public)
    6643              $C$DW$613       .dwtag  DW_TAG_member
    6644                      .dwattr $C$DW$613, DW_AT_type(*$C$DW$T$36)
    6645                      .dwattr $C$DW$613, DW_AT_name("RSVD0")
    6646                      .dwattr $C$DW$613, DW_AT_TI_symbol_name("_RSVD0")
    6647                      .dwattr $C$DW$613, DW_AT_data_member_location[DW_OP_plus_uconst 0x2]
    6648                      .dwattr $C$DW$613, DW_AT_accessibility(DW_ACCESS_public)
    6649              $C$DW$614       .dwtag  DW_TAG_member
    6650                      .dwattr $C$DW$614, DW_AT_type(*$C$DW$T$20)
    6651                      .dwattr $C$DW$614, DW_AT_name("CTRLR")
    6652                      .dwattr $C$DW$614, DW_AT_TI_symbol_name("_CTRLR")
    6653                      .dwattr $C$DW$614, DW_AT_data_member_location[DW_OP_plus_uconst 0x4]
    6654                      .dwattr $C$DW$614, DW_AT_accessibility(DW_ACCESS_public)
    6655              $C$DW$615       .dwtag  DW_TAG_member
    6656                      .dwattr $C$DW$615, DW_AT_type(*$C$DW$T$48)
    6657                      .dwattr $C$DW$615, DW_AT_name("RSVD1")
    6658                      .dwattr $C$DW$615, DW_AT_TI_symbol_name("_RSVD1")
    6659                      .dwattr $C$DW$615, DW_AT_data_member_location[DW_OP_plus_uconst 0x5]
    6660                      .dwattr $C$DW$615, DW_AT_accessibility(DW_ACCESS_public)
    6661              $C$DW$616       .dwtag  DW_TAG_member
    6662                      .dwattr $C$DW$616, DW_AT_type(*$C$DW$T$20)
    6663                      .dwattr $C$DW$616, DW_AT_name("STATR")
    6664                      .dwattr $C$DW$616, DW_AT_TI_symbol_name("_STATR")
    6665                      .dwattr $C$DW$616, DW_AT_data_member_location[DW_OP_plus_uconst 0x8]
    6666                      .dwattr $C$DW$616, DW_AT_accessibility(DW_ACCESS_public)
    6667              $C$DW$617       .dwtag  DW_TAG_member
    6668                      .dwattr $C$DW$617, DW_AT_type(*$C$DW$T$48)
    6669                      .dwattr $C$DW$617, DW_AT_name("RSVD2")
    6670                      .dwattr $C$DW$617, DW_AT_TI_symbol_name("_RSVD2")
    6671                      .dwattr $C$DW$617, DW_AT_data_member_location[DW_OP_plus_uconst 0x9]
    6672                      .dwattr $C$DW$617, DW_AT_accessibility(DW_ACCESS_public)
    6673              $C$DW$618       .dwtag  DW_TAG_member
    6674                      .dwattr $C$DW$618, DW_AT_type(*$C$DW$T$20)
    6675                      .dwattr $C$DW$618, DW_AT_name("EMUR")
    6676                      .dwattr $C$DW$618, DW_AT_TI_symbol_name("_EMUR")
    6677                      .dwattr $C$DW$618, DW_AT_data_member_location[DW_OP_plus_uconst 0xc]
    6678                      .dwattr $C$DW$618, DW_AT_accessibility(DW_ACCESS_public)
    6679              $C$DW$619       .dwtag  DW_TAG_member
    6680                      .dwattr $C$DW$619, DW_AT_type(*$C$DW$T$48)
    6681                      .dwattr $C$DW$619, DW_AT_name("RSVD3")
    6682                      .dwattr $C$DW$619, DW_AT_TI_symbol_name("_RSVD3")
    6683                      .dwattr $C$DW$619, DW_AT_data_member_location[DW_OP_plus_uconst 0xd]
    6684                      .dwattr $C$DW$619, DW_AT_accessibility(DW_ACCESS_public)
    6685              $C$DW$620       .dwtag  DW_TAG_member
    6686                      .dwattr $C$DW$620, DW_AT_type(*$C$DW$T$20)
    6687                      .dwattr $C$DW$620, DW_AT_name("MODE1")
    6688                      .dwattr $C$DW$620, DW_AT_TI_symbol_name("_MODE1")
    6689                      .dwattr $C$DW$620, DW_AT_data_member_location[DW_OP_plus_uconst 0x10]
    6690                      .dwattr $C$DW$620, DW_AT_accessibility(DW_ACCESS_public)
    6691              $C$DW$621       .dwtag  DW_TAG_member
    6692                      .dwattr $C$DW$621, DW_AT_type(*$C$DW$T$20)
TMS320C55x Assembler PC v4.4.1 Sat Sep 29 23:08:33 2018

Tools Copyright (c) 1996-2012 Texas Instruments Incorporated
csl_usb_poll_example.asm                                             PAGE  162

    6693                      .dwattr $C$DW$621, DW_AT_name("MODE2")
    6694                      .dwattr $C$DW$621, DW_AT_TI_symbol_name("_MODE2")
    6695                      .dwattr $C$DW$621, DW_AT_data_member_location[DW_OP_plus_uconst 0x11]
    6696                      .dwattr $C$DW$621, DW_AT_accessibility(DW_ACCESS_public)
    6697              $C$DW$622       .dwtag  DW_TAG_member
    6698                      .dwattr $C$DW$622, DW_AT_type(*$C$DW$T$36)
    6699                      .dwattr $C$DW$622, DW_AT_name("RSVD4")
    6700                      .dwattr $C$DW$622, DW_AT_TI_symbol_name("_RSVD4")
    6701                      .dwattr $C$DW$622, DW_AT_data_member_location[DW_OP_plus_uconst 0x12]
    6702                      .dwattr $C$DW$622, DW_AT_accessibility(DW_ACCESS_public)
    6703              $C$DW$623       .dwtag  DW_TAG_member
    6704                      .dwattr $C$DW$623, DW_AT_type(*$C$DW$T$20)
    6705                      .dwattr $C$DW$623, DW_AT_name("AUTOREQ")
    6706                      .dwattr $C$DW$623, DW_AT_TI_symbol_name("_AUTOREQ")
    6707                      .dwattr $C$DW$623, DW_AT_data_member_location[DW_OP_plus_uconst 0x14]
    6708                      .dwattr $C$DW$623, DW_AT_accessibility(DW_ACCESS_public)
    6709              $C$DW$624       .dwtag  DW_TAG_member
    6710                      .dwattr $C$DW$624, DW_AT_type(*$C$DW$T$48)
    6711                      .dwattr $C$DW$624, DW_AT_name("RSVD5")
    6712                      .dwattr $C$DW$624, DW_AT_TI_symbol_name("_RSVD5")
    6713                      .dwattr $C$DW$624, DW_AT_data_member_location[DW_OP_plus_uconst 0x15]
    6714                      .dwattr $C$DW$624, DW_AT_accessibility(DW_ACCESS_public)
    6715              $C$DW$625       .dwtag  DW_TAG_member
    6716                      .dwattr $C$DW$625, DW_AT_type(*$C$DW$T$20)
    6717                      .dwattr $C$DW$625, DW_AT_name("SPRFIXTIME1")
    6718                      .dwattr $C$DW$625, DW_AT_TI_symbol_name("_SPRFIXTIME1")
    6719                      .dwattr $C$DW$625, DW_AT_data_member_location[DW_OP_plus_uconst 0x18]
    6720                      .dwattr $C$DW$625, DW_AT_accessibility(DW_ACCESS_public)
    6721              $C$DW$626       .dwtag  DW_TAG_member
    6722                      .dwattr $C$DW$626, DW_AT_type(*$C$DW$T$20)
    6723                      .dwattr $C$DW$626, DW_AT_name("SPRFIXTIME2")
    6724                      .dwattr $C$DW$626, DW_AT_TI_symbol_name("_SPRFIXTIME2")
    6725                      .dwattr $C$DW$626, DW_AT_data_member_location[DW_OP_plus_uconst 0x19]
    6726                      .dwattr $C$DW$626, DW_AT_accessibility(DW_ACCESS_public)
    6727              $C$DW$627       .dwtag  DW_TAG_member
    6728                      .dwattr $C$DW$627, DW_AT_type(*$C$DW$T$36)
    6729                      .dwattr $C$DW$627, DW_AT_name("RSVD6")
    6730                      .dwattr $C$DW$627, DW_AT_TI_symbol_name("_RSVD6")
    6731                      .dwattr $C$DW$627, DW_AT_data_member_location[DW_OP_plus_uconst 0x1a]
    6732                      .dwattr $C$DW$627, DW_AT_accessibility(DW_ACCESS_public)
    6733              $C$DW$628       .dwtag  DW_TAG_member
    6734                      .dwattr $C$DW$628, DW_AT_type(*$C$DW$T$20)
    6735                      .dwattr $C$DW$628, DW_AT_name("TEARDOWN1")
    6736                      .dwattr $C$DW$628, DW_AT_TI_symbol_name("_TEARDOWN1")
    6737                      .dwattr $C$DW$628, DW_AT_data_member_location[DW_OP_plus_uconst 0x1c]
    6738                      .dwattr $C$DW$628, DW_AT_accessibility(DW_ACCESS_public)
    6739              $C$DW$629       .dwtag  DW_TAG_member
    6740                      .dwattr $C$DW$629, DW_AT_type(*$C$DW$T$20)
    6741                      .dwattr $C$DW$629, DW_AT_name("TEARDOWN2")
    6742                      .dwattr $C$DW$629, DW_AT_TI_symbol_name("_TEARDOWN2")
    6743                      .dwattr $C$DW$629, DW_AT_data_member_location[DW_OP_plus_uconst 0x1d]
    6744                      .dwattr $C$DW$629, DW_AT_accessibility(DW_ACCESS_public)
    6745              $C$DW$630       .dwtag  DW_TAG_member
    6746                      .dwattr $C$DW$630, DW_AT_type(*$C$DW$T$36)
    6747                      .dwattr $C$DW$630, DW_AT_name("RSVD7")
TMS320C55x Assembler PC v4.4.1 Sat Sep 29 23:08:33 2018

Tools Copyright (c) 1996-2012 Texas Instruments Incorporated
csl_usb_poll_example.asm                                             PAGE  163

    6748                      .dwattr $C$DW$630, DW_AT_TI_symbol_name("_RSVD7")
    6749                      .dwattr $C$DW$630, DW_AT_data_member_location[DW_OP_plus_uconst 0x1e]
    6750                      .dwattr $C$DW$630, DW_AT_accessibility(DW_ACCESS_public)
    6751              $C$DW$631       .dwtag  DW_TAG_member
    6752                      .dwattr $C$DW$631, DW_AT_type(*$C$DW$T$20)
    6753                      .dwattr $C$DW$631, DW_AT_name("INTSRCR1")
    6754                      .dwattr $C$DW$631, DW_AT_TI_symbol_name("_INTSRCR1")
    6755                      .dwattr $C$DW$631, DW_AT_data_member_location[DW_OP_plus_uconst 0x20]
    6756                      .dwattr $C$DW$631, DW_AT_accessibility(DW_ACCESS_public)
    6757              $C$DW$632       .dwtag  DW_TAG_member
    6758                      .dwattr $C$DW$632, DW_AT_type(*$C$DW$T$20)
    6759                      .dwattr $C$DW$632, DW_AT_name("INTSRCR2")
    6760                      .dwattr $C$DW$632, DW_AT_TI_symbol_name("_INTSRCR2")
    6761                      .dwattr $C$DW$632, DW_AT_data_member_location[DW_OP_plus_uconst 0x21]
    6762                      .dwattr $C$DW$632, DW_AT_accessibility(DW_ACCESS_public)
    6763              $C$DW$633       .dwtag  DW_TAG_member
    6764                      .dwattr $C$DW$633, DW_AT_type(*$C$DW$T$36)
    6765                      .dwattr $C$DW$633, DW_AT_name("RSVD8")
    6766                      .dwattr $C$DW$633, DW_AT_TI_symbol_name("_RSVD8")
    6767                      .dwattr $C$DW$633, DW_AT_data_member_location[DW_OP_plus_uconst 0x22]
    6768                      .dwattr $C$DW$633, DW_AT_accessibility(DW_ACCESS_public)
    6769              $C$DW$634       .dwtag  DW_TAG_member
    6770                      .dwattr $C$DW$634, DW_AT_type(*$C$DW$T$20)
    6771                      .dwattr $C$DW$634, DW_AT_name("INTSETR1")
    6772                      .dwattr $C$DW$634, DW_AT_TI_symbol_name("_INTSETR1")
    6773                      .dwattr $C$DW$634, DW_AT_data_member_location[DW_OP_plus_uconst 0x24]
    6774                      .dwattr $C$DW$634, DW_AT_accessibility(DW_ACCESS_public)
    6775              $C$DW$635       .dwtag  DW_TAG_member
    6776                      .dwattr $C$DW$635, DW_AT_type(*$C$DW$T$20)
    6777                      .dwattr $C$DW$635, DW_AT_name("INTSETR2")
    6778                      .dwattr $C$DW$635, DW_AT_TI_symbol_name("_INTSETR2")
    6779                      .dwattr $C$DW$635, DW_AT_data_member_location[DW_OP_plus_uconst 0x25]
    6780                      .dwattr $C$DW$635, DW_AT_accessibility(DW_ACCESS_public)
    6781              $C$DW$636       .dwtag  DW_TAG_member
    6782                      .dwattr $C$DW$636, DW_AT_type(*$C$DW$T$36)
    6783                      .dwattr $C$DW$636, DW_AT_name("RSVD9")
    6784                      .dwattr $C$DW$636, DW_AT_TI_symbol_name("_RSVD9")
    6785                      .dwattr $C$DW$636, DW_AT_data_member_location[DW_OP_plus_uconst 0x26]
    6786                      .dwattr $C$DW$636, DW_AT_accessibility(DW_ACCESS_public)
    6787              $C$DW$637       .dwtag  DW_TAG_member
    6788                      .dwattr $C$DW$637, DW_AT_type(*$C$DW$T$20)
    6789                      .dwattr $C$DW$637, DW_AT_name("INTCLRR1")
    6790                      .dwattr $C$DW$637, DW_AT_TI_symbol_name("_INTCLRR1")
    6791                      .dwattr $C$DW$637, DW_AT_data_member_location[DW_OP_plus_uconst 0x28]
    6792                      .dwattr $C$DW$637, DW_AT_accessibility(DW_ACCESS_public)
    6793              $C$DW$638       .dwtag  DW_TAG_member
    6794                      .dwattr $C$DW$638, DW_AT_type(*$C$DW$T$20)
    6795                      .dwattr $C$DW$638, DW_AT_name("INTCLRR2")
    6796                      .dwattr $C$DW$638, DW_AT_TI_symbol_name("_INTCLRR2")
    6797                      .dwattr $C$DW$638, DW_AT_data_member_location[DW_OP_plus_uconst 0x29]
    6798                      .dwattr $C$DW$638, DW_AT_accessibility(DW_ACCESS_public)
    6799              $C$DW$639       .dwtag  DW_TAG_member
    6800                      .dwattr $C$DW$639, DW_AT_type(*$C$DW$T$36)
    6801                      .dwattr $C$DW$639, DW_AT_name("RSVD10")
    6802                      .dwattr $C$DW$639, DW_AT_TI_symbol_name("_RSVD10")
TMS320C55x Assembler PC v4.4.1 Sat Sep 29 23:08:33 2018

Tools Copyright (c) 1996-2012 Texas Instruments Incorporated
csl_usb_poll_example.asm                                             PAGE  164

    6803                      .dwattr $C$DW$639, DW_AT_data_member_location[DW_OP_plus_uconst 0x2a]
    6804                      .dwattr $C$DW$639, DW_AT_accessibility(DW_ACCESS_public)
    6805              $C$DW$640       .dwtag  DW_TAG_member
    6806                      .dwattr $C$DW$640, DW_AT_type(*$C$DW$T$20)
    6807                      .dwattr $C$DW$640, DW_AT_name("INTMSKR1")
    6808                      .dwattr $C$DW$640, DW_AT_TI_symbol_name("_INTMSKR1")
    6809                      .dwattr $C$DW$640, DW_AT_data_member_location[DW_OP_plus_uconst 0x2c]
    6810                      .dwattr $C$DW$640, DW_AT_accessibility(DW_ACCESS_public)
    6811              $C$DW$641       .dwtag  DW_TAG_member
    6812                      .dwattr $C$DW$641, DW_AT_type(*$C$DW$T$20)
    6813                      .dwattr $C$DW$641, DW_AT_name("INTMSKR2")
    6814                      .dwattr $C$DW$641, DW_AT_TI_symbol_name("_INTMSKR2")
    6815                      .dwattr $C$DW$641, DW_AT_data_member_location[DW_OP_plus_uconst 0x2d]
    6816                      .dwattr $C$DW$641, DW_AT_accessibility(DW_ACCESS_public)
    6817              $C$DW$642       .dwtag  DW_TAG_member
    6818                      .dwattr $C$DW$642, DW_AT_type(*$C$DW$T$36)
    6819                      .dwattr $C$DW$642, DW_AT_name("RSVD11")
    6820                      .dwattr $C$DW$642, DW_AT_TI_symbol_name("_RSVD11")
    6821                      .dwattr $C$DW$642, DW_AT_data_member_location[DW_OP_plus_uconst 0x2e]
    6822                      .dwattr $C$DW$642, DW_AT_accessibility(DW_ACCESS_public)
    6823              $C$DW$643       .dwtag  DW_TAG_member
    6824                      .dwattr $C$DW$643, DW_AT_type(*$C$DW$T$20)
    6825                      .dwattr $C$DW$643, DW_AT_name("INTMSKSETR1")
    6826                      .dwattr $C$DW$643, DW_AT_TI_symbol_name("_INTMSKSETR1")
    6827                      .dwattr $C$DW$643, DW_AT_data_member_location[DW_OP_plus_uconst 0x30]
    6828                      .dwattr $C$DW$643, DW_AT_accessibility(DW_ACCESS_public)
    6829              $C$DW$644       .dwtag  DW_TAG_member
    6830                      .dwattr $C$DW$644, DW_AT_type(*$C$DW$T$20)
    6831                      .dwattr $C$DW$644, DW_AT_name("INTMSKSETR2")
    6832                      .dwattr $C$DW$644, DW_AT_TI_symbol_name("_INTMSKSETR2")
    6833                      .dwattr $C$DW$644, DW_AT_data_member_location[DW_OP_plus_uconst 0x31]
    6834                      .dwattr $C$DW$644, DW_AT_accessibility(DW_ACCESS_public)
    6835              $C$DW$645       .dwtag  DW_TAG_member
    6836                      .dwattr $C$DW$645, DW_AT_type(*$C$DW$T$36)
    6837                      .dwattr $C$DW$645, DW_AT_name("RSVD12")
    6838                      .dwattr $C$DW$645, DW_AT_TI_symbol_name("_RSVD12")
    6839                      .dwattr $C$DW$645, DW_AT_data_member_location[DW_OP_plus_uconst 0x32]
    6840                      .dwattr $C$DW$645, DW_AT_accessibility(DW_ACCESS_public)
    6841              $C$DW$646       .dwtag  DW_TAG_member
    6842                      .dwattr $C$DW$646, DW_AT_type(*$C$DW$T$20)
    6843                      .dwattr $C$DW$646, DW_AT_name("INTMSKCLRR1")
    6844                      .dwattr $C$DW$646, DW_AT_TI_symbol_name("_INTMSKCLRR1")
    6845                      .dwattr $C$DW$646, DW_AT_data_member_location[DW_OP_plus_uconst 0x34]
    6846                      .dwattr $C$DW$646, DW_AT_accessibility(DW_ACCESS_public)
    6847              $C$DW$647       .dwtag  DW_TAG_member
    6848                      .dwattr $C$DW$647, DW_AT_type(*$C$DW$T$20)
    6849                      .dwattr $C$DW$647, DW_AT_name("INTMSKCLRR2")
    6850                      .dwattr $C$DW$647, DW_AT_TI_symbol_name("_INTMSKCLRR2")
    6851                      .dwattr $C$DW$647, DW_AT_data_member_location[DW_OP_plus_uconst 0x35]
    6852                      .dwattr $C$DW$647, DW_AT_accessibility(DW_ACCESS_public)
    6853              $C$DW$648       .dwtag  DW_TAG_member
    6854                      .dwattr $C$DW$648, DW_AT_type(*$C$DW$T$36)
    6855                      .dwattr $C$DW$648, DW_AT_name("RSVD13")
    6856                      .dwattr $C$DW$648, DW_AT_TI_symbol_name("_RSVD13")
    6857                      .dwattr $C$DW$648, DW_AT_data_member_location[DW_OP_plus_uconst 0x36]
TMS320C55x Assembler PC v4.4.1 Sat Sep 29 23:08:33 2018

Tools Copyright (c) 1996-2012 Texas Instruments Incorporated
csl_usb_poll_example.asm                                             PAGE  165

    6858                      .dwattr $C$DW$648, DW_AT_accessibility(DW_ACCESS_public)
    6859              $C$DW$649       .dwtag  DW_TAG_member
    6860                      .dwattr $C$DW$649, DW_AT_type(*$C$DW$T$20)
    6861                      .dwattr $C$DW$649, DW_AT_name("INTMASKEDR1")
    6862                      .dwattr $C$DW$649, DW_AT_TI_symbol_name("_INTMASKEDR1")
    6863                      .dwattr $C$DW$649, DW_AT_data_member_location[DW_OP_plus_uconst 0x38]
    6864                      .dwattr $C$DW$649, DW_AT_accessibility(DW_ACCESS_public)
    6865              $C$DW$650       .dwtag  DW_TAG_member
    6866                      .dwattr $C$DW$650, DW_AT_type(*$C$DW$T$20)
    6867                      .dwattr $C$DW$650, DW_AT_name("INTMASKEDR2")
    6868                      .dwattr $C$DW$650, DW_AT_TI_symbol_name("_INTMASKEDR2")
    6869                      .dwattr $C$DW$650, DW_AT_data_member_location[DW_OP_plus_uconst 0x39]
    6870                      .dwattr $C$DW$650, DW_AT_accessibility(DW_ACCESS_public)
    6871              $C$DW$651       .dwtag  DW_TAG_member
    6872                      .dwattr $C$DW$651, DW_AT_type(*$C$DW$T$36)
    6873                      .dwattr $C$DW$651, DW_AT_name("RSVD14")
    6874                      .dwattr $C$DW$651, DW_AT_TI_symbol_name("_RSVD14")
    6875                      .dwattr $C$DW$651, DW_AT_data_member_location[DW_OP_plus_uconst 0x3a]
    6876                      .dwattr $C$DW$651, DW_AT_accessibility(DW_ACCESS_public)
    6877              $C$DW$652       .dwtag  DW_TAG_member
    6878                      .dwattr $C$DW$652, DW_AT_type(*$C$DW$T$20)
    6879                      .dwattr $C$DW$652, DW_AT_name("EOIR")
    6880                      .dwattr $C$DW$652, DW_AT_TI_symbol_name("_EOIR")
    6881                      .dwattr $C$DW$652, DW_AT_data_member_location[DW_OP_plus_uconst 0x3c]
    6882                      .dwattr $C$DW$652, DW_AT_accessibility(DW_ACCESS_public)
    6883              $C$DW$653       .dwtag  DW_TAG_member
    6884                      .dwattr $C$DW$653, DW_AT_type(*$C$DW$T$48)
    6885                      .dwattr $C$DW$653, DW_AT_name("RSVD15")
    6886                      .dwattr $C$DW$653, DW_AT_TI_symbol_name("_RSVD15")
    6887                      .dwattr $C$DW$653, DW_AT_data_member_location[DW_OP_plus_uconst 0x3d]
    6888                      .dwattr $C$DW$653, DW_AT_accessibility(DW_ACCESS_public)
    6889              $C$DW$654       .dwtag  DW_TAG_member
    6890                      .dwattr $C$DW$654, DW_AT_type(*$C$DW$T$20)
    6891                      .dwattr $C$DW$654, DW_AT_name("INTVECTR1")
    6892                      .dwattr $C$DW$654, DW_AT_TI_symbol_name("_INTVECTR1")
    6893                      .dwattr $C$DW$654, DW_AT_data_member_location[DW_OP_plus_uconst 0x40]
    6894                      .dwattr $C$DW$654, DW_AT_accessibility(DW_ACCESS_public)
    6895              $C$DW$655       .dwtag  DW_TAG_member
    6896                      .dwattr $C$DW$655, DW_AT_type(*$C$DW$T$20)
    6897                      .dwattr $C$DW$655, DW_AT_name("INTVECTR2")
    6898                      .dwattr $C$DW$655, DW_AT_TI_symbol_name("_INTVECTR2")
    6899                      .dwattr $C$DW$655, DW_AT_data_member_location[DW_OP_plus_uconst 0x41]
    6900                      .dwattr $C$DW$655, DW_AT_accessibility(DW_ACCESS_public)
    6901              $C$DW$656       .dwtag  DW_TAG_member
    6902                      .dwattr $C$DW$656, DW_AT_type(*$C$DW$T$41)
    6903                      .dwattr $C$DW$656, DW_AT_name("RSVD16")
    6904                      .dwattr $C$DW$656, DW_AT_TI_symbol_name("_RSVD16")
    6905                      .dwattr $C$DW$656, DW_AT_data_member_location[DW_OP_plus_uconst 0x42]
    6906                      .dwattr $C$DW$656, DW_AT_accessibility(DW_ACCESS_public)
    6907              $C$DW$657       .dwtag  DW_TAG_member
    6908                      .dwattr $C$DW$657, DW_AT_type(*$C$DW$T$20)
    6909                      .dwattr $C$DW$657, DW_AT_name("GREP1SZR1")
    6910                      .dwattr $C$DW$657, DW_AT_TI_symbol_name("_GREP1SZR1")
    6911                      .dwattr $C$DW$657, DW_AT_data_member_location[DW_OP_plus_uconst 0x50]
    6912                      .dwattr $C$DW$657, DW_AT_accessibility(DW_ACCESS_public)
TMS320C55x Assembler PC v4.4.1 Sat Sep 29 23:08:33 2018

Tools Copyright (c) 1996-2012 Texas Instruments Incorporated
csl_usb_poll_example.asm                                             PAGE  166

    6913              $C$DW$658       .dwtag  DW_TAG_member
    6914                      .dwattr $C$DW$658, DW_AT_type(*$C$DW$T$20)
    6915                      .dwattr $C$DW$658, DW_AT_name("GREP1SZR2")
    6916                      .dwattr $C$DW$658, DW_AT_TI_symbol_name("_GREP1SZR2")
    6917                      .dwattr $C$DW$658, DW_AT_data_member_location[DW_OP_plus_uconst 0x51]
    6918                      .dwattr $C$DW$658, DW_AT_accessibility(DW_ACCESS_public)
    6919              $C$DW$659       .dwtag  DW_TAG_member
    6920                      .dwattr $C$DW$659, DW_AT_type(*$C$DW$T$36)
    6921                      .dwattr $C$DW$659, DW_AT_name("RSVD17")
    6922                      .dwattr $C$DW$659, DW_AT_TI_symbol_name("_RSVD17")
    6923                      .dwattr $C$DW$659, DW_AT_data_member_location[DW_OP_plus_uconst 0x52]
    6924                      .dwattr $C$DW$659, DW_AT_accessibility(DW_ACCESS_public)
    6925              $C$DW$660       .dwtag  DW_TAG_member
    6926                      .dwattr $C$DW$660, DW_AT_type(*$C$DW$T$20)
    6927                      .dwattr $C$DW$660, DW_AT_name("GREP2SZR1")
    6928                      .dwattr $C$DW$660, DW_AT_TI_symbol_name("_GREP2SZR1")
    6929                      .dwattr $C$DW$660, DW_AT_data_member_location[DW_OP_plus_uconst 0x54]
    6930                      .dwattr $C$DW$660, DW_AT_accessibility(DW_ACCESS_public)
    6931              $C$DW$661       .dwtag  DW_TAG_member
    6932                      .dwattr $C$DW$661, DW_AT_type(*$C$DW$T$20)
    6933                      .dwattr $C$DW$661, DW_AT_name("GREP2SZR2")
    6934                      .dwattr $C$DW$661, DW_AT_TI_symbol_name("_GREP2SZR2")
    6935                      .dwattr $C$DW$661, DW_AT_data_member_location[DW_OP_plus_uconst 0x55]
    6936                      .dwattr $C$DW$661, DW_AT_accessibility(DW_ACCESS_public)
    6937              $C$DW$662       .dwtag  DW_TAG_member
    6938                      .dwattr $C$DW$662, DW_AT_type(*$C$DW$T$36)
    6939                      .dwattr $C$DW$662, DW_AT_name("RSVD18")
    6940                      .dwattr $C$DW$662, DW_AT_TI_symbol_name("_RSVD18")
    6941                      .dwattr $C$DW$662, DW_AT_data_member_location[DW_OP_plus_uconst 0x56]
    6942                      .dwattr $C$DW$662, DW_AT_accessibility(DW_ACCESS_public)
    6943              $C$DW$663       .dwtag  DW_TAG_member
    6944                      .dwattr $C$DW$663, DW_AT_type(*$C$DW$T$20)
    6945                      .dwattr $C$DW$663, DW_AT_name("GREP3SZR1")
    6946                      .dwattr $C$DW$663, DW_AT_TI_symbol_name("_GREP3SZR1")
    6947                      .dwattr $C$DW$663, DW_AT_data_member_location[DW_OP_plus_uconst 0x58]
    6948                      .dwattr $C$DW$663, DW_AT_accessibility(DW_ACCESS_public)
    6949              $C$DW$664       .dwtag  DW_TAG_member
    6950                      .dwattr $C$DW$664, DW_AT_type(*$C$DW$T$20)
    6951                      .dwattr $C$DW$664, DW_AT_name("GREP3SZR2")
    6952                      .dwattr $C$DW$664, DW_AT_TI_symbol_name("_GREP3SZR2")
    6953                      .dwattr $C$DW$664, DW_AT_data_member_location[DW_OP_plus_uconst 0x59]
    6954                      .dwattr $C$DW$664, DW_AT_accessibility(DW_ACCESS_public)
    6955              $C$DW$665       .dwtag  DW_TAG_member
    6956                      .dwattr $C$DW$665, DW_AT_type(*$C$DW$T$36)
    6957                      .dwattr $C$DW$665, DW_AT_name("RSVD19")
    6958                      .dwattr $C$DW$665, DW_AT_TI_symbol_name("_RSVD19")
    6959                      .dwattr $C$DW$665, DW_AT_data_member_location[DW_OP_plus_uconst 0x5a]
    6960                      .dwattr $C$DW$665, DW_AT_accessibility(DW_ACCESS_public)
    6961              $C$DW$666       .dwtag  DW_TAG_member
    6962                      .dwattr $C$DW$666, DW_AT_type(*$C$DW$T$20)
    6963                      .dwattr $C$DW$666, DW_AT_name("GREP4SZR1")
    6964                      .dwattr $C$DW$666, DW_AT_TI_symbol_name("_GREP4SZR1")
    6965                      .dwattr $C$DW$666, DW_AT_data_member_location[DW_OP_plus_uconst 0x5c]
    6966                      .dwattr $C$DW$666, DW_AT_accessibility(DW_ACCESS_public)
    6967              $C$DW$667       .dwtag  DW_TAG_member
TMS320C55x Assembler PC v4.4.1 Sat Sep 29 23:08:33 2018

Tools Copyright (c) 1996-2012 Texas Instruments Incorporated
csl_usb_poll_example.asm                                             PAGE  167

    6968                      .dwattr $C$DW$667, DW_AT_type(*$C$DW$T$20)
    6969                      .dwattr $C$DW$667, DW_AT_name("GREP4SZR2")
    6970                      .dwattr $C$DW$667, DW_AT_TI_symbol_name("_GREP4SZR2")
    6971                      .dwattr $C$DW$667, DW_AT_data_member_location[DW_OP_plus_uconst 0x5d]
    6972                      .dwattr $C$DW$667, DW_AT_accessibility(DW_ACCESS_public)
    6973              $C$DW$668       .dwtag  DW_TAG_member
    6974                      .dwattr $C$DW$668, DW_AT_type(*$C$DW$T$50)
    6975                      .dwattr $C$DW$668, DW_AT_name("RSVD20")
    6976                      .dwattr $C$DW$668, DW_AT_TI_symbol_name("_RSVD20")
    6977                      .dwattr $C$DW$668, DW_AT_data_member_location[DW_OP_plus_uconst 0x5e]
    6978                      .dwattr $C$DW$668, DW_AT_accessibility(DW_ACCESS_public)
    6979              $C$DW$669       .dwtag  DW_TAG_member
    6980                      .dwattr $C$DW$669, DW_AT_type(*$C$DW$T$20)
    6981                      .dwattr $C$DW$669, DW_AT_name("FADDR_POWER")
    6982                      .dwattr $C$DW$669, DW_AT_TI_symbol_name("_FADDR_POWER")
    6983                      .dwattr $C$DW$669, DW_AT_data_member_location[DW_OP_plus_uconst 0x401]
    6984                      .dwattr $C$DW$669, DW_AT_accessibility(DW_ACCESS_public)
    6985              $C$DW$670       .dwtag  DW_TAG_member
    6986                      .dwattr $C$DW$670, DW_AT_type(*$C$DW$T$20)
    6987                      .dwattr $C$DW$670, DW_AT_name("INTRTX")
    6988                      .dwattr $C$DW$670, DW_AT_TI_symbol_name("_INTRTX")
    6989                      .dwattr $C$DW$670, DW_AT_data_member_location[DW_OP_plus_uconst 0x402]
    6990                      .dwattr $C$DW$670, DW_AT_accessibility(DW_ACCESS_public)
    6991              $C$DW$671       .dwtag  DW_TAG_member
    6992                      .dwattr $C$DW$671, DW_AT_type(*$C$DW$T$36)
    6993                      .dwattr $C$DW$671, DW_AT_name("RSVD21")
    6994                      .dwattr $C$DW$671, DW_AT_TI_symbol_name("_RSVD21")
    6995                      .dwattr $C$DW$671, DW_AT_data_member_location[DW_OP_plus_uconst 0x403]
    6996                      .dwattr $C$DW$671, DW_AT_accessibility(DW_ACCESS_public)
    6997              $C$DW$672       .dwtag  DW_TAG_member
    6998                      .dwattr $C$DW$672, DW_AT_type(*$C$DW$T$20)
    6999                      .dwattr $C$DW$672, DW_AT_name("INTRRX")
    7000                      .dwattr $C$DW$672, DW_AT_TI_symbol_name("_INTRRX")
    7001                      .dwattr $C$DW$672, DW_AT_data_member_location[DW_OP_plus_uconst 0x405]
    7002                      .dwattr $C$DW$672, DW_AT_accessibility(DW_ACCESS_public)
    7003              $C$DW$673       .dwtag  DW_TAG_member
    7004                      .dwattr $C$DW$673, DW_AT_type(*$C$DW$T$20)
    7005                      .dwattr $C$DW$673, DW_AT_name("INTRTXE")
    7006                      .dwattr $C$DW$673, DW_AT_TI_symbol_name("_INTRTXE")
    7007                      .dwattr $C$DW$673, DW_AT_data_member_location[DW_OP_plus_uconst 0x406]
    7008                      .dwattr $C$DW$673, DW_AT_accessibility(DW_ACCESS_public)
    7009              $C$DW$674       .dwtag  DW_TAG_member
    7010                      .dwattr $C$DW$674, DW_AT_type(*$C$DW$T$36)
    7011                      .dwattr $C$DW$674, DW_AT_name("RSVD22")
    7012                      .dwattr $C$DW$674, DW_AT_TI_symbol_name("_RSVD22")
    7013                      .dwattr $C$DW$674, DW_AT_data_member_location[DW_OP_plus_uconst 0x407]
    7014                      .dwattr $C$DW$674, DW_AT_accessibility(DW_ACCESS_public)
    7015              $C$DW$675       .dwtag  DW_TAG_member
    7016                      .dwattr $C$DW$675, DW_AT_type(*$C$DW$T$20)
    7017                      .dwattr $C$DW$675, DW_AT_name("INTRRXE")
    7018                      .dwattr $C$DW$675, DW_AT_TI_symbol_name("_INTRRXE")
    7019                      .dwattr $C$DW$675, DW_AT_data_member_location[DW_OP_plus_uconst 0x409]
    7020                      .dwattr $C$DW$675, DW_AT_accessibility(DW_ACCESS_public)
    7021              $C$DW$676       .dwtag  DW_TAG_member
    7022                      .dwattr $C$DW$676, DW_AT_type(*$C$DW$T$20)
TMS320C55x Assembler PC v4.4.1 Sat Sep 29 23:08:33 2018

Tools Copyright (c) 1996-2012 Texas Instruments Incorporated
csl_usb_poll_example.asm                                             PAGE  168

    7023                      .dwattr $C$DW$676, DW_AT_name("INTRUSB_INTRUSBE")
    7024                      .dwattr $C$DW$676, DW_AT_TI_symbol_name("_INTRUSB_INTRUSBE")
    7025                      .dwattr $C$DW$676, DW_AT_data_member_location[DW_OP_plus_uconst 0x40a]
    7026                      .dwattr $C$DW$676, DW_AT_accessibility(DW_ACCESS_public)
    7027              $C$DW$677       .dwtag  DW_TAG_member
    7028                      .dwattr $C$DW$677, DW_AT_type(*$C$DW$T$36)
    7029                      .dwattr $C$DW$677, DW_AT_name("RSVD23")
    7030                      .dwattr $C$DW$677, DW_AT_TI_symbol_name("_RSVD23")
    7031                      .dwattr $C$DW$677, DW_AT_data_member_location[DW_OP_plus_uconst 0x40b]
    7032                      .dwattr $C$DW$677, DW_AT_accessibility(DW_ACCESS_public)
    7033              $C$DW$678       .dwtag  DW_TAG_member
    7034                      .dwattr $C$DW$678, DW_AT_type(*$C$DW$T$20)
    7035                      .dwattr $C$DW$678, DW_AT_name("FRAME")
    7036                      .dwattr $C$DW$678, DW_AT_TI_symbol_name("_FRAME")
    7037                      .dwattr $C$DW$678, DW_AT_data_member_location[DW_OP_plus_uconst 0x40d]
    7038                      .dwattr $C$DW$678, DW_AT_accessibility(DW_ACCESS_public)
    7039              $C$DW$679       .dwtag  DW_TAG_member
    7040                      .dwattr $C$DW$679, DW_AT_type(*$C$DW$T$20)
    7041                      .dwattr $C$DW$679, DW_AT_name("INDEX_TESTMODE")
    7042                      .dwattr $C$DW$679, DW_AT_TI_symbol_name("_INDEX_TESTMODE")
    7043                      .dwattr $C$DW$679, DW_AT_data_member_location[DW_OP_plus_uconst 0x40e]
    7044                      .dwattr $C$DW$679, DW_AT_accessibility(DW_ACCESS_public)
    7045              $C$DW$680       .dwtag  DW_TAG_member
    7046                      .dwattr $C$DW$680, DW_AT_type(*$C$DW$T$36)
    7047                      .dwattr $C$DW$680, DW_AT_name("RSVD24")
    7048                      .dwattr $C$DW$680, DW_AT_TI_symbol_name("_RSVD24")
    7049                      .dwattr $C$DW$680, DW_AT_data_member_location[DW_OP_plus_uconst 0x40f]
    7050                      .dwattr $C$DW$680, DW_AT_accessibility(DW_ACCESS_public)
    7051              $C$DW$681       .dwtag  DW_TAG_member
    7052                      .dwattr $C$DW$681, DW_AT_type(*$C$DW$T$20)
    7053                      .dwattr $C$DW$681, DW_AT_name("TXMAXP_INDX")
    7054                      .dwattr $C$DW$681, DW_AT_TI_symbol_name("_TXMAXP_INDX")
    7055                      .dwattr $C$DW$681, DW_AT_data_member_location[DW_OP_plus_uconst 0x411]
    7056                      .dwattr $C$DW$681, DW_AT_accessibility(DW_ACCESS_public)
    7057              $C$DW$682       .dwtag  DW_TAG_member
    7058                      .dwattr $C$DW$682, DW_AT_type(*$C$DW$T$20)
    7059                      .dwattr $C$DW$682, DW_AT_name("PERI_CSR0_INDX")
    7060                      .dwattr $C$DW$682, DW_AT_TI_symbol_name("_PERI_CSR0_INDX")
    7061                      .dwattr $C$DW$682, DW_AT_data_member_location[DW_OP_plus_uconst 0x412]
    7062                      .dwattr $C$DW$682, DW_AT_accessibility(DW_ACCESS_public)
    7063              $C$DW$683       .dwtag  DW_TAG_member
    7064                      .dwattr $C$DW$683, DW_AT_type(*$C$DW$T$36)
    7065                      .dwattr $C$DW$683, DW_AT_name("RSVD25")
    7066                      .dwattr $C$DW$683, DW_AT_TI_symbol_name("_RSVD25")
    7067                      .dwattr $C$DW$683, DW_AT_data_member_location[DW_OP_plus_uconst 0x413]
    7068                      .dwattr $C$DW$683, DW_AT_accessibility(DW_ACCESS_public)
    7069              $C$DW$684       .dwtag  DW_TAG_member
    7070                      .dwattr $C$DW$684, DW_AT_type(*$C$DW$T$20)
    7071                      .dwattr $C$DW$684, DW_AT_name("RXMAXP_INDX")
    7072                      .dwattr $C$DW$684, DW_AT_TI_symbol_name("_RXMAXP_INDX")
    7073                      .dwattr $C$DW$684, DW_AT_data_member_location[DW_OP_plus_uconst 0x415]
    7074                      .dwattr $C$DW$684, DW_AT_accessibility(DW_ACCESS_public)
    7075              $C$DW$685       .dwtag  DW_TAG_member
    7076                      .dwattr $C$DW$685, DW_AT_type(*$C$DW$T$20)
    7077                      .dwattr $C$DW$685, DW_AT_name("PERI_RXCSR_INDX")
TMS320C55x Assembler PC v4.4.1 Sat Sep 29 23:08:33 2018

Tools Copyright (c) 1996-2012 Texas Instruments Incorporated
csl_usb_poll_example.asm                                             PAGE  169

    7078                      .dwattr $C$DW$685, DW_AT_TI_symbol_name("_PERI_RXCSR_INDX")
    7079                      .dwattr $C$DW$685, DW_AT_data_member_location[DW_OP_plus_uconst 0x416]
    7080                      .dwattr $C$DW$685, DW_AT_accessibility(DW_ACCESS_public)
    7081              $C$DW$686       .dwtag  DW_TAG_member
    7082                      .dwattr $C$DW$686, DW_AT_type(*$C$DW$T$36)
    7083                      .dwattr $C$DW$686, DW_AT_name("RSVD26")
    7084                      .dwattr $C$DW$686, DW_AT_TI_symbol_name("_RSVD26")
    7085                      .dwattr $C$DW$686, DW_AT_data_member_location[DW_OP_plus_uconst 0x417]
    7086                      .dwattr $C$DW$686, DW_AT_accessibility(DW_ACCESS_public)
    7087              $C$DW$687       .dwtag  DW_TAG_member
    7088                      .dwattr $C$DW$687, DW_AT_type(*$C$DW$T$20)
    7089                      .dwattr $C$DW$687, DW_AT_name("COUNT0_INDX")
    7090                      .dwattr $C$DW$687, DW_AT_TI_symbol_name("_COUNT0_INDX")
    7091                      .dwattr $C$DW$687, DW_AT_data_member_location[DW_OP_plus_uconst 0x419]
    7092                      .dwattr $C$DW$687, DW_AT_accessibility(DW_ACCESS_public)
    7093              $C$DW$688       .dwtag  DW_TAG_member
    7094                      .dwattr $C$DW$688, DW_AT_type(*$C$DW$T$21)
    7095                      .dwattr $C$DW$688, DW_AT_name("RSVD27")
    7096                      .dwattr $C$DW$688, DW_AT_TI_symbol_name("_RSVD27")
    7097                      .dwattr $C$DW$688, DW_AT_data_member_location[DW_OP_plus_uconst 0x41a]
    7098                      .dwattr $C$DW$688, DW_AT_accessibility(DW_ACCESS_public)
    7099              $C$DW$689       .dwtag  DW_TAG_member
    7100                      .dwattr $C$DW$689, DW_AT_type(*$C$DW$T$20)
    7101                      .dwattr $C$DW$689, DW_AT_name("CONFIGDATA_INDX")
    7102                      .dwattr $C$DW$689, DW_AT_TI_symbol_name("_CONFIGDATA_INDX")
    7103                      .dwattr $C$DW$689, DW_AT_data_member_location[DW_OP_plus_uconst 0x41e]
    7104                      .dwattr $C$DW$689, DW_AT_accessibility(DW_ACCESS_public)
    7105              $C$DW$690       .dwtag  DW_TAG_member
    7106                      .dwattr $C$DW$690, DW_AT_type(*$C$DW$T$36)
    7107                      .dwattr $C$DW$690, DW_AT_name("RSVD28")
    7108                      .dwattr $C$DW$690, DW_AT_TI_symbol_name("_RSVD28")
    7109                      .dwattr $C$DW$690, DW_AT_data_member_location[DW_OP_plus_uconst 0x41f]
    7110                      .dwattr $C$DW$690, DW_AT_accessibility(DW_ACCESS_public)
    7111              $C$DW$691       .dwtag  DW_TAG_member
    7112                      .dwattr $C$DW$691, DW_AT_type(*$C$DW$T$20)
    7113                      .dwattr $C$DW$691, DW_AT_name("FIFO0R1")
    7114                      .dwattr $C$DW$691, DW_AT_TI_symbol_name("_FIFO0R1")
    7115                      .dwattr $C$DW$691, DW_AT_data_member_location[DW_OP_plus_uconst 0x421]
    7116                      .dwattr $C$DW$691, DW_AT_accessibility(DW_ACCESS_public)
    7117              $C$DW$692       .dwtag  DW_TAG_member
    7118                      .dwattr $C$DW$692, DW_AT_type(*$C$DW$T$20)
    7119                      .dwattr $C$DW$692, DW_AT_name("FIFO0R2")
    7120                      .dwattr $C$DW$692, DW_AT_TI_symbol_name("_FIFO0R2")
    7121                      .dwattr $C$DW$692, DW_AT_data_member_location[DW_OP_plus_uconst 0x422]
    7122                      .dwattr $C$DW$692, DW_AT_accessibility(DW_ACCESS_public)
    7123              $C$DW$693       .dwtag  DW_TAG_member
    7124                      .dwattr $C$DW$693, DW_AT_type(*$C$DW$T$36)
    7125                      .dwattr $C$DW$693, DW_AT_name("RSVD29")
    7126                      .dwattr $C$DW$693, DW_AT_TI_symbol_name("_RSVD29")
    7127                      .dwattr $C$DW$693, DW_AT_data_member_location[DW_OP_plus_uconst 0x423]
    7128                      .dwattr $C$DW$693, DW_AT_accessibility(DW_ACCESS_public)
    7129              $C$DW$694       .dwtag  DW_TAG_member
    7130                      .dwattr $C$DW$694, DW_AT_type(*$C$DW$T$20)
    7131                      .dwattr $C$DW$694, DW_AT_name("FIFO1R1")
    7132                      .dwattr $C$DW$694, DW_AT_TI_symbol_name("_FIFO1R1")
TMS320C55x Assembler PC v4.4.1 Sat Sep 29 23:08:33 2018

Tools Copyright (c) 1996-2012 Texas Instruments Incorporated
csl_usb_poll_example.asm                                             PAGE  170

    7133                      .dwattr $C$DW$694, DW_AT_data_member_location[DW_OP_plus_uconst 0x425]
    7134                      .dwattr $C$DW$694, DW_AT_accessibility(DW_ACCESS_public)
    7135              $C$DW$695       .dwtag  DW_TAG_member
    7136                      .dwattr $C$DW$695, DW_AT_type(*$C$DW$T$20)
    7137                      .dwattr $C$DW$695, DW_AT_name("FIFO1R2")
    7138                      .dwattr $C$DW$695, DW_AT_TI_symbol_name("_FIFO1R2")
    7139                      .dwattr $C$DW$695, DW_AT_data_member_location[DW_OP_plus_uconst 0x426]
    7140                      .dwattr $C$DW$695, DW_AT_accessibility(DW_ACCESS_public)
    7141              $C$DW$696       .dwtag  DW_TAG_member
    7142                      .dwattr $C$DW$696, DW_AT_type(*$C$DW$T$36)
    7143                      .dwattr $C$DW$696, DW_AT_name("RSVD30")
    7144                      .dwattr $C$DW$696, DW_AT_TI_symbol_name("_RSVD30")
    7145                      .dwattr $C$DW$696, DW_AT_data_member_location[DW_OP_plus_uconst 0x427]
    7146                      .dwattr $C$DW$696, DW_AT_accessibility(DW_ACCESS_public)
    7147              $C$DW$697       .dwtag  DW_TAG_member
    7148                      .dwattr $C$DW$697, DW_AT_type(*$C$DW$T$20)
    7149                      .dwattr $C$DW$697, DW_AT_name("FIFO2R1")
    7150                      .dwattr $C$DW$697, DW_AT_TI_symbol_name("_FIFO2R1")
    7151                      .dwattr $C$DW$697, DW_AT_data_member_location[DW_OP_plus_uconst 0x429]
    7152                      .dwattr $C$DW$697, DW_AT_accessibility(DW_ACCESS_public)
    7153              $C$DW$698       .dwtag  DW_TAG_member
    7154                      .dwattr $C$DW$698, DW_AT_type(*$C$DW$T$20)
    7155                      .dwattr $C$DW$698, DW_AT_name("FIFO2R2")
    7156                      .dwattr $C$DW$698, DW_AT_TI_symbol_name("_FIFO2R2")
    7157                      .dwattr $C$DW$698, DW_AT_data_member_location[DW_OP_plus_uconst 0x42a]
    7158                      .dwattr $C$DW$698, DW_AT_accessibility(DW_ACCESS_public)
    7159              $C$DW$699       .dwtag  DW_TAG_member
    7160                      .dwattr $C$DW$699, DW_AT_type(*$C$DW$T$36)
    7161                      .dwattr $C$DW$699, DW_AT_name("RSVD31")
    7162                      .dwattr $C$DW$699, DW_AT_TI_symbol_name("_RSVD31")
    7163                      .dwattr $C$DW$699, DW_AT_data_member_location[DW_OP_plus_uconst 0x42b]
    7164                      .dwattr $C$DW$699, DW_AT_accessibility(DW_ACCESS_public)
    7165              $C$DW$700       .dwtag  DW_TAG_member
    7166                      .dwattr $C$DW$700, DW_AT_type(*$C$DW$T$20)
    7167                      .dwattr $C$DW$700, DW_AT_name("FIFO3R1")
    7168                      .dwattr $C$DW$700, DW_AT_TI_symbol_name("_FIFO3R1")
    7169                      .dwattr $C$DW$700, DW_AT_data_member_location[DW_OP_plus_uconst 0x42d]
    7170                      .dwattr $C$DW$700, DW_AT_accessibility(DW_ACCESS_public)
    7171              $C$DW$701       .dwtag  DW_TAG_member
    7172                      .dwattr $C$DW$701, DW_AT_type(*$C$DW$T$20)
    7173                      .dwattr $C$DW$701, DW_AT_name("FIFO3R2")
    7174                      .dwattr $C$DW$701, DW_AT_TI_symbol_name("_FIFO3R2")
    7175                      .dwattr $C$DW$701, DW_AT_data_member_location[DW_OP_plus_uconst 0x42e]
    7176                      .dwattr $C$DW$701, DW_AT_accessibility(DW_ACCESS_public)
    7177              $C$DW$702       .dwtag  DW_TAG_member
    7178                      .dwattr $C$DW$702, DW_AT_type(*$C$DW$T$36)
    7179                      .dwattr $C$DW$702, DW_AT_name("RSVD32")
    7180                      .dwattr $C$DW$702, DW_AT_TI_symbol_name("_RSVD32")
    7181                      .dwattr $C$DW$702, DW_AT_data_member_location[DW_OP_plus_uconst 0x42f]
    7182                      .dwattr $C$DW$702, DW_AT_accessibility(DW_ACCESS_public)
    7183              $C$DW$703       .dwtag  DW_TAG_member
    7184                      .dwattr $C$DW$703, DW_AT_type(*$C$DW$T$20)
    7185                      .dwattr $C$DW$703, DW_AT_name("FIFO4R1")
    7186                      .dwattr $C$DW$703, DW_AT_TI_symbol_name("_FIFO4R1")
    7187                      .dwattr $C$DW$703, DW_AT_data_member_location[DW_OP_plus_uconst 0x431]
TMS320C55x Assembler PC v4.4.1 Sat Sep 29 23:08:33 2018

Tools Copyright (c) 1996-2012 Texas Instruments Incorporated
csl_usb_poll_example.asm                                             PAGE  171

    7188                      .dwattr $C$DW$703, DW_AT_accessibility(DW_ACCESS_public)
    7189              $C$DW$704       .dwtag  DW_TAG_member
    7190                      .dwattr $C$DW$704, DW_AT_type(*$C$DW$T$20)
    7191                      .dwattr $C$DW$704, DW_AT_name("FIFO4R2")
    7192                      .dwattr $C$DW$704, DW_AT_TI_symbol_name("_FIFO4R2")
    7193                      .dwattr $C$DW$704, DW_AT_data_member_location[DW_OP_plus_uconst 0x432]
    7194                      .dwattr $C$DW$704, DW_AT_accessibility(DW_ACCESS_public)
    7195              $C$DW$705       .dwtag  DW_TAG_member
    7196                      .dwattr $C$DW$705, DW_AT_type(*$C$DW$T$51)
    7197                      .dwattr $C$DW$705, DW_AT_name("RSVD33")
    7198                      .dwattr $C$DW$705, DW_AT_TI_symbol_name("_RSVD33")
    7199                      .dwattr $C$DW$705, DW_AT_data_member_location[DW_OP_plus_uconst 0x433]
    7200                      .dwattr $C$DW$705, DW_AT_accessibility(DW_ACCESS_public)
    7201              $C$DW$706       .dwtag  DW_TAG_member
    7202                      .dwattr $C$DW$706, DW_AT_type(*$C$DW$T$20)
    7203                      .dwattr $C$DW$706, DW_AT_name("DEVCTL")
    7204                      .dwattr $C$DW$706, DW_AT_TI_symbol_name("_DEVCTL")
    7205                      .dwattr $C$DW$706, DW_AT_data_member_location[DW_OP_plus_uconst 0x461]
    7206                      .dwattr $C$DW$706, DW_AT_accessibility(DW_ACCESS_public)
    7207              $C$DW$707       .dwtag  DW_TAG_member
    7208                      .dwattr $C$DW$707, DW_AT_type(*$C$DW$T$20)
    7209                      .dwattr $C$DW$707, DW_AT_name("TXFIFOSZ_RXFIFOSZ")
    7210                      .dwattr $C$DW$707, DW_AT_TI_symbol_name("_TXFIFOSZ_RXFIFOSZ")
    7211                      .dwattr $C$DW$707, DW_AT_data_member_location[DW_OP_plus_uconst 0x462]
    7212                      .dwattr $C$DW$707, DW_AT_accessibility(DW_ACCESS_public)
    7213              $C$DW$708       .dwtag  DW_TAG_member
    7214                      .dwattr $C$DW$708, DW_AT_type(*$C$DW$T$36)
    7215                      .dwattr $C$DW$708, DW_AT_name("RSVD34")
    7216                      .dwattr $C$DW$708, DW_AT_TI_symbol_name("_RSVD34")
    7217                      .dwattr $C$DW$708, DW_AT_data_member_location[DW_OP_plus_uconst 0x463]
    7218                      .dwattr $C$DW$708, DW_AT_accessibility(DW_ACCESS_public)
    7219              $C$DW$709       .dwtag  DW_TAG_member
    7220                      .dwattr $C$DW$709, DW_AT_type(*$C$DW$T$20)
    7221                      .dwattr $C$DW$709, DW_AT_name("TXFIFOADDR")
    7222                      .dwattr $C$DW$709, DW_AT_TI_symbol_name("_TXFIFOADDR")
    7223                      .dwattr $C$DW$709, DW_AT_data_member_location[DW_OP_plus_uconst 0x465]
    7224                      .dwattr $C$DW$709, DW_AT_accessibility(DW_ACCESS_public)
    7225              $C$DW$710       .dwtag  DW_TAG_member
    7226                      .dwattr $C$DW$710, DW_AT_type(*$C$DW$T$20)
    7227                      .dwattr $C$DW$710, DW_AT_name("RXFIFOADDR")
    7228                      .dwattr $C$DW$710, DW_AT_TI_symbol_name("_RXFIFOADDR")
    7229                      .dwattr $C$DW$710, DW_AT_data_member_location[DW_OP_plus_uconst 0x466]
    7230                      .dwattr $C$DW$710, DW_AT_accessibility(DW_ACCESS_public)
    7231              $C$DW$711       .dwtag  DW_TAG_member
    7232                      .dwattr $C$DW$711, DW_AT_type(*$C$DW$T$40)
    7233                      .dwattr $C$DW$711, DW_AT_name("RSVD35")
    7234                      .dwattr $C$DW$711, DW_AT_TI_symbol_name("_RSVD35")
    7235                      .dwattr $C$DW$711, DW_AT_data_member_location[DW_OP_plus_uconst 0x467]
    7236                      .dwattr $C$DW$711, DW_AT_accessibility(DW_ACCESS_public)
    7237              $C$DW$712       .dwtag  DW_TAG_member
    7238                      .dwattr $C$DW$712, DW_AT_type(*$C$DW$T$20)
    7239                      .dwattr $C$DW$712, DW_AT_name("HWVERS")
    7240                      .dwattr $C$DW$712, DW_AT_TI_symbol_name("_HWVERS")
    7241                      .dwattr $C$DW$712, DW_AT_data_member_location[DW_OP_plus_uconst 0x46d]
    7242                      .dwattr $C$DW$712, DW_AT_accessibility(DW_ACCESS_public)
TMS320C55x Assembler PC v4.4.1 Sat Sep 29 23:08:33 2018

Tools Copyright (c) 1996-2012 Texas Instruments Incorporated
csl_usb_poll_example.asm                                             PAGE  172

    7243              $C$DW$713       .dwtag  DW_TAG_member
    7244                      .dwattr $C$DW$713, DW_AT_type(*$C$DW$T$52)
    7245                      .dwattr $C$DW$713, DW_AT_name("RSVD37")
    7246                      .dwattr $C$DW$713, DW_AT_TI_symbol_name("_RSVD37")
    7247                      .dwattr $C$DW$713, DW_AT_data_member_location[DW_OP_plus_uconst 0x46e]
    7248                      .dwattr $C$DW$713, DW_AT_accessibility(DW_ACCESS_public)
    7249              $C$DW$714       .dwtag  DW_TAG_member
    7250                      .dwattr $C$DW$714, DW_AT_type(*$C$DW$T$54)
    7251                      .dwattr $C$DW$714, DW_AT_name("EPTRG")
    7252                      .dwattr $C$DW$714, DW_AT_TI_symbol_name("_EPTRG")
    7253                      .dwattr $C$DW$714, DW_AT_data_member_location[DW_OP_plus_uconst 0x481]
    7254                      .dwattr $C$DW$714, DW_AT_accessibility(DW_ACCESS_public)
    7255              $C$DW$715       .dwtag  DW_TAG_member
    7256                      .dwattr $C$DW$715, DW_AT_type(*$C$DW$T$55)
    7257                      .dwattr $C$DW$715, DW_AT_name("RSVD38")
    7258                      .dwattr $C$DW$715, DW_AT_TI_symbol_name("_RSVD38")
    7259                      .dwattr $C$DW$715, DW_AT_data_member_location[DW_OP_plus_uconst 0x4a9]
    7260                      .dwattr $C$DW$715, DW_AT_accessibility(DW_ACCESS_public)
    7261              $C$DW$716       .dwtag  DW_TAG_member
    7262                      .dwattr $C$DW$716, DW_AT_type(*$C$DW$T$20)
    7263                      .dwattr $C$DW$716, DW_AT_name("PERI_CSR0")
    7264                      .dwattr $C$DW$716, DW_AT_TI_symbol_name("_PERI_CSR0")
    7265                      .dwattr $C$DW$716, DW_AT_data_member_location[DW_OP_plus_uconst 0x502]
    7266                      .dwattr $C$DW$716, DW_AT_accessibility(DW_ACCESS_public)
    7267              $C$DW$717       .dwtag  DW_TAG_member
    7268                      .dwattr $C$DW$717, DW_AT_type(*$C$DW$T$40)
    7269                      .dwattr $C$DW$717, DW_AT_name("RSVD39")
    7270                      .dwattr $C$DW$717, DW_AT_TI_symbol_name("_RSVD39")
    7271                      .dwattr $C$DW$717, DW_AT_data_member_location[DW_OP_plus_uconst 0x503]
    7272                      .dwattr $C$DW$717, DW_AT_accessibility(DW_ACCESS_public)
    7273              $C$DW$718       .dwtag  DW_TAG_member
    7274                      .dwattr $C$DW$718, DW_AT_type(*$C$DW$T$20)
    7275                      .dwattr $C$DW$718, DW_AT_name("COUNT0")
    7276                      .dwattr $C$DW$718, DW_AT_TI_symbol_name("_COUNT0")
    7277                      .dwattr $C$DW$718, DW_AT_data_member_location[DW_OP_plus_uconst 0x509]
    7278                      .dwattr $C$DW$718, DW_AT_accessibility(DW_ACCESS_public)
    7279              $C$DW$719       .dwtag  DW_TAG_member
    7280                      .dwattr $C$DW$719, DW_AT_type(*$C$DW$T$21)
    7281                      .dwattr $C$DW$719, DW_AT_name("RSVD40")
    7282                      .dwattr $C$DW$719, DW_AT_TI_symbol_name("_RSVD40")
    7283                      .dwattr $C$DW$719, DW_AT_data_member_location[DW_OP_plus_uconst 0x50a]
    7284                      .dwattr $C$DW$719, DW_AT_accessibility(DW_ACCESS_public)
    7285              $C$DW$720       .dwtag  DW_TAG_member
    7286                      .dwattr $C$DW$720, DW_AT_type(*$C$DW$T$20)
    7287                      .dwattr $C$DW$720, DW_AT_name("CONFIGDATA")
    7288                      .dwattr $C$DW$720, DW_AT_TI_symbol_name("_CONFIGDATA")
    7289                      .dwattr $C$DW$720, DW_AT_data_member_location[DW_OP_plus_uconst 0x50e]
    7290                      .dwattr $C$DW$720, DW_AT_accessibility(DW_ACCESS_public)
    7291              $C$DW$721       .dwtag  DW_TAG_member
    7292                      .dwattr $C$DW$721, DW_AT_type(*$C$DW$T$36)
    7293                      .dwattr $C$DW$721, DW_AT_name("RSVD42")
    7294                      .dwattr $C$DW$721, DW_AT_TI_symbol_name("_RSVD42")
    7295                      .dwattr $C$DW$721, DW_AT_data_member_location[DW_OP_plus_uconst 0x50f]
    7296                      .dwattr $C$DW$721, DW_AT_accessibility(DW_ACCESS_public)
    7297              $C$DW$722       .dwtag  DW_TAG_member
TMS320C55x Assembler PC v4.4.1 Sat Sep 29 23:08:33 2018

Tools Copyright (c) 1996-2012 Texas Instruments Incorporated
csl_usb_poll_example.asm                                             PAGE  173

    7298                      .dwattr $C$DW$722, DW_AT_type(*$C$DW$T$57)
    7299                      .dwattr $C$DW$722, DW_AT_name("EPCSR")
    7300                      .dwattr $C$DW$722, DW_AT_TI_symbol_name("_EPCSR")
    7301                      .dwattr $C$DW$722, DW_AT_data_member_location[DW_OP_plus_uconst 0x511]
    7302                      .dwattr $C$DW$722, DW_AT_accessibility(DW_ACCESS_public)
    7303              $C$DW$723       .dwtag  DW_TAG_member
    7304                      .dwattr $C$DW$723, DW_AT_type(*$C$DW$T$58)
    7305                      .dwattr $C$DW$723, DW_AT_name("RSVD43")
    7306                      .dwattr $C$DW$723, DW_AT_TI_symbol_name("_RSVD43")
    7307                      .dwattr $C$DW$723, DW_AT_data_member_location[DW_OP_plus_uconst 0x551]
    7308                      .dwattr $C$DW$723, DW_AT_accessibility(DW_ACCESS_public)
    7309              $C$DW$724       .dwtag  DW_TAG_member
    7310                      .dwattr $C$DW$724, DW_AT_type(*$C$DW$T$20)
    7311                      .dwattr $C$DW$724, DW_AT_name("DMAREVID1")
    7312                      .dwattr $C$DW$724, DW_AT_TI_symbol_name("_DMAREVID1")
    7313                      .dwattr $C$DW$724, DW_AT_data_member_location[DW_OP_plus_uconst 0x1000]
    7314                      .dwattr $C$DW$724, DW_AT_accessibility(DW_ACCESS_public)
    7315              $C$DW$725       .dwtag  DW_TAG_member
    7316                      .dwattr $C$DW$725, DW_AT_type(*$C$DW$T$20)
    7317                      .dwattr $C$DW$725, DW_AT_name("DMAREVID2")
    7318                      .dwattr $C$DW$725, DW_AT_TI_symbol_name("_DMAREVID2")
    7319                      .dwattr $C$DW$725, DW_AT_data_member_location[DW_OP_plus_uconst 0x1001]
    7320                      .dwattr $C$DW$725, DW_AT_accessibility(DW_ACCESS_public)
    7321              $C$DW$726       .dwtag  DW_TAG_member
    7322                      .dwattr $C$DW$726, DW_AT_type(*$C$DW$T$36)
    7323                      .dwattr $C$DW$726, DW_AT_name("RSVD44")
    7324                      .dwattr $C$DW$726, DW_AT_TI_symbol_name("_RSVD44")
    7325                      .dwattr $C$DW$726, DW_AT_data_member_location[DW_OP_plus_uconst 0x1002]
    7326                      .dwattr $C$DW$726, DW_AT_accessibility(DW_ACCESS_public)
    7327              $C$DW$727       .dwtag  DW_TAG_member
    7328                      .dwattr $C$DW$727, DW_AT_type(*$C$DW$T$20)
    7329                      .dwattr $C$DW$727, DW_AT_name("TDFDQ")
    7330                      .dwattr $C$DW$727, DW_AT_TI_symbol_name("_TDFDQ")
    7331                      .dwattr $C$DW$727, DW_AT_data_member_location[DW_OP_plus_uconst 0x1004]
    7332                      .dwattr $C$DW$727, DW_AT_accessibility(DW_ACCESS_public)
    7333              $C$DW$728       .dwtag  DW_TAG_member
    7334                      .dwattr $C$DW$728, DW_AT_type(*$C$DW$T$48)
    7335                      .dwattr $C$DW$728, DW_AT_name("RSVD45")
    7336                      .dwattr $C$DW$728, DW_AT_TI_symbol_name("_RSVD45")
    7337                      .dwattr $C$DW$728, DW_AT_data_member_location[DW_OP_plus_uconst 0x1005]
    7338                      .dwattr $C$DW$728, DW_AT_accessibility(DW_ACCESS_public)
    7339              $C$DW$729       .dwtag  DW_TAG_member
    7340                      .dwattr $C$DW$729, DW_AT_type(*$C$DW$T$20)
    7341                      .dwattr $C$DW$729, DW_AT_name("DMAEMU")
    7342                      .dwattr $C$DW$729, DW_AT_TI_symbol_name("_DMAEMU")
    7343                      .dwattr $C$DW$729, DW_AT_data_member_location[DW_OP_plus_uconst 0x1008]
    7344                      .dwattr $C$DW$729, DW_AT_accessibility(DW_ACCESS_public)
    7345              $C$DW$730       .dwtag  DW_TAG_member
    7346                      .dwattr $C$DW$730, DW_AT_type(*$C$DW$T$59)
    7347                      .dwattr $C$DW$730, DW_AT_name("RSVD47")
    7348                      .dwattr $C$DW$730, DW_AT_TI_symbol_name("_RSVD47")
    7349                      .dwattr $C$DW$730, DW_AT_data_member_location[DW_OP_plus_uconst 0x1009]
    7350                      .dwattr $C$DW$730, DW_AT_accessibility(DW_ACCESS_public)
    7351              $C$DW$731       .dwtag  DW_TAG_member
    7352                      .dwattr $C$DW$731, DW_AT_type(*$C$DW$T$61)
TMS320C55x Assembler PC v4.4.1 Sat Sep 29 23:08:33 2018

Tools Copyright (c) 1996-2012 Texas Instruments Incorporated
csl_usb_poll_example.asm                                             PAGE  174

    7353                      .dwattr $C$DW$731, DW_AT_name("CHANNEL")
    7354                      .dwattr $C$DW$731, DW_AT_TI_symbol_name("_CHANNEL")
    7355                      .dwattr $C$DW$731, DW_AT_data_member_location[DW_OP_plus_uconst 0x1800]
    7356                      .dwattr $C$DW$731, DW_AT_accessibility(DW_ACCESS_public)
    7357              $C$DW$732       .dwtag  DW_TAG_member
    7358                      .dwattr $C$DW$732, DW_AT_type(*$C$DW$T$62)
    7359                      .dwattr $C$DW$732, DW_AT_name("RSVD48")
    7360                      .dwattr $C$DW$732, DW_AT_TI_symbol_name("_RSVD48")
    7361                      .dwattr $C$DW$732, DW_AT_data_member_location[DW_OP_plus_uconst 0x1880]
    7362                      .dwattr $C$DW$732, DW_AT_accessibility(DW_ACCESS_public)
    7363              $C$DW$733       .dwtag  DW_TAG_member
    7364                      .dwattr $C$DW$733, DW_AT_type(*$C$DW$T$20)
    7365                      .dwattr $C$DW$733, DW_AT_name("DMA_SCHED_CTRL1")
    7366                      .dwattr $C$DW$733, DW_AT_TI_symbol_name("_DMA_SCHED_CTRL1")
    7367                      .dwattr $C$DW$733, DW_AT_data_member_location[DW_OP_plus_uconst 0x2000]
    7368                      .dwattr $C$DW$733, DW_AT_accessibility(DW_ACCESS_public)
    7369              $C$DW$734       .dwtag  DW_TAG_member
    7370                      .dwattr $C$DW$734, DW_AT_type(*$C$DW$T$20)
    7371                      .dwattr $C$DW$734, DW_AT_name("DMA_SCHED_CTRL2")
    7372                      .dwattr $C$DW$734, DW_AT_TI_symbol_name("_DMA_SCHED_CTRL2")
    7373                      .dwattr $C$DW$734, DW_AT_data_member_location[DW_OP_plus_uconst 0x2001]
    7374                      .dwattr $C$DW$734, DW_AT_accessibility(DW_ACCESS_public)
    7375              $C$DW$735       .dwtag  DW_TAG_member
    7376                      .dwattr $C$DW$735, DW_AT_type(*$C$DW$T$63)
    7377                      .dwattr $C$DW$735, DW_AT_name("RSVD50")
    7378                      .dwattr $C$DW$735, DW_AT_TI_symbol_name("_RSVD50")
    7379                      .dwattr $C$DW$735, DW_AT_data_member_location[DW_OP_plus_uconst 0x2002]
    7380                      .dwattr $C$DW$735, DW_AT_accessibility(DW_ACCESS_public)
    7381              $C$DW$736       .dwtag  DW_TAG_member
    7382                      .dwattr $C$DW$736, DW_AT_type(*$C$DW$T$65)
    7383                      .dwattr $C$DW$736, DW_AT_name("CDMASCHETBLWORD")
    7384                      .dwattr $C$DW$736, DW_AT_TI_symbol_name("_CDMASCHETBLWORD")
    7385                      .dwattr $C$DW$736, DW_AT_data_member_location[DW_OP_plus_uconst 0x2800]
    7386                      .dwattr $C$DW$736, DW_AT_accessibility(DW_ACCESS_public)
    7387              $C$DW$737       .dwtag  DW_TAG_member
    7388                      .dwattr $C$DW$737, DW_AT_type(*$C$DW$T$66)
    7389                      .dwattr $C$DW$737, DW_AT_name("RSVD51")
    7390                      .dwattr $C$DW$737, DW_AT_TI_symbol_name("_RSVD51")
    7391                      .dwattr $C$DW$737, DW_AT_data_member_location[DW_OP_plus_uconst 0x2900]
    7392                      .dwattr $C$DW$737, DW_AT_accessibility(DW_ACCESS_public)
    7393              $C$DW$738       .dwtag  DW_TAG_member
    7394                      .dwattr $C$DW$738, DW_AT_type(*$C$DW$T$20)
    7395                      .dwattr $C$DW$738, DW_AT_name("QMGRREVID1")
    7396                      .dwattr $C$DW$738, DW_AT_TI_symbol_name("_QMGRREVID1")
    7397                      .dwattr $C$DW$738, DW_AT_data_member_location[DW_OP_plus_uconst 0x4000]
    7398                      .dwattr $C$DW$738, DW_AT_accessibility(DW_ACCESS_public)
    7399              $C$DW$739       .dwtag  DW_TAG_member
    7400                      .dwattr $C$DW$739, DW_AT_type(*$C$DW$T$20)
    7401                      .dwattr $C$DW$739, DW_AT_name("QMGRREVID2")
    7402                      .dwattr $C$DW$739, DW_AT_TI_symbol_name("_QMGRREVID2")
    7403                      .dwattr $C$DW$739, DW_AT_data_member_location[DW_OP_plus_uconst 0x4001]
    7404                      .dwattr $C$DW$739, DW_AT_accessibility(DW_ACCESS_public)
    7405              $C$DW$740       .dwtag  DW_TAG_member
    7406                      .dwattr $C$DW$740, DW_AT_type(*$C$DW$T$40)
    7407                      .dwattr $C$DW$740, DW_AT_name("RSVD52")
TMS320C55x Assembler PC v4.4.1 Sat Sep 29 23:08:33 2018

Tools Copyright (c) 1996-2012 Texas Instruments Incorporated
csl_usb_poll_example.asm                                             PAGE  175

    7408                      .dwattr $C$DW$740, DW_AT_TI_symbol_name("_RSVD52")
    7409                      .dwattr $C$DW$740, DW_AT_data_member_location[DW_OP_plus_uconst 0x4002]
    7410                      .dwattr $C$DW$740, DW_AT_accessibility(DW_ACCESS_public)
    7411              $C$DW$741       .dwtag  DW_TAG_member
    7412                      .dwattr $C$DW$741, DW_AT_type(*$C$DW$T$20)
    7413                      .dwattr $C$DW$741, DW_AT_name("DIVERSION1")
    7414                      .dwattr $C$DW$741, DW_AT_TI_symbol_name("_DIVERSION1")
    7415                      .dwattr $C$DW$741, DW_AT_data_member_location[DW_OP_plus_uconst 0x4008]
    7416                      .dwattr $C$DW$741, DW_AT_accessibility(DW_ACCESS_public)
    7417              $C$DW$742       .dwtag  DW_TAG_member
    7418                      .dwattr $C$DW$742, DW_AT_type(*$C$DW$T$20)
    7419                      .dwattr $C$DW$742, DW_AT_name("DIVERSION2")
    7420                      .dwattr $C$DW$742, DW_AT_TI_symbol_name("_DIVERSION2")
    7421                      .dwattr $C$DW$742, DW_AT_data_member_location[DW_OP_plus_uconst 0x4009]
    7422                      .dwattr $C$DW$742, DW_AT_accessibility(DW_ACCESS_public)
    7423              $C$DW$743       .dwtag  DW_TAG_member
    7424                      .dwattr $C$DW$743, DW_AT_type(*$C$DW$T$67)
    7425                      .dwattr $C$DW$743, DW_AT_name("RSVD53")
    7426                      .dwattr $C$DW$743, DW_AT_TI_symbol_name("_RSVD53")
    7427                      .dwattr $C$DW$743, DW_AT_data_member_location[DW_OP_plus_uconst 0x400a]
    7428                      .dwattr $C$DW$743, DW_AT_accessibility(DW_ACCESS_public)
    7429              $C$DW$744       .dwtag  DW_TAG_member
    7430                      .dwattr $C$DW$744, DW_AT_type(*$C$DW$T$20)
    7431                      .dwattr $C$DW$744, DW_AT_name("FDBSC0")
    7432                      .dwattr $C$DW$744, DW_AT_TI_symbol_name("_FDBSC0")
    7433                      .dwattr $C$DW$744, DW_AT_data_member_location[DW_OP_plus_uconst 0x4020]
    7434                      .dwattr $C$DW$744, DW_AT_accessibility(DW_ACCESS_public)
    7435              $C$DW$745       .dwtag  DW_TAG_member
    7436                      .dwattr $C$DW$745, DW_AT_type(*$C$DW$T$20)
    7437                      .dwattr $C$DW$745, DW_AT_name("FDBSC1")
    7438                      .dwattr $C$DW$745, DW_AT_TI_symbol_name("_FDBSC1")
    7439                      .dwattr $C$DW$745, DW_AT_data_member_location[DW_OP_plus_uconst 0x4021]
    7440                      .dwattr $C$DW$745, DW_AT_accessibility(DW_ACCESS_public)
    7441              $C$DW$746       .dwtag  DW_TAG_member
    7442                      .dwattr $C$DW$746, DW_AT_type(*$C$DW$T$36)
    7443                      .dwattr $C$DW$746, DW_AT_name("RSVD54")
    7444                      .dwattr $C$DW$746, DW_AT_TI_symbol_name("_RSVD54")
    7445                      .dwattr $C$DW$746, DW_AT_data_member_location[DW_OP_plus_uconst 0x4022]
    7446                      .dwattr $C$DW$746, DW_AT_accessibility(DW_ACCESS_public)
    7447              $C$DW$747       .dwtag  DW_TAG_member
    7448                      .dwattr $C$DW$747, DW_AT_type(*$C$DW$T$20)
    7449                      .dwattr $C$DW$747, DW_AT_name("FDBSC2")
    7450                      .dwattr $C$DW$747, DW_AT_TI_symbol_name("_FDBSC2")
    7451                      .dwattr $C$DW$747, DW_AT_data_member_location[DW_OP_plus_uconst 0x4024]
    7452                      .dwattr $C$DW$747, DW_AT_accessibility(DW_ACCESS_public)
    7453              $C$DW$748       .dwtag  DW_TAG_member
    7454                      .dwattr $C$DW$748, DW_AT_type(*$C$DW$T$20)
    7455                      .dwattr $C$DW$748, DW_AT_name("FDBSC3")
    7456                      .dwattr $C$DW$748, DW_AT_TI_symbol_name("_FDBSC3")
    7457                      .dwattr $C$DW$748, DW_AT_data_member_location[DW_OP_plus_uconst 0x4025]
    7458                      .dwattr $C$DW$748, DW_AT_accessibility(DW_ACCESS_public)
    7459              $C$DW$749       .dwtag  DW_TAG_member
    7460                      .dwattr $C$DW$749, DW_AT_type(*$C$DW$T$36)
    7461                      .dwattr $C$DW$749, DW_AT_name("RSVD55")
    7462                      .dwattr $C$DW$749, DW_AT_TI_symbol_name("_RSVD55")
TMS320C55x Assembler PC v4.4.1 Sat Sep 29 23:08:33 2018

Tools Copyright (c) 1996-2012 Texas Instruments Incorporated
csl_usb_poll_example.asm                                             PAGE  176

    7463                      .dwattr $C$DW$749, DW_AT_data_member_location[DW_OP_plus_uconst 0x4026]
    7464                      .dwattr $C$DW$749, DW_AT_accessibility(DW_ACCESS_public)
    7465              $C$DW$750       .dwtag  DW_TAG_member
    7466                      .dwattr $C$DW$750, DW_AT_type(*$C$DW$T$20)
    7467                      .dwattr $C$DW$750, DW_AT_name("FDBSC4")
    7468                      .dwattr $C$DW$750, DW_AT_TI_symbol_name("_FDBSC4")
    7469                      .dwattr $C$DW$750, DW_AT_data_member_location[DW_OP_plus_uconst 0x4028]
    7470                      .dwattr $C$DW$750, DW_AT_accessibility(DW_ACCESS_public)
    7471              $C$DW$751       .dwtag  DW_TAG_member
    7472                      .dwattr $C$DW$751, DW_AT_type(*$C$DW$T$20)
    7473                      .dwattr $C$DW$751, DW_AT_name("FDBSC5")
    7474                      .dwattr $C$DW$751, DW_AT_TI_symbol_name("_FDBSC5")
    7475                      .dwattr $C$DW$751, DW_AT_data_member_location[DW_OP_plus_uconst 0x4029]
    7476                      .dwattr $C$DW$751, DW_AT_accessibility(DW_ACCESS_public)
    7477              $C$DW$752       .dwtag  DW_TAG_member
    7478                      .dwattr $C$DW$752, DW_AT_type(*$C$DW$T$36)
    7479                      .dwattr $C$DW$752, DW_AT_name("RSVD56")
    7480                      .dwattr $C$DW$752, DW_AT_TI_symbol_name("_RSVD56")
    7481                      .dwattr $C$DW$752, DW_AT_data_member_location[DW_OP_plus_uconst 0x402a]
    7482                      .dwattr $C$DW$752, DW_AT_accessibility(DW_ACCESS_public)
    7483              $C$DW$753       .dwtag  DW_TAG_member
    7484                      .dwattr $C$DW$753, DW_AT_type(*$C$DW$T$20)
    7485                      .dwattr $C$DW$753, DW_AT_name("FDBSC6")
    7486                      .dwattr $C$DW$753, DW_AT_TI_symbol_name("_FDBSC6")
    7487                      .dwattr $C$DW$753, DW_AT_data_member_location[DW_OP_plus_uconst 0x402c]
    7488                      .dwattr $C$DW$753, DW_AT_accessibility(DW_ACCESS_public)
    7489              $C$DW$754       .dwtag  DW_TAG_member
    7490                      .dwattr $C$DW$754, DW_AT_type(*$C$DW$T$20)
    7491                      .dwattr $C$DW$754, DW_AT_name("FDBSC7")
    7492                      .dwattr $C$DW$754, DW_AT_TI_symbol_name("_FDBSC7")
    7493                      .dwattr $C$DW$754, DW_AT_data_member_location[DW_OP_plus_uconst 0x402d]
    7494                      .dwattr $C$DW$754, DW_AT_accessibility(DW_ACCESS_public)
    7495              $C$DW$755       .dwtag  DW_TAG_member
    7496                      .dwattr $C$DW$755, DW_AT_type(*$C$DW$T$68)
    7497                      .dwattr $C$DW$755, DW_AT_name("RSVD57")
    7498                      .dwattr $C$DW$755, DW_AT_TI_symbol_name("_RSVD57")
    7499                      .dwattr $C$DW$755, DW_AT_data_member_location[DW_OP_plus_uconst 0x402e]
    7500                      .dwattr $C$DW$755, DW_AT_accessibility(DW_ACCESS_public)
    7501              $C$DW$756       .dwtag  DW_TAG_member
    7502                      .dwattr $C$DW$756, DW_AT_type(*$C$DW$T$20)
    7503                      .dwattr $C$DW$756, DW_AT_name("LRAM0BASE1")
    7504                      .dwattr $C$DW$756, DW_AT_TI_symbol_name("_LRAM0BASE1")
    7505                      .dwattr $C$DW$756, DW_AT_data_member_location[DW_OP_plus_uconst 0x4080]
    7506                      .dwattr $C$DW$756, DW_AT_accessibility(DW_ACCESS_public)
    7507              $C$DW$757       .dwtag  DW_TAG_member
    7508                      .dwattr $C$DW$757, DW_AT_type(*$C$DW$T$20)
    7509                      .dwattr $C$DW$757, DW_AT_name("LRAM0BASE2")
    7510                      .dwattr $C$DW$757, DW_AT_TI_symbol_name("_LRAM0BASE2")
    7511                      .dwattr $C$DW$757, DW_AT_data_member_location[DW_OP_plus_uconst 0x4081]
    7512                      .dwattr $C$DW$757, DW_AT_accessibility(DW_ACCESS_public)
    7513              $C$DW$758       .dwtag  DW_TAG_member
    7514                      .dwattr $C$DW$758, DW_AT_type(*$C$DW$T$36)
    7515                      .dwattr $C$DW$758, DW_AT_name("RSVD58")
    7516                      .dwattr $C$DW$758, DW_AT_TI_symbol_name("_RSVD58")
    7517                      .dwattr $C$DW$758, DW_AT_data_member_location[DW_OP_plus_uconst 0x4082]
TMS320C55x Assembler PC v4.4.1 Sat Sep 29 23:08:33 2018

Tools Copyright (c) 1996-2012 Texas Instruments Incorporated
csl_usb_poll_example.asm                                             PAGE  177

    7518                      .dwattr $C$DW$758, DW_AT_accessibility(DW_ACCESS_public)
    7519              $C$DW$759       .dwtag  DW_TAG_member
    7520                      .dwattr $C$DW$759, DW_AT_type(*$C$DW$T$20)
    7521                      .dwattr $C$DW$759, DW_AT_name("LRAM0SIZE")
    7522                      .dwattr $C$DW$759, DW_AT_TI_symbol_name("_LRAM0SIZE")
    7523                      .dwattr $C$DW$759, DW_AT_data_member_location[DW_OP_plus_uconst 0x4084]
    7524                      .dwattr $C$DW$759, DW_AT_accessibility(DW_ACCESS_public)
    7525              $C$DW$760       .dwtag  DW_TAG_member
    7526                      .dwattr $C$DW$760, DW_AT_type(*$C$DW$T$48)
    7527                      .dwattr $C$DW$760, DW_AT_name("RSVD59")
    7528                      .dwattr $C$DW$760, DW_AT_TI_symbol_name("_RSVD59")
    7529                      .dwattr $C$DW$760, DW_AT_data_member_location[DW_OP_plus_uconst 0x4085]
    7530                      .dwattr $C$DW$760, DW_AT_accessibility(DW_ACCESS_public)
    7531              $C$DW$761       .dwtag  DW_TAG_member
    7532                      .dwattr $C$DW$761, DW_AT_type(*$C$DW$T$20)
    7533                      .dwattr $C$DW$761, DW_AT_name("LRAM1BASE1")
    7534                      .dwattr $C$DW$761, DW_AT_TI_symbol_name("_LRAM1BASE1")
    7535                      .dwattr $C$DW$761, DW_AT_data_member_location[DW_OP_plus_uconst 0x4088]
    7536                      .dwattr $C$DW$761, DW_AT_accessibility(DW_ACCESS_public)
    7537              $C$DW$762       .dwtag  DW_TAG_member
    7538                      .dwattr $C$DW$762, DW_AT_type(*$C$DW$T$20)
    7539                      .dwattr $C$DW$762, DW_AT_name("LRAM1BASE2")
    7540                      .dwattr $C$DW$762, DW_AT_TI_symbol_name("_LRAM1BASE2")
    7541                      .dwattr $C$DW$762, DW_AT_data_member_location[DW_OP_plus_uconst 0x4089]
    7542                      .dwattr $C$DW$762, DW_AT_accessibility(DW_ACCESS_public)
    7543              $C$DW$763       .dwtag  DW_TAG_member
    7544                      .dwattr $C$DW$763, DW_AT_type(*$C$DW$T$40)
    7545                      .dwattr $C$DW$763, DW_AT_name("RSVD60")
    7546                      .dwattr $C$DW$763, DW_AT_TI_symbol_name("_RSVD60")
    7547                      .dwattr $C$DW$763, DW_AT_data_member_location[DW_OP_plus_uconst 0x408a]
    7548                      .dwattr $C$DW$763, DW_AT_accessibility(DW_ACCESS_public)
    7549              $C$DW$764       .dwtag  DW_TAG_member
    7550                      .dwattr $C$DW$764, DW_AT_type(*$C$DW$T$20)
    7551                      .dwattr $C$DW$764, DW_AT_name("PEND0")
    7552                      .dwattr $C$DW$764, DW_AT_TI_symbol_name("_PEND0")
    7553                      .dwattr $C$DW$764, DW_AT_data_member_location[DW_OP_plus_uconst 0x4090]
    7554                      .dwattr $C$DW$764, DW_AT_accessibility(DW_ACCESS_public)
    7555              $C$DW$765       .dwtag  DW_TAG_member
    7556                      .dwattr $C$DW$765, DW_AT_type(*$C$DW$T$20)
    7557                      .dwattr $C$DW$765, DW_AT_name("PEND1")
    7558                      .dwattr $C$DW$765, DW_AT_TI_symbol_name("_PEND1")
    7559                      .dwattr $C$DW$765, DW_AT_data_member_location[DW_OP_plus_uconst 0x4091]
    7560                      .dwattr $C$DW$765, DW_AT_accessibility(DW_ACCESS_public)
    7561              $C$DW$766       .dwtag  DW_TAG_member
    7562                      .dwattr $C$DW$766, DW_AT_type(*$C$DW$T$36)
    7563                      .dwattr $C$DW$766, DW_AT_name("RSVD61")
    7564                      .dwattr $C$DW$766, DW_AT_TI_symbol_name("_RSVD61")
    7565                      .dwattr $C$DW$766, DW_AT_data_member_location[DW_OP_plus_uconst 0x4092]
    7566                      .dwattr $C$DW$766, DW_AT_accessibility(DW_ACCESS_public)
    7567              $C$DW$767       .dwtag  DW_TAG_member
    7568                      .dwattr $C$DW$767, DW_AT_type(*$C$DW$T$20)
    7569                      .dwattr $C$DW$767, DW_AT_name("PEND2")
    7570                      .dwattr $C$DW$767, DW_AT_TI_symbol_name("_PEND2")
    7571                      .dwattr $C$DW$767, DW_AT_data_member_location[DW_OP_plus_uconst 0x4094]
    7572                      .dwattr $C$DW$767, DW_AT_accessibility(DW_ACCESS_public)
TMS320C55x Assembler PC v4.4.1 Sat Sep 29 23:08:33 2018

Tools Copyright (c) 1996-2012 Texas Instruments Incorporated
csl_usb_poll_example.asm                                             PAGE  178

    7573              $C$DW$768       .dwtag  DW_TAG_member
    7574                      .dwattr $C$DW$768, DW_AT_type(*$C$DW$T$20)
    7575                      .dwattr $C$DW$768, DW_AT_name("PEND3")
    7576                      .dwattr $C$DW$768, DW_AT_TI_symbol_name("_PEND3")
    7577                      .dwattr $C$DW$768, DW_AT_data_member_location[DW_OP_plus_uconst 0x4095]
    7578                      .dwattr $C$DW$768, DW_AT_accessibility(DW_ACCESS_public)
    7579              $C$DW$769       .dwtag  DW_TAG_member
    7580                      .dwattr $C$DW$769, DW_AT_type(*$C$DW$T$36)
    7581                      .dwattr $C$DW$769, DW_AT_name("RSVD62")
    7582                      .dwattr $C$DW$769, DW_AT_TI_symbol_name("_RSVD62")
    7583                      .dwattr $C$DW$769, DW_AT_data_member_location[DW_OP_plus_uconst 0x4096]
    7584                      .dwattr $C$DW$769, DW_AT_accessibility(DW_ACCESS_public)
    7585              $C$DW$770       .dwtag  DW_TAG_member
    7586                      .dwattr $C$DW$770, DW_AT_type(*$C$DW$T$20)
    7587                      .dwattr $C$DW$770, DW_AT_name("PEND4")
    7588                      .dwattr $C$DW$770, DW_AT_TI_symbol_name("_PEND4")
    7589                      .dwattr $C$DW$770, DW_AT_data_member_location[DW_OP_plus_uconst 0x4098]
    7590                      .dwattr $C$DW$770, DW_AT_accessibility(DW_ACCESS_public)
    7591              $C$DW$771       .dwtag  DW_TAG_member
    7592                      .dwattr $C$DW$771, DW_AT_type(*$C$DW$T$20)
    7593                      .dwattr $C$DW$771, DW_AT_name("PEND5")
    7594                      .dwattr $C$DW$771, DW_AT_TI_symbol_name("_PEND5")
    7595                      .dwattr $C$DW$771, DW_AT_data_member_location[DW_OP_plus_uconst 0x4099]
    7596                      .dwattr $C$DW$771, DW_AT_accessibility(DW_ACCESS_public)
    7597              $C$DW$772       .dwtag  DW_TAG_member
    7598                      .dwattr $C$DW$772, DW_AT_type(*$C$DW$T$69)
    7599                      .dwattr $C$DW$772, DW_AT_name("RSVD64")
    7600                      .dwattr $C$DW$772, DW_AT_TI_symbol_name("_RSVD64")
    7601                      .dwattr $C$DW$772, DW_AT_data_member_location[DW_OP_plus_uconst 0x409a]
    7602                      .dwattr $C$DW$772, DW_AT_accessibility(DW_ACCESS_public)
    7603              $C$DW$773       .dwtag  DW_TAG_member
    7604                      .dwattr $C$DW$773, DW_AT_type(*$C$DW$T$71)
    7605                      .dwattr $C$DW$773, DW_AT_name("QMMEMREGR")
    7606                      .dwattr $C$DW$773, DW_AT_TI_symbol_name("_QMMEMREGR")
    7607                      .dwattr $C$DW$773, DW_AT_data_member_location[DW_OP_plus_uconst 0x5000]
    7608                      .dwattr $C$DW$773, DW_AT_accessibility(DW_ACCESS_public)
    7609              $C$DW$774       .dwtag  DW_TAG_member
    7610                      .dwattr $C$DW$774, DW_AT_type(*$C$DW$T$72)
    7611                      .dwattr $C$DW$774, DW_AT_name("RSVD66")
    7612                      .dwattr $C$DW$774, DW_AT_TI_symbol_name("_RSVD66")
    7613                      .dwattr $C$DW$774, DW_AT_data_member_location[DW_OP_plus_uconst 0x5100]
    7614                      .dwattr $C$DW$774, DW_AT_accessibility(DW_ACCESS_public)
    7615              $C$DW$775       .dwtag  DW_TAG_member
    7616                      .dwattr $C$DW$775, DW_AT_type(*$C$DW$T$74)
    7617                      .dwattr $C$DW$775, DW_AT_name("QMQN")
    7618                      .dwattr $C$DW$775, DW_AT_TI_symbol_name("_QMQN")
    7619                      .dwattr $C$DW$775, DW_AT_data_member_location[DW_OP_plus_uconst 0x6000]
    7620                      .dwattr $C$DW$775, DW_AT_accessibility(DW_ACCESS_public)
    7621              $C$DW$776       .dwtag  DW_TAG_member
    7622                      .dwattr $C$DW$776, DW_AT_type(*$C$DW$T$75)
    7623                      .dwattr $C$DW$776, DW_AT_name("RSVD68")
    7624                      .dwattr $C$DW$776, DW_AT_TI_symbol_name("_RSVD68")
    7625                      .dwattr $C$DW$776, DW_AT_data_member_location[DW_OP_plus_uconst 0x6400]
    7626                      .dwattr $C$DW$776, DW_AT_accessibility(DW_ACCESS_public)
    7627              $C$DW$777       .dwtag  DW_TAG_member
TMS320C55x Assembler PC v4.4.1 Sat Sep 29 23:08:33 2018

Tools Copyright (c) 1996-2012 Texas Instruments Incorporated
csl_usb_poll_example.asm                                             PAGE  179

    7628                      .dwattr $C$DW$777, DW_AT_type(*$C$DW$T$77)
    7629                      .dwattr $C$DW$777, DW_AT_name("QMQNS")
    7630                      .dwattr $C$DW$777, DW_AT_TI_symbol_name("_QMQNS")
    7631                      .dwattr $C$DW$777, DW_AT_data_member_location[DW_OP_plus_uconst 0x6800]
    7632                      .dwattr $C$DW$777, DW_AT_accessibility(DW_ACCESS_public)
    7633                      .dwendtag $C$DW$T$78
    7634              
    7635              $C$DW$T$155     .dwtag  DW_TAG_typedef, DW_AT_name("CSL_UsbRegs")
    7636                      .dwattr $C$DW$T$155, DW_AT_type(*$C$DW$T$78)
    7637                      .dwattr $C$DW$T$155, DW_AT_language(DW_LANG_C)
    7638              $C$DW$778       .dwtag  DW_TAG_TI_far_type
    7639                      .dwattr $C$DW$778, DW_AT_type(*$C$DW$T$155)
    7640              $C$DW$779       .dwtag  DW_TAG_TI_ioport_type
    7641                      .dwattr $C$DW$779, DW_AT_type(*$C$DW$778)
    7642              $C$DW$T$156     .dwtag  DW_TAG_volatile_type
    7643                      .dwattr $C$DW$T$156, DW_AT_type(*$C$DW$779)
    7644              $C$DW$T$157     .dwtag  DW_TAG_pointer_type
    7645                      .dwattr $C$DW$T$157, DW_AT_type(*$C$DW$T$156)
    7646                      .dwattr $C$DW$T$157, DW_AT_address_class(0x10)
    7647              $C$DW$T$158     .dwtag  DW_TAG_typedef, DW_AT_name("CSL_UsbRegsOvly")
    7648                      .dwattr $C$DW$T$158, DW_AT_type(*$C$DW$T$157)
    7649                      .dwattr $C$DW$T$158, DW_AT_language(DW_LANG_C)
    7650              
    7651              $C$DW$T$80      .dwtag  DW_TAG_structure_type
    7652                      .dwattr $C$DW$T$80, DW_AT_byte_size(0x48)
    7653              $C$DW$780       .dwtag  DW_TAG_member
    7654                      .dwattr $C$DW$780, DW_AT_type(*$C$DW$T$20)
    7655                      .dwattr $C$DW$780, DW_AT_name("EBSR")
    7656                      .dwattr $C$DW$780, DW_AT_TI_symbol_name("_EBSR")
    7657                      .dwattr $C$DW$780, DW_AT_data_member_location[DW_OP_plus_uconst 0x0]
    7658                      .dwattr $C$DW$780, DW_AT_accessibility(DW_ACCESS_public)
    7659              $C$DW$781       .dwtag  DW_TAG_member
    7660                      .dwattr $C$DW$781, DW_AT_type(*$C$DW$T$20)
    7661                      .dwattr $C$DW$781, DW_AT_name("RSVD0")
    7662                      .dwattr $C$DW$781, DW_AT_TI_symbol_name("_RSVD0")
    7663                      .dwattr $C$DW$781, DW_AT_data_member_location[DW_OP_plus_uconst 0x1]
    7664                      .dwattr $C$DW$781, DW_AT_accessibility(DW_ACCESS_public)
    7665              $C$DW$782       .dwtag  DW_TAG_member
    7666                      .dwattr $C$DW$782, DW_AT_type(*$C$DW$T$20)
    7667                      .dwattr $C$DW$782, DW_AT_name("PCGCR1")
    7668                      .dwattr $C$DW$782, DW_AT_TI_symbol_name("_PCGCR1")
    7669                      .dwattr $C$DW$782, DW_AT_data_member_location[DW_OP_plus_uconst 0x2]
    7670                      .dwattr $C$DW$782, DW_AT_accessibility(DW_ACCESS_public)
    7671              $C$DW$783       .dwtag  DW_TAG_member
    7672                      .dwattr $C$DW$783, DW_AT_type(*$C$DW$T$20)
    7673                      .dwattr $C$DW$783, DW_AT_name("PCGCR2")
    7674                      .dwattr $C$DW$783, DW_AT_TI_symbol_name("_PCGCR2")
    7675                      .dwattr $C$DW$783, DW_AT_data_member_location[DW_OP_plus_uconst 0x3]
    7676                      .dwattr $C$DW$783, DW_AT_accessibility(DW_ACCESS_public)
    7677              $C$DW$784       .dwtag  DW_TAG_member
    7678                      .dwattr $C$DW$784, DW_AT_type(*$C$DW$T$20)
    7679                      .dwattr $C$DW$784, DW_AT_name("PSRCR")
    7680                      .dwattr $C$DW$784, DW_AT_TI_symbol_name("_PSRCR")
    7681                      .dwattr $C$DW$784, DW_AT_data_member_location[DW_OP_plus_uconst 0x4]
    7682                      .dwattr $C$DW$784, DW_AT_accessibility(DW_ACCESS_public)
TMS320C55x Assembler PC v4.4.1 Sat Sep 29 23:08:33 2018

Tools Copyright (c) 1996-2012 Texas Instruments Incorporated
csl_usb_poll_example.asm                                             PAGE  180

    7683              $C$DW$785       .dwtag  DW_TAG_member
    7684                      .dwattr $C$DW$785, DW_AT_type(*$C$DW$T$20)
    7685                      .dwattr $C$DW$785, DW_AT_name("PRCR")
    7686                      .dwattr $C$DW$785, DW_AT_TI_symbol_name("_PRCR")
    7687                      .dwattr $C$DW$785, DW_AT_data_member_location[DW_OP_plus_uconst 0x5]
    7688                      .dwattr $C$DW$785, DW_AT_accessibility(DW_ACCESS_public)
    7689              $C$DW$786       .dwtag  DW_TAG_member
    7690                      .dwattr $C$DW$786, DW_AT_type(*$C$DW$T$41)
    7691                      .dwattr $C$DW$786, DW_AT_name("RSVD1")
    7692                      .dwattr $C$DW$786, DW_AT_TI_symbol_name("_RSVD1")
    7693                      .dwattr $C$DW$786, DW_AT_data_member_location[DW_OP_plus_uconst 0x6]
    7694                      .dwattr $C$DW$786, DW_AT_accessibility(DW_ACCESS_public)
    7695              $C$DW$787       .dwtag  DW_TAG_member
    7696                      .dwattr $C$DW$787, DW_AT_type(*$C$DW$T$20)
    7697                      .dwattr $C$DW$787, DW_AT_name("TIAFR")
    7698                      .dwattr $C$DW$787, DW_AT_TI_symbol_name("_TIAFR")
    7699                      .dwattr $C$DW$787, DW_AT_data_member_location[DW_OP_plus_uconst 0x14]
    7700                      .dwattr $C$DW$787, DW_AT_accessibility(DW_ACCESS_public)
    7701              $C$DW$788       .dwtag  DW_TAG_member
    7702                      .dwattr $C$DW$788, DW_AT_type(*$C$DW$T$20)
    7703                      .dwattr $C$DW$788, DW_AT_name("RSVD2")
    7704                      .dwattr $C$DW$788, DW_AT_TI_symbol_name("_RSVD2")
    7705                      .dwattr $C$DW$788, DW_AT_data_member_location[DW_OP_plus_uconst 0x15]
    7706                      .dwattr $C$DW$788, DW_AT_accessibility(DW_ACCESS_public)
    7707              $C$DW$789       .dwtag  DW_TAG_member
    7708                      .dwattr $C$DW$789, DW_AT_type(*$C$DW$T$20)
    7709                      .dwattr $C$DW$789, DW_AT_name("ODSCR")
    7710                      .dwattr $C$DW$789, DW_AT_TI_symbol_name("_ODSCR")
    7711                      .dwattr $C$DW$789, DW_AT_data_member_location[DW_OP_plus_uconst 0x16]
    7712                      .dwattr $C$DW$789, DW_AT_accessibility(DW_ACCESS_public)
    7713              $C$DW$790       .dwtag  DW_TAG_member
    7714                      .dwattr $C$DW$790, DW_AT_type(*$C$DW$T$20)
    7715                      .dwattr $C$DW$790, DW_AT_name("PDINHIBR1")
    7716                      .dwattr $C$DW$790, DW_AT_TI_symbol_name("_PDINHIBR1")
    7717                      .dwattr $C$DW$790, DW_AT_data_member_location[DW_OP_plus_uconst 0x17]
    7718                      .dwattr $C$DW$790, DW_AT_accessibility(DW_ACCESS_public)
    7719              $C$DW$791       .dwtag  DW_TAG_member
    7720                      .dwattr $C$DW$791, DW_AT_type(*$C$DW$T$20)
    7721                      .dwattr $C$DW$791, DW_AT_name("PDINHIBR2")
    7722                      .dwattr $C$DW$791, DW_AT_TI_symbol_name("_PDINHIBR2")
    7723                      .dwattr $C$DW$791, DW_AT_data_member_location[DW_OP_plus_uconst 0x18]
    7724                      .dwattr $C$DW$791, DW_AT_accessibility(DW_ACCESS_public)
    7725              $C$DW$792       .dwtag  DW_TAG_member
    7726                      .dwattr $C$DW$792, DW_AT_type(*$C$DW$T$20)
    7727                      .dwattr $C$DW$792, DW_AT_name("PDINHIBR3")
    7728                      .dwattr $C$DW$792, DW_AT_TI_symbol_name("_PDINHIBR3")
    7729                      .dwattr $C$DW$792, DW_AT_data_member_location[DW_OP_plus_uconst 0x19]
    7730                      .dwattr $C$DW$792, DW_AT_accessibility(DW_ACCESS_public)
    7731              $C$DW$793       .dwtag  DW_TAG_member
    7732                      .dwattr $C$DW$793, DW_AT_type(*$C$DW$T$20)
    7733                      .dwattr $C$DW$793, DW_AT_name("DMA0CESR1")
    7734                      .dwattr $C$DW$793, DW_AT_TI_symbol_name("_DMA0CESR1")
    7735                      .dwattr $C$DW$793, DW_AT_data_member_location[DW_OP_plus_uconst 0x1a]
    7736                      .dwattr $C$DW$793, DW_AT_accessibility(DW_ACCESS_public)
    7737              $C$DW$794       .dwtag  DW_TAG_member
TMS320C55x Assembler PC v4.4.1 Sat Sep 29 23:08:33 2018

Tools Copyright (c) 1996-2012 Texas Instruments Incorporated
csl_usb_poll_example.asm                                             PAGE  181

    7738                      .dwattr $C$DW$794, DW_AT_type(*$C$DW$T$20)
    7739                      .dwattr $C$DW$794, DW_AT_name("DMA0CESR2")
    7740                      .dwattr $C$DW$794, DW_AT_TI_symbol_name("_DMA0CESR2")
    7741                      .dwattr $C$DW$794, DW_AT_data_member_location[DW_OP_plus_uconst 0x1b]
    7742                      .dwattr $C$DW$794, DW_AT_accessibility(DW_ACCESS_public)
    7743              $C$DW$795       .dwtag  DW_TAG_member
    7744                      .dwattr $C$DW$795, DW_AT_type(*$C$DW$T$20)
    7745                      .dwattr $C$DW$795, DW_AT_name("DMA1CESR1")
    7746                      .dwattr $C$DW$795, DW_AT_TI_symbol_name("_DMA1CESR1")
    7747                      .dwattr $C$DW$795, DW_AT_data_member_location[DW_OP_plus_uconst 0x1c]
    7748                      .dwattr $C$DW$795, DW_AT_accessibility(DW_ACCESS_public)
    7749              $C$DW$796       .dwtag  DW_TAG_member
    7750                      .dwattr $C$DW$796, DW_AT_type(*$C$DW$T$20)
    7751                      .dwattr $C$DW$796, DW_AT_name("DMA1CESR2")
    7752                      .dwattr $C$DW$796, DW_AT_TI_symbol_name("_DMA1CESR2")
    7753                      .dwattr $C$DW$796, DW_AT_data_member_location[DW_OP_plus_uconst 0x1d]
    7754                      .dwattr $C$DW$796, DW_AT_accessibility(DW_ACCESS_public)
    7755              $C$DW$797       .dwtag  DW_TAG_member
    7756                      .dwattr $C$DW$797, DW_AT_type(*$C$DW$T$20)
    7757                      .dwattr $C$DW$797, DW_AT_name("SDRAMCCR")
    7758                      .dwattr $C$DW$797, DW_AT_TI_symbol_name("_SDRAMCCR")
    7759                      .dwattr $C$DW$797, DW_AT_data_member_location[DW_OP_plus_uconst 0x1e]
    7760                      .dwattr $C$DW$797, DW_AT_accessibility(DW_ACCESS_public)
    7761              $C$DW$798       .dwtag  DW_TAG_member
    7762                      .dwattr $C$DW$798, DW_AT_type(*$C$DW$T$20)
    7763                      .dwattr $C$DW$798, DW_AT_name("CCR2")
    7764                      .dwattr $C$DW$798, DW_AT_TI_symbol_name("_CCR2")
    7765                      .dwattr $C$DW$798, DW_AT_data_member_location[DW_OP_plus_uconst 0x1f]
    7766                      .dwattr $C$DW$798, DW_AT_accessibility(DW_ACCESS_public)
    7767              $C$DW$799       .dwtag  DW_TAG_member
    7768                      .dwattr $C$DW$799, DW_AT_type(*$C$DW$T$20)
    7769                      .dwattr $C$DW$799, DW_AT_name("CGCR1")
    7770                      .dwattr $C$DW$799, DW_AT_TI_symbol_name("_CGCR1")
    7771                      .dwattr $C$DW$799, DW_AT_data_member_location[DW_OP_plus_uconst 0x20]
    7772                      .dwattr $C$DW$799, DW_AT_accessibility(DW_ACCESS_public)
    7773              $C$DW$800       .dwtag  DW_TAG_member
    7774                      .dwattr $C$DW$800, DW_AT_type(*$C$DW$T$20)
    7775                      .dwattr $C$DW$800, DW_AT_name("CGICR")
    7776                      .dwattr $C$DW$800, DW_AT_TI_symbol_name("_CGICR")
    7777                      .dwattr $C$DW$800, DW_AT_data_member_location[DW_OP_plus_uconst 0x21]
    7778                      .dwattr $C$DW$800, DW_AT_accessibility(DW_ACCESS_public)
    7779              $C$DW$801       .dwtag  DW_TAG_member
    7780                      .dwattr $C$DW$801, DW_AT_type(*$C$DW$T$20)
    7781                      .dwattr $C$DW$801, DW_AT_name("CGCR2")
    7782                      .dwattr $C$DW$801, DW_AT_TI_symbol_name("_CGCR2")
    7783                      .dwattr $C$DW$801, DW_AT_data_member_location[DW_OP_plus_uconst 0x22]
    7784                      .dwattr $C$DW$801, DW_AT_accessibility(DW_ACCESS_public)
    7785              $C$DW$802       .dwtag  DW_TAG_member
    7786                      .dwattr $C$DW$802, DW_AT_type(*$C$DW$T$20)
    7787                      .dwattr $C$DW$802, DW_AT_name("CGOCR")
    7788                      .dwattr $C$DW$802, DW_AT_TI_symbol_name("_CGOCR")
    7789                      .dwattr $C$DW$802, DW_AT_data_member_location[DW_OP_plus_uconst 0x23]
    7790                      .dwattr $C$DW$802, DW_AT_accessibility(DW_ACCESS_public)
    7791              $C$DW$803       .dwtag  DW_TAG_member
    7792                      .dwattr $C$DW$803, DW_AT_type(*$C$DW$T$20)
TMS320C55x Assembler PC v4.4.1 Sat Sep 29 23:08:33 2018

Tools Copyright (c) 1996-2012 Texas Instruments Incorporated
csl_usb_poll_example.asm                                             PAGE  182

    7793                      .dwattr $C$DW$803, DW_AT_name("CCSSR")
    7794                      .dwattr $C$DW$803, DW_AT_TI_symbol_name("_CCSSR")
    7795                      .dwattr $C$DW$803, DW_AT_data_member_location[DW_OP_plus_uconst 0x24]
    7796                      .dwattr $C$DW$803, DW_AT_accessibility(DW_ACCESS_public)
    7797              $C$DW$804       .dwtag  DW_TAG_member
    7798                      .dwattr $C$DW$804, DW_AT_type(*$C$DW$T$20)
    7799                      .dwattr $C$DW$804, DW_AT_name("RSVD3")
    7800                      .dwattr $C$DW$804, DW_AT_TI_symbol_name("_RSVD3")
    7801                      .dwattr $C$DW$804, DW_AT_data_member_location[DW_OP_plus_uconst 0x25]
    7802                      .dwattr $C$DW$804, DW_AT_accessibility(DW_ACCESS_public)
    7803              $C$DW$805       .dwtag  DW_TAG_member
    7804                      .dwattr $C$DW$805, DW_AT_type(*$C$DW$T$20)
    7805                      .dwattr $C$DW$805, DW_AT_name("ECDR")
    7806                      .dwattr $C$DW$805, DW_AT_TI_symbol_name("_ECDR")
    7807                      .dwattr $C$DW$805, DW_AT_data_member_location[DW_OP_plus_uconst 0x26]
    7808                      .dwattr $C$DW$805, DW_AT_accessibility(DW_ACCESS_public)
    7809              $C$DW$806       .dwtag  DW_TAG_member
    7810                      .dwattr $C$DW$806, DW_AT_type(*$C$DW$T$20)
    7811                      .dwattr $C$DW$806, DW_AT_name("RSVD4")
    7812                      .dwattr $C$DW$806, DW_AT_TI_symbol_name("_RSVD4")
    7813                      .dwattr $C$DW$806, DW_AT_data_member_location[DW_OP_plus_uconst 0x27]
    7814                      .dwattr $C$DW$806, DW_AT_accessibility(DW_ACCESS_public)
    7815              $C$DW$807       .dwtag  DW_TAG_member
    7816                      .dwattr $C$DW$807, DW_AT_type(*$C$DW$T$20)
    7817                      .dwattr $C$DW$807, DW_AT_name("RAMSLPMDCNTLR1")
    7818                      .dwattr $C$DW$807, DW_AT_TI_symbol_name("_RAMSLPMDCNTLR1")
    7819                      .dwattr $C$DW$807, DW_AT_data_member_location[DW_OP_plus_uconst 0x28]
    7820                      .dwattr $C$DW$807, DW_AT_accessibility(DW_ACCESS_public)
    7821              $C$DW$808       .dwtag  DW_TAG_member
    7822                      .dwattr $C$DW$808, DW_AT_type(*$C$DW$T$20)
    7823                      .dwattr $C$DW$808, DW_AT_name("RSVD5")
    7824                      .dwattr $C$DW$808, DW_AT_TI_symbol_name("_RSVD5")
    7825                      .dwattr $C$DW$808, DW_AT_data_member_location[DW_OP_plus_uconst 0x29]
    7826                      .dwattr $C$DW$808, DW_AT_accessibility(DW_ACCESS_public)
    7827              $C$DW$809       .dwtag  DW_TAG_member
    7828                      .dwattr $C$DW$809, DW_AT_type(*$C$DW$T$20)
    7829                      .dwattr $C$DW$809, DW_AT_name("RAMSLPMDCNTLR2")
    7830                      .dwattr $C$DW$809, DW_AT_TI_symbol_name("_RAMSLPMDCNTLR2")
    7831                      .dwattr $C$DW$809, DW_AT_data_member_location[DW_OP_plus_uconst 0x2a]
    7832                      .dwattr $C$DW$809, DW_AT_accessibility(DW_ACCESS_public)
    7833              $C$DW$810       .dwtag  DW_TAG_member
    7834                      .dwattr $C$DW$810, DW_AT_type(*$C$DW$T$20)
    7835                      .dwattr $C$DW$810, DW_AT_name("RAMSLPMDCNTLR3")
    7836                      .dwattr $C$DW$810, DW_AT_TI_symbol_name("_RAMSLPMDCNTLR3")
    7837                      .dwattr $C$DW$810, DW_AT_data_member_location[DW_OP_plus_uconst 0x2b]
    7838                      .dwattr $C$DW$810, DW_AT_accessibility(DW_ACCESS_public)
    7839              $C$DW$811       .dwtag  DW_TAG_member
    7840                      .dwattr $C$DW$811, DW_AT_type(*$C$DW$T$20)
    7841                      .dwattr $C$DW$811, DW_AT_name("RAMSLPMDCNTLR4")
    7842                      .dwattr $C$DW$811, DW_AT_TI_symbol_name("_RAMSLPMDCNTLR4")
    7843                      .dwattr $C$DW$811, DW_AT_data_member_location[DW_OP_plus_uconst 0x2c]
    7844                      .dwattr $C$DW$811, DW_AT_accessibility(DW_ACCESS_public)
    7845              $C$DW$812       .dwtag  DW_TAG_member
    7846                      .dwattr $C$DW$812, DW_AT_type(*$C$DW$T$20)
    7847                      .dwattr $C$DW$812, DW_AT_name("RAMSLPMDCNTLR5")
TMS320C55x Assembler PC v4.4.1 Sat Sep 29 23:08:33 2018

Tools Copyright (c) 1996-2012 Texas Instruments Incorporated
csl_usb_poll_example.asm                                             PAGE  183

    7848                      .dwattr $C$DW$812, DW_AT_TI_symbol_name("_RAMSLPMDCNTLR5")
    7849                      .dwattr $C$DW$812, DW_AT_data_member_location[DW_OP_plus_uconst 0x2d]
    7850                      .dwattr $C$DW$812, DW_AT_accessibility(DW_ACCESS_public)
    7851              $C$DW$813       .dwtag  DW_TAG_member
    7852                      .dwattr $C$DW$813, DW_AT_type(*$C$DW$T$36)
    7853                      .dwattr $C$DW$813, DW_AT_name("RSVD6")
    7854                      .dwattr $C$DW$813, DW_AT_TI_symbol_name("_RSVD6")
    7855                      .dwattr $C$DW$813, DW_AT_data_member_location[DW_OP_plus_uconst 0x2e]
    7856                      .dwattr $C$DW$813, DW_AT_accessibility(DW_ACCESS_public)
    7857              $C$DW$814       .dwtag  DW_TAG_member
    7858                      .dwattr $C$DW$814, DW_AT_type(*$C$DW$T$20)
    7859                      .dwattr $C$DW$814, DW_AT_name("DMAIFR")
    7860                      .dwattr $C$DW$814, DW_AT_TI_symbol_name("_DMAIFR")
    7861                      .dwattr $C$DW$814, DW_AT_data_member_location[DW_OP_plus_uconst 0x30]
    7862                      .dwattr $C$DW$814, DW_AT_accessibility(DW_ACCESS_public)
    7863              $C$DW$815       .dwtag  DW_TAG_member
    7864                      .dwattr $C$DW$815, DW_AT_type(*$C$DW$T$20)
    7865                      .dwattr $C$DW$815, DW_AT_name("DMAIER")
    7866                      .dwattr $C$DW$815, DW_AT_TI_symbol_name("_DMAIER")
    7867                      .dwattr $C$DW$815, DW_AT_data_member_location[DW_OP_plus_uconst 0x31]
    7868                      .dwattr $C$DW$815, DW_AT_accessibility(DW_ACCESS_public)
    7869              $C$DW$816       .dwtag  DW_TAG_member
    7870                      .dwattr $C$DW$816, DW_AT_type(*$C$DW$T$20)
    7871                      .dwattr $C$DW$816, DW_AT_name("USBSCR")
    7872                      .dwattr $C$DW$816, DW_AT_TI_symbol_name("_USBSCR")
    7873                      .dwattr $C$DW$816, DW_AT_data_member_location[DW_OP_plus_uconst 0x32]
    7874                      .dwattr $C$DW$816, DW_AT_accessibility(DW_ACCESS_public)
    7875              $C$DW$817       .dwtag  DW_TAG_member
    7876                      .dwattr $C$DW$817, DW_AT_type(*$C$DW$T$20)
    7877                      .dwattr $C$DW$817, DW_AT_name("ESCR")
    7878                      .dwattr $C$DW$817, DW_AT_TI_symbol_name("_ESCR")
    7879                      .dwattr $C$DW$817, DW_AT_data_member_location[DW_OP_plus_uconst 0x33]
    7880                      .dwattr $C$DW$817, DW_AT_accessibility(DW_ACCESS_public)
    7881              $C$DW$818       .dwtag  DW_TAG_member
    7882                      .dwattr $C$DW$818, DW_AT_type(*$C$DW$T$36)
    7883                      .dwattr $C$DW$818, DW_AT_name("RSVD7")
    7884                      .dwattr $C$DW$818, DW_AT_TI_symbol_name("_RSVD7")
    7885                      .dwattr $C$DW$818, DW_AT_data_member_location[DW_OP_plus_uconst 0x34]
    7886                      .dwattr $C$DW$818, DW_AT_accessibility(DW_ACCESS_public)
    7887              $C$DW$819       .dwtag  DW_TAG_member
    7888                      .dwattr $C$DW$819, DW_AT_type(*$C$DW$T$20)
    7889                      .dwattr $C$DW$819, DW_AT_name("DMA2CESR1")
    7890                      .dwattr $C$DW$819, DW_AT_TI_symbol_name("_DMA2CESR1")
    7891                      .dwattr $C$DW$819, DW_AT_data_member_location[DW_OP_plus_uconst 0x36]
    7892                      .dwattr $C$DW$819, DW_AT_accessibility(DW_ACCESS_public)
    7893              $C$DW$820       .dwtag  DW_TAG_member
    7894                      .dwattr $C$DW$820, DW_AT_type(*$C$DW$T$20)
    7895                      .dwattr $C$DW$820, DW_AT_name("DMA2CESR2")
    7896                      .dwattr $C$DW$820, DW_AT_TI_symbol_name("_DMA2CESR2")
    7897                      .dwattr $C$DW$820, DW_AT_data_member_location[DW_OP_plus_uconst 0x37]
    7898                      .dwattr $C$DW$820, DW_AT_accessibility(DW_ACCESS_public)
    7899              $C$DW$821       .dwtag  DW_TAG_member
    7900                      .dwattr $C$DW$821, DW_AT_type(*$C$DW$T$20)
    7901                      .dwattr $C$DW$821, DW_AT_name("DMA3CESR1")
    7902                      .dwattr $C$DW$821, DW_AT_TI_symbol_name("_DMA3CESR1")
TMS320C55x Assembler PC v4.4.1 Sat Sep 29 23:08:33 2018

Tools Copyright (c) 1996-2012 Texas Instruments Incorporated
csl_usb_poll_example.asm                                             PAGE  184

    7903                      .dwattr $C$DW$821, DW_AT_data_member_location[DW_OP_plus_uconst 0x38]
    7904                      .dwattr $C$DW$821, DW_AT_accessibility(DW_ACCESS_public)
    7905              $C$DW$822       .dwtag  DW_TAG_member
    7906                      .dwattr $C$DW$822, DW_AT_type(*$C$DW$T$20)
    7907                      .dwattr $C$DW$822, DW_AT_name("DMA3CESR2")
    7908                      .dwattr $C$DW$822, DW_AT_TI_symbol_name("_DMA3CESR2")
    7909                      .dwattr $C$DW$822, DW_AT_data_member_location[DW_OP_plus_uconst 0x39]
    7910                      .dwattr $C$DW$822, DW_AT_accessibility(DW_ACCESS_public)
    7911              $C$DW$823       .dwtag  DW_TAG_member
    7912                      .dwattr $C$DW$823, DW_AT_type(*$C$DW$T$20)
    7913                      .dwattr $C$DW$823, DW_AT_name("CLKSTOP")
    7914                      .dwattr $C$DW$823, DW_AT_TI_symbol_name("_CLKSTOP")
    7915                      .dwattr $C$DW$823, DW_AT_data_member_location[DW_OP_plus_uconst 0x3a]
    7916                      .dwattr $C$DW$823, DW_AT_accessibility(DW_ACCESS_public)
    7917              $C$DW$824       .dwtag  DW_TAG_member
    7918                      .dwattr $C$DW$824, DW_AT_type(*$C$DW$T$79)
    7919                      .dwattr $C$DW$824, DW_AT_name("RSVD8")
    7920                      .dwattr $C$DW$824, DW_AT_TI_symbol_name("_RSVD8")
    7921                      .dwattr $C$DW$824, DW_AT_data_member_location[DW_OP_plus_uconst 0x3b]
    7922                      .dwattr $C$DW$824, DW_AT_accessibility(DW_ACCESS_public)
    7923              $C$DW$825       .dwtag  DW_TAG_member
    7924                      .dwattr $C$DW$825, DW_AT_type(*$C$DW$T$20)
    7925                      .dwattr $C$DW$825, DW_AT_name("DIEIDR0")
    7926                      .dwattr $C$DW$825, DW_AT_TI_symbol_name("_DIEIDR0")
    7927                      .dwattr $C$DW$825, DW_AT_data_member_location[DW_OP_plus_uconst 0x40]
    7928                      .dwattr $C$DW$825, DW_AT_accessibility(DW_ACCESS_public)
    7929              $C$DW$826       .dwtag  DW_TAG_member
    7930                      .dwattr $C$DW$826, DW_AT_type(*$C$DW$T$20)
    7931                      .dwattr $C$DW$826, DW_AT_name("DIEIDR1")
    7932                      .dwattr $C$DW$826, DW_AT_TI_symbol_name("_DIEIDR1")
    7933                      .dwattr $C$DW$826, DW_AT_data_member_location[DW_OP_plus_uconst 0x41]
    7934                      .dwattr $C$DW$826, DW_AT_accessibility(DW_ACCESS_public)
    7935              $C$DW$827       .dwtag  DW_TAG_member
    7936                      .dwattr $C$DW$827, DW_AT_type(*$C$DW$T$20)
    7937                      .dwattr $C$DW$827, DW_AT_name("DIEIDR2")
    7938                      .dwattr $C$DW$827, DW_AT_TI_symbol_name("_DIEIDR2")
    7939                      .dwattr $C$DW$827, DW_AT_data_member_location[DW_OP_plus_uconst 0x42]
    7940                      .dwattr $C$DW$827, DW_AT_accessibility(DW_ACCESS_public)
    7941              $C$DW$828       .dwtag  DW_TAG_member
    7942                      .dwattr $C$DW$828, DW_AT_type(*$C$DW$T$20)
    7943                      .dwattr $C$DW$828, DW_AT_name("DIEIDR3")
    7944                      .dwattr $C$DW$828, DW_AT_TI_symbol_name("_DIEIDR3")
    7945                      .dwattr $C$DW$828, DW_AT_data_member_location[DW_OP_plus_uconst 0x43]
    7946                      .dwattr $C$DW$828, DW_AT_accessibility(DW_ACCESS_public)
    7947              $C$DW$829       .dwtag  DW_TAG_member
    7948                      .dwattr $C$DW$829, DW_AT_type(*$C$DW$T$20)
    7949                      .dwattr $C$DW$829, DW_AT_name("DIEIDR4")
    7950                      .dwattr $C$DW$829, DW_AT_TI_symbol_name("_DIEIDR4")
    7951                      .dwattr $C$DW$829, DW_AT_data_member_location[DW_OP_plus_uconst 0x44]
    7952                      .dwattr $C$DW$829, DW_AT_accessibility(DW_ACCESS_public)
    7953              $C$DW$830       .dwtag  DW_TAG_member
    7954                      .dwattr $C$DW$830, DW_AT_type(*$C$DW$T$20)
    7955                      .dwattr $C$DW$830, DW_AT_name("DIEIDR5")
    7956                      .dwattr $C$DW$830, DW_AT_TI_symbol_name("_DIEIDR5")
    7957                      .dwattr $C$DW$830, DW_AT_data_member_location[DW_OP_plus_uconst 0x45]
TMS320C55x Assembler PC v4.4.1 Sat Sep 29 23:08:33 2018

Tools Copyright (c) 1996-2012 Texas Instruments Incorporated
csl_usb_poll_example.asm                                             PAGE  185

    7958                      .dwattr $C$DW$830, DW_AT_accessibility(DW_ACCESS_public)
    7959              $C$DW$831       .dwtag  DW_TAG_member
    7960                      .dwattr $C$DW$831, DW_AT_type(*$C$DW$T$20)
    7961                      .dwattr $C$DW$831, DW_AT_name("DIEIDR6")
    7962                      .dwattr $C$DW$831, DW_AT_TI_symbol_name("_DIEIDR6")
    7963                      .dwattr $C$DW$831, DW_AT_data_member_location[DW_OP_plus_uconst 0x46]
    7964                      .dwattr $C$DW$831, DW_AT_accessibility(DW_ACCESS_public)
    7965              $C$DW$832       .dwtag  DW_TAG_member
    7966                      .dwattr $C$DW$832, DW_AT_type(*$C$DW$T$20)
    7967                      .dwattr $C$DW$832, DW_AT_name("DIEIDR7")
    7968                      .dwattr $C$DW$832, DW_AT_TI_symbol_name("_DIEIDR7")
    7969                      .dwattr $C$DW$832, DW_AT_data_member_location[DW_OP_plus_uconst 0x47]
    7970                      .dwattr $C$DW$832, DW_AT_accessibility(DW_ACCESS_public)
    7971                      .dwendtag $C$DW$T$80
    7972              
    7973              $C$DW$T$159     .dwtag  DW_TAG_typedef, DW_AT_name("CSL_SysRegs")
    7974                      .dwattr $C$DW$T$159, DW_AT_type(*$C$DW$T$80)
    7975                      .dwattr $C$DW$T$159, DW_AT_language(DW_LANG_C)
    7976              $C$DW$833       .dwtag  DW_TAG_TI_far_type
    7977                      .dwattr $C$DW$833, DW_AT_type(*$C$DW$T$159)
    7978              $C$DW$834       .dwtag  DW_TAG_TI_ioport_type
    7979                      .dwattr $C$DW$834, DW_AT_type(*$C$DW$833)
    7980              $C$DW$T$160     .dwtag  DW_TAG_volatile_type
    7981                      .dwattr $C$DW$T$160, DW_AT_type(*$C$DW$834)
    7982              $C$DW$T$161     .dwtag  DW_TAG_pointer_type
    7983                      .dwattr $C$DW$T$161, DW_AT_type(*$C$DW$T$160)
    7984                      .dwattr $C$DW$T$161, DW_AT_address_class(0x10)
    7985              $C$DW$T$162     .dwtag  DW_TAG_typedef, DW_AT_name("CSL_SysRegsOvly")
    7986                      .dwattr $C$DW$T$162, DW_AT_type(*$C$DW$T$161)
    7987                      .dwattr $C$DW$T$162, DW_AT_language(DW_LANG_C)
    7988              
    7989              $C$DW$T$93      .dwtag  DW_TAG_structure_type
    7990                      .dwattr $C$DW$T$93, DW_AT_name("CSL_UsbConfig")
    7991                      .dwattr $C$DW$T$93, DW_AT_byte_size(0x0c)
    7992              $C$DW$835       .dwtag  DW_TAG_member
    7993                      .dwattr $C$DW$835, DW_AT_type(*$C$DW$T$82)
    7994                      .dwattr $C$DW$835, DW_AT_name("devNum")
    7995                      .dwattr $C$DW$835, DW_AT_TI_symbol_name("_devNum")
    7996                      .dwattr $C$DW$835, DW_AT_data_member_location[DW_OP_plus_uconst 0x0]
    7997                      .dwattr $C$DW$835, DW_AT_accessibility(DW_ACCESS_public)
    7998              $C$DW$836       .dwtag  DW_TAG_member
    7999                      .dwattr $C$DW$836, DW_AT_type(*$C$DW$T$84)
    8000                      .dwattr $C$DW$836, DW_AT_name("opMode")
    8001                      .dwattr $C$DW$836, DW_AT_TI_symbol_name("_opMode")
    8002                      .dwattr $C$DW$836, DW_AT_data_member_location[DW_OP_plus_uconst 0x1]
    8003                      .dwattr $C$DW$836, DW_AT_accessibility(DW_ACCESS_public)
    8004              $C$DW$837       .dwtag  DW_TAG_member
    8005                      .dwattr $C$DW$837, DW_AT_type(*$C$DW$T$19)
    8006                      .dwattr $C$DW$837, DW_AT_name("maxCurrent")
    8007                      .dwattr $C$DW$837, DW_AT_TI_symbol_name("_maxCurrent")
    8008                      .dwattr $C$DW$837, DW_AT_data_member_location[DW_OP_plus_uconst 0x2]
    8009                      .dwattr $C$DW$837, DW_AT_accessibility(DW_ACCESS_public)
    8010              $C$DW$838       .dwtag  DW_TAG_member
    8011                      .dwattr $C$DW$838, DW_AT_type(*$C$DW$T$87)
    8012                      .dwattr $C$DW$838, DW_AT_name("appSuspendCallBack")
TMS320C55x Assembler PC v4.4.1 Sat Sep 29 23:08:33 2018

Tools Copyright (c) 1996-2012 Texas Instruments Incorporated
csl_usb_poll_example.asm                                             PAGE  186

    8013                      .dwattr $C$DW$838, DW_AT_TI_symbol_name("_appSuspendCallBack")
    8014                      .dwattr $C$DW$838, DW_AT_data_member_location[DW_OP_plus_uconst 0x4]
    8015                      .dwattr $C$DW$838, DW_AT_accessibility(DW_ACCESS_public)
    8016              $C$DW$839       .dwtag  DW_TAG_member
    8017                      .dwattr $C$DW$839, DW_AT_type(*$C$DW$T$87)
    8018                      .dwattr $C$DW$839, DW_AT_name("appWakeupCallBack")
    8019                      .dwattr $C$DW$839, DW_AT_TI_symbol_name("_appWakeupCallBack")
    8020                      .dwattr $C$DW$839, DW_AT_data_member_location[DW_OP_plus_uconst 0x6]
    8021                      .dwattr $C$DW$839, DW_AT_accessibility(DW_ACCESS_public)
    8022              $C$DW$840       .dwtag  DW_TAG_member
    8023                      .dwattr $C$DW$840, DW_AT_type(*$C$DW$T$92)
    8024                      .dwattr $C$DW$840, DW_AT_name("startTransferCallback")
    8025                      .dwattr $C$DW$840, DW_AT_TI_symbol_name("_startTransferCallback")
    8026                      .dwattr $C$DW$840, DW_AT_data_member_location[DW_OP_plus_uconst 0x8]
    8027                      .dwattr $C$DW$840, DW_AT_accessibility(DW_ACCESS_public)
    8028              $C$DW$841       .dwtag  DW_TAG_member
    8029                      .dwattr $C$DW$841, DW_AT_type(*$C$DW$T$92)
    8030                      .dwattr $C$DW$841, DW_AT_name("completeTransferCallback")
    8031                      .dwattr $C$DW$841, DW_AT_TI_symbol_name("_completeTransferCallback")
    8032                      .dwattr $C$DW$841, DW_AT_data_member_location[DW_OP_plus_uconst 0xa]
    8033                      .dwattr $C$DW$841, DW_AT_accessibility(DW_ACCESS_public)
    8034                      .dwendtag $C$DW$T$93
    8035              
    8036              $C$DW$T$163     .dwtag  DW_TAG_typedef, DW_AT_name("CSL_UsbConfig")
    8037                      .dwattr $C$DW$T$163, DW_AT_type(*$C$DW$T$93)
    8038                      .dwattr $C$DW$T$163, DW_AT_language(DW_LANG_C)
    8039              $C$DW$T$164     .dwtag  DW_TAG_pointer_type
    8040                      .dwattr $C$DW$T$164, DW_AT_type(*$C$DW$T$163)
    8041                      .dwattr $C$DW$T$164, DW_AT_address_class(0x17)
    8042              
    8043              $C$DW$T$118     .dwtag  DW_TAG_structure_type
    8044                      .dwattr $C$DW$T$118, DW_AT_name("CSL_UsbContext")
    8045                      .dwattr $C$DW$T$118, DW_AT_byte_size(0xc8)
    8046              $C$DW$842       .dwtag  DW_TAG_member
    8047                      .dwattr $C$DW$842, DW_AT_type(*$C$DW$T$84)
    8048                      .dwattr $C$DW$842, DW_AT_name("opMode")
    8049                      .dwattr $C$DW$842, DW_AT_TI_symbol_name("_opMode")
    8050                      .dwattr $C$DW$842, DW_AT_data_member_location[DW_OP_plus_uconst 0x0]
    8051                      .dwattr $C$DW$842, DW_AT_accessibility(DW_ACCESS_public)
    8052              $C$DW$843       .dwtag  DW_TAG_member
    8053                      .dwattr $C$DW$843, DW_AT_type(*$C$DW$T$94)
    8054                      .dwattr $C$DW$843, DW_AT_name("maxCurrent")
    8055                      .dwattr $C$DW$843, DW_AT_TI_symbol_name("_maxCurrent")
    8056                      .dwattr $C$DW$843, DW_AT_data_member_location[DW_OP_plus_uconst 0x1]
    8057                      .dwattr $C$DW$843, DW_AT_accessibility(DW_ACCESS_public)
    8058              $C$DW$844       .dwtag  DW_TAG_member
    8059                      .dwattr $C$DW$844, DW_AT_type(*$C$DW$T$95)
    8060                      .dwattr $C$DW$844, DW_AT_name("fInitialized")
    8061                      .dwattr $C$DW$844, DW_AT_TI_symbol_name("_fInitialized")
    8062                      .dwattr $C$DW$844, DW_AT_data_member_location[DW_OP_plus_uconst 0x2]
    8063                      .dwattr $C$DW$844, DW_AT_accessibility(DW_ACCESS_public)
    8064              $C$DW$845       .dwtag  DW_TAG_member
    8065                      .dwattr $C$DW$845, DW_AT_type(*$C$DW$T$95)
    8066                      .dwattr $C$DW$845, DW_AT_name("fSetupPktCmd")
    8067                      .dwattr $C$DW$845, DW_AT_TI_symbol_name("_fSetupPktCmd")
TMS320C55x Assembler PC v4.4.1 Sat Sep 29 23:08:33 2018

Tools Copyright (c) 1996-2012 Texas Instruments Incorporated
csl_usb_poll_example.asm                                             PAGE  187

    8068                      .dwattr $C$DW$845, DW_AT_data_member_location[DW_OP_plus_uconst 0x3]
    8069                      .dwattr $C$DW$845, DW_AT_accessibility(DW_ACCESS_public)
    8070              $C$DW$846       .dwtag  DW_TAG_member
    8071                      .dwattr $C$DW$846, DW_AT_type(*$C$DW$T$95)
    8072                      .dwattr $C$DW$846, DW_AT_name("fOutPhaseCmd")
    8073                      .dwattr $C$DW$846, DW_AT_TI_symbol_name("_fOutPhaseCmd")
    8074                      .dwattr $C$DW$846, DW_AT_data_member_location[DW_OP_plus_uconst 0x4]
    8075                      .dwattr $C$DW$846, DW_AT_accessibility(DW_ACCESS_public)
    8076              $C$DW$847       .dwtag  DW_TAG_member
    8077                      .dwattr $C$DW$847, DW_AT_type(*$C$DW$T$95)
    8078                      .dwattr $C$DW$847, DW_AT_name("fWaitingOnFlagA")
    8079                      .dwattr $C$DW$847, DW_AT_TI_symbol_name("_fWaitingOnFlagA")
    8080                      .dwattr $C$DW$847, DW_AT_data_member_location[DW_OP_plus_uconst 0x5]
    8081                      .dwattr $C$DW$847, DW_AT_accessibility(DW_ACCESS_public)
    8082              $C$DW$848       .dwtag  DW_TAG_member
    8083                      .dwattr $C$DW$848, DW_AT_type(*$C$DW$T$95)
    8084                      .dwattr $C$DW$848, DW_AT_name("fWaitingOnFlagB")
    8085                      .dwattr $C$DW$848, DW_AT_TI_symbol_name("_fWaitingOnFlagB")
    8086                      .dwattr $C$DW$848, DW_AT_data_member_location[DW_OP_plus_uconst 0x6]
    8087                      .dwattr $C$DW$848, DW_AT_accessibility(DW_ACCESS_public)
    8088              $C$DW$849       .dwtag  DW_TAG_member
    8089                      .dwattr $C$DW$849, DW_AT_type(*$C$DW$T$95)
    8090                      .dwattr $C$DW$849, DW_AT_name("fWaitingOnEP0BUFAvail")
    8091                      .dwattr $C$DW$849, DW_AT_TI_symbol_name("_fWaitingOnEP0BUFAvail")
    8092                      .dwattr $C$DW$849, DW_AT_data_member_location[DW_OP_plus_uconst 0x7]
    8093                      .dwattr $C$DW$849, DW_AT_accessibility(DW_ACCESS_public)
    8094              $C$DW$850       .dwtag  DW_TAG_member
    8095                      .dwattr $C$DW$850, DW_AT_type(*$C$DW$T$95)
    8096                      .dwattr $C$DW$850, DW_AT_name("fWaitingOnEP1InBUFAvail")
    8097                      .dwattr $C$DW$850, DW_AT_TI_symbol_name("_fWaitingOnEP1InBUFAvail")
    8098                      .dwattr $C$DW$850, DW_AT_data_member_location[DW_OP_plus_uconst 0x8]
    8099                      .dwattr $C$DW$850, DW_AT_accessibility(DW_ACCESS_public)
    8100              $C$DW$851       .dwtag  DW_TAG_member
    8101                      .dwattr $C$DW$851, DW_AT_type(*$C$DW$T$96)
    8102                      .dwattr $C$DW$851, DW_AT_name("rgbDescriptors")
    8103                      .dwattr $C$DW$851, DW_AT_TI_symbol_name("_rgbDescriptors")
    8104                      .dwattr $C$DW$851, DW_AT_data_member_location[DW_OP_plus_uconst 0xa]
    8105                      .dwattr $C$DW$851, DW_AT_accessibility(DW_ACCESS_public)
    8106              $C$DW$852       .dwtag  DW_TAG_member
    8107                      .dwattr $C$DW$852, DW_AT_type(*$C$DW$T$94)
    8108                      .dwattr $C$DW$852, DW_AT_name("cbDescriptors")
    8109                      .dwattr $C$DW$852, DW_AT_TI_symbol_name("_cbDescriptors")
    8110                      .dwattr $C$DW$852, DW_AT_data_member_location[DW_OP_plus_uconst 0xc]
    8111                      .dwattr $C$DW$852, DW_AT_accessibility(DW_ACCESS_public)
    8112              $C$DW$853       .dwtag  DW_TAG_member
    8113                      .dwattr $C$DW$853, DW_AT_type(*$C$DW$T$98)
    8114                      .dwattr $C$DW$853, DW_AT_name("dwFlagAEndpointAssigned")
    8115                      .dwattr $C$DW$853, DW_AT_TI_symbol_name("_dwFlagAEndpointAssigned")
    8116                      .dwattr $C$DW$853, DW_AT_data_member_location[DW_OP_plus_uconst 0xe]
    8117                      .dwattr $C$DW$853, DW_AT_accessibility(DW_ACCESS_public)
    8118              $C$DW$854       .dwtag  DW_TAG_member
    8119                      .dwattr $C$DW$854, DW_AT_type(*$C$DW$T$98)
    8120                      .dwattr $C$DW$854, DW_AT_name("dwFlagBEndpointAssigned")
    8121                      .dwattr $C$DW$854, DW_AT_TI_symbol_name("_dwFlagBEndpointAssigned")
    8122                      .dwattr $C$DW$854, DW_AT_data_member_location[DW_OP_plus_uconst 0x10]
TMS320C55x Assembler PC v4.4.1 Sat Sep 29 23:08:33 2018

Tools Copyright (c) 1996-2012 Texas Instruments Incorporated
csl_usb_poll_example.asm                                             PAGE  188

    8123                      .dwattr $C$DW$854, DW_AT_accessibility(DW_ACCESS_public)
    8124              $C$DW$855       .dwtag  DW_TAG_member
    8125                      .dwattr $C$DW$855, DW_AT_type(*$C$DW$T$99)
    8126                      .dwattr $C$DW$855, DW_AT_name("pFIFOBaseAddress")
    8127                      .dwattr $C$DW$855, DW_AT_TI_symbol_name("_pFIFOBaseAddress")
    8128                      .dwattr $C$DW$855, DW_AT_data_member_location[DW_OP_plus_uconst 0x12]
    8129                      .dwattr $C$DW$855, DW_AT_accessibility(DW_ACCESS_public)
    8130              $C$DW$856       .dwtag  DW_TAG_member
    8131                      .dwattr $C$DW$856, DW_AT_type(*$C$DW$T$99)
    8132                      .dwattr $C$DW$856, DW_AT_name("pInterruptAddr")
    8133                      .dwattr $C$DW$856, DW_AT_TI_symbol_name("_pInterruptAddr")
    8134                      .dwattr $C$DW$856, DW_AT_data_member_location[DW_OP_plus_uconst 0x14]
    8135                      .dwattr $C$DW$856, DW_AT_accessibility(DW_ACCESS_public)
    8136              $C$DW$857       .dwtag  DW_TAG_member
    8137                      .dwattr $C$DW$857, DW_AT_type(*$C$DW$T$95)
    8138                      .dwattr $C$DW$857, DW_AT_name("fSendHandshake")
    8139                      .dwattr $C$DW$857, DW_AT_TI_symbol_name("_fSendHandshake")
    8140                      .dwattr $C$DW$857, DW_AT_data_member_location[DW_OP_plus_uconst 0x16]
    8141                      .dwattr $C$DW$857, DW_AT_accessibility(DW_ACCESS_public)
    8142              $C$DW$858       .dwtag  DW_TAG_member
    8143                      .dwattr $C$DW$858, DW_AT_type(*$C$DW$T$95)
    8144                      .dwattr $C$DW$858, DW_AT_name("fMUSBIsReady")
    8145                      .dwattr $C$DW$858, DW_AT_TI_symbol_name("_fMUSBIsReady")
    8146                      .dwattr $C$DW$858, DW_AT_data_member_location[DW_OP_plus_uconst 0x17]
    8147                      .dwattr $C$DW$858, DW_AT_accessibility(DW_ACCESS_public)
    8148              $C$DW$859       .dwtag  DW_TAG_member
    8149                      .dwattr $C$DW$859, DW_AT_type(*$C$DW$T$94)
    8150                      .dwattr $C$DW$859, DW_AT_name("cbOutEP0Buf")
    8151                      .dwattr $C$DW$859, DW_AT_TI_symbol_name("_cbOutEP0Buf")
    8152                      .dwattr $C$DW$859, DW_AT_data_member_location[DW_OP_plus_uconst 0x18]
    8153                      .dwattr $C$DW$859, DW_AT_accessibility(DW_ACCESS_public)
    8154              $C$DW$860       .dwtag  DW_TAG_member
    8155                      .dwattr $C$DW$860, DW_AT_type(*$C$DW$T$94)
    8156                      .dwattr $C$DW$860, DW_AT_name("cbOutEP0DataReceived")
    8157                      .dwattr $C$DW$860, DW_AT_TI_symbol_name("_cbOutEP0DataReceived")
    8158                      .dwattr $C$DW$860, DW_AT_data_member_location[DW_OP_plus_uconst 0x19]
    8159                      .dwattr $C$DW$860, DW_AT_accessibility(DW_ACCESS_public)
    8160              $C$DW$861       .dwtag  DW_TAG_member
    8161                      .dwattr $C$DW$861, DW_AT_type(*$C$DW$T$100)
    8162                      .dwattr $C$DW$861, DW_AT_name("dwOutEP0Buf")
    8163                      .dwattr $C$DW$861, DW_AT_TI_symbol_name("_dwOutEP0Buf")
    8164                      .dwattr $C$DW$861, DW_AT_data_member_location[DW_OP_plus_uconst 0x1a]
    8165                      .dwattr $C$DW$861, DW_AT_accessibility(DW_ACCESS_public)
    8166              $C$DW$862       .dwtag  DW_TAG_member
    8167                      .dwattr $C$DW$862, DW_AT_type(*$C$DW$T$95)
    8168                      .dwattr $C$DW$862, DW_AT_name("fEP0BUFAvailable")
    8169                      .dwattr $C$DW$862, DW_AT_TI_symbol_name("_fEP0BUFAvailable")
    8170                      .dwattr $C$DW$862, DW_AT_data_member_location[DW_OP_plus_uconst 0x5a]
    8171                      .dwattr $C$DW$862, DW_AT_accessibility(DW_ACCESS_public)
    8172              $C$DW$863       .dwtag  DW_TAG_member
    8173                      .dwattr $C$DW$863, DW_AT_type(*$C$DW$T$95)
    8174                      .dwattr $C$DW$863, DW_AT_name("fEP1InBUFAvailable")
    8175                      .dwattr $C$DW$863, DW_AT_TI_symbol_name("_fEP1InBUFAvailable")
    8176                      .dwattr $C$DW$863, DW_AT_data_member_location[DW_OP_plus_uconst 0x5b]
    8177                      .dwattr $C$DW$863, DW_AT_accessibility(DW_ACCESS_public)
TMS320C55x Assembler PC v4.4.1 Sat Sep 29 23:08:33 2018

Tools Copyright (c) 1996-2012 Texas Instruments Incorporated
csl_usb_poll_example.asm                                             PAGE  189

    8178              $C$DW$864       .dwtag  DW_TAG_member
    8179                      .dwattr $C$DW$864, DW_AT_type(*$C$DW$T$94)
    8180                      .dwattr $C$DW$864, DW_AT_name("dwQueuePend1")
    8181                      .dwattr $C$DW$864, DW_AT_TI_symbol_name("_dwQueuePend1")
    8182                      .dwattr $C$DW$864, DW_AT_data_member_location[DW_OP_plus_uconst 0x5c]
    8183                      .dwattr $C$DW$864, DW_AT_accessibility(DW_ACCESS_public)
    8184              $C$DW$865       .dwtag  DW_TAG_member
    8185                      .dwattr $C$DW$865, DW_AT_type(*$C$DW$T$95)
    8186                      .dwattr $C$DW$865, DW_AT_name("fEP3InBUFAvailable")
    8187                      .dwattr $C$DW$865, DW_AT_TI_symbol_name("_fEP3InBUFAvailable")
    8188                      .dwattr $C$DW$865, DW_AT_data_member_location[DW_OP_plus_uconst 0x5d]
    8189                      .dwattr $C$DW$865, DW_AT_accessibility(DW_ACCESS_public)
    8190              $C$DW$866       .dwtag  DW_TAG_member
    8191                      .dwattr $C$DW$866, DW_AT_type(*$C$DW$T$94)
    8192                      .dwattr $C$DW$866, DW_AT_name("dwIntSourceL")
    8193                      .dwattr $C$DW$866, DW_AT_TI_symbol_name("_dwIntSourceL")
    8194                      .dwattr $C$DW$866, DW_AT_data_member_location[DW_OP_plus_uconst 0x5e]
    8195                      .dwattr $C$DW$866, DW_AT_accessibility(DW_ACCESS_public)
    8196              $C$DW$867       .dwtag  DW_TAG_member
    8197                      .dwattr $C$DW$867, DW_AT_type(*$C$DW$T$94)
    8198                      .dwattr $C$DW$867, DW_AT_name("dwIntSourceH")
    8199                      .dwattr $C$DW$867, DW_AT_TI_symbol_name("_dwIntSourceH")
    8200                      .dwattr $C$DW$867, DW_AT_data_member_location[DW_OP_plus_uconst 0x5f]
    8201                      .dwattr $C$DW$867, DW_AT_accessibility(DW_ACCESS_public)
    8202              $C$DW$868       .dwtag  DW_TAG_member
    8203                      .dwattr $C$DW$868, DW_AT_type(*$C$DW$T$102)
    8204                      .dwattr $C$DW$868, DW_AT_name("remoteWkpStat")
    8205                      .dwattr $C$DW$868, DW_AT_TI_symbol_name("_remoteWkpStat")
    8206                      .dwattr $C$DW$868, DW_AT_data_member_location[DW_OP_plus_uconst 0x60]
    8207                      .dwattr $C$DW$868, DW_AT_accessibility(DW_ACCESS_public)
    8208              $C$DW$869       .dwtag  DW_TAG_member
    8209                      .dwattr $C$DW$869, DW_AT_type(*$C$DW$T$104)
    8210                      .dwattr $C$DW$869, DW_AT_name("pEpStatus")
    8211                      .dwattr $C$DW$869, DW_AT_TI_symbol_name("_pEpStatus")
    8212                      .dwattr $C$DW$869, DW_AT_data_member_location[DW_OP_plus_uconst 0x62]
    8213                      .dwattr $C$DW$869, DW_AT_accessibility(DW_ACCESS_public)
    8214              $C$DW$870       .dwtag  DW_TAG_member
    8215                      .dwattr $C$DW$870, DW_AT_type(*$C$DW$T$106)
    8216                      .dwattr $C$DW$870, DW_AT_name("busSpeed")
    8217                      .dwattr $C$DW$870, DW_AT_TI_symbol_name("_busSpeed")
    8218                      .dwattr $C$DW$870, DW_AT_data_member_location[DW_OP_plus_uconst 0x64]
    8219                      .dwattr $C$DW$870, DW_AT_accessibility(DW_ACCESS_public)
    8220              $C$DW$871       .dwtag  DW_TAG_member
    8221                      .dwattr $C$DW$871, DW_AT_type(*$C$DW$T$108)
    8222                      .dwattr $C$DW$871, DW_AT_name("ep0State")
    8223                      .dwattr $C$DW$871, DW_AT_TI_symbol_name("_ep0State")
    8224                      .dwattr $C$DW$871, DW_AT_data_member_location[DW_OP_plus_uconst 0x65]
    8225                      .dwattr $C$DW$871, DW_AT_accessibility(DW_ACCESS_public)
    8226              $C$DW$872       .dwtag  DW_TAG_member
    8227                      .dwattr $C$DW$872, DW_AT_type(*$C$DW$T$110)
    8228                      .dwattr $C$DW$872, DW_AT_name("cableState")
    8229                      .dwattr $C$DW$872, DW_AT_TI_symbol_name("_cableState")
    8230                      .dwattr $C$DW$872, DW_AT_data_member_location[DW_OP_plus_uconst 0x66]
    8231                      .dwattr $C$DW$872, DW_AT_accessibility(DW_ACCESS_public)
    8232              $C$DW$873       .dwtag  DW_TAG_member
TMS320C55x Assembler PC v4.4.1 Sat Sep 29 23:08:33 2018

Tools Copyright (c) 1996-2012 Texas Instruments Incorporated
csl_usb_poll_example.asm                                             PAGE  190

    8233                      .dwattr $C$DW$873, DW_AT_type(*$C$DW$T$111)
    8234                      .dwattr $C$DW$873, DW_AT_name("usbSetup")
    8235                      .dwattr $C$DW$873, DW_AT_TI_symbol_name("_usbSetup")
    8236                      .dwattr $C$DW$873, DW_AT_data_member_location[DW_OP_plus_uconst 0x67]
    8237                      .dwattr $C$DW$873, DW_AT_accessibility(DW_ACCESS_public)
    8238              $C$DW$874       .dwtag  DW_TAG_member
    8239                      .dwattr $C$DW$874, DW_AT_type(*$C$DW$T$87)
    8240                      .dwattr $C$DW$874, DW_AT_name("suspendCallBackFxn")
    8241                      .dwattr $C$DW$874, DW_AT_TI_symbol_name("_suspendCallBackFxn")
    8242                      .dwattr $C$DW$874, DW_AT_data_member_location[DW_OP_plus_uconst 0x6e]
    8243                      .dwattr $C$DW$874, DW_AT_accessibility(DW_ACCESS_public)
    8244              $C$DW$875       .dwtag  DW_TAG_member
    8245                      .dwattr $C$DW$875, DW_AT_type(*$C$DW$T$87)
    8246                      .dwattr $C$DW$875, DW_AT_name("wakeupCallBackFxn")
    8247                      .dwattr $C$DW$875, DW_AT_TI_symbol_name("_wakeupCallBackFxn")
    8248                      .dwattr $C$DW$875, DW_AT_data_member_location[DW_OP_plus_uconst 0x70]
    8249                      .dwattr $C$DW$875, DW_AT_accessibility(DW_ACCESS_public)
    8250              $C$DW$876       .dwtag  DW_TAG_member
    8251                      .dwattr $C$DW$876, DW_AT_type(*$C$DW$T$92)
    8252                      .dwattr $C$DW$876, DW_AT_name("startTransferCallback")
    8253                      .dwattr $C$DW$876, DW_AT_TI_symbol_name("_startTransferCallback")
    8254                      .dwattr $C$DW$876, DW_AT_data_member_location[DW_OP_plus_uconst 0x72]
    8255                      .dwattr $C$DW$876, DW_AT_accessibility(DW_ACCESS_public)
    8256              $C$DW$877       .dwtag  DW_TAG_member
    8257                      .dwattr $C$DW$877, DW_AT_type(*$C$DW$T$92)
    8258                      .dwattr $C$DW$877, DW_AT_name("completeTransferCallback")
    8259                      .dwattr $C$DW$877, DW_AT_TI_symbol_name("_completeTransferCallback")
    8260                      .dwattr $C$DW$877, DW_AT_data_member_location[DW_OP_plus_uconst 0x74]
    8261                      .dwattr $C$DW$877, DW_AT_accessibility(DW_ACCESS_public)
    8262              $C$DW$878       .dwtag  DW_TAG_member
    8263                      .dwattr $C$DW$878, DW_AT_type(*$C$DW$T$94)
    8264                      .dwattr $C$DW$878, DW_AT_name("dwFIFOStartAddr")
    8265                      .dwattr $C$DW$878, DW_AT_TI_symbol_name("_dwFIFOStartAddr")
    8266                      .dwattr $C$DW$878, DW_AT_data_member_location[DW_OP_plus_uconst 0x76]
    8267                      .dwattr $C$DW$878, DW_AT_accessibility(DW_ACCESS_public)
    8268              $C$DW$879       .dwtag  DW_TAG_member
    8269                      .dwattr $C$DW$879, DW_AT_type(*$C$DW$T$112)
    8270                      .dwattr $C$DW$879, DW_AT_name("deviceDescPtr")
    8271                      .dwattr $C$DW$879, DW_AT_TI_symbol_name("_deviceDescPtr")
    8272                      .dwattr $C$DW$879, DW_AT_data_member_location[DW_OP_plus_uconst 0x78]
    8273                      .dwattr $C$DW$879, DW_AT_accessibility(DW_ACCESS_public)
    8274              $C$DW$880       .dwtag  DW_TAG_member
    8275                      .dwattr $C$DW$880, DW_AT_type(*$C$DW$T$112)
    8276                      .dwattr $C$DW$880, DW_AT_name("deviceQualDescPtr")
    8277                      .dwattr $C$DW$880, DW_AT_TI_symbol_name("_deviceQualDescPtr")
    8278                      .dwattr $C$DW$880, DW_AT_data_member_location[DW_OP_plus_uconst 0x7a]
    8279                      .dwattr $C$DW$880, DW_AT_accessibility(DW_ACCESS_public)
    8280              $C$DW$881       .dwtag  DW_TAG_member
    8281                      .dwattr $C$DW$881, DW_AT_type(*$C$DW$T$112)
    8282                      .dwattr $C$DW$881, DW_AT_name("cfgDescPtr")
    8283                      .dwattr $C$DW$881, DW_AT_TI_symbol_name("_cfgDescPtr")
    8284                      .dwattr $C$DW$881, DW_AT_data_member_location[DW_OP_plus_uconst 0x7c]
    8285                      .dwattr $C$DW$881, DW_AT_accessibility(DW_ACCESS_public)
    8286              $C$DW$882       .dwtag  DW_TAG_member
    8287                      .dwattr $C$DW$882, DW_AT_type(*$C$DW$T$112)
TMS320C55x Assembler PC v4.4.1 Sat Sep 29 23:08:33 2018

Tools Copyright (c) 1996-2012 Texas Instruments Incorporated
csl_usb_poll_example.asm                                             PAGE  191

    8288                      .dwattr $C$DW$882, DW_AT_name("cfgDescFSPtr")
    8289                      .dwattr $C$DW$882, DW_AT_TI_symbol_name("_cfgDescFSPtr")
    8290                      .dwattr $C$DW$882, DW_AT_data_member_location[DW_OP_plus_uconst 0x7e]
    8291                      .dwattr $C$DW$882, DW_AT_accessibility(DW_ACCESS_public)
    8292              $C$DW$883       .dwtag  DW_TAG_member
    8293                      .dwattr $C$DW$883, DW_AT_type(*$C$DW$T$113)
    8294                      .dwattr $C$DW$883, DW_AT_name("strDescPtr")
    8295                      .dwattr $C$DW$883, DW_AT_TI_symbol_name("_strDescPtr")
    8296                      .dwattr $C$DW$883, DW_AT_data_member_location[DW_OP_plus_uconst 0x80]
    8297                      .dwattr $C$DW$883, DW_AT_accessibility(DW_ACCESS_public)
    8298              $C$DW$884       .dwtag  DW_TAG_member
    8299                      .dwattr $C$DW$884, DW_AT_type(*$C$DW$T$19)
    8300                      .dwattr $C$DW$884, DW_AT_name("devAddr")
    8301                      .dwattr $C$DW$884, DW_AT_TI_symbol_name("_devAddr")
    8302                      .dwattr $C$DW$884, DW_AT_data_member_location[DW_OP_plus_uconst 0x88]
    8303                      .dwattr $C$DW$884, DW_AT_accessibility(DW_ACCESS_public)
    8304              $C$DW$885       .dwtag  DW_TAG_member
    8305                      .dwattr $C$DW$885, DW_AT_type(*$C$DW$T$114)
    8306                      .dwattr $C$DW$885, DW_AT_name("ctrlInEpObj")
    8307                      .dwattr $C$DW$885, DW_AT_TI_symbol_name("_ctrlInEpObj")
    8308                      .dwattr $C$DW$885, DW_AT_data_member_location[DW_OP_plus_uconst 0x8a]
    8309                      .dwattr $C$DW$885, DW_AT_accessibility(DW_ACCESS_public)
    8310              $C$DW$886       .dwtag  DW_TAG_member
    8311                      .dwattr $C$DW$886, DW_AT_type(*$C$DW$T$82)
    8312                      .dwattr $C$DW$886, DW_AT_name("devNum")
    8313                      .dwattr $C$DW$886, DW_AT_TI_symbol_name("_devNum")
    8314                      .dwattr $C$DW$886, DW_AT_data_member_location[DW_OP_plus_uconst 0x9e]
    8315                      .dwattr $C$DW$886, DW_AT_accessibility(DW_ACCESS_public)
    8316              $C$DW$887       .dwtag  DW_TAG_member
    8317                      .dwattr $C$DW$887, DW_AT_type(*$C$DW$T$114)
    8318                      .dwattr $C$DW$887, DW_AT_name("ctrlOutEpObj")
    8319                      .dwattr $C$DW$887, DW_AT_TI_symbol_name("_ctrlOutEpObj")
    8320                      .dwattr $C$DW$887, DW_AT_data_member_location[DW_OP_plus_uconst 0xa0]
    8321                      .dwattr $C$DW$887, DW_AT_accessibility(DW_ACCESS_public)
    8322              $C$DW$888       .dwtag  DW_TAG_member
    8323                      .dwattr $C$DW$888, DW_AT_type(*$C$DW$T$19)
    8324                      .dwattr $C$DW$888, DW_AT_name("suspendFlag")
    8325                      .dwattr $C$DW$888, DW_AT_TI_symbol_name("_suspendFlag")
    8326                      .dwattr $C$DW$888, DW_AT_data_member_location[DW_OP_plus_uconst 0xb4]
    8327                      .dwattr $C$DW$888, DW_AT_accessibility(DW_ACCESS_public)
    8328              $C$DW$889       .dwtag  DW_TAG_member
    8329                      .dwattr $C$DW$889, DW_AT_type(*$C$DW$T$117)
    8330                      .dwattr $C$DW$889, DW_AT_name("hEpObjArray")
    8331                      .dwattr $C$DW$889, DW_AT_TI_symbol_name("_hEpObjArray")
    8332                      .dwattr $C$DW$889, DW_AT_data_member_location[DW_OP_plus_uconst 0xb6]
    8333                      .dwattr $C$DW$889, DW_AT_accessibility(DW_ACCESS_public)
    8334              $C$DW$890       .dwtag  DW_TAG_member
    8335                      .dwattr $C$DW$890, DW_AT_type(*$C$DW$T$19)
    8336                      .dwattr $C$DW$890, DW_AT_name("curConfigStat")
    8337                      .dwattr $C$DW$890, DW_AT_TI_symbol_name("_curConfigStat")
    8338                      .dwattr $C$DW$890, DW_AT_data_member_location[DW_OP_plus_uconst 0xc6]
    8339                      .dwattr $C$DW$890, DW_AT_accessibility(DW_ACCESS_public)
    8340              $C$DW$891       .dwtag  DW_TAG_member
    8341                      .dwattr $C$DW$891, DW_AT_type(*$C$DW$T$95)
    8342                      .dwattr $C$DW$891, DW_AT_name("usbSpeedCfg")
TMS320C55x Assembler PC v4.4.1 Sat Sep 29 23:08:33 2018

Tools Copyright (c) 1996-2012 Texas Instruments Incorporated
csl_usb_poll_example.asm                                             PAGE  192

    8343                      .dwattr $C$DW$891, DW_AT_TI_symbol_name("_usbSpeedCfg")
    8344                      .dwattr $C$DW$891, DW_AT_data_member_location[DW_OP_plus_uconst 0xc7]
    8345                      .dwattr $C$DW$891, DW_AT_accessibility(DW_ACCESS_public)
    8346                      .dwendtag $C$DW$T$118
    8347              
    8348              $C$DW$T$165     .dwtag  DW_TAG_typedef, DW_AT_name("CSL_UsbContext")
    8349                      .dwattr $C$DW$T$165, DW_AT_type(*$C$DW$T$118)
    8350                      .dwattr $C$DW$T$165, DW_AT_language(DW_LANG_C)
    8351              $C$DW$T$166     .dwtag  DW_TAG_pointer_type
    8352                      .dwattr $C$DW$T$166, DW_AT_type(*$C$DW$T$165)
    8353                      .dwattr $C$DW$T$166, DW_AT_address_class(0x17)
    8354              $C$DW$T$167     .dwtag  DW_TAG_typedef, DW_AT_name("pUsbContext")
    8355                      .dwattr $C$DW$T$167, DW_AT_type(*$C$DW$T$166)
    8356                      .dwattr $C$DW$T$167, DW_AT_language(DW_LANG_C)
    8357              
    8358              $C$DW$T$120     .dwtag  DW_TAG_structure_type
    8359                      .dwattr $C$DW$T$120, DW_AT_name("CSL_UsbDataStruct")
    8360                      .dwattr $C$DW$T$120, DW_AT_byte_size(0x06)
    8361              $C$DW$892       .dwtag  DW_TAG_member
    8362                      .dwattr $C$DW$892, DW_AT_type(*$C$DW$T$19)
    8363                      .dwattr $C$DW$892, DW_AT_name("bytes")
    8364                      .dwattr $C$DW$892, DW_AT_TI_symbol_name("_bytes")
    8365                      .dwattr $C$DW$892, DW_AT_data_member_location[DW_OP_plus_uconst 0x0]
    8366                      .dwattr $C$DW$892, DW_AT_accessibility(DW_ACCESS_public)
    8367              $C$DW$893       .dwtag  DW_TAG_member
    8368                      .dwattr $C$DW$893, DW_AT_type(*$C$DW$T$112)
    8369                      .dwattr $C$DW$893, DW_AT_name("pBuffer")
    8370                      .dwattr $C$DW$893, DW_AT_TI_symbol_name("_pBuffer")
    8371                      .dwattr $C$DW$893, DW_AT_data_member_location[DW_OP_plus_uconst 0x2]
    8372                      .dwattr $C$DW$893, DW_AT_accessibility(DW_ACCESS_public)
    8373              $C$DW$894       .dwtag  DW_TAG_member
    8374                      .dwattr $C$DW$894, DW_AT_type(*$C$DW$T$119)
    8375                      .dwattr $C$DW$894, DW_AT_name("pNextBuffer")
    8376                      .dwattr $C$DW$894, DW_AT_TI_symbol_name("_pNextBuffer")
    8377                      .dwattr $C$DW$894, DW_AT_data_member_location[DW_OP_plus_uconst 0x4]
    8378                      .dwattr $C$DW$894, DW_AT_accessibility(DW_ACCESS_public)
    8379                      .dwendtag $C$DW$T$120
    8380              
    8381              $C$DW$T$128     .dwtag  DW_TAG_typedef, DW_AT_name("CSL_UsbDataStruct")
    8382                      .dwattr $C$DW$T$128, DW_AT_type(*$C$DW$T$120)
    8383                      .dwattr $C$DW$T$128, DW_AT_language(DW_LANG_C)
    8384              $C$DW$T$129     .dwtag  DW_TAG_pointer_type
    8385                      .dwattr $C$DW$T$129, DW_AT_type(*$C$DW$T$128)
    8386                      .dwattr $C$DW$T$129, DW_AT_address_class(0x17)
    8387              $C$DW$T$119     .dwtag  DW_TAG_pointer_type
    8388                      .dwattr $C$DW$T$119, DW_AT_type(*$C$DW$T$120)
    8389                      .dwattr $C$DW$T$119, DW_AT_address_class(0x17)
    8390              
    8391              $C$DW$T$130     .dwtag  DW_TAG_structure_type
    8392                      .dwattr $C$DW$T$130, DW_AT_name("CSL_UsbEpObj")
    8393                      .dwattr $C$DW$T$130, DW_AT_byte_size(0x14)
    8394              $C$DW$895       .dwtag  DW_TAG_member
    8395                      .dwattr $C$DW$895, DW_AT_type(*$C$DW$T$122)
    8396                      .dwattr $C$DW$895, DW_AT_name("epNum")
    8397                      .dwattr $C$DW$895, DW_AT_TI_symbol_name("_epNum")
TMS320C55x Assembler PC v4.4.1 Sat Sep 29 23:08:33 2018

Tools Copyright (c) 1996-2012 Texas Instruments Incorporated
csl_usb_poll_example.asm                                             PAGE  193

    8398                      .dwattr $C$DW$895, DW_AT_data_member_location[DW_OP_plus_uconst 0x0]
    8399                      .dwattr $C$DW$895, DW_AT_accessibility(DW_ACCESS_public)
    8400              $C$DW$896       .dwtag  DW_TAG_member
    8401                      .dwattr $C$DW$896, DW_AT_type(*$C$DW$T$124)
    8402                      .dwattr $C$DW$896, DW_AT_name("xferType")
    8403                      .dwattr $C$DW$896, DW_AT_TI_symbol_name("_xferType")
    8404                      .dwattr $C$DW$896, DW_AT_data_member_location[DW_OP_plus_uconst 0x1]
    8405                      .dwattr $C$DW$896, DW_AT_accessibility(DW_ACCESS_public)
    8406              $C$DW$897       .dwtag  DW_TAG_member
    8407                      .dwattr $C$DW$897, DW_AT_type(*$C$DW$T$19)
    8408                      .dwattr $C$DW$897, DW_AT_name("maxPktSiz")
    8409                      .dwattr $C$DW$897, DW_AT_TI_symbol_name("_maxPktSiz")
    8410                      .dwattr $C$DW$897, DW_AT_data_member_location[DW_OP_plus_uconst 0x2]
    8411                      .dwattr $C$DW$897, DW_AT_accessibility(DW_ACCESS_public)
    8412              $C$DW$898       .dwtag  DW_TAG_member
    8413                      .dwattr $C$DW$898, DW_AT_type(*$C$DW$T$19)
    8414                      .dwattr $C$DW$898, DW_AT_name("eventMask")
    8415                      .dwattr $C$DW$898, DW_AT_TI_symbol_name("_eventMask")
    8416                      .dwattr $C$DW$898, DW_AT_data_member_location[DW_OP_plus_uconst 0x3]
    8417                      .dwattr $C$DW$898, DW_AT_accessibility(DW_ACCESS_public)
    8418              $C$DW$899       .dwtag  DW_TAG_member
    8419                      .dwattr $C$DW$899, DW_AT_type(*$C$DW$T$127)
    8420                      .dwattr $C$DW$899, DW_AT_name("fxn")
    8421                      .dwattr $C$DW$899, DW_AT_TI_symbol_name("_fxn")
    8422                      .dwattr $C$DW$899, DW_AT_data_member_location[DW_OP_plus_uconst 0x4]
    8423                      .dwattr $C$DW$899, DW_AT_accessibility(DW_ACCESS_public)
    8424              $C$DW$900       .dwtag  DW_TAG_member
    8425                      .dwattr $C$DW$900, DW_AT_type(*$C$DW$T$19)
    8426                      .dwattr $C$DW$900, DW_AT_name("dataFlags")
    8427                      .dwattr $C$DW$900, DW_AT_TI_symbol_name("_dataFlags")
    8428                      .dwattr $C$DW$900, DW_AT_data_member_location[DW_OP_plus_uconst 0x6]
    8429                      .dwattr $C$DW$900, DW_AT_accessibility(DW_ACCESS_public)
    8430              $C$DW$901       .dwtag  DW_TAG_member
    8431                      .dwattr $C$DW$901, DW_AT_type(*$C$DW$T$19)
    8432                      .dwattr $C$DW$901, DW_AT_name("status")
    8433                      .dwattr $C$DW$901, DW_AT_TI_symbol_name("_status")
    8434                      .dwattr $C$DW$901, DW_AT_data_member_location[DW_OP_plus_uconst 0x7]
    8435                      .dwattr $C$DW$901, DW_AT_accessibility(DW_ACCESS_public)
    8436              $C$DW$902       .dwtag  DW_TAG_member
    8437                      .dwattr $C$DW$902, DW_AT_type(*$C$DW$T$19)
    8438                      .dwattr $C$DW$902, DW_AT_name("epDescRegSAddr")
    8439                      .dwattr $C$DW$902, DW_AT_TI_symbol_name("_epDescRegSAddr")
    8440                      .dwattr $C$DW$902, DW_AT_data_member_location[DW_OP_plus_uconst 0x8]
    8441                      .dwattr $C$DW$902, DW_AT_accessibility(DW_ACCESS_public)
    8442              $C$DW$903       .dwtag  DW_TAG_member
    8443                      .dwattr $C$DW$903, DW_AT_type(*$C$DW$T$19)
    8444                      .dwattr $C$DW$903, DW_AT_name("dmaRegSAddr")
    8445                      .dwattr $C$DW$903, DW_AT_TI_symbol_name("_dmaRegSAddr")
    8446                      .dwattr $C$DW$903, DW_AT_data_member_location[DW_OP_plus_uconst 0x9]
    8447                      .dwattr $C$DW$903, DW_AT_accessibility(DW_ACCESS_public)
    8448              $C$DW$904       .dwtag  DW_TAG_member
    8449                      .dwattr $C$DW$904, DW_AT_type(*$C$DW$T$19)
    8450                      .dwattr $C$DW$904, DW_AT_name("totByteCnt")
    8451                      .dwattr $C$DW$904, DW_AT_TI_symbol_name("_totByteCnt")
    8452                      .dwattr $C$DW$904, DW_AT_data_member_location[DW_OP_plus_uconst 0xa]
TMS320C55x Assembler PC v4.4.1 Sat Sep 29 23:08:33 2018

Tools Copyright (c) 1996-2012 Texas Instruments Incorporated
csl_usb_poll_example.asm                                             PAGE  194

    8453                      .dwattr $C$DW$904, DW_AT_accessibility(DW_ACCESS_public)
    8454              $C$DW$905       .dwtag  DW_TAG_member
    8455                      .dwattr $C$DW$905, DW_AT_type(*$C$DW$T$19)
    8456                      .dwattr $C$DW$905, DW_AT_name("byteInThisSeg")
    8457                      .dwattr $C$DW$905, DW_AT_TI_symbol_name("_byteInThisSeg")
    8458                      .dwattr $C$DW$905, DW_AT_data_member_location[DW_OP_plus_uconst 0xb]
    8459                      .dwattr $C$DW$905, DW_AT_accessibility(DW_ACCESS_public)
    8460              $C$DW$906       .dwtag  DW_TAG_member
    8461                      .dwattr $C$DW$906, DW_AT_type(*$C$DW$T$112)
    8462                      .dwattr $C$DW$906, DW_AT_name("xferBytCnt")
    8463                      .dwattr $C$DW$906, DW_AT_TI_symbol_name("_xferBytCnt")
    8464                      .dwattr $C$DW$906, DW_AT_data_member_location[DW_OP_plus_uconst 0xc]
    8465                      .dwattr $C$DW$906, DW_AT_accessibility(DW_ACCESS_public)
    8466              $C$DW$907       .dwtag  DW_TAG_member
    8467                      .dwattr $C$DW$907, DW_AT_type(*$C$DW$T$112)
    8468                      .dwattr $C$DW$907, DW_AT_name("pBuffer")
    8469                      .dwattr $C$DW$907, DW_AT_TI_symbol_name("_pBuffer")
    8470                      .dwattr $C$DW$907, DW_AT_data_member_location[DW_OP_plus_uconst 0xe]
    8471                      .dwattr $C$DW$907, DW_AT_accessibility(DW_ACCESS_public)
    8472              $C$DW$908       .dwtag  DW_TAG_member
    8473                      .dwattr $C$DW$908, DW_AT_type(*$C$DW$T$129)
    8474                      .dwattr $C$DW$908, DW_AT_name("pNextBuffer")
    8475                      .dwattr $C$DW$908, DW_AT_TI_symbol_name("_pNextBuffer")
    8476                      .dwattr $C$DW$908, DW_AT_data_member_location[DW_OP_plus_uconst 0x10]
    8477                      .dwattr $C$DW$908, DW_AT_accessibility(DW_ACCESS_public)
    8478              $C$DW$909       .dwtag  DW_TAG_member
    8479                      .dwattr $C$DW$909, DW_AT_type(*$C$DW$T$19)
    8480                      .dwattr $C$DW$909, DW_AT_name("eventFlag")
    8481                      .dwattr $C$DW$909, DW_AT_TI_symbol_name("_eventFlag")
    8482                      .dwattr $C$DW$909, DW_AT_data_member_location[DW_OP_plus_uconst 0x12]
    8483                      .dwattr $C$DW$909, DW_AT_accessibility(DW_ACCESS_public)
    8484                      .dwendtag $C$DW$T$130
    8485              
    8486              $C$DW$T$114     .dwtag  DW_TAG_typedef, DW_AT_name("CSL_UsbEpObj")
    8487                      .dwattr $C$DW$T$114, DW_AT_type(*$C$DW$T$130)
    8488                      .dwattr $C$DW$T$114, DW_AT_language(DW_LANG_C)
    8489              $C$DW$T$115     .dwtag  DW_TAG_pointer_type
    8490                      .dwattr $C$DW$T$115, DW_AT_type(*$C$DW$T$114)
    8491                      .dwattr $C$DW$T$115, DW_AT_address_class(0x17)
    8492              $C$DW$T$116     .dwtag  DW_TAG_typedef, DW_AT_name("pUsbEpHandle")
    8493                      .dwattr $C$DW$T$116, DW_AT_type(*$C$DW$T$115)
    8494                      .dwattr $C$DW$T$116, DW_AT_language(DW_LANG_C)
    8495              
    8496              $C$DW$T$117     .dwtag  DW_TAG_array_type
    8497                      .dwattr $C$DW$T$117, DW_AT_type(*$C$DW$T$116)
    8498                      .dwattr $C$DW$T$117, DW_AT_language(DW_LANG_C)
    8499                      .dwattr $C$DW$T$117, DW_AT_byte_size(0x10)
    8500              $C$DW$910       .dwtag  DW_TAG_subrange_type
    8501                      .dwattr $C$DW$910, DW_AT_upper_bound(0x07)
    8502                      .dwendtag $C$DW$T$117
    8503              
    8504              $C$DW$T$170     .dwtag  DW_TAG_pointer_type
    8505                      .dwattr $C$DW$T$170, DW_AT_type(*$C$DW$T$116)
    8506                      .dwattr $C$DW$T$170, DW_AT_address_class(0x17)
    8507              
TMS320C55x Assembler PC v4.4.1 Sat Sep 29 23:08:33 2018

Tools Copyright (c) 1996-2012 Texas Instruments Incorporated
csl_usb_poll_example.asm                                             PAGE  195

    8508              $C$DW$T$133     .dwtag  DW_TAG_structure_type
    8509                      .dwattr $C$DW$T$133, DW_AT_name("CSL_UsbEpStatus")
    8510                      .dwattr $C$DW$T$133, DW_AT_byte_size(0x12)
    8511              $C$DW$911       .dwtag  DW_TAG_member
    8512                      .dwattr $C$DW$911, DW_AT_type(*$C$DW$T$98)
    8513                      .dwattr $C$DW$911, DW_AT_name("dwEndpoint")
    8514                      .dwattr $C$DW$911, DW_AT_TI_symbol_name("_dwEndpoint")
    8515                      .dwattr $C$DW$911, DW_AT_data_member_location[DW_OP_plus_uconst 0x0]
    8516                      .dwattr $C$DW$911, DW_AT_accessibility(DW_ACCESS_public)
    8517              $C$DW$912       .dwtag  DW_TAG_member
    8518                      .dwattr $C$DW$912, DW_AT_type(*$C$DW$T$124)
    8519                      .dwattr $C$DW$912, DW_AT_name("xferType")
    8520                      .dwattr $C$DW$912, DW_AT_TI_symbol_name("_xferType")
    8521                      .dwattr $C$DW$912, DW_AT_data_member_location[DW_OP_plus_uconst 0x2]
    8522                      .dwattr $C$DW$912, DW_AT_accessibility(DW_ACCESS_public)
    8523              $C$DW$913       .dwtag  DW_TAG_member
    8524                      .dwattr $C$DW$913, DW_AT_type(*$C$DW$T$98)
    8525                      .dwattr $C$DW$913, DW_AT_name("dwPacketSizeAssigned")
    8526                      .dwattr $C$DW$913, DW_AT_TI_symbol_name("_dwPacketSizeAssigned")
    8527                      .dwattr $C$DW$913, DW_AT_data_member_location[DW_OP_plus_uconst 0x4]
    8528                      .dwattr $C$DW$913, DW_AT_accessibility(DW_ACCESS_public)
    8529              $C$DW$914       .dwtag  DW_TAG_member
    8530                      .dwattr $C$DW$914, DW_AT_type(*$C$DW$T$95)
    8531                      .dwattr $C$DW$914, DW_AT_name("fInitialized")
    8532                      .dwattr $C$DW$914, DW_AT_TI_symbol_name("_fInitialized")
    8533                      .dwattr $C$DW$914, DW_AT_data_member_location[DW_OP_plus_uconst 0x6]
    8534                      .dwattr $C$DW$914, DW_AT_accessibility(DW_ACCESS_public)
    8535              $C$DW$915       .dwtag  DW_TAG_member
    8536                      .dwattr $C$DW$915, DW_AT_type(*$C$DW$T$99)
    8537                      .dwattr $C$DW$915, DW_AT_name("pFifoAddr")
    8538                      .dwattr $C$DW$915, DW_AT_TI_symbol_name("_pFifoAddr")
    8539                      .dwattr $C$DW$915, DW_AT_data_member_location[DW_OP_plus_uconst 0x8]
    8540                      .dwattr $C$DW$915, DW_AT_accessibility(DW_ACCESS_public)
    8541              $C$DW$916       .dwtag  DW_TAG_member
    8542                      .dwattr $C$DW$916, DW_AT_type(*$C$DW$T$132)
    8543                      .dwattr $C$DW$916, DW_AT_name("pTransfer")
    8544                      .dwattr $C$DW$916, DW_AT_TI_symbol_name("_pTransfer")
    8545                      .dwattr $C$DW$916, DW_AT_data_member_location[DW_OP_plus_uconst 0xa]
    8546                      .dwattr $C$DW$916, DW_AT_accessibility(DW_ACCESS_public)
    8547              $C$DW$917       .dwtag  DW_TAG_member
    8548                      .dwattr $C$DW$917, DW_AT_type(*$C$DW$T$94)
    8549                      .dwattr $C$DW$917, DW_AT_name("wUSBEvents")
    8550                      .dwattr $C$DW$917, DW_AT_TI_symbol_name("_wUSBEvents")
    8551                      .dwattr $C$DW$917, DW_AT_data_member_location[DW_OP_plus_uconst 0xc]
    8552                      .dwattr $C$DW$917, DW_AT_accessibility(DW_ACCESS_public)
    8553              $C$DW$918       .dwtag  DW_TAG_member
    8554                      .dwattr $C$DW$918, DW_AT_type(*$C$DW$T$94)
    8555                      .dwattr $C$DW$918, DW_AT_name("dataReadFromFifo")
    8556                      .dwattr $C$DW$918, DW_AT_TI_symbol_name("_dataReadFromFifo")
    8557                      .dwattr $C$DW$918, DW_AT_data_member_location[DW_OP_plus_uconst 0xd]
    8558                      .dwattr $C$DW$918, DW_AT_accessibility(DW_ACCESS_public)
    8559              $C$DW$919       .dwtag  DW_TAG_member
    8560                      .dwattr $C$DW$919, DW_AT_type(*$C$DW$T$127)
    8561                      .dwattr $C$DW$919, DW_AT_name("hEventHandler")
    8562                      .dwattr $C$DW$919, DW_AT_TI_symbol_name("_hEventHandler")
TMS320C55x Assembler PC v4.4.1 Sat Sep 29 23:08:33 2018

Tools Copyright (c) 1996-2012 Texas Instruments Incorporated
csl_usb_poll_example.asm                                             PAGE  196

    8563                      .dwattr $C$DW$919, DW_AT_data_member_location[DW_OP_plus_uconst 0xe]
    8564                      .dwattr $C$DW$919, DW_AT_accessibility(DW_ACCESS_public)
    8565              $C$DW$920       .dwtag  DW_TAG_member
    8566                      .dwattr $C$DW$920, DW_AT_type(*$C$DW$T$95)
    8567                      .dwattr $C$DW$920, DW_AT_name("fStalled")
    8568                      .dwattr $C$DW$920, DW_AT_TI_symbol_name("_fStalled")
    8569                      .dwattr $C$DW$920, DW_AT_data_member_location[DW_OP_plus_uconst 0x10]
    8570                      .dwattr $C$DW$920, DW_AT_accessibility(DW_ACCESS_public)
    8571              $C$DW$921       .dwtag  DW_TAG_member
    8572                      .dwattr $C$DW$921, DW_AT_type(*$C$DW$T$95)
    8573                      .dwattr $C$DW$921, DW_AT_name("fSelected")
    8574                      .dwattr $C$DW$921, DW_AT_TI_symbol_name("_fSelected")
    8575                      .dwattr $C$DW$921, DW_AT_data_member_location[DW_OP_plus_uconst 0x11]
    8576                      .dwattr $C$DW$921, DW_AT_accessibility(DW_ACCESS_public)
    8577                      .dwendtag $C$DW$T$133
    8578              
    8579              $C$DW$T$103     .dwtag  DW_TAG_typedef, DW_AT_name("CSL_UsbEpStatus")
    8580                      .dwattr $C$DW$T$103, DW_AT_type(*$C$DW$T$133)
    8581                      .dwattr $C$DW$T$103, DW_AT_language(DW_LANG_C)
    8582              $C$DW$T$104     .dwtag  DW_TAG_pointer_type
    8583                      .dwattr $C$DW$T$104, DW_AT_type(*$C$DW$T$103)
    8584                      .dwattr $C$DW$T$104, DW_AT_address_class(0x17)
    8585              $C$DW$T$171     .dwtag  DW_TAG_typedef, DW_AT_name("pUsbEpStatus")
    8586                      .dwattr $C$DW$T$171, DW_AT_type(*$C$DW$T$104)
    8587                      .dwattr $C$DW$T$171, DW_AT_language(DW_LANG_C)
    8588              
    8589              $C$DW$T$134     .dwtag  DW_TAG_structure_type
    8590                      .dwattr $C$DW$T$134, DW_AT_name("CSL_UsbSetupStruct")
    8591                      .dwattr $C$DW$T$134, DW_AT_byte_size(0x06)
    8592              $C$DW$922       .dwtag  DW_TAG_member
    8593                      .dwattr $C$DW$922, DW_AT_type(*$C$DW$T$10)
    8594                      .dwattr $C$DW$922, DW_AT_name("newPacket")
    8595                      .dwattr $C$DW$922, DW_AT_TI_symbol_name("_newPacket")
    8596                      .dwattr $C$DW$922, DW_AT_data_member_location[DW_OP_plus_uconst 0x0]
    8597                      .dwattr $C$DW$922, DW_AT_accessibility(DW_ACCESS_public)
    8598              $C$DW$923       .dwtag  DW_TAG_member
    8599                      .dwattr $C$DW$923, DW_AT_type(*$C$DW$T$19)
    8600                      .dwattr $C$DW$923, DW_AT_name("bmRequestType")
    8601                      .dwattr $C$DW$923, DW_AT_TI_symbol_name("_bmRequestType")
    8602                      .dwattr $C$DW$923, DW_AT_data_member_location[DW_OP_plus_uconst 0x1]
    8603                      .dwattr $C$DW$923, DW_AT_accessibility(DW_ACCESS_public)
    8604              $C$DW$924       .dwtag  DW_TAG_member
    8605                      .dwattr $C$DW$924, DW_AT_type(*$C$DW$T$19)
    8606                      .dwattr $C$DW$924, DW_AT_name("bRequest")
    8607                      .dwattr $C$DW$924, DW_AT_TI_symbol_name("_bRequest")
    8608                      .dwattr $C$DW$924, DW_AT_data_member_location[DW_OP_plus_uconst 0x2]
    8609                      .dwattr $C$DW$924, DW_AT_accessibility(DW_ACCESS_public)
    8610              $C$DW$925       .dwtag  DW_TAG_member
    8611                      .dwattr $C$DW$925, DW_AT_type(*$C$DW$T$19)
    8612                      .dwattr $C$DW$925, DW_AT_name("wValue")
    8613                      .dwattr $C$DW$925, DW_AT_TI_symbol_name("_wValue")
    8614                      .dwattr $C$DW$925, DW_AT_data_member_location[DW_OP_plus_uconst 0x3]
    8615                      .dwattr $C$DW$925, DW_AT_accessibility(DW_ACCESS_public)
    8616              $C$DW$926       .dwtag  DW_TAG_member
    8617                      .dwattr $C$DW$926, DW_AT_type(*$C$DW$T$19)
TMS320C55x Assembler PC v4.4.1 Sat Sep 29 23:08:33 2018

Tools Copyright (c) 1996-2012 Texas Instruments Incorporated
csl_usb_poll_example.asm                                             PAGE  197

    8618                      .dwattr $C$DW$926, DW_AT_name("wIndex")
    8619                      .dwattr $C$DW$926, DW_AT_TI_symbol_name("_wIndex")
    8620                      .dwattr $C$DW$926, DW_AT_data_member_location[DW_OP_plus_uconst 0x4]
    8621                      .dwattr $C$DW$926, DW_AT_accessibility(DW_ACCESS_public)
    8622              $C$DW$927       .dwtag  DW_TAG_member
    8623                      .dwattr $C$DW$927, DW_AT_type(*$C$DW$T$19)
    8624                      .dwattr $C$DW$927, DW_AT_name("wLength")
    8625                      .dwattr $C$DW$927, DW_AT_TI_symbol_name("_wLength")
    8626                      .dwattr $C$DW$927, DW_AT_data_member_location[DW_OP_plus_uconst 0x5]
    8627                      .dwattr $C$DW$927, DW_AT_accessibility(DW_ACCESS_public)
    8628                      .dwendtag $C$DW$T$134
    8629              
    8630              $C$DW$T$111     .dwtag  DW_TAG_typedef, DW_AT_name("CSL_UsbSetupStruct")
    8631                      .dwattr $C$DW$T$111, DW_AT_type(*$C$DW$T$134)
    8632                      .dwattr $C$DW$T$111, DW_AT_language(DW_LANG_C)
    8633              $C$DW$T$172     .dwtag  DW_TAG_pointer_type
    8634                      .dwattr $C$DW$T$172, DW_AT_type(*$C$DW$T$111)
    8635                      .dwattr $C$DW$T$172, DW_AT_address_class(0x17)
    8636              
    8637              $C$DW$T$137     .dwtag  DW_TAG_structure_type
    8638                      .dwattr $C$DW$T$137, DW_AT_name("CSL_UsbTransfer")
    8639                      .dwattr $C$DW$T$137, DW_AT_byte_size(0x0e)
    8640              $C$DW$928       .dwtag  DW_TAG_member
    8641                      .dwattr $C$DW$928, DW_AT_type(*$C$DW$T$98)
    8642                      .dwattr $C$DW$928, DW_AT_name("dwFlags")
    8643                      .dwattr $C$DW$928, DW_AT_TI_symbol_name("_dwFlags")
    8644                      .dwattr $C$DW$928, DW_AT_data_member_location[DW_OP_plus_uconst 0x0]
    8645                      .dwattr $C$DW$928, DW_AT_accessibility(DW_ACCESS_public)
    8646              $C$DW$929       .dwtag  DW_TAG_member
    8647                      .dwattr $C$DW$929, DW_AT_type(*$C$DW$T$98)
    8648                      .dwattr $C$DW$929, DW_AT_name("dwEndpoint")
    8649                      .dwattr $C$DW$929, DW_AT_TI_symbol_name("_dwEndpoint")
    8650                      .dwattr $C$DW$929, DW_AT_data_member_location[DW_OP_plus_uconst 0x2]
    8651                      .dwattr $C$DW$929, DW_AT_accessibility(DW_ACCESS_public)
    8652              $C$DW$930       .dwtag  DW_TAG_member
    8653                      .dwattr $C$DW$930, DW_AT_type(*$C$DW$T$135)
    8654                      .dwattr $C$DW$930, DW_AT_name("pvBuffer")
    8655                      .dwattr $C$DW$930, DW_AT_TI_symbol_name("_pvBuffer")
    8656                      .dwattr $C$DW$930, DW_AT_data_member_location[DW_OP_plus_uconst 0x4]
    8657                      .dwattr $C$DW$930, DW_AT_accessibility(DW_ACCESS_public)
    8658              $C$DW$931       .dwtag  DW_TAG_member
    8659                      .dwattr $C$DW$931, DW_AT_type(*$C$DW$T$98)
    8660                      .dwattr $C$DW$931, DW_AT_name("cbBuffer")
    8661                      .dwattr $C$DW$931, DW_AT_TI_symbol_name("_cbBuffer")
    8662                      .dwattr $C$DW$931, DW_AT_data_member_location[DW_OP_plus_uconst 0x6]
    8663                      .dwattr $C$DW$931, DW_AT_accessibility(DW_ACCESS_public)
    8664              $C$DW$932       .dwtag  DW_TAG_member
    8665                      .dwattr $C$DW$932, DW_AT_type(*$C$DW$T$98)
    8666                      .dwattr $C$DW$932, DW_AT_name("cbTransferred")
    8667                      .dwattr $C$DW$932, DW_AT_TI_symbol_name("_cbTransferred")
    8668                      .dwattr $C$DW$932, DW_AT_data_member_location[DW_OP_plus_uconst 0x8]
    8669                      .dwattr $C$DW$932, DW_AT_accessibility(DW_ACCESS_public)
    8670              $C$DW$933       .dwtag  DW_TAG_member
    8671                      .dwattr $C$DW$933, DW_AT_type(*$C$DW$T$98)
    8672                      .dwattr $C$DW$933, DW_AT_name("prevTxferLen")
TMS320C55x Assembler PC v4.4.1 Sat Sep 29 23:08:33 2018

Tools Copyright (c) 1996-2012 Texas Instruments Incorporated
csl_usb_poll_example.asm                                             PAGE  198

    8673                      .dwattr $C$DW$933, DW_AT_TI_symbol_name("_prevTxferLen")
    8674                      .dwattr $C$DW$933, DW_AT_data_member_location[DW_OP_plus_uconst 0xa]
    8675                      .dwattr $C$DW$933, DW_AT_accessibility(DW_ACCESS_public)
    8676              $C$DW$934       .dwtag  DW_TAG_member
    8677                      .dwattr $C$DW$934, DW_AT_type(*$C$DW$T$95)
    8678                      .dwattr $C$DW$934, DW_AT_name("fComplete")
    8679                      .dwattr $C$DW$934, DW_AT_TI_symbol_name("_fComplete")
    8680                      .dwattr $C$DW$934, DW_AT_data_member_location[DW_OP_plus_uconst 0xc]
    8681                      .dwattr $C$DW$934, DW_AT_accessibility(DW_ACCESS_public)
    8682              $C$DW$935       .dwtag  DW_TAG_member
    8683                      .dwattr $C$DW$935, DW_AT_type(*$C$DW$T$136)
    8684                      .dwattr $C$DW$935, DW_AT_name("ioFlags")
    8685                      .dwattr $C$DW$935, DW_AT_TI_symbol_name("_ioFlags")
    8686                      .dwattr $C$DW$935, DW_AT_data_member_location[DW_OP_plus_uconst 0xd]
    8687                      .dwattr $C$DW$935, DW_AT_accessibility(DW_ACCESS_public)
    8688                      .dwendtag $C$DW$T$137
    8689              
    8690              $C$DW$T$131     .dwtag  DW_TAG_typedef, DW_AT_name("CSL_UsbTransfer")
    8691                      .dwattr $C$DW$T$131, DW_AT_type(*$C$DW$T$137)
    8692                      .dwattr $C$DW$T$131, DW_AT_language(DW_LANG_C)
    8693              $C$DW$T$132     .dwtag  DW_TAG_pointer_type
    8694                      .dwattr $C$DW$T$132, DW_AT_type(*$C$DW$T$131)
    8695                      .dwattr $C$DW$T$132, DW_AT_address_class(0x17)
    8696              $C$DW$T$173     .dwtag  DW_TAG_typedef, DW_AT_name("pUsbTransfer")
    8697                      .dwattr $C$DW$T$173, DW_AT_type(*$C$DW$T$132)
    8698                      .dwattr $C$DW$T$173, DW_AT_language(DW_LANG_C)
    8699              $C$DW$T$3       .dwtag  DW_TAG_pointer_type
    8700                      .dwattr $C$DW$T$3, DW_AT_address_class(0x17)
    8701              $C$DW$T$135     .dwtag  DW_TAG_typedef, DW_AT_name("PVOID")
    8702                      .dwattr $C$DW$T$135, DW_AT_type(*$C$DW$T$3)
    8703                      .dwattr $C$DW$T$135, DW_AT_language(DW_LANG_C)
    8704              
    8705              $C$DW$T$85      .dwtag  DW_TAG_subroutine_type
    8706                      .dwattr $C$DW$T$85, DW_AT_language(DW_LANG_C)
    8707              $C$DW$936       .dwtag  DW_TAG_formal_parameter
    8708                      .dwattr $C$DW$936, DW_AT_type(*$C$DW$T$19)
    8709                      .dwendtag $C$DW$T$85
    8710              
    8711              $C$DW$T$86      .dwtag  DW_TAG_pointer_type
    8712                      .dwattr $C$DW$T$86, DW_AT_type(*$C$DW$T$85)
    8713                      .dwattr $C$DW$T$86, DW_AT_address_class(0x20)
    8714              $C$DW$T$87      .dwtag  DW_TAG_typedef, DW_AT_name("CSL_USB_APP_CALLBACK")
    8715                      .dwattr $C$DW$T$87, DW_AT_type(*$C$DW$T$86)
    8716                      .dwattr $C$DW$T$87, DW_AT_language(DW_LANG_C)
    8717              
    8718              $C$DW$T$125     .dwtag  DW_TAG_subroutine_type
    8719                      .dwattr $C$DW$T$125, DW_AT_language(DW_LANG_C)
    8720              $C$DW$T$126     .dwtag  DW_TAG_pointer_type
    8721                      .dwattr $C$DW$T$126, DW_AT_type(*$C$DW$T$125)
    8722                      .dwattr $C$DW$T$126, DW_AT_address_class(0x20)
    8723              $C$DW$T$127     .dwtag  DW_TAG_typedef, DW_AT_name("CSL_USB_EVENT_ISR")
    8724                      .dwattr $C$DW$T$127, DW_AT_type(*$C$DW$T$126)
    8725                      .dwattr $C$DW$T$127, DW_AT_language(DW_LANG_C)
    8726              $C$DW$937       .dwtag  DW_TAG_TI_far_type
    8727              $C$DW$T$174     .dwtag  DW_TAG_const_type
TMS320C55x Assembler PC v4.4.1 Sat Sep 29 23:08:33 2018

Tools Copyright (c) 1996-2012 Texas Instruments Incorporated
csl_usb_poll_example.asm                                             PAGE  199

    8728                      .dwattr $C$DW$T$174, DW_AT_type(*$C$DW$937)
    8729              $C$DW$T$175     .dwtag  DW_TAG_pointer_type
    8730                      .dwattr $C$DW$T$175, DW_AT_type(*$C$DW$T$174)
    8731                      .dwattr $C$DW$T$175, DW_AT_address_class(0x17)
    8732              
    8733              $C$DW$T$177     .dwtag  DW_TAG_subroutine_type
    8734                      .dwattr $C$DW$T$177, DW_AT_language(DW_LANG_C)
    8735              $C$DW$T$178     .dwtag  DW_TAG_pointer_type
    8736                      .dwattr $C$DW$T$178, DW_AT_type(*$C$DW$T$177)
    8737                      .dwattr $C$DW$T$178, DW_AT_address_class(0x20)
    8738              $C$DW$T$179     .dwtag  DW_TAG_typedef, DW_AT_name("IRQ_IsrPtr")
    8739                      .dwattr $C$DW$T$179, DW_AT_type(*$C$DW$T$178)
    8740                      .dwattr $C$DW$T$179, DW_AT_language(DW_LANG_C)
    8741              $C$DW$T$4       .dwtag  DW_TAG_base_type
    8742                      .dwattr $C$DW$T$4, DW_AT_encoding(DW_ATE_boolean)
    8743                      .dwattr $C$DW$T$4, DW_AT_name("bool")
    8744                      .dwattr $C$DW$T$4, DW_AT_byte_size(0x01)
    8745              $C$DW$T$5       .dwtag  DW_TAG_base_type
    8746                      .dwattr $C$DW$T$5, DW_AT_encoding(DW_ATE_signed_char)
    8747                      .dwattr $C$DW$T$5, DW_AT_name("signed char")
    8748                      .dwattr $C$DW$T$5, DW_AT_byte_size(0x01)
    8749              $C$DW$T$6       .dwtag  DW_TAG_base_type
    8750                      .dwattr $C$DW$T$6, DW_AT_encoding(DW_ATE_unsigned_char)
    8751                      .dwattr $C$DW$T$6, DW_AT_name("unsigned char")
    8752                      .dwattr $C$DW$T$6, DW_AT_byte_size(0x01)
    8753              $C$DW$T$7       .dwtag  DW_TAG_base_type
    8754                      .dwattr $C$DW$T$7, DW_AT_encoding(DW_ATE_signed_char)
    8755                      .dwattr $C$DW$T$7, DW_AT_name("wchar_t")
    8756                      .dwattr $C$DW$T$7, DW_AT_byte_size(0x01)
    8757              $C$DW$T$8       .dwtag  DW_TAG_base_type
    8758                      .dwattr $C$DW$T$8, DW_AT_encoding(DW_ATE_signed)
    8759                      .dwattr $C$DW$T$8, DW_AT_name("short")
    8760                      .dwattr $C$DW$T$8, DW_AT_byte_size(0x01)
    8761              $C$DW$T$88      .dwtag  DW_TAG_typedef, DW_AT_name("Int16")
    8762                      .dwattr $C$DW$T$88, DW_AT_type(*$C$DW$T$8)
    8763                      .dwattr $C$DW$T$88, DW_AT_language(DW_LANG_C)
    8764              $C$DW$T$89      .dwtag  DW_TAG_typedef, DW_AT_name("CSL_Status")
    8765                      .dwattr $C$DW$T$89, DW_AT_type(*$C$DW$T$88)
    8766                      .dwattr $C$DW$T$89, DW_AT_language(DW_LANG_C)
    8767              
    8768              $C$DW$T$90      .dwtag  DW_TAG_subroutine_type
    8769                      .dwattr $C$DW$T$90, DW_AT_type(*$C$DW$T$89)
    8770                      .dwattr $C$DW$T$90, DW_AT_language(DW_LANG_C)
    8771              $C$DW$938       .dwtag  DW_TAG_formal_parameter
    8772                      .dwattr $C$DW$938, DW_AT_type(*$C$DW$T$3)
    8773              $C$DW$939       .dwtag  DW_TAG_formal_parameter
    8774                      .dwattr $C$DW$939, DW_AT_type(*$C$DW$T$3)
    8775                      .dwendtag $C$DW$T$90
    8776              
    8777              $C$DW$T$91      .dwtag  DW_TAG_pointer_type
    8778                      .dwattr $C$DW$T$91, DW_AT_type(*$C$DW$T$90)
    8779                      .dwattr $C$DW$T$91, DW_AT_address_class(0x20)
    8780              $C$DW$T$92      .dwtag  DW_TAG_typedef, DW_AT_name("CSL_USB_APP_TRANSFER_CALLBACK")
    8781                      .dwattr $C$DW$T$92, DW_AT_type(*$C$DW$T$91)
    8782                      .dwattr $C$DW$T$92, DW_AT_language(DW_LANG_C)
TMS320C55x Assembler PC v4.4.1 Sat Sep 29 23:08:33 2018

Tools Copyright (c) 1996-2012 Texas Instruments Incorporated
csl_usb_poll_example.asm                                             PAGE  200

    8783              $C$DW$T$138     .dwtag  DW_TAG_pointer_type
    8784                      .dwattr $C$DW$T$138, DW_AT_type(*$C$DW$T$89)
    8785                      .dwattr $C$DW$T$138, DW_AT_address_class(0x17)
    8786              $C$DW$940       .dwtag  DW_TAG_TI_far_type
    8787                      .dwattr $C$DW$940, DW_AT_type(*$C$DW$T$88)
    8788              $C$DW$T$235     .dwtag  DW_TAG_volatile_type
    8789                      .dwattr $C$DW$T$235, DW_AT_type(*$C$DW$940)
    8790              $C$DW$T$9       .dwtag  DW_TAG_base_type
    8791                      .dwattr $C$DW$T$9, DW_AT_encoding(DW_ATE_unsigned)
    8792                      .dwattr $C$DW$T$9, DW_AT_name("unsigned short")
    8793                      .dwattr $C$DW$T$9, DW_AT_byte_size(0x01)
    8794              $C$DW$T$19      .dwtag  DW_TAG_typedef, DW_AT_name("Uint16")
    8795                      .dwattr $C$DW$T$19, DW_AT_type(*$C$DW$T$9)
    8796                      .dwattr $C$DW$T$19, DW_AT_language(DW_LANG_C)
    8797              $C$DW$T$236     .dwtag  DW_TAG_typedef, DW_AT_name("CSL_UsbByteCount")
    8798                      .dwattr $C$DW$T$236, DW_AT_type(*$C$DW$T$19)
    8799                      .dwattr $C$DW$T$236, DW_AT_language(DW_LANG_C)
    8800              $C$DW$T$136     .dwtag  DW_TAG_typedef, DW_AT_name("CSL_UsbIoFlags")
    8801                      .dwattr $C$DW$T$136, DW_AT_type(*$C$DW$T$19)
    8802                      .dwattr $C$DW$T$136, DW_AT_language(DW_LANG_C)
    8803              $C$DW$941       .dwtag  DW_TAG_TI_far_type
    8804                      .dwattr $C$DW$941, DW_AT_type(*$C$DW$T$19)
    8805              $C$DW$T$20      .dwtag  DW_TAG_volatile_type
    8806                      .dwattr $C$DW$T$20, DW_AT_type(*$C$DW$941)
    8807              
    8808              $C$DW$T$21      .dwtag  DW_TAG_array_type
    8809                      .dwattr $C$DW$T$21, DW_AT_type(*$C$DW$T$20)
    8810                      .dwattr $C$DW$T$21, DW_AT_language(DW_LANG_C)
    8811                      .dwattr $C$DW$T$21, DW_AT_byte_size(0x04)
    8812              $C$DW$942       .dwtag  DW_TAG_subrange_type
    8813                      .dwattr $C$DW$942, DW_AT_upper_bound(0x03)
    8814                      .dwendtag $C$DW$T$21
    8815              
    8816              
    8817              $C$DW$T$22      .dwtag  DW_TAG_array_type
    8818                      .dwattr $C$DW$T$22, DW_AT_type(*$C$DW$T$20)
    8819                      .dwattr $C$DW$T$22, DW_AT_language(DW_LANG_C)
    8820                      .dwattr $C$DW$T$22, DW_AT_byte_size(0x0d)
    8821              $C$DW$943       .dwtag  DW_TAG_subrange_type
    8822                      .dwattr $C$DW$943, DW_AT_upper_bound(0x0c)
    8823                      .dwendtag $C$DW$T$22
    8824              
    8825              
    8826              $C$DW$T$36      .dwtag  DW_TAG_array_type
    8827                      .dwattr $C$DW$T$36, DW_AT_type(*$C$DW$T$20)
    8828                      .dwattr $C$DW$T$36, DW_AT_language(DW_LANG_C)
    8829                      .dwattr $C$DW$T$36, DW_AT_byte_size(0x02)
    8830              $C$DW$944       .dwtag  DW_TAG_subrange_type
    8831                      .dwattr $C$DW$944, DW_AT_upper_bound(0x01)
    8832                      .dwendtag $C$DW$T$36
    8833              
    8834              
    8835              $C$DW$T$38      .dwtag  DW_TAG_array_type
    8836                      .dwattr $C$DW$T$38, DW_AT_type(*$C$DW$T$20)
    8837                      .dwattr $C$DW$T$38, DW_AT_language(DW_LANG_C)
TMS320C55x Assembler PC v4.4.1 Sat Sep 29 23:08:33 2018

Tools Copyright (c) 1996-2012 Texas Instruments Incorporated
csl_usb_poll_example.asm                                             PAGE  201

    8838                      .dwattr $C$DW$T$38, DW_AT_byte_size(0x07)
    8839              $C$DW$945       .dwtag  DW_TAG_subrange_type
    8840                      .dwattr $C$DW$945, DW_AT_upper_bound(0x06)
    8841                      .dwendtag $C$DW$T$38
    8842              
    8843              
    8844              $C$DW$T$40      .dwtag  DW_TAG_array_type
    8845                      .dwattr $C$DW$T$40, DW_AT_type(*$C$DW$T$20)
    8846                      .dwattr $C$DW$T$40, DW_AT_language(DW_LANG_C)
    8847                      .dwattr $C$DW$T$40, DW_AT_byte_size(0x06)
    8848              $C$DW$946       .dwtag  DW_TAG_subrange_type
    8849                      .dwattr $C$DW$946, DW_AT_upper_bound(0x05)
    8850                      .dwendtag $C$DW$T$40
    8851              
    8852              
    8853              $C$DW$T$41      .dwtag  DW_TAG_array_type
    8854                      .dwattr $C$DW$T$41, DW_AT_type(*$C$DW$T$20)
    8855                      .dwattr $C$DW$T$41, DW_AT_language(DW_LANG_C)
    8856                      .dwattr $C$DW$T$41, DW_AT_byte_size(0x0e)
    8857              $C$DW$947       .dwtag  DW_TAG_subrange_type
    8858                      .dwattr $C$DW$947, DW_AT_upper_bound(0x0d)
    8859                      .dwendtag $C$DW$T$41
    8860              
    8861              
    8862              $C$DW$T$44      .dwtag  DW_TAG_array_type
    8863                      .dwattr $C$DW$T$44, DW_AT_type(*$C$DW$T$20)
    8864                      .dwattr $C$DW$T$44, DW_AT_language(DW_LANG_C)
    8865                      .dwattr $C$DW$T$44, DW_AT_byte_size(0x0a)
    8866              $C$DW$948       .dwtag  DW_TAG_subrange_type
    8867                      .dwattr $C$DW$948, DW_AT_upper_bound(0x09)
    8868                      .dwendtag $C$DW$T$44
    8869              
    8870              
    8871              $C$DW$T$46      .dwtag  DW_TAG_array_type
    8872                      .dwattr $C$DW$T$46, DW_AT_type(*$C$DW$T$20)
    8873                      .dwattr $C$DW$T$46, DW_AT_language(DW_LANG_C)
    8874                      .dwattr $C$DW$T$46, DW_AT_byte_size(0x0c)
    8875              $C$DW$949       .dwtag  DW_TAG_subrange_type
    8876                      .dwattr $C$DW$949, DW_AT_upper_bound(0x0b)
    8877                      .dwendtag $C$DW$T$46
    8878              
    8879              
    8880              $C$DW$T$48      .dwtag  DW_TAG_array_type
    8881                      .dwattr $C$DW$T$48, DW_AT_type(*$C$DW$T$20)
    8882                      .dwattr $C$DW$T$48, DW_AT_language(DW_LANG_C)
    8883                      .dwattr $C$DW$T$48, DW_AT_byte_size(0x03)
    8884              $C$DW$950       .dwtag  DW_TAG_subrange_type
    8885                      .dwattr $C$DW$950, DW_AT_upper_bound(0x02)
    8886                      .dwendtag $C$DW$T$48
    8887              
    8888              
    8889              $C$DW$T$50      .dwtag  DW_TAG_array_type
    8890                      .dwattr $C$DW$T$50, DW_AT_type(*$C$DW$T$20)
    8891                      .dwattr $C$DW$T$50, DW_AT_language(DW_LANG_C)
    8892                      .dwattr $C$DW$T$50, DW_AT_byte_size(0x3a3)
TMS320C55x Assembler PC v4.4.1 Sat Sep 29 23:08:33 2018

Tools Copyright (c) 1996-2012 Texas Instruments Incorporated
csl_usb_poll_example.asm                                             PAGE  202

    8893              $C$DW$951       .dwtag  DW_TAG_subrange_type
    8894                      .dwattr $C$DW$951, DW_AT_upper_bound(0x3a2)
    8895                      .dwendtag $C$DW$T$50
    8896              
    8897              
    8898              $C$DW$T$51      .dwtag  DW_TAG_array_type
    8899                      .dwattr $C$DW$T$51, DW_AT_type(*$C$DW$T$20)
    8900                      .dwattr $C$DW$T$51, DW_AT_language(DW_LANG_C)
    8901                      .dwattr $C$DW$T$51, DW_AT_byte_size(0x2e)
    8902              $C$DW$952       .dwtag  DW_TAG_subrange_type
    8903                      .dwattr $C$DW$952, DW_AT_upper_bound(0x2d)
    8904                      .dwendtag $C$DW$T$51
    8905              
    8906              
    8907              $C$DW$T$52      .dwtag  DW_TAG_array_type
    8908                      .dwattr $C$DW$T$52, DW_AT_type(*$C$DW$T$20)
    8909                      .dwattr $C$DW$T$52, DW_AT_language(DW_LANG_C)
    8910                      .dwattr $C$DW$T$52, DW_AT_byte_size(0x13)
    8911              $C$DW$953       .dwtag  DW_TAG_subrange_type
    8912                      .dwattr $C$DW$953, DW_AT_upper_bound(0x12)
    8913                      .dwendtag $C$DW$T$52
    8914              
    8915              
    8916              $C$DW$T$55      .dwtag  DW_TAG_array_type
    8917                      .dwattr $C$DW$T$55, DW_AT_type(*$C$DW$T$20)
    8918                      .dwattr $C$DW$T$55, DW_AT_language(DW_LANG_C)
    8919                      .dwattr $C$DW$T$55, DW_AT_byte_size(0x59)
    8920              $C$DW$954       .dwtag  DW_TAG_subrange_type
    8921                      .dwattr $C$DW$954, DW_AT_upper_bound(0x58)
    8922                      .dwendtag $C$DW$T$55
    8923              
    8924              
    8925              $C$DW$T$58      .dwtag  DW_TAG_array_type
    8926                      .dwattr $C$DW$T$58, DW_AT_type(*$C$DW$T$20)
    8927                      .dwattr $C$DW$T$58, DW_AT_language(DW_LANG_C)
    8928                      .dwattr $C$DW$T$58, DW_AT_byte_size(0xaaf)
    8929              $C$DW$955       .dwtag  DW_TAG_subrange_type
    8930                      .dwattr $C$DW$955, DW_AT_upper_bound(0xaae)
    8931                      .dwendtag $C$DW$T$58
    8932              
    8933              
    8934              $C$DW$T$59      .dwtag  DW_TAG_array_type
    8935                      .dwattr $C$DW$T$59, DW_AT_type(*$C$DW$T$20)
    8936                      .dwattr $C$DW$T$59, DW_AT_language(DW_LANG_C)
    8937                      .dwattr $C$DW$T$59, DW_AT_byte_size(0x7f7)
    8938              $C$DW$956       .dwtag  DW_TAG_subrange_type
    8939                      .dwattr $C$DW$956, DW_AT_upper_bound(0x7f6)
    8940                      .dwendtag $C$DW$T$59
    8941              
    8942              
    8943              $C$DW$T$62      .dwtag  DW_TAG_array_type
    8944                      .dwattr $C$DW$T$62, DW_AT_type(*$C$DW$T$20)
    8945                      .dwattr $C$DW$T$62, DW_AT_language(DW_LANG_C)
    8946                      .dwattr $C$DW$T$62, DW_AT_byte_size(0x780)
    8947              $C$DW$957       .dwtag  DW_TAG_subrange_type
TMS320C55x Assembler PC v4.4.1 Sat Sep 29 23:08:33 2018

Tools Copyright (c) 1996-2012 Texas Instruments Incorporated
csl_usb_poll_example.asm                                             PAGE  203

    8948                      .dwattr $C$DW$957, DW_AT_upper_bound(0x77f)
    8949                      .dwendtag $C$DW$T$62
    8950              
    8951              
    8952              $C$DW$T$63      .dwtag  DW_TAG_array_type
    8953                      .dwattr $C$DW$T$63, DW_AT_type(*$C$DW$T$20)
    8954                      .dwattr $C$DW$T$63, DW_AT_language(DW_LANG_C)
    8955                      .dwattr $C$DW$T$63, DW_AT_byte_size(0x7fe)
    8956              $C$DW$958       .dwtag  DW_TAG_subrange_type
    8957                      .dwattr $C$DW$958, DW_AT_upper_bound(0x7fd)
    8958                      .dwendtag $C$DW$T$63
    8959              
    8960              
    8961              $C$DW$T$66      .dwtag  DW_TAG_array_type
    8962                      .dwattr $C$DW$T$66, DW_AT_type(*$C$DW$T$20)
    8963                      .dwattr $C$DW$T$66, DW_AT_language(DW_LANG_C)
    8964                      .dwattr $C$DW$T$66, DW_AT_byte_size(0x1700)
    8965              $C$DW$959       .dwtag  DW_TAG_subrange_type
    8966                      .dwattr $C$DW$959, DW_AT_upper_bound(0x16ff)
    8967                      .dwendtag $C$DW$T$66
    8968              
    8969              
    8970              $C$DW$T$67      .dwtag  DW_TAG_array_type
    8971                      .dwattr $C$DW$T$67, DW_AT_type(*$C$DW$T$20)
    8972                      .dwattr $C$DW$T$67, DW_AT_language(DW_LANG_C)
    8973                      .dwattr $C$DW$T$67, DW_AT_byte_size(0x16)
    8974              $C$DW$960       .dwtag  DW_TAG_subrange_type
    8975                      .dwattr $C$DW$960, DW_AT_upper_bound(0x15)
    8976                      .dwendtag $C$DW$T$67
    8977              
    8978              
    8979              $C$DW$T$68      .dwtag  DW_TAG_array_type
    8980                      .dwattr $C$DW$T$68, DW_AT_type(*$C$DW$T$20)
    8981                      .dwattr $C$DW$T$68, DW_AT_language(DW_LANG_C)
    8982                      .dwattr $C$DW$T$68, DW_AT_byte_size(0x52)
    8983              $C$DW$961       .dwtag  DW_TAG_subrange_type
    8984                      .dwattr $C$DW$961, DW_AT_upper_bound(0x51)
    8985                      .dwendtag $C$DW$T$68
    8986              
    8987              
    8988              $C$DW$T$69      .dwtag  DW_TAG_array_type
    8989                      .dwattr $C$DW$T$69, DW_AT_type(*$C$DW$T$20)
    8990                      .dwattr $C$DW$T$69, DW_AT_language(DW_LANG_C)
    8991                      .dwattr $C$DW$T$69, DW_AT_byte_size(0xf66)
    8992              $C$DW$962       .dwtag  DW_TAG_subrange_type
    8993                      .dwattr $C$DW$962, DW_AT_upper_bound(0xf65)
    8994                      .dwendtag $C$DW$T$69
    8995              
    8996              
    8997              $C$DW$T$72      .dwtag  DW_TAG_array_type
    8998                      .dwattr $C$DW$T$72, DW_AT_type(*$C$DW$T$20)
    8999                      .dwattr $C$DW$T$72, DW_AT_language(DW_LANG_C)
    9000                      .dwattr $C$DW$T$72, DW_AT_byte_size(0xf00)
    9001              $C$DW$963       .dwtag  DW_TAG_subrange_type
    9002                      .dwattr $C$DW$963, DW_AT_upper_bound(0xeff)
TMS320C55x Assembler PC v4.4.1 Sat Sep 29 23:08:33 2018

Tools Copyright (c) 1996-2012 Texas Instruments Incorporated
csl_usb_poll_example.asm                                             PAGE  204

    9003                      .dwendtag $C$DW$T$72
    9004              
    9005              
    9006              $C$DW$T$75      .dwtag  DW_TAG_array_type
    9007                      .dwattr $C$DW$T$75, DW_AT_type(*$C$DW$T$20)
    9008                      .dwattr $C$DW$T$75, DW_AT_language(DW_LANG_C)
    9009                      .dwattr $C$DW$T$75, DW_AT_byte_size(0x400)
    9010              $C$DW$964       .dwtag  DW_TAG_subrange_type
    9011                      .dwattr $C$DW$964, DW_AT_upper_bound(0x3ff)
    9012                      .dwendtag $C$DW$T$75
    9013              
    9014              
    9015              $C$DW$T$79      .dwtag  DW_TAG_array_type
    9016                      .dwattr $C$DW$T$79, DW_AT_type(*$C$DW$T$20)
    9017                      .dwattr $C$DW$T$79, DW_AT_language(DW_LANG_C)
    9018                      .dwattr $C$DW$T$79, DW_AT_byte_size(0x05)
    9019              $C$DW$965       .dwtag  DW_TAG_subrange_type
    9020                      .dwattr $C$DW$965, DW_AT_upper_bound(0x04)
    9021                      .dwendtag $C$DW$T$79
    9022              
    9023              $C$DW$966       .dwtag  DW_TAG_TI_far_type
    9024                      .dwattr $C$DW$966, DW_AT_type(*$C$DW$T$19)
    9025              $C$DW$967       .dwtag  DW_TAG_TI_ioport_type
    9026                      .dwattr $C$DW$967, DW_AT_type(*$C$DW$966)
    9027              $C$DW$T$239     .dwtag  DW_TAG_volatile_type
    9028                      .dwattr $C$DW$T$239, DW_AT_type(*$C$DW$967)
    9029              $C$DW$T$240     .dwtag  DW_TAG_pointer_type
    9030                      .dwattr $C$DW$T$240, DW_AT_type(*$C$DW$T$239)
    9031                      .dwattr $C$DW$T$240, DW_AT_address_class(0x10)
    9032              $C$DW$T$94      .dwtag  DW_TAG_typedef, DW_AT_name("WORD")
    9033                      .dwattr $C$DW$T$94, DW_AT_type(*$C$DW$T$19)
    9034                      .dwattr $C$DW$T$94, DW_AT_language(DW_LANG_C)
    9035              $C$DW$T$96      .dwtag  DW_TAG_pointer_type
    9036                      .dwattr $C$DW$T$96, DW_AT_type(*$C$DW$T$94)
    9037                      .dwattr $C$DW$T$96, DW_AT_address_class(0x17)
    9038              $C$DW$T$112     .dwtag  DW_TAG_pointer_type
    9039                      .dwattr $C$DW$T$112, DW_AT_type(*$C$DW$T$19)
    9040                      .dwattr $C$DW$T$112, DW_AT_address_class(0x17)
    9041              $C$DW$T$241     .dwtag  DW_TAG_typedef, DW_AT_name("PWORD")
    9042                      .dwattr $C$DW$T$241, DW_AT_type(*$C$DW$T$112)
    9043                      .dwattr $C$DW$T$241, DW_AT_language(DW_LANG_C)
    9044              
    9045              $C$DW$T$113     .dwtag  DW_TAG_array_type
    9046                      .dwattr $C$DW$T$113, DW_AT_type(*$C$DW$T$112)
    9047                      .dwattr $C$DW$T$113, DW_AT_language(DW_LANG_C)
    9048                      .dwattr $C$DW$T$113, DW_AT_byte_size(0x08)
    9049              $C$DW$968       .dwtag  DW_TAG_subrange_type
    9050                      .dwattr $C$DW$968, DW_AT_upper_bound(0x03)
    9051                      .dwendtag $C$DW$T$113
    9052              
    9053              
    9054              $C$DW$T$244     .dwtag  DW_TAG_array_type
    9055                      .dwattr $C$DW$T$244, DW_AT_type(*$C$DW$T$19)
    9056                      .dwattr $C$DW$T$244, DW_AT_language(DW_LANG_C)
    9057                      .dwattr $C$DW$T$244, DW_AT_byte_size(0x100)
TMS320C55x Assembler PC v4.4.1 Sat Sep 29 23:08:33 2018

Tools Copyright (c) 1996-2012 Texas Instruments Incorporated
csl_usb_poll_example.asm                                             PAGE  205

    9058              $C$DW$969       .dwtag  DW_TAG_subrange_type
    9059                      .dwattr $C$DW$969, DW_AT_upper_bound(0xff)
    9060                      .dwendtag $C$DW$T$244
    9061              
    9062              
    9063              $C$DW$T$246     .dwtag  DW_TAG_array_type
    9064                      .dwattr $C$DW$T$246, DW_AT_type(*$C$DW$T$19)
    9065                      .dwattr $C$DW$T$246, DW_AT_language(DW_LANG_C)
    9066                      .dwattr $C$DW$T$246, DW_AT_byte_size(0x09)
    9067              $C$DW$970       .dwtag  DW_TAG_subrange_type
    9068                      .dwattr $C$DW$970, DW_AT_upper_bound(0x08)
    9069                      .dwendtag $C$DW$T$246
    9070              
    9071              
    9072              $C$DW$T$247     .dwtag  DW_TAG_array_type
    9073                      .dwattr $C$DW$T$247, DW_AT_type(*$C$DW$T$19)
    9074                      .dwattr $C$DW$T$247, DW_AT_language(DW_LANG_C)
    9075                      .dwattr $C$DW$T$247, DW_AT_byte_size(0x28)
    9076              $C$DW$971       .dwtag  DW_TAG_subrange_type
    9077                      .dwattr $C$DW$971, DW_AT_upper_bound(0x27)
    9078                      .dwendtag $C$DW$T$247
    9079              
    9080              
    9081              $C$DW$T$248     .dwtag  DW_TAG_array_type
    9082                      .dwattr $C$DW$T$248, DW_AT_type(*$C$DW$T$19)
    9083                      .dwattr $C$DW$T$248, DW_AT_language(DW_LANG_C)
    9084                      .dwattr $C$DW$T$248, DW_AT_byte_size(0x14)
    9085              $C$DW$972       .dwtag  DW_TAG_subrange_type
    9086                      .dwattr $C$DW$972, DW_AT_upper_bound(0x13)
    9087                      .dwendtag $C$DW$T$248
    9088              
    9089              
    9090              $C$DW$T$249     .dwtag  DW_TAG_array_type
    9091                      .dwattr $C$DW$T$249, DW_AT_type(*$C$DW$T$19)
    9092                      .dwattr $C$DW$T$249, DW_AT_language(DW_LANG_C)
    9093                      .dwattr $C$DW$T$249, DW_AT_byte_size(0x50)
    9094              $C$DW$973       .dwtag  DW_TAG_subrange_type
    9095                      .dwattr $C$DW$973, DW_AT_upper_bound(0x03)
    9096              $C$DW$974       .dwtag  DW_TAG_subrange_type
    9097                      .dwattr $C$DW$974, DW_AT_upper_bound(0x13)
    9098                      .dwendtag $C$DW$T$249
    9099              
    9100              $C$DW$T$10      .dwtag  DW_TAG_base_type
    9101                      .dwattr $C$DW$T$10, DW_AT_encoding(DW_ATE_signed)
    9102                      .dwattr $C$DW$T$10, DW_AT_name("int")
    9103                      .dwattr $C$DW$T$10, DW_AT_byte_size(0x01)
    9104              $C$DW$T$95      .dwtag  DW_TAG_typedef, DW_AT_name("Bool")
    9105                      .dwattr $C$DW$T$95, DW_AT_type(*$C$DW$T$10)
    9106                      .dwattr $C$DW$T$95, DW_AT_language(DW_LANG_C)
    9107              $C$DW$975       .dwtag  DW_TAG_TI_far_type
    9108                      .dwattr $C$DW$975, DW_AT_type(*$C$DW$T$95)
    9109              $C$DW$T$251     .dwtag  DW_TAG_volatile_type
    9110                      .dwattr $C$DW$T$251, DW_AT_type(*$C$DW$975)
    9111              $C$DW$T$212     .dwtag  DW_TAG_pointer_type
    9112                      .dwattr $C$DW$T$212, DW_AT_type(*$C$DW$T$95)
TMS320C55x Assembler PC v4.4.1 Sat Sep 29 23:08:33 2018

Tools Copyright (c) 1996-2012 Texas Instruments Incorporated
csl_usb_poll_example.asm                                             PAGE  206

    9113                      .dwattr $C$DW$T$212, DW_AT_address_class(0x17)
    9114              $C$DW$T$11      .dwtag  DW_TAG_base_type
    9115                      .dwattr $C$DW$T$11, DW_AT_encoding(DW_ATE_unsigned)
    9116                      .dwattr $C$DW$T$11, DW_AT_name("unsigned int")
    9117                      .dwattr $C$DW$T$11, DW_AT_byte_size(0x01)
    9118              $C$DW$T$12      .dwtag  DW_TAG_base_type
    9119                      .dwattr $C$DW$T$12, DW_AT_encoding(DW_ATE_signed)
    9120                      .dwattr $C$DW$T$12, DW_AT_name("long")
    9121                      .dwattr $C$DW$T$12, DW_AT_byte_size(0x02)
    9122              $C$DW$T$13      .dwtag  DW_TAG_base_type
    9123                      .dwattr $C$DW$T$13, DW_AT_encoding(DW_ATE_unsigned)
    9124                      .dwattr $C$DW$T$13, DW_AT_name("unsigned long")
    9125                      .dwattr $C$DW$T$13, DW_AT_byte_size(0x02)
    9126              $C$DW$T$97      .dwtag  DW_TAG_typedef, DW_AT_name("Uint32")
    9127                      .dwattr $C$DW$T$97, DW_AT_type(*$C$DW$T$13)
    9128                      .dwattr $C$DW$T$97, DW_AT_language(DW_LANG_C)
    9129              $C$DW$T$98      .dwtag  DW_TAG_typedef, DW_AT_name("DWORD")
    9130                      .dwattr $C$DW$T$98, DW_AT_type(*$C$DW$T$97)
    9131                      .dwattr $C$DW$T$98, DW_AT_language(DW_LANG_C)
    9132              $C$DW$T$99      .dwtag  DW_TAG_pointer_type
    9133                      .dwattr $C$DW$T$99, DW_AT_type(*$C$DW$T$98)
    9134                      .dwattr $C$DW$T$99, DW_AT_address_class(0x17)
    9135              
    9136              $C$DW$T$100     .dwtag  DW_TAG_array_type
    9137                      .dwattr $C$DW$T$100, DW_AT_type(*$C$DW$T$98)
    9138                      .dwattr $C$DW$T$100, DW_AT_language(DW_LANG_C)
    9139                      .dwattr $C$DW$T$100, DW_AT_byte_size(0x40)
    9140              $C$DW$976       .dwtag  DW_TAG_subrange_type
    9141                      .dwattr $C$DW$976, DW_AT_upper_bound(0x1f)
    9142                      .dwendtag $C$DW$T$100
    9143              
    9144              $C$DW$977       .dwtag  DW_TAG_TI_far_type
    9145                      .dwattr $C$DW$977, DW_AT_type(*$C$DW$T$97)
    9146              $C$DW$T$267     .dwtag  DW_TAG_volatile_type
    9147                      .dwattr $C$DW$T$267, DW_AT_type(*$C$DW$977)
    9148              $C$DW$T$14      .dwtag  DW_TAG_base_type
    9149                      .dwattr $C$DW$T$14, DW_AT_encoding(DW_ATE_signed)
    9150                      .dwattr $C$DW$T$14, DW_AT_name("long long")
    9151                      .dwattr $C$DW$T$14, DW_AT_byte_size(0x04)
    9152                      .dwattr $C$DW$T$14, DW_AT_bit_size(0x28)
    9153                      .dwattr $C$DW$T$14, DW_AT_bit_offset(0x18)
    9154              $C$DW$T$15      .dwtag  DW_TAG_base_type
    9155                      .dwattr $C$DW$T$15, DW_AT_encoding(DW_ATE_unsigned)
    9156                      .dwattr $C$DW$T$15, DW_AT_name("unsigned long long")
    9157                      .dwattr $C$DW$T$15, DW_AT_byte_size(0x04)
    9158                      .dwattr $C$DW$T$15, DW_AT_bit_size(0x28)
    9159                      .dwattr $C$DW$T$15, DW_AT_bit_offset(0x18)
    9160              $C$DW$T$16      .dwtag  DW_TAG_base_type
    9161                      .dwattr $C$DW$T$16, DW_AT_encoding(DW_ATE_float)
    9162                      .dwattr $C$DW$T$16, DW_AT_name("float")
    9163                      .dwattr $C$DW$T$16, DW_AT_byte_size(0x02)
    9164              $C$DW$T$17      .dwtag  DW_TAG_base_type
    9165                      .dwattr $C$DW$T$17, DW_AT_encoding(DW_ATE_float)
    9166                      .dwattr $C$DW$T$17, DW_AT_name("double")
    9167                      .dwattr $C$DW$T$17, DW_AT_byte_size(0x02)
TMS320C55x Assembler PC v4.4.1 Sat Sep 29 23:08:33 2018

Tools Copyright (c) 1996-2012 Texas Instruments Incorporated
csl_usb_poll_example.asm                                             PAGE  207

    9168              $C$DW$T$18      .dwtag  DW_TAG_base_type
    9169                      .dwattr $C$DW$T$18, DW_AT_encoding(DW_ATE_float)
    9170                      .dwattr $C$DW$T$18, DW_AT_name("long double")
    9171                      .dwattr $C$DW$T$18, DW_AT_byte_size(0x02)
    9172              $C$DW$T$256     .dwtag  DW_TAG_base_type
    9173                      .dwattr $C$DW$T$256, DW_AT_encoding(DW_ATE_signed_char)
    9174                      .dwattr $C$DW$T$256, DW_AT_name("signed char")
    9175                      .dwattr $C$DW$T$256, DW_AT_byte_size(0x01)
    9176              $C$DW$978       .dwtag  DW_TAG_TI_far_type
    9177                      .dwattr $C$DW$978, DW_AT_type(*$C$DW$T$256)
    9178              $C$DW$T$257     .dwtag  DW_TAG_const_type
    9179                      .dwattr $C$DW$T$257, DW_AT_type(*$C$DW$978)
    9180              $C$DW$T$258     .dwtag  DW_TAG_pointer_type
    9181                      .dwattr $C$DW$T$258, DW_AT_type(*$C$DW$T$257)
    9182                      .dwattr $C$DW$T$258, DW_AT_address_class(0x17)
    9183                      .dwattr $C$DW$CU, DW_AT_language(DW_LANG_C)
    9184              
    9185              ;***************************************************************
    9186              ;* DWARF CIE ENTRIES                                           *
    9187              ;***************************************************************
    9188              
    9189              $C$DW$CIE       .dwcie 91
    9190                      .dwcfi  cfa_register, 36
    9191                      .dwcfi  cfa_offset, 0
    9192                      .dwcfi  undefined, 0
    9193                      .dwcfi  undefined, 1
    9194                      .dwcfi  undefined, 2
    9195                      .dwcfi  undefined, 3
    9196                      .dwcfi  undefined, 4
    9197                      .dwcfi  undefined, 5
    9198                      .dwcfi  undefined, 6
    9199                      .dwcfi  undefined, 7
    9200                      .dwcfi  undefined, 8
    9201                      .dwcfi  undefined, 9
    9202                      .dwcfi  undefined, 10
    9203                      .dwcfi  undefined, 11
    9204                      .dwcfi  undefined, 12
    9205                      .dwcfi  undefined, 13
    9206                      .dwcfi  same_value, 14
    9207                      .dwcfi  same_value, 15
    9208                      .dwcfi  undefined, 16
    9209                      .dwcfi  undefined, 17
    9210                      .dwcfi  undefined, 18
    9211                      .dwcfi  undefined, 19
    9212                      .dwcfi  undefined, 20
    9213                      .dwcfi  undefined, 21
    9214                      .dwcfi  undefined, 22
    9215                      .dwcfi  undefined, 23
    9216                      .dwcfi  undefined, 24
    9217                      .dwcfi  undefined, 25
    9218                      .dwcfi  same_value, 26
    9219                      .dwcfi  same_value, 27
    9220                      .dwcfi  same_value, 28
    9221                      .dwcfi  same_value, 29
    9222                      .dwcfi  same_value, 30
TMS320C55x Assembler PC v4.4.1 Sat Sep 29 23:08:33 2018

Tools Copyright (c) 1996-2012 Texas Instruments Incorporated
csl_usb_poll_example.asm                                             PAGE  208

    9223                      .dwcfi  same_value, 31
    9224                      .dwcfi  undefined, 32
    9225                      .dwcfi  undefined, 33
    9226                      .dwcfi  undefined, 34
    9227                      .dwcfi  undefined, 35
    9228                      .dwcfi  undefined, 36
    9229                      .dwcfi  undefined, 37
    9230                      .dwcfi  undefined, 38
    9231                      .dwcfi  undefined, 39
    9232                      .dwcfi  undefined, 40
    9233                      .dwcfi  undefined, 41
    9234                      .dwcfi  undefined, 42
    9235                      .dwcfi  undefined, 43
    9236                      .dwcfi  undefined, 44
    9237                      .dwcfi  undefined, 45
    9238                      .dwcfi  undefined, 46
    9239                      .dwcfi  undefined, 47
    9240                      .dwcfi  undefined, 48
    9241                      .dwcfi  undefined, 49
    9242                      .dwcfi  undefined, 50
    9243                      .dwcfi  undefined, 51
    9244                      .dwcfi  undefined, 52
    9245                      .dwcfi  undefined, 53
    9246                      .dwcfi  undefined, 54
    9247                      .dwcfi  undefined, 55
    9248                      .dwcfi  undefined, 56
    9249                      .dwcfi  undefined, 57
    9250                      .dwcfi  undefined, 58
    9251                      .dwcfi  undefined, 59
    9252                      .dwcfi  undefined, 60
    9253                      .dwcfi  undefined, 61
    9254                      .dwcfi  undefined, 62
    9255                      .dwcfi  undefined, 63
    9256                      .dwcfi  undefined, 64
    9257                      .dwcfi  undefined, 65
    9258                      .dwcfi  undefined, 66
    9259                      .dwcfi  undefined, 67
    9260                      .dwcfi  undefined, 68
    9261                      .dwcfi  undefined, 69
    9262                      .dwcfi  undefined, 70
    9263                      .dwcfi  undefined, 71
    9264                      .dwcfi  undefined, 72
    9265                      .dwcfi  undefined, 73
    9266                      .dwcfi  undefined, 74
    9267                      .dwcfi  undefined, 75
    9268                      .dwcfi  undefined, 76
    9269                      .dwcfi  undefined, 77
    9270                      .dwcfi  undefined, 78
    9271                      .dwcfi  undefined, 79
    9272                      .dwcfi  undefined, 80
    9273                      .dwcfi  undefined, 81
    9274                      .dwcfi  undefined, 82
    9275                      .dwcfi  undefined, 83
    9276                      .dwcfi  undefined, 84
    9277                      .dwcfi  undefined, 85
TMS320C55x Assembler PC v4.4.1 Sat Sep 29 23:08:33 2018

Tools Copyright (c) 1996-2012 Texas Instruments Incorporated
csl_usb_poll_example.asm                                             PAGE  209

    9278                      .dwcfi  undefined, 86
    9279                      .dwcfi  undefined, 87
    9280                      .dwcfi  undefined, 88
    9281                      .dwcfi  undefined, 89
    9282                      .dwcfi  undefined, 90
    9283                      .dwcfi  undefined, 91
    9284                      .dwendentry
    9285              
    9286              ;***************************************************************
    9287              ;* DWARF REGISTER MAP                                          *
    9288              ;***************************************************************
    9289              
    9290              $C$DW$979       .dwtag  DW_TAG_TI_assign_register, DW_AT_name("AC0")
    9291                      .dwattr $C$DW$979, DW_AT_location[DW_OP_reg0]
    9292              $C$DW$980       .dwtag  DW_TAG_TI_assign_register, DW_AT_name("AC0")
    9293                      .dwattr $C$DW$980, DW_AT_location[DW_OP_reg1]
    9294              $C$DW$981       .dwtag  DW_TAG_TI_assign_register, DW_AT_name("AC0_G")
    9295                      .dwattr $C$DW$981, DW_AT_location[DW_OP_reg2]
    9296              $C$DW$982       .dwtag  DW_TAG_TI_assign_register, DW_AT_name("AC1")
    9297                      .dwattr $C$DW$982, DW_AT_location[DW_OP_reg3]
    9298              $C$DW$983       .dwtag  DW_TAG_TI_assign_register, DW_AT_name("AC1")
    9299                      .dwattr $C$DW$983, DW_AT_location[DW_OP_reg4]
    9300              $C$DW$984       .dwtag  DW_TAG_TI_assign_register, DW_AT_name("AC1_G")
    9301                      .dwattr $C$DW$984, DW_AT_location[DW_OP_reg5]
    9302              $C$DW$985       .dwtag  DW_TAG_TI_assign_register, DW_AT_name("AC2")
    9303                      .dwattr $C$DW$985, DW_AT_location[DW_OP_reg6]
    9304              $C$DW$986       .dwtag  DW_TAG_TI_assign_register, DW_AT_name("AC2")
    9305                      .dwattr $C$DW$986, DW_AT_location[DW_OP_reg7]
    9306              $C$DW$987       .dwtag  DW_TAG_TI_assign_register, DW_AT_name("AC2_G")
    9307                      .dwattr $C$DW$987, DW_AT_location[DW_OP_reg8]
    9308              $C$DW$988       .dwtag  DW_TAG_TI_assign_register, DW_AT_name("AC3")
    9309                      .dwattr $C$DW$988, DW_AT_location[DW_OP_reg9]
    9310              $C$DW$989       .dwtag  DW_TAG_TI_assign_register, DW_AT_name("AC3")
    9311                      .dwattr $C$DW$989, DW_AT_location[DW_OP_reg10]
    9312              $C$DW$990       .dwtag  DW_TAG_TI_assign_register, DW_AT_name("AC3_G")
    9313                      .dwattr $C$DW$990, DW_AT_location[DW_OP_reg11]
    9314              $C$DW$991       .dwtag  DW_TAG_TI_assign_register, DW_AT_name("T0")
    9315                      .dwattr $C$DW$991, DW_AT_location[DW_OP_reg12]
    9316              $C$DW$992       .dwtag  DW_TAG_TI_assign_register, DW_AT_name("T1")
    9317                      .dwattr $C$DW$992, DW_AT_location[DW_OP_reg13]
    9318              $C$DW$993       .dwtag  DW_TAG_TI_assign_register, DW_AT_name("T2")
    9319                      .dwattr $C$DW$993, DW_AT_location[DW_OP_reg14]
    9320              $C$DW$994       .dwtag  DW_TAG_TI_assign_register, DW_AT_name("T3")
    9321                      .dwattr $C$DW$994, DW_AT_location[DW_OP_reg15]
    9322              $C$DW$995       .dwtag  DW_TAG_TI_assign_register, DW_AT_name("AR0")
    9323                      .dwattr $C$DW$995, DW_AT_location[DW_OP_reg16]
    9324              $C$DW$996       .dwtag  DW_TAG_TI_assign_register, DW_AT_name("XAR0")
    9325                      .dwattr $C$DW$996, DW_AT_location[DW_OP_reg17]
    9326              $C$DW$997       .dwtag  DW_TAG_TI_assign_register, DW_AT_name("AR1")
    9327                      .dwattr $C$DW$997, DW_AT_location[DW_OP_reg18]
    9328              $C$DW$998       .dwtag  DW_TAG_TI_assign_register, DW_AT_name("XAR1")
    9329                      .dwattr $C$DW$998, DW_AT_location[DW_OP_reg19]
    9330              $C$DW$999       .dwtag  DW_TAG_TI_assign_register, DW_AT_name("AR2")
    9331                      .dwattr $C$DW$999, DW_AT_location[DW_OP_reg20]
    9332              $C$DW$1000      .dwtag  DW_TAG_TI_assign_register, DW_AT_name("XAR2")
TMS320C55x Assembler PC v4.4.1 Sat Sep 29 23:08:33 2018

Tools Copyright (c) 1996-2012 Texas Instruments Incorporated
csl_usb_poll_example.asm                                             PAGE  210

    9333                      .dwattr $C$DW$1000, DW_AT_location[DW_OP_reg21]
    9334              $C$DW$1001      .dwtag  DW_TAG_TI_assign_register, DW_AT_name("AR3")
    9335                      .dwattr $C$DW$1001, DW_AT_location[DW_OP_reg22]
    9336              $C$DW$1002      .dwtag  DW_TAG_TI_assign_register, DW_AT_name("XAR3")
    9337                      .dwattr $C$DW$1002, DW_AT_location[DW_OP_reg23]
    9338              $C$DW$1003      .dwtag  DW_TAG_TI_assign_register, DW_AT_name("AR4")
    9339                      .dwattr $C$DW$1003, DW_AT_location[DW_OP_reg24]
    9340              $C$DW$1004      .dwtag  DW_TAG_TI_assign_register, DW_AT_name("XAR4")
    9341                      .dwattr $C$DW$1004, DW_AT_location[DW_OP_reg25]
    9342              $C$DW$1005      .dwtag  DW_TAG_TI_assign_register, DW_AT_name("AR5")
    9343                      .dwattr $C$DW$1005, DW_AT_location[DW_OP_reg26]
    9344              $C$DW$1006      .dwtag  DW_TAG_TI_assign_register, DW_AT_name("XAR5")
    9345                      .dwattr $C$DW$1006, DW_AT_location[DW_OP_reg27]
    9346              $C$DW$1007      .dwtag  DW_TAG_TI_assign_register, DW_AT_name("AR6")
    9347                      .dwattr $C$DW$1007, DW_AT_location[DW_OP_reg28]
    9348              $C$DW$1008      .dwtag  DW_TAG_TI_assign_register, DW_AT_name("XAR6")
    9349                      .dwattr $C$DW$1008, DW_AT_location[DW_OP_reg29]
    9350              $C$DW$1009      .dwtag  DW_TAG_TI_assign_register, DW_AT_name("AR7")
    9351                      .dwattr $C$DW$1009, DW_AT_location[DW_OP_reg30]
    9352              $C$DW$1010      .dwtag  DW_TAG_TI_assign_register, DW_AT_name("XAR7")
    9353                      .dwattr $C$DW$1010, DW_AT_location[DW_OP_reg31]
    9354              $C$DW$1011      .dwtag  DW_TAG_TI_assign_register, DW_AT_name("FP")
    9355                      .dwattr $C$DW$1011, DW_AT_location[DW_OP_regx 0x20]
    9356              $C$DW$1012      .dwtag  DW_TAG_TI_assign_register, DW_AT_name("XFP")
    9357                      .dwattr $C$DW$1012, DW_AT_location[DW_OP_regx 0x21]
    9358              $C$DW$1013      .dwtag  DW_TAG_TI_assign_register, DW_AT_name("PC")
    9359                      .dwattr $C$DW$1013, DW_AT_location[DW_OP_regx 0x22]
    9360              $C$DW$1014      .dwtag  DW_TAG_TI_assign_register, DW_AT_name("SP")
    9361                      .dwattr $C$DW$1014, DW_AT_location[DW_OP_regx 0x23]
    9362              $C$DW$1015      .dwtag  DW_TAG_TI_assign_register, DW_AT_name("XSP")
    9363                      .dwattr $C$DW$1015, DW_AT_location[DW_OP_regx 0x24]
    9364              $C$DW$1016      .dwtag  DW_TAG_TI_assign_register, DW_AT_name("BKC")
    9365                      .dwattr $C$DW$1016, DW_AT_location[DW_OP_regx 0x25]
    9366              $C$DW$1017      .dwtag  DW_TAG_TI_assign_register, DW_AT_name("BK03")
    9367                      .dwattr $C$DW$1017, DW_AT_location[DW_OP_regx 0x26]
    9368              $C$DW$1018      .dwtag  DW_TAG_TI_assign_register, DW_AT_name("BK47")
    9369                      .dwattr $C$DW$1018, DW_AT_location[DW_OP_regx 0x27]
    9370              $C$DW$1019      .dwtag  DW_TAG_TI_assign_register, DW_AT_name("ST0")
    9371                      .dwattr $C$DW$1019, DW_AT_location[DW_OP_regx 0x28]
    9372              $C$DW$1020      .dwtag  DW_TAG_TI_assign_register, DW_AT_name("ST1")
    9373                      .dwattr $C$DW$1020, DW_AT_location[DW_OP_regx 0x29]
    9374              $C$DW$1021      .dwtag  DW_TAG_TI_assign_register, DW_AT_name("ST2")
    9375                      .dwattr $C$DW$1021, DW_AT_location[DW_OP_regx 0x2a]
    9376              $C$DW$1022      .dwtag  DW_TAG_TI_assign_register, DW_AT_name("ST3")
    9377                      .dwattr $C$DW$1022, DW_AT_location[DW_OP_regx 0x2b]
    9378              $C$DW$1023      .dwtag  DW_TAG_TI_assign_register, DW_AT_name("MDP")
    9379                      .dwattr $C$DW$1023, DW_AT_location[DW_OP_regx 0x2c]
    9380              $C$DW$1024      .dwtag  DW_TAG_TI_assign_register, DW_AT_name("MDP05")
    9381                      .dwattr $C$DW$1024, DW_AT_location[DW_OP_regx 0x2d]
    9382              $C$DW$1025      .dwtag  DW_TAG_TI_assign_register, DW_AT_name("MDP67")
    9383                      .dwattr $C$DW$1025, DW_AT_location[DW_OP_regx 0x2e]
    9384              $C$DW$1026      .dwtag  DW_TAG_TI_assign_register, DW_AT_name("BRC0")
    9385                      .dwattr $C$DW$1026, DW_AT_location[DW_OP_regx 0x2f]
    9386              $C$DW$1027      .dwtag  DW_TAG_TI_assign_register, DW_AT_name("RSA0")
    9387                      .dwattr $C$DW$1027, DW_AT_location[DW_OP_regx 0x30]
TMS320C55x Assembler PC v4.4.1 Sat Sep 29 23:08:33 2018

Tools Copyright (c) 1996-2012 Texas Instruments Incorporated
csl_usb_poll_example.asm                                             PAGE  211

    9388              $C$DW$1028      .dwtag  DW_TAG_TI_assign_register, DW_AT_name("RSA0_H")
    9389                      .dwattr $C$DW$1028, DW_AT_location[DW_OP_regx 0x31]
    9390              $C$DW$1029      .dwtag  DW_TAG_TI_assign_register, DW_AT_name("REA0")
    9391                      .dwattr $C$DW$1029, DW_AT_location[DW_OP_regx 0x32]
    9392              $C$DW$1030      .dwtag  DW_TAG_TI_assign_register, DW_AT_name("REA0_H")
    9393                      .dwattr $C$DW$1030, DW_AT_location[DW_OP_regx 0x33]
    9394              $C$DW$1031      .dwtag  DW_TAG_TI_assign_register, DW_AT_name("BRS1")
    9395                      .dwattr $C$DW$1031, DW_AT_location[DW_OP_regx 0x34]
    9396              $C$DW$1032      .dwtag  DW_TAG_TI_assign_register, DW_AT_name("BRC1")
    9397                      .dwattr $C$DW$1032, DW_AT_location[DW_OP_regx 0x35]
    9398              $C$DW$1033      .dwtag  DW_TAG_TI_assign_register, DW_AT_name("RSA1")
    9399                      .dwattr $C$DW$1033, DW_AT_location[DW_OP_regx 0x36]
    9400              $C$DW$1034      .dwtag  DW_TAG_TI_assign_register, DW_AT_name("RSA1_H")
    9401                      .dwattr $C$DW$1034, DW_AT_location[DW_OP_regx 0x37]
    9402              $C$DW$1035      .dwtag  DW_TAG_TI_assign_register, DW_AT_name("REA1")
    9403                      .dwattr $C$DW$1035, DW_AT_location[DW_OP_regx 0x38]
    9404              $C$DW$1036      .dwtag  DW_TAG_TI_assign_register, DW_AT_name("REA1_H")
    9405                      .dwattr $C$DW$1036, DW_AT_location[DW_OP_regx 0x39]
    9406              $C$DW$1037      .dwtag  DW_TAG_TI_assign_register, DW_AT_name("CSR")
    9407                      .dwattr $C$DW$1037, DW_AT_location[DW_OP_regx 0x3a]
    9408              $C$DW$1038      .dwtag  DW_TAG_TI_assign_register, DW_AT_name("RPTC")
    9409                      .dwattr $C$DW$1038, DW_AT_location[DW_OP_regx 0x3b]
    9410              $C$DW$1039      .dwtag  DW_TAG_TI_assign_register, DW_AT_name("CDP")
    9411                      .dwattr $C$DW$1039, DW_AT_location[DW_OP_regx 0x3c]
    9412              $C$DW$1040      .dwtag  DW_TAG_TI_assign_register, DW_AT_name("XCDP")
    9413                      .dwattr $C$DW$1040, DW_AT_location[DW_OP_regx 0x3d]
    9414              $C$DW$1041      .dwtag  DW_TAG_TI_assign_register, DW_AT_name("TRN0")
    9415                      .dwattr $C$DW$1041, DW_AT_location[DW_OP_regx 0x3e]
    9416              $C$DW$1042      .dwtag  DW_TAG_TI_assign_register, DW_AT_name("TRN1")
    9417                      .dwattr $C$DW$1042, DW_AT_location[DW_OP_regx 0x3f]
    9418              $C$DW$1043      .dwtag  DW_TAG_TI_assign_register, DW_AT_name("BSA01")
    9419                      .dwattr $C$DW$1043, DW_AT_location[DW_OP_regx 0x40]
    9420              $C$DW$1044      .dwtag  DW_TAG_TI_assign_register, DW_AT_name("BSA23")
    9421                      .dwattr $C$DW$1044, DW_AT_location[DW_OP_regx 0x41]
    9422              $C$DW$1045      .dwtag  DW_TAG_TI_assign_register, DW_AT_name("BSA45")
    9423                      .dwattr $C$DW$1045, DW_AT_location[DW_OP_regx 0x42]
    9424              $C$DW$1046      .dwtag  DW_TAG_TI_assign_register, DW_AT_name("BSA67")
    9425                      .dwattr $C$DW$1046, DW_AT_location[DW_OP_regx 0x43]
    9426              $C$DW$1047      .dwtag  DW_TAG_TI_assign_register, DW_AT_name("BSAC")
    9427                      .dwattr $C$DW$1047, DW_AT_location[DW_OP_regx 0x44]
    9428              $C$DW$1048      .dwtag  DW_TAG_TI_assign_register, DW_AT_name("CARRY")
    9429                      .dwattr $C$DW$1048, DW_AT_location[DW_OP_regx 0x45]
    9430              $C$DW$1049      .dwtag  DW_TAG_TI_assign_register, DW_AT_name("TC1")
    9431                      .dwattr $C$DW$1049, DW_AT_location[DW_OP_regx 0x46]
    9432              $C$DW$1050      .dwtag  DW_TAG_TI_assign_register, DW_AT_name("TC2")
    9433                      .dwattr $C$DW$1050, DW_AT_location[DW_OP_regx 0x47]
    9434              $C$DW$1051      .dwtag  DW_TAG_TI_assign_register, DW_AT_name("M40")
    9435                      .dwattr $C$DW$1051, DW_AT_location[DW_OP_regx 0x48]
    9436              $C$DW$1052      .dwtag  DW_TAG_TI_assign_register, DW_AT_name("SXMD")
    9437                      .dwattr $C$DW$1052, DW_AT_location[DW_OP_regx 0x49]
    9438              $C$DW$1053      .dwtag  DW_TAG_TI_assign_register, DW_AT_name("ARMS")
    9439                      .dwattr $C$DW$1053, DW_AT_location[DW_OP_regx 0x4a]
    9440              $C$DW$1054      .dwtag  DW_TAG_TI_assign_register, DW_AT_name("C54CM")
    9441                      .dwattr $C$DW$1054, DW_AT_location[DW_OP_regx 0x4b]
    9442              $C$DW$1055      .dwtag  DW_TAG_TI_assign_register, DW_AT_name("SATA")
TMS320C55x Assembler PC v4.4.1 Sat Sep 29 23:08:33 2018

Tools Copyright (c) 1996-2012 Texas Instruments Incorporated
csl_usb_poll_example.asm                                             PAGE  212

    9443                      .dwattr $C$DW$1055, DW_AT_location[DW_OP_regx 0x4c]
    9444              $C$DW$1056      .dwtag  DW_TAG_TI_assign_register, DW_AT_name("SATD")
    9445                      .dwattr $C$DW$1056, DW_AT_location[DW_OP_regx 0x4d]
    9446              $C$DW$1057      .dwtag  DW_TAG_TI_assign_register, DW_AT_name("RDM")
    9447                      .dwattr $C$DW$1057, DW_AT_location[DW_OP_regx 0x4e]
    9448              $C$DW$1058      .dwtag  DW_TAG_TI_assign_register, DW_AT_name("FRCT")
    9449                      .dwattr $C$DW$1058, DW_AT_location[DW_OP_regx 0x4f]
    9450              $C$DW$1059      .dwtag  DW_TAG_TI_assign_register, DW_AT_name("SMUL")
    9451                      .dwattr $C$DW$1059, DW_AT_location[DW_OP_regx 0x50]
    9452              $C$DW$1060      .dwtag  DW_TAG_TI_assign_register, DW_AT_name("INTM")
    9453                      .dwattr $C$DW$1060, DW_AT_location[DW_OP_regx 0x51]
    9454              $C$DW$1061      .dwtag  DW_TAG_TI_assign_register, DW_AT_name("AR0LC")
    9455                      .dwattr $C$DW$1061, DW_AT_location[DW_OP_regx 0x52]
    9456              $C$DW$1062      .dwtag  DW_TAG_TI_assign_register, DW_AT_name("AR1LC")
    9457                      .dwattr $C$DW$1062, DW_AT_location[DW_OP_regx 0x53]
    9458              $C$DW$1063      .dwtag  DW_TAG_TI_assign_register, DW_AT_name("AR2LC")
    9459                      .dwattr $C$DW$1063, DW_AT_location[DW_OP_regx 0x54]
    9460              $C$DW$1064      .dwtag  DW_TAG_TI_assign_register, DW_AT_name("AR3LC")
    9461                      .dwattr $C$DW$1064, DW_AT_location[DW_OP_regx 0x55]
    9462              $C$DW$1065      .dwtag  DW_TAG_TI_assign_register, DW_AT_name("AR4LC")
    9463                      .dwattr $C$DW$1065, DW_AT_location[DW_OP_regx 0x56]
    9464              $C$DW$1066      .dwtag  DW_TAG_TI_assign_register, DW_AT_name("AR5LC")
    9465                      .dwattr $C$DW$1066, DW_AT_location[DW_OP_regx 0x57]
    9466              $C$DW$1067      .dwtag  DW_TAG_TI_assign_register, DW_AT_name("AR6LC")
    9467                      .dwattr $C$DW$1067, DW_AT_location[DW_OP_regx 0x58]
    9468              $C$DW$1068      .dwtag  DW_TAG_TI_assign_register, DW_AT_name("AR7LC")
    9469                      .dwattr $C$DW$1068, DW_AT_location[DW_OP_regx 0x59]
    9470              $C$DW$1069      .dwtag  DW_TAG_TI_assign_register, DW_AT_name("CDPLC")
    9471                      .dwattr $C$DW$1069, DW_AT_location[DW_OP_regx 0x5a]
    9472              $C$DW$1070      .dwtag  DW_TAG_TI_assign_register, DW_AT_name("CIE_RETA")
    9473                      .dwattr $C$DW$1070, DW_AT_location[DW_OP_regx 0x5b]
    9474                      .dwendtag $C$DW$CU
    9475              
    9475              
    9475              

No Assembly Errors, No Assembly Warnings
