TMS320C55x Assembler PC v4.4.1 Sat Sep 29 23:08:33 2018

Tools Copyright (c) 1996-2012 Texas Instruments Incorporated
csl_usb_poll_example.asm                                             PAGE    1

    9475              ; Temporary Registers Used: None
       1              ;*******************************************************************************
       2              ;* TMS320C55x C/C++ Codegen                                          PC v4.4.1 *
       3              ;* Date/Time created: Sat Sep 29 23:08:30 2018                                 *
       4              ;*******************************************************************************
       5                      .compiler_opts --hll_source=on --mem_model:code=flat --mem_model:data=large --object_format=coff --si
       6                      .mmregs
       7                      .cpl_on
       8                      .arms_on
       9                      .c54cm_off
      10                      .asg AR6, FP
      11                      .asg XAR6, XFP
      12                      .asg DPH, MDP
      13                      .model call=c55_std
      14                      .model mem=large
      15                      .noremark 5002  ; code respects overwrite rules
      16              ;*******************************************************************************
      17              ;* GLOBAL FILE PARAMETERS                                                      *
      18              ;*                                                                             *
      19              ;*   Architecture       : TMS320C55x                                           *
      20              ;*   Optimizing for     : Speed                                                *
      21              ;*   Memory             : Large Model (23-Bit Data Pointers)                   *
      22              ;*   Calls              : Normal Library ASM calls                             *
      23              ;*   Debug Info         : Standard TI Debug Information                        *
      24              ;*******************************************************************************
      25              
      26              $C$DW$CU        .dwtag  DW_TAG_compile_unit
      27                      .dwattr $C$DW$CU, DW_AT_name("../c5535_bsl_revc/ezdsp5535_v1/c55xx_csl/ccs_v4.0_examples/usb/CSL_USB_
      28                      .dwattr $C$DW$CU, DW_AT_producer("TMS320C55x C/C++ Codegen PC v4.4.1 Copyright (c) 1996-2012 Texas In
      29                      .dwattr $C$DW$CU, DW_AT_TI_version(0x01)
      30                      .dwattr $C$DW$CU, DW_AT_comp_dir("F:\eZdsp_DBG\tmp1\c55x-sim2\foo\Debug")
      31              ;******************************************************************************
      32              ;* CINIT RECORDS                                                              *
      33              ;******************************************************************************
      34 000000               .sect   ".cinit"
      35                      .align  1
      36 000000 0001          .field          1,16
      37 000001 0000-         .field          _selfWakeupServiced+0,24
         000002 0600 
      38 000002 0600          .field          0,8
      39 000003 0000          .field  0,16                    ; _selfWakeupServiced @ 0
      40              
      41 000004               .sect   ".cinit"
      42                      .align  1
      43 000004 0002          .field          2,16
      44 000005 0000-         .field          _selfwakeupDelay+0,24
         000006 8000 
      45 000006 8000          .field          0,8
      46 000007 000F          .field  1000000,32                      ; _selfwakeupDelay @ 0
         000008 4240 
      47              
      48 000009               .sect   ".cinit"
      49                      .align  1
      50 000009 0001          .field          1,16
      51 00000a 0000-         .field          _stopRunning+0,24
TMS320C55x Assembler PC v4.4.1 Sat Sep 29 23:08:33 2018

Tools Copyright (c) 1996-2012 Texas Instruments Incorporated
csl_usb_poll_example.asm                                             PAGE    2

         00000b 8200 
      52 00000b 8200          .field          0,8
      53 00000c 0000          .field  0,16                    ; _stopRunning @ 0
      54              
      55 00000d               .sect   ".cinit"
      56                      .align  1
      57 00000d 0001          .field          1,16
      58 00000e 0000-         .field          _usbDevDisconnect+0,24
         00000f 8300 
      59 00000f 8300          .field          0,8
      60 000010 0001          .field  1,16                    ; _usbDevDisconnect @ 0
      61              
      62 000011               .sect   ".cinit"
      63                      .align  1
      64 000011 0009          .field          $C$IR_1,16
      65 000012 0001-         .field          _deviceDesc+0,24
         000013 8400 
      66 000013 8400          .field          0,8
      67 000014 0112          .field  274,16                  ; _deviceDesc[0] @ 0
      68 000015 0200          .field  512,16                  ; _deviceDesc[1] @ 16
      69 000016 0000          .field  0,16                    ; _deviceDesc[2] @ 32
      70 000017 4000          .field  16384,16                        ; _deviceDesc[3] @ 48
      71 000018 0451          .field  1105,16                 ; _deviceDesc[4] @ 64
      72 000019 9010          .field  36880,16                        ; _deviceDesc[5] @ 80
      73 00001a 0100          .field  256,16                  ; _deviceDesc[6] @ 96
      74 00001b 0201          .field  513,16                  ; _deviceDesc[7] @ 112
      75 00001c 0103          .field  259,16                  ; _deviceDesc[8] @ 128
      76              $C$IR_1:        .set    9
      77              
      78 00001d               .sect   ".cinit"
      79                      .align  1
      80 00001d 0025          .field          $C$IR_2,16
      81 00001e 0001-         .field          _cfgDesc+0,24
         00001f 8D00 
      82 00001f 8D00          .field          0,8
      83 000020 0209          .field  521,16                  ; _cfgDesc[0] @ 0
      84 000021 003C          .field  60,16                   ; _cfgDesc[1] @ 16
      85 000022 0101          .field  257,16                  ; _cfgDesc[2] @ 32
      86 000023 C001          .field  49153,16                        ; _cfgDesc[3] @ 48
      87 000024 0928          .field  2344,16                 ; _cfgDesc[4] @ 64
      88 000025 0004          .field  4,16                    ; _cfgDesc[5] @ 80
      89 000026 0600          .field  1536,16                 ; _cfgDesc[6] @ 96
      90 000027 0000          .field  0,16                    ; _cfgDesc[7] @ 112
      91 000028 0000          .field  0,16                    ; _cfgDesc[8] @ 128
      92 000029 0507          .field  1287,16                 ; _cfgDesc[9] @ 144
      93 00002a 0281          .field  641,16                  ; _cfgDesc[10] @ 160
      94 00002b 0040          .field  64,16                   ; _cfgDesc[11] @ 176
      95 00002c 0700          .field  1792,16                 ; _cfgDesc[12] @ 192
      96 00002d 0105          .field  261,16                  ; _cfgDesc[13] @ 208
      97 00002e 4002          .field  16386,16                        ; _cfgDesc[14] @ 224
      98 00002f 0000          .field  0,16                    ; _cfgDesc[15] @ 240
      99 000030 0507          .field  1287,16                 ; _cfgDesc[16] @ 256
     100 000031 0282          .field  642,16                  ; _cfgDesc[17] @ 272
     101 000032 0040          .field  64,16                   ; _cfgDesc[18] @ 288
     102 000033 0700          .field  1792,16                 ; _cfgDesc[19] @ 304
TMS320C55x Assembler PC v4.4.1 Sat Sep 29 23:08:33 2018

Tools Copyright (c) 1996-2012 Texas Instruments Incorporated
csl_usb_poll_example.asm                                             PAGE    3

     103 000034 0205          .field  517,16                  ; _cfgDesc[20] @ 320
     104 000035 4002          .field  16386,16                        ; _cfgDesc[21] @ 336
     105 000036 0000          .field  0,16                    ; _cfgDesc[22] @ 352
     106 000037 0507          .field  1287,16                 ; _cfgDesc[23] @ 368
     107 000038 0283          .field  643,16                  ; _cfgDesc[24] @ 384
     108 000039 0040          .field  64,16                   ; _cfgDesc[25] @ 400
     109 00003a 0700          .field  1792,16                 ; _cfgDesc[26] @ 416
     110 00003b 0305          .field  773,16                  ; _cfgDesc[27] @ 432
     111 00003c 4002          .field  16386,16                        ; _cfgDesc[28] @ 448
     112 00003d 0000          .field  0,16                    ; _cfgDesc[29] @ 464
     113 00003e 0507          .field  1287,16                 ; _cfgDesc[30] @ 480
     114 00003f 0284          .field  644,16                  ; _cfgDesc[31] @ 496
     115 000040 0040          .field  64,16                   ; _cfgDesc[32] @ 512
     116 000041 0700          .field  1792,16                 ; _cfgDesc[33] @ 528
     117 000042 0405          .field  1029,16                 ; _cfgDesc[34] @ 544
     118 000043 4002          .field  16386,16                        ; _cfgDesc[35] @ 560
     119 000044 0000          .field  0,16                    ; _cfgDesc[36] @ 576
     120              $C$IR_2:        .set    37
     121              
     122 000045               .sect   ".cinit"
     123                      .align  1
     124 000045 0002          .field          $C$IR_3,16
     125 000046 0001-         .field          _strDesc+0,24
         000047 B500 
     126 000047 B500          .field          0,8
     127 000048 0304          .field  772,16                  ; _strDesc[0][0] @ 0
     128 000049 0409          .field  1033,16                 ; _strDesc[0][1] @ 16
     129              $C$IR_3:        .set    2
     130              
     131 00004a               .sect   ".cinit"
     132                      .align  1
     133 00004a 002E          .field          $C$IR_4,16
     134 00004b 0001-         .field          _strDesc+20,24
         00004c C900 
     135 00004c C900          .field          0,8
     136 00004d 0324          .field  804,16                  ; _strDesc[1][0] @ 320
     137 00004e 0045          .field  69,16                   ; _strDesc[1][1] @ 336
     138 00004f 0054          .field  84,16                   ; _strDesc[1][2] @ 352
     139 000050 0041          .field  65,16                   ; _strDesc[1][3] @ 368
     140 000051 0058          .field  88,16                   ; _strDesc[1][4] @ 384
     141 000052 0020          .field  32,16                   ; _strDesc[1][5] @ 400
     142 000053 0053          .field  83,16                   ; _strDesc[1][6] @ 416
     143 000054 004E          .field  78,16                   ; _strDesc[1][7] @ 432
     144 000055 0049          .field  73,16                   ; _strDesc[1][8] @ 448
     145 000056 0054          .field  84,16                   ; _strDesc[1][9] @ 464
     146 000057 0053          .field  83,16                   ; _strDesc[1][10] @ 480
     147 000058 0055          .field  85,16                   ; _strDesc[1][11] @ 496
     148 000059 0052          .field  82,16                   ; _strDesc[1][12] @ 512
     149 00005a 0045          .field  69,16                   ; _strDesc[1][13] @ 528
     150 00005b 004D          .field  77,16                   ; _strDesc[1][14] @ 544
     151 00005c 0054          .field  84,16                   ; _strDesc[1][15] @ 560
     152 00005d 004E          .field  78,16                   ; _strDesc[1][16] @ 576
     153 00005e 0053          .field  83,16                   ; _strDesc[1][17] @ 592
     154 00005f               .space  32
     155 000061 030C          .field  780,16                  ; _strDesc[2][0] @ 640
TMS320C55x Assembler PC v4.4.1 Sat Sep 29 23:08:33 2018

Tools Copyright (c) 1996-2012 Texas Instruments Incorporated
csl_usb_poll_example.asm                                             PAGE    4

     156 000062 0043          .field  67,16                   ; _strDesc[2][1] @ 656
     157 000063 0035          .field  53,16                   ; _strDesc[2][2] @ 672
     158 000064 0035          .field  53,16                   ; _strDesc[2][3] @ 688
     159 000065 0031          .field  49,16                   ; _strDesc[2][4] @ 704
     160 000066 0035          .field  53,16                   ; _strDesc[2][5] @ 720
     161 000067               .space  224
     162 000075 030C          .field  780,16                  ; _strDesc[3][0] @ 960
     163 000076 0030          .field  48,16                   ; _strDesc[3][1] @ 976
     164 000077 0030          .field  48,16                   ; _strDesc[3][2] @ 992
     165 000078 0030          .field  48,16                   ; _strDesc[3][3] @ 1008
     166 000079 0030          .field  48,16                   ; _strDesc[3][4] @ 1024
     167 00007a 0031          .field  49,16                   ; _strDesc[3][5] @ 1040
     168              $C$IR_4:        .set    46
     169              
     170 00007b               .sect   ".cinit"
     171                      .align  1
     172 00007b 0001          .field          1,16
     173 00007c 0002-         .field          _PaSs_StAtE+0,24
         00007d 0500 
     174 00007d 0500          .field          0,8
     175 00007e 0001          .field  1,16                    ; _PaSs_StAtE @ 0
     176              
     177 00007f               .sect   ".cinit"
     178                      .align  1
     179 00007f 0001          .field          1,16
     180 000080 0002-         .field          _PaSs+0,24
         000081 0600 
     181 000081 0600          .field          0,8
     182 000082 0000          .field  0,16                    ; _PaSs @ 0
     183              
     184              
     185              $C$DW$1 .dwtag  DW_TAG_subprogram, DW_AT_name("memcpy")
     186                      .dwattr $C$DW$1, DW_AT_TI_symbol_name("_memcpy")
     187                      .dwattr $C$DW$1, DW_AT_type(*$C$DW$T$3)
     188                      .dwattr $C$DW$1, DW_AT_declaration
     189                      .dwattr $C$DW$1, DW_AT_external
     190              $C$DW$2 .dwtag  DW_TAG_formal_parameter
     191                      .dwattr $C$DW$2, DW_AT_type(*$C$DW$T$3)
     192              $C$DW$3 .dwtag  DW_TAG_formal_parameter
     193                      .dwattr $C$DW$3, DW_AT_type(*$C$DW$T$175)
     194              $C$DW$4 .dwtag  DW_TAG_formal_parameter
     195                      .dwattr $C$DW$4, DW_AT_type(*$C$DW$T$11)
     196                      .dwendtag $C$DW$1
     197              
     198              
     199              $C$DW$5 .dwtag  DW_TAG_subprogram, DW_AT_name("printf")
     200                      .dwattr $C$DW$5, DW_AT_TI_symbol_name("_printf")
     201                      .dwattr $C$DW$5, DW_AT_type(*$C$DW$T$10)
     202                      .dwattr $C$DW$5, DW_AT_declaration
     203                      .dwattr $C$DW$5, DW_AT_external
     204              $C$DW$6 .dwtag  DW_TAG_formal_parameter
     205                      .dwattr $C$DW$6, DW_AT_type(*$C$DW$T$258)
     206              $C$DW$7 .dwtag  DW_TAG_unspecified_parameters
     207                      .dwendtag $C$DW$5
     208              
TMS320C55x Assembler PC v4.4.1 Sat Sep 29 23:08:33 2018

Tools Copyright (c) 1996-2012 Texas Instruments Incorporated
csl_usb_poll_example.asm                                             PAGE    5

     209              
     210              $C$DW$8 .dwtag  DW_TAG_subprogram, DW_AT_name("USB_init")
     211                      .dwattr $C$DW$8, DW_AT_TI_symbol_name("_USB_init")
     212                      .dwattr $C$DW$8, DW_AT_type(*$C$DW$T$89)
     213                      .dwattr $C$DW$8, DW_AT_declaration
     214                      .dwattr $C$DW$8, DW_AT_external
     215              $C$DW$9 .dwtag  DW_TAG_formal_parameter
     216                      .dwattr $C$DW$9, DW_AT_type(*$C$DW$T$164)
     217                      .dwendtag $C$DW$8
     218              
     219              
     220              $C$DW$10        .dwtag  DW_TAG_subprogram, DW_AT_name("USB_resetDev")
     221                      .dwattr $C$DW$10, DW_AT_TI_symbol_name("_USB_resetDev")
     222                      .dwattr $C$DW$10, DW_AT_type(*$C$DW$T$89)
     223                      .dwattr $C$DW$10, DW_AT_declaration
     224                      .dwattr $C$DW$10, DW_AT_external
     225              $C$DW$11        .dwtag  DW_TAG_formal_parameter
     226                      .dwattr $C$DW$11, DW_AT_type(*$C$DW$T$82)
     227                      .dwendtag $C$DW$10
     228              
     229              
     230              $C$DW$12        .dwtag  DW_TAG_subprogram, DW_AT_name("USB_initEndptObj")
     231                      .dwattr $C$DW$12, DW_AT_TI_symbol_name("_USB_initEndptObj")
     232                      .dwattr $C$DW$12, DW_AT_type(*$C$DW$T$89)
     233                      .dwattr $C$DW$12, DW_AT_declaration
     234                      .dwattr $C$DW$12, DW_AT_external
     235              $C$DW$13        .dwtag  DW_TAG_formal_parameter
     236                      .dwattr $C$DW$13, DW_AT_type(*$C$DW$T$82)
     237              $C$DW$14        .dwtag  DW_TAG_formal_parameter
     238                      .dwattr $C$DW$14, DW_AT_type(*$C$DW$T$116)
     239              $C$DW$15        .dwtag  DW_TAG_formal_parameter
     240                      .dwattr $C$DW$15, DW_AT_type(*$C$DW$T$122)
     241              $C$DW$16        .dwtag  DW_TAG_formal_parameter
     242                      .dwattr $C$DW$16, DW_AT_type(*$C$DW$T$124)
     243              $C$DW$17        .dwtag  DW_TAG_formal_parameter
     244                      .dwattr $C$DW$17, DW_AT_type(*$C$DW$T$19)
     245              $C$DW$18        .dwtag  DW_TAG_formal_parameter
     246                      .dwattr $C$DW$18, DW_AT_type(*$C$DW$T$19)
     247              $C$DW$19        .dwtag  DW_TAG_formal_parameter
     248                      .dwattr $C$DW$19, DW_AT_type(*$C$DW$T$127)
     249                      .dwendtag $C$DW$12
     250              
     251              
     252              $C$DW$20        .dwtag  DW_TAG_subprogram, DW_AT_name("USB_getSetupPacket")
     253                      .dwattr $C$DW$20, DW_AT_TI_symbol_name("_USB_getSetupPacket")
     254                      .dwattr $C$DW$20, DW_AT_type(*$C$DW$T$89)
     255                      .dwattr $C$DW$20, DW_AT_declaration
     256                      .dwattr $C$DW$20, DW_AT_external
     257              $C$DW$21        .dwtag  DW_TAG_formal_parameter
     258                      .dwattr $C$DW$21, DW_AT_type(*$C$DW$T$82)
     259              $C$DW$22        .dwtag  DW_TAG_formal_parameter
     260                      .dwattr $C$DW$22, DW_AT_type(*$C$DW$T$172)
     261              $C$DW$23        .dwtag  DW_TAG_formal_parameter
     262                      .dwattr $C$DW$23, DW_AT_type(*$C$DW$T$95)
     263                      .dwendtag $C$DW$20
TMS320C55x Assembler PC v4.4.1 Sat Sep 29 23:08:33 2018

Tools Copyright (c) 1996-2012 Texas Instruments Incorporated
csl_usb_poll_example.asm                                             PAGE    6

     264              
     265              
     266              $C$DW$24        .dwtag  DW_TAG_subprogram, DW_AT_name("USB_postTransaction")
     267                      .dwattr $C$DW$24, DW_AT_TI_symbol_name("_USB_postTransaction")
     268                      .dwattr $C$DW$24, DW_AT_type(*$C$DW$T$89)
     269                      .dwattr $C$DW$24, DW_AT_declaration
     270                      .dwattr $C$DW$24, DW_AT_external
     271              $C$DW$25        .dwtag  DW_TAG_formal_parameter
     272                      .dwattr $C$DW$25, DW_AT_type(*$C$DW$T$116)
     273              $C$DW$26        .dwtag  DW_TAG_formal_parameter
     274                      .dwattr $C$DW$26, DW_AT_type(*$C$DW$T$19)
     275              $C$DW$27        .dwtag  DW_TAG_formal_parameter
     276                      .dwattr $C$DW$27, DW_AT_type(*$C$DW$T$3)
     277              $C$DW$28        .dwtag  DW_TAG_formal_parameter
     278                      .dwattr $C$DW$28, DW_AT_type(*$C$DW$T$136)
     279                      .dwendtag $C$DW$24
     280              
     281              
     282              $C$DW$29        .dwtag  DW_TAG_subprogram, DW_AT_name("USB_isTransactionDone")
     283                      .dwattr $C$DW$29, DW_AT_TI_symbol_name("_USB_isTransactionDone")
     284                      .dwattr $C$DW$29, DW_AT_type(*$C$DW$T$102)
     285                      .dwattr $C$DW$29, DW_AT_declaration
     286                      .dwattr $C$DW$29, DW_AT_external
     287              $C$DW$30        .dwtag  DW_TAG_formal_parameter
     288                      .dwattr $C$DW$30, DW_AT_type(*$C$DW$T$116)
     289              $C$DW$31        .dwtag  DW_TAG_formal_parameter
     290                      .dwattr $C$DW$31, DW_AT_type(*$C$DW$T$138)
     291                      .dwendtag $C$DW$29
     292              
     293              
     294              $C$DW$32        .dwtag  DW_TAG_subprogram, DW_AT_name("USB_bytesRemaining")
     295                      .dwattr $C$DW$32, DW_AT_TI_symbol_name("_USB_bytesRemaining")
     296                      .dwattr $C$DW$32, DW_AT_type(*$C$DW$T$236)
     297                      .dwattr $C$DW$32, DW_AT_declaration
     298                      .dwattr $C$DW$32, DW_AT_external
     299              $C$DW$33        .dwtag  DW_TAG_formal_parameter
     300                      .dwattr $C$DW$33, DW_AT_type(*$C$DW$T$116)
     301              $C$DW$34        .dwtag  DW_TAG_formal_parameter
     302                      .dwattr $C$DW$34, DW_AT_type(*$C$DW$T$138)
     303                      .dwendtag $C$DW$32
     304              
     305              
     306              $C$DW$35        .dwtag  DW_TAG_subprogram, DW_AT_name("USB_stallEndpt")
     307                      .dwattr $C$DW$35, DW_AT_TI_symbol_name("_USB_stallEndpt")
     308                      .dwattr $C$DW$35, DW_AT_type(*$C$DW$T$89)
     309                      .dwattr $C$DW$35, DW_AT_declaration
     310                      .dwattr $C$DW$35, DW_AT_external
     311              $C$DW$36        .dwtag  DW_TAG_formal_parameter
     312                      .dwattr $C$DW$36, DW_AT_type(*$C$DW$T$116)
     313                      .dwendtag $C$DW$35
     314              
     315              
     316              $C$DW$37        .dwtag  DW_TAG_subprogram, DW_AT_name("USB_clearEndptStall")
     317                      .dwattr $C$DW$37, DW_AT_TI_symbol_name("_USB_clearEndptStall")
     318                      .dwattr $C$DW$37, DW_AT_type(*$C$DW$T$89)
TMS320C55x Assembler PC v4.4.1 Sat Sep 29 23:08:33 2018

Tools Copyright (c) 1996-2012 Texas Instruments Incorporated
csl_usb_poll_example.asm                                             PAGE    7

     319                      .dwattr $C$DW$37, DW_AT_declaration
     320                      .dwattr $C$DW$37, DW_AT_external
     321              $C$DW$38        .dwtag  DW_TAG_formal_parameter
     322                      .dwattr $C$DW$38, DW_AT_type(*$C$DW$T$116)
     323                      .dwendtag $C$DW$37
     324              
     325              
     326              $C$DW$39        .dwtag  DW_TAG_subprogram, DW_AT_name("USB_getEndptStall")
     327                      .dwattr $C$DW$39, DW_AT_TI_symbol_name("_USB_getEndptStall")
     328                      .dwattr $C$DW$39, DW_AT_type(*$C$DW$T$102)
     329                      .dwattr $C$DW$39, DW_AT_declaration
     330                      .dwattr $C$DW$39, DW_AT_external
     331              $C$DW$40        .dwtag  DW_TAG_formal_parameter
     332                      .dwattr $C$DW$40, DW_AT_type(*$C$DW$T$116)
     333              $C$DW$41        .dwtag  DW_TAG_formal_parameter
     334                      .dwattr $C$DW$41, DW_AT_type(*$C$DW$T$138)
     335                      .dwendtag $C$DW$39
     336              
     337              
     338              $C$DW$42        .dwtag  DW_TAG_subprogram, DW_AT_name("USB_epNumToHandle")
     339                      .dwattr $C$DW$42, DW_AT_TI_symbol_name("_USB_epNumToHandle")
     340                      .dwattr $C$DW$42, DW_AT_type(*$C$DW$T$116)
     341                      .dwattr $C$DW$42, DW_AT_declaration
     342                      .dwattr $C$DW$42, DW_AT_external
     343              $C$DW$43        .dwtag  DW_TAG_formal_parameter
     344                      .dwattr $C$DW$43, DW_AT_type(*$C$DW$T$82)
     345              $C$DW$44        .dwtag  DW_TAG_formal_parameter
     346                      .dwattr $C$DW$44, DW_AT_type(*$C$DW$T$19)
     347                      .dwendtag $C$DW$42
     348              
     349              
     350              $C$DW$45        .dwtag  DW_TAG_subprogram, DW_AT_name("USB_connectDev")
     351                      .dwattr $C$DW$45, DW_AT_TI_symbol_name("_USB_connectDev")
     352                      .dwattr $C$DW$45, DW_AT_type(*$C$DW$T$89)
     353                      .dwattr $C$DW$45, DW_AT_declaration
     354                      .dwattr $C$DW$45, DW_AT_external
     355              $C$DW$46        .dwtag  DW_TAG_formal_parameter
     356                      .dwattr $C$DW$46, DW_AT_type(*$C$DW$T$82)
     357                      .dwendtag $C$DW$45
     358              
     359              
     360              $C$DW$47        .dwtag  DW_TAG_subprogram, DW_AT_name("USB_disconnectDev")
     361                      .dwattr $C$DW$47, DW_AT_TI_symbol_name("_USB_disconnectDev")
     362                      .dwattr $C$DW$47, DW_AT_type(*$C$DW$T$89)
     363                      .dwattr $C$DW$47, DW_AT_declaration
     364                      .dwattr $C$DW$47, DW_AT_external
     365              $C$DW$48        .dwtag  DW_TAG_formal_parameter
     366                      .dwattr $C$DW$48, DW_AT_type(*$C$DW$T$82)
     367                      .dwendtag $C$DW$47
     368              
     369              
     370              $C$DW$49        .dwtag  DW_TAG_subprogram, DW_AT_name("USB_setRemoteWakeup")
     371                      .dwattr $C$DW$49, DW_AT_TI_symbol_name("_USB_setRemoteWakeup")
     372                      .dwattr $C$DW$49, DW_AT_type(*$C$DW$T$89)
     373                      .dwattr $C$DW$49, DW_AT_declaration
TMS320C55x Assembler PC v4.4.1 Sat Sep 29 23:08:33 2018

Tools Copyright (c) 1996-2012 Texas Instruments Incorporated
csl_usb_poll_example.asm                                             PAGE    8

     374                      .dwattr $C$DW$49, DW_AT_external
     375              $C$DW$50        .dwtag  DW_TAG_formal_parameter
     376                      .dwattr $C$DW$50, DW_AT_type(*$C$DW$T$82)
     377              $C$DW$51        .dwtag  DW_TAG_formal_parameter
     378                      .dwattr $C$DW$51, DW_AT_type(*$C$DW$T$102)
     379                      .dwendtag $C$DW$49
     380              
     381              
     382              $C$DW$52        .dwtag  DW_TAG_subprogram, DW_AT_name("USB_getRemoteWakeupStat")
     383                      .dwattr $C$DW$52, DW_AT_TI_symbol_name("_USB_getRemoteWakeupStat")
     384                      .dwattr $C$DW$52, DW_AT_type(*$C$DW$T$102)
     385                      .dwattr $C$DW$52, DW_AT_declaration
     386                      .dwattr $C$DW$52, DW_AT_external
     387              $C$DW$53        .dwtag  DW_TAG_formal_parameter
     388                      .dwattr $C$DW$53, DW_AT_type(*$C$DW$T$82)
     389                      .dwendtag $C$DW$52
     390              
     391              
     392              $C$DW$54        .dwtag  DW_TAG_subprogram, DW_AT_name("USB_issueRemoteWakeup")
     393                      .dwattr $C$DW$54, DW_AT_TI_symbol_name("_USB_issueRemoteWakeup")
     394                      .dwattr $C$DW$54, DW_AT_type(*$C$DW$T$89)
     395                      .dwattr $C$DW$54, DW_AT_declaration
     396                      .dwattr $C$DW$54, DW_AT_external
     397              $C$DW$55        .dwtag  DW_TAG_formal_parameter
     398                      .dwattr $C$DW$55, DW_AT_type(*$C$DW$T$82)
     399              $C$DW$56        .dwtag  DW_TAG_formal_parameter
     400                      .dwattr $C$DW$56, DW_AT_type(*$C$DW$T$95)
     401                      .dwendtag $C$DW$54
     402              
     403              
     404              $C$DW$57        .dwtag  DW_TAG_subprogram, DW_AT_name("USB_setDevAddr")
     405                      .dwattr $C$DW$57, DW_AT_TI_symbol_name("_USB_setDevAddr")
     406                      .dwattr $C$DW$57, DW_AT_type(*$C$DW$T$89)
     407                      .dwattr $C$DW$57, DW_AT_declaration
     408                      .dwattr $C$DW$57, DW_AT_external
     409              $C$DW$58        .dwtag  DW_TAG_formal_parameter
     410                      .dwattr $C$DW$58, DW_AT_type(*$C$DW$T$82)
     411              $C$DW$59        .dwtag  DW_TAG_formal_parameter
     412                      .dwattr $C$DW$59, DW_AT_type(*$C$DW$T$19)
     413                      .dwendtag $C$DW$57
     414              
     415              
     416              $C$DW$60        .dwtag  DW_TAG_subprogram, DW_AT_name("USB_suspendDevice")
     417                      .dwattr $C$DW$60, DW_AT_TI_symbol_name("_USB_suspendDevice")
     418                      .dwattr $C$DW$60, DW_AT_type(*$C$DW$T$89)
     419                      .dwattr $C$DW$60, DW_AT_declaration
     420                      .dwattr $C$DW$60, DW_AT_external
     421              $C$DW$61        .dwtag  DW_TAG_formal_parameter
     422                      .dwattr $C$DW$61, DW_AT_type(*$C$DW$T$82)
     423                      .dwendtag $C$DW$60
     424              
     425              
     426              $C$DW$62        .dwtag  DW_TAG_subprogram, DW_AT_name("USB_selfwakeup")
     427                      .dwattr $C$DW$62, DW_AT_TI_symbol_name("_USB_selfwakeup")
     428                      .dwattr $C$DW$62, DW_AT_type(*$C$DW$T$89)
TMS320C55x Assembler PC v4.4.1 Sat Sep 29 23:08:33 2018

Tools Copyright (c) 1996-2012 Texas Instruments Incorporated
csl_usb_poll_example.asm                                             PAGE    9

     429                      .dwattr $C$DW$62, DW_AT_declaration
     430                      .dwattr $C$DW$62, DW_AT_external
     431              $C$DW$63        .dwtag  DW_TAG_formal_parameter
     432                      .dwattr $C$DW$63, DW_AT_type(*$C$DW$T$82)
     433              $C$DW$64        .dwtag  DW_TAG_formal_parameter
     434                      .dwattr $C$DW$64, DW_AT_type(*$C$DW$T$97)
     435                      .dwendtag $C$DW$62
     436              
     437              
     438              $C$DW$65        .dwtag  DW_TAG_subprogram, DW_AT_name("USB_setParams")
     439                      .dwattr $C$DW$65, DW_AT_TI_symbol_name("_USB_setParams")
     440                      .dwattr $C$DW$65, DW_AT_type(*$C$DW$T$89)
     441                      .dwattr $C$DW$65, DW_AT_declaration
     442                      .dwattr $C$DW$65, DW_AT_external
     443              $C$DW$66        .dwtag  DW_TAG_formal_parameter
     444                      .dwattr $C$DW$66, DW_AT_type(*$C$DW$T$82)
     445              $C$DW$67        .dwtag  DW_TAG_formal_parameter
     446                      .dwattr $C$DW$67, DW_AT_type(*$C$DW$T$170)
     447              $C$DW$68        .dwtag  DW_TAG_formal_parameter
     448                      .dwattr $C$DW$68, DW_AT_type(*$C$DW$T$19)
     449                      .dwendtag $C$DW$65
     450              
     451              
     452              $C$DW$69        .dwtag  DW_TAG_subprogram, DW_AT_name("USB_getDataCountReadFromFifo")
     453                      .dwattr $C$DW$69, DW_AT_TI_symbol_name("_USB_getDataCountReadFromFifo")
     454                      .dwattr $C$DW$69, DW_AT_type(*$C$DW$T$19)
     455                      .dwattr $C$DW$69, DW_AT_declaration
     456                      .dwattr $C$DW$69, DW_AT_external
     457              $C$DW$70        .dwtag  DW_TAG_formal_parameter
     458                      .dwattr $C$DW$70, DW_AT_type(*$C$DW$T$116)
     459                      .dwendtag $C$DW$69
     460              
     461              
     462              $C$DW$71        .dwtag  DW_TAG_subprogram, DW_AT_name("IRQ_plug")
     463                      .dwattr $C$DW$71, DW_AT_TI_symbol_name("_IRQ_plug")
     464                      .dwattr $C$DW$71, DW_AT_type(*$C$DW$T$10)
     465                      .dwattr $C$DW$71, DW_AT_declaration
     466                      .dwattr $C$DW$71, DW_AT_external
     467              $C$DW$72        .dwtag  DW_TAG_formal_parameter
     468                      .dwattr $C$DW$72, DW_AT_type(*$C$DW$T$19)
     469              $C$DW$73        .dwtag  DW_TAG_formal_parameter
     470                      .dwattr $C$DW$73, DW_AT_type(*$C$DW$T$179)
     471                      .dwendtag $C$DW$71
     472              
     473              
     474              $C$DW$74        .dwtag  DW_TAG_subprogram, DW_AT_name("IRQ_clear")
     475                      .dwattr $C$DW$74, DW_AT_TI_symbol_name("_IRQ_clear")
     476                      .dwattr $C$DW$74, DW_AT_type(*$C$DW$T$89)
     477                      .dwattr $C$DW$74, DW_AT_declaration
     478                      .dwattr $C$DW$74, DW_AT_external
     479              $C$DW$75        .dwtag  DW_TAG_formal_parameter
     480                      .dwattr $C$DW$75, DW_AT_type(*$C$DW$T$19)
     481                      .dwendtag $C$DW$74
     482              
     483              
TMS320C55x Assembler PC v4.4.1 Sat Sep 29 23:08:33 2018

Tools Copyright (c) 1996-2012 Texas Instruments Incorporated
csl_usb_poll_example.asm                                             PAGE   10

     484              $C$DW$76        .dwtag  DW_TAG_subprogram, DW_AT_name("IRQ_enable")
     485                      .dwattr $C$DW$76, DW_AT_TI_symbol_name("_IRQ_enable")
     486                      .dwattr $C$DW$76, DW_AT_type(*$C$DW$T$10)
     487                      .dwattr $C$DW$76, DW_AT_declaration
     488                      .dwattr $C$DW$76, DW_AT_external
     489              $C$DW$77        .dwtag  DW_TAG_formal_parameter
     490                      .dwattr $C$DW$77, DW_AT_type(*$C$DW$T$19)
     491                      .dwendtag $C$DW$76
     492              
     493              
     494              $C$DW$78        .dwtag  DW_TAG_subprogram, DW_AT_name("IRQ_setVecs")
     495                      .dwattr $C$DW$78, DW_AT_TI_symbol_name("_IRQ_setVecs")
     496                      .dwattr $C$DW$78, DW_AT_type(*$C$DW$T$89)
     497                      .dwattr $C$DW$78, DW_AT_declaration
     498                      .dwattr $C$DW$78, DW_AT_external
     499              $C$DW$79        .dwtag  DW_TAG_formal_parameter
     500                      .dwattr $C$DW$79, DW_AT_type(*$C$DW$T$97)
     501                      .dwendtag $C$DW$78
     502              
     503              
     504              $C$DW$80        .dwtag  DW_TAG_subprogram, DW_AT_name("IRQ_test")
     505                      .dwattr $C$DW$80, DW_AT_TI_symbol_name("_IRQ_test")
     506                      .dwattr $C$DW$80, DW_AT_type(*$C$DW$T$89)
     507                      .dwattr $C$DW$80, DW_AT_declaration
     508                      .dwattr $C$DW$80, DW_AT_external
     509              $C$DW$81        .dwtag  DW_TAG_formal_parameter
     510                      .dwattr $C$DW$81, DW_AT_type(*$C$DW$T$19)
     511              $C$DW$82        .dwtag  DW_TAG_formal_parameter
     512                      .dwattr $C$DW$82, DW_AT_type(*$C$DW$T$212)
     513                      .dwendtag $C$DW$80
     514              
     515              
     516              $C$DW$83        .dwtag  DW_TAG_subprogram, DW_AT_name("IRQ_globalDisable")
     517                      .dwattr $C$DW$83, DW_AT_TI_symbol_name("_IRQ_globalDisable")
     518                      .dwattr $C$DW$83, DW_AT_type(*$C$DW$T$95)
     519                      .dwattr $C$DW$83, DW_AT_declaration
     520                      .dwattr $C$DW$83, DW_AT_external
     521              
     522              $C$DW$84        .dwtag  DW_TAG_subprogram, DW_AT_name("IRQ_globalEnable")
     523                      .dwattr $C$DW$84, DW_AT_TI_symbol_name("_IRQ_globalEnable")
     524                      .dwattr $C$DW$84, DW_AT_type(*$C$DW$T$95)
     525                      .dwattr $C$DW$84, DW_AT_declaration
     526                      .dwattr $C$DW$84, DW_AT_external
     527              
     528              $C$DW$85        .dwtag  DW_TAG_subprogram, DW_AT_name("SAR_init")
     529                      .dwattr $C$DW$85, DW_AT_TI_symbol_name("_SAR_init")
     530                      .dwattr $C$DW$85, DW_AT_type(*$C$DW$T$89)
     531                      .dwattr $C$DW$85, DW_AT_declaration
     532                      .dwattr $C$DW$85, DW_AT_external
     533              
     534              $C$DW$86        .dwtag  DW_TAG_subprogram, DW_AT_name("SAR_chanOpen")
     535                      .dwattr $C$DW$86, DW_AT_TI_symbol_name("_SAR_chanOpen")
     536                      .dwattr $C$DW$86, DW_AT_type(*$C$DW$T$89)
     537                      .dwattr $C$DW$86, DW_AT_declaration
     538                      .dwattr $C$DW$86, DW_AT_external
TMS320C55x Assembler PC v4.4.1 Sat Sep 29 23:08:33 2018

Tools Copyright (c) 1996-2012 Texas Instruments Incorporated
csl_usb_poll_example.asm                                             PAGE   11

     539              $C$DW$87        .dwtag  DW_TAG_formal_parameter
     540                      .dwattr $C$DW$87, DW_AT_type(*$C$DW$T$151)
     541              $C$DW$88        .dwtag  DW_TAG_formal_parameter
     542                      .dwattr $C$DW$88, DW_AT_type(*$C$DW$T$144)
     543                      .dwendtag $C$DW$86
     544              
     545              
     546              $C$DW$89        .dwtag  DW_TAG_subprogram, DW_AT_name("SAR_chanInit")
     547                      .dwattr $C$DW$89, DW_AT_TI_symbol_name("_SAR_chanInit")
     548                      .dwattr $C$DW$89, DW_AT_type(*$C$DW$T$89)
     549                      .dwattr $C$DW$89, DW_AT_declaration
     550                      .dwattr $C$DW$89, DW_AT_external
     551              $C$DW$90        .dwtag  DW_TAG_formal_parameter
     552                      .dwattr $C$DW$90, DW_AT_type(*$C$DW$T$152)
     553                      .dwendtag $C$DW$89
     554              
     555              
     556              $C$DW$91        .dwtag  DW_TAG_subprogram, DW_AT_name("SAR_chanSetup")
     557                      .dwattr $C$DW$91, DW_AT_TI_symbol_name("_SAR_chanSetup")
     558                      .dwattr $C$DW$91, DW_AT_type(*$C$DW$T$89)
     559                      .dwattr $C$DW$91, DW_AT_declaration
     560                      .dwattr $C$DW$91, DW_AT_external
     561              $C$DW$92        .dwtag  DW_TAG_formal_parameter
     562                      .dwattr $C$DW$92, DW_AT_type(*$C$DW$T$151)
     563              $C$DW$93        .dwtag  DW_TAG_formal_parameter
     564                      .dwattr $C$DW$93, DW_AT_type(*$C$DW$T$154)
     565                      .dwendtag $C$DW$91
     566              
     567              
     568              $C$DW$94        .dwtag  DW_TAG_subprogram, DW_AT_name("SAR_chanCycSet")
     569                      .dwattr $C$DW$94, DW_AT_TI_symbol_name("_SAR_chanCycSet")
     570                      .dwattr $C$DW$94, DW_AT_type(*$C$DW$T$89)
     571                      .dwattr $C$DW$94, DW_AT_declaration
     572                      .dwattr $C$DW$94, DW_AT_external
     573              $C$DW$95        .dwtag  DW_TAG_formal_parameter
     574                      .dwattr $C$DW$95, DW_AT_type(*$C$DW$T$151)
     575              $C$DW$96        .dwtag  DW_TAG_formal_parameter
     576                      .dwattr $C$DW$96, DW_AT_type(*$C$DW$T$147)
     577                      .dwendtag $C$DW$94
     578              
     579              
     580              $C$DW$97        .dwtag  DW_TAG_subprogram, DW_AT_name("SAR_startConversion")
     581                      .dwattr $C$DW$97, DW_AT_TI_symbol_name("_SAR_startConversion")
     582                      .dwattr $C$DW$97, DW_AT_type(*$C$DW$T$89)
     583                      .dwattr $C$DW$97, DW_AT_declaration
     584                      .dwattr $C$DW$97, DW_AT_external
     585              $C$DW$98        .dwtag  DW_TAG_formal_parameter
     586                      .dwattr $C$DW$98, DW_AT_type(*$C$DW$T$151)
     587                      .dwendtag $C$DW$97
     588              
     589              
     590              $C$DW$99        .dwtag  DW_TAG_subprogram, DW_AT_name("SAR_A2DMeasParamSet")
     591                      .dwattr $C$DW$99, DW_AT_TI_symbol_name("_SAR_A2DMeasParamSet")
     592                      .dwattr $C$DW$99, DW_AT_type(*$C$DW$T$89)
     593                      .dwattr $C$DW$99, DW_AT_declaration
TMS320C55x Assembler PC v4.4.1 Sat Sep 29 23:08:33 2018

Tools Copyright (c) 1996-2012 Texas Instruments Incorporated
csl_usb_poll_example.asm                                             PAGE   12

     594                      .dwattr $C$DW$99, DW_AT_external
     595              $C$DW$100       .dwtag  DW_TAG_formal_parameter
     596                      .dwattr $C$DW$100, DW_AT_type(*$C$DW$T$151)
     597              $C$DW$101       .dwtag  DW_TAG_formal_parameter
     598                      .dwattr $C$DW$101, DW_AT_type(*$C$DW$T$149)
     599              $C$DW$102       .dwtag  DW_TAG_formal_parameter
     600                      .dwattr $C$DW$102, DW_AT_type(*$C$DW$T$145)
     601                      .dwendtag $C$DW$99
     602              
     603              
     604              $C$DW$103       .dwtag  DW_TAG_subprogram, DW_AT_name("SAR_readData")
     605                      .dwattr $C$DW$103, DW_AT_TI_symbol_name("_SAR_readData")
     606                      .dwattr $C$DW$103, DW_AT_type(*$C$DW$T$89)
     607                      .dwattr $C$DW$103, DW_AT_declaration
     608                      .dwattr $C$DW$103, DW_AT_external
     609              $C$DW$104       .dwtag  DW_TAG_formal_parameter
     610                      .dwattr $C$DW$104, DW_AT_type(*$C$DW$T$151)
     611              $C$DW$105       .dwtag  DW_TAG_formal_parameter
     612                      .dwattr $C$DW$105, DW_AT_type(*$C$DW$T$112)
     613                      .dwendtag $C$DW$103
     614              
     615              
     616              $C$DW$106       .dwtag  DW_TAG_subprogram, DW_AT_name("VECSTART")
     617                      .dwattr $C$DW$106, DW_AT_TI_symbol_name("_VECSTART")
     618                      .dwattr $C$DW$106, DW_AT_declaration
     619                      .dwattr $C$DW$106, DW_AT_external
     620              $C$DW$107       .dwtag  DW_TAG_variable, DW_AT_name("usbRegisters")
     621                      .dwattr $C$DW$107, DW_AT_TI_symbol_name("_usbRegisters")
     622                      .dwattr $C$DW$107, DW_AT_type(*$C$DW$T$158)
     623                      .dwattr $C$DW$107, DW_AT_declaration
     624                      .dwattr $C$DW$107, DW_AT_external
     625              $C$DW$108       .dwtag  DW_TAG_variable, DW_AT_name("sysCtrlRegs")
     626                      .dwattr $C$DW$108, DW_AT_TI_symbol_name("_sysCtrlRegs")
     627                      .dwattr $C$DW$108, DW_AT_type(*$C$DW$T$162)
     628                      .dwattr $C$DW$108, DW_AT_declaration
     629                      .dwattr $C$DW$108, DW_AT_external
     630              $C$DW$109       .dwtag  DW_TAG_variable, DW_AT_name("gUsbContext")
     631                      .dwattr $C$DW$109, DW_AT_TI_symbol_name("_gUsbContext")
     632                      .dwattr $C$DW$109, DW_AT_type(*$C$DW$T$165)
     633                      .dwattr $C$DW$109, DW_AT_declaration
     634                      .dwattr $C$DW$109, DW_AT_external
     635                      .global _SarObj
     636 000000               .bss    _SarObj,3,0,0
     637              $C$DW$110       .dwtag  DW_TAG_variable, DW_AT_name("SarObj")
     638                      .dwattr $C$DW$110, DW_AT_TI_symbol_name("_SarObj")
     639                      .dwattr $C$DW$110, DW_AT_location[DW_OP_addr _SarObj]
     640                      .dwattr $C$DW$110, DW_AT_type(*$C$DW$T$150)
     641                      .dwattr $C$DW$110, DW_AT_external
     642                      .global _SarHandle
     643 000004               .bss    _SarHandle,2,0,2
     644              $C$DW$111       .dwtag  DW_TAG_variable, DW_AT_name("SarHandle")
     645                      .dwattr $C$DW$111, DW_AT_TI_symbol_name("_SarHandle")
     646                      .dwattr $C$DW$111, DW_AT_location[DW_OP_addr _SarHandle]
     647                      .dwattr $C$DW$111, DW_AT_type(*$C$DW$T$151)
     648                      .dwattr $C$DW$111, DW_AT_external
TMS320C55x Assembler PC v4.4.1 Sat Sep 29 23:08:33 2018

Tools Copyright (c) 1996-2012 Texas Instruments Incorporated
csl_usb_poll_example.asm                                             PAGE   13

     649                      .global _readBuffer
     650 000003               .bss    _readBuffer,1,0,0
     651              $C$DW$112       .dwtag  DW_TAG_variable, DW_AT_name("readBuffer")
     652                      .dwattr $C$DW$112, DW_AT_TI_symbol_name("_readBuffer")
     653                      .dwattr $C$DW$112, DW_AT_location[DW_OP_addr _readBuffer]
     654                      .dwattr $C$DW$112, DW_AT_type(*$C$DW$T$19)
     655                      .dwattr $C$DW$112, DW_AT_external
     656                      .global _selfWakeupServiced
     657 000006               .bss    _selfWakeupServiced,1,0,0
     658              $C$DW$113       .dwtag  DW_TAG_variable, DW_AT_name("selfWakeupServiced")
     659                      .dwattr $C$DW$113, DW_AT_TI_symbol_name("_selfWakeupServiced")
     660                      .dwattr $C$DW$113, DW_AT_location[DW_OP_addr _selfWakeupServiced]
     661                      .dwattr $C$DW$113, DW_AT_type(*$C$DW$T$19)
     662                      .dwattr $C$DW$113, DW_AT_external
     663                      .global _hEpObjArray
     664 000008               .bss    _hEpObjArray,16,0,2
     665              $C$DW$114       .dwtag  DW_TAG_variable, DW_AT_name("hEpObjArray")
     666                      .dwattr $C$DW$114, DW_AT_TI_symbol_name("_hEpObjArray")
     667                      .dwattr $C$DW$114, DW_AT_location[DW_OP_addr _hEpObjArray]
     668                      .dwattr $C$DW$114, DW_AT_type(*$C$DW$T$117)
     669                      .dwattr $C$DW$114, DW_AT_external
     670                      .global _usbCtrlOutEpObj
     671 000018               .bss    _usbCtrlOutEpObj,20,0,2
     672              $C$DW$115       .dwtag  DW_TAG_variable, DW_AT_name("usbCtrlOutEpObj")
     673                      .dwattr $C$DW$115, DW_AT_TI_symbol_name("_usbCtrlOutEpObj")
     674                      .dwattr $C$DW$115, DW_AT_location[DW_OP_addr _usbCtrlOutEpObj]
     675                      .dwattr $C$DW$115, DW_AT_type(*$C$DW$T$114)
     676                      .dwattr $C$DW$115, DW_AT_external
     677                      .global _usbCtrlInEpObj
     678 00002c               .bss    _usbCtrlInEpObj,20,0,2
     679              $C$DW$116       .dwtag  DW_TAG_variable, DW_AT_name("usbCtrlInEpObj")
     680                      .dwattr $C$DW$116, DW_AT_TI_symbol_name("_usbCtrlInEpObj")
     681                      .dwattr $C$DW$116, DW_AT_location[DW_OP_addr _usbCtrlInEpObj]
     682                      .dwattr $C$DW$116, DW_AT_type(*$C$DW$T$114)
     683                      .dwattr $C$DW$116, DW_AT_external
     684                      .global _usbBulkOutEpObj
     685 000040               .bss    _usbBulkOutEpObj,20,0,2
     686              $C$DW$117       .dwtag  DW_TAG_variable, DW_AT_name("usbBulkOutEpObj")
     687                      .dwattr $C$DW$117, DW_AT_TI_symbol_name("_usbBulkOutEpObj")
     688                      .dwattr $C$DW$117, DW_AT_location[DW_OP_addr _usbBulkOutEpObj]
     689                      .dwattr $C$DW$117, DW_AT_type(*$C$DW$T$114)
     690                      .dwattr $C$DW$117, DW_AT_external
     691                      .global _usbBulkInEpObj
     692 000054               .bss    _usbBulkInEpObj,20,0,2
     693              $C$DW$118       .dwtag  DW_TAG_variable, DW_AT_name("usbBulkInEpObj")
     694                      .dwattr $C$DW$118, DW_AT_TI_symbol_name("_usbBulkInEpObj")
     695                      .dwattr $C$DW$118, DW_AT_location[DW_OP_addr _usbBulkInEpObj]
     696                      .dwattr $C$DW$118, DW_AT_type(*$C$DW$T$114)
     697                      .dwattr $C$DW$118, DW_AT_external
     698                      .global _usbConfig
     699 000068               .bss    _usbConfig,12,0,2
     700              $C$DW$119       .dwtag  DW_TAG_variable, DW_AT_name("usbConfig")
     701                      .dwattr $C$DW$119, DW_AT_TI_symbol_name("_usbConfig")
     702                      .dwattr $C$DW$119, DW_AT_location[DW_OP_addr _usbConfig]
     703                      .dwattr $C$DW$119, DW_AT_type(*$C$DW$T$163)
TMS320C55x Assembler PC v4.4.1 Sat Sep 29 23:08:33 2018

Tools Copyright (c) 1996-2012 Texas Instruments Incorporated
csl_usb_poll_example.asm                                             PAGE   14

     704                      .dwattr $C$DW$119, DW_AT_external
     705                      .global _usbSetup
     706 000074               .bss    _usbSetup,6,0,0
     707              $C$DW$120       .dwtag  DW_TAG_variable, DW_AT_name("usbSetup")
     708                      .dwattr $C$DW$120, DW_AT_TI_symbol_name("_usbSetup")
     709                      .dwattr $C$DW$120, DW_AT_location[DW_OP_addr _usbSetup]
     710                      .dwattr $C$DW$120, DW_AT_type(*$C$DW$T$111)
     711                      .dwattr $C$DW$120, DW_AT_external
     712                      .global _deviceDescPtr
     713 00007a               .bss    _deviceDescPtr,2,0,2
     714              $C$DW$121       .dwtag  DW_TAG_variable, DW_AT_name("deviceDescPtr")
     715                      .dwattr $C$DW$121, DW_AT_TI_symbol_name("_deviceDescPtr")
     716                      .dwattr $C$DW$121, DW_AT_location[DW_OP_addr _deviceDescPtr]
     717                      .dwattr $C$DW$121, DW_AT_type(*$C$DW$T$112)
     718                      .dwattr $C$DW$121, DW_AT_external
     719                      .global _cfgDescPtr
     720 00007c               .bss    _cfgDescPtr,2,0,2
     721              $C$DW$122       .dwtag  DW_TAG_variable, DW_AT_name("cfgDescPtr")
     722                      .dwattr $C$DW$122, DW_AT_TI_symbol_name("_cfgDescPtr")
     723                      .dwattr $C$DW$122, DW_AT_location[DW_OP_addr _cfgDescPtr]
     724                      .dwattr $C$DW$122, DW_AT_type(*$C$DW$T$112)
     725                      .dwattr $C$DW$122, DW_AT_external
     726                      .global _strDescPtr
     727 00007e               .bss    _strDescPtr,2,0,2
     728              $C$DW$123       .dwtag  DW_TAG_variable, DW_AT_name("strDescPtr")
     729                      .dwattr $C$DW$123, DW_AT_TI_symbol_name("_strDescPtr")
     730                      .dwattr $C$DW$123, DW_AT_location[DW_OP_addr _strDescPtr]
     731                      .dwattr $C$DW$123, DW_AT_type(*$C$DW$T$112)
     732                      .dwattr $C$DW$123, DW_AT_external
     733                      .global _devAddr
     734 000007               .bss    _devAddr,1,0,0
     735              $C$DW$124       .dwtag  DW_TAG_variable, DW_AT_name("devAddr")
     736                      .dwattr $C$DW$124, DW_AT_TI_symbol_name("_devAddr")
     737                      .dwattr $C$DW$124, DW_AT_location[DW_OP_addr _devAddr]
     738                      .dwattr $C$DW$124, DW_AT_type(*$C$DW$T$19)
     739                      .dwattr $C$DW$124, DW_AT_external
     740                      .global _selfwakeupDelay
     741 000080               .bss    _selfwakeupDelay,2,0,2
     742              $C$DW$125       .dwtag  DW_TAG_variable, DW_AT_name("selfwakeupDelay")
     743                      .dwattr $C$DW$125, DW_AT_TI_symbol_name("_selfwakeupDelay")
     744                      .dwattr $C$DW$125, DW_AT_location[DW_OP_addr _selfwakeupDelay]
     745                      .dwattr $C$DW$125, DW_AT_type(*$C$DW$T$97)
     746                      .dwattr $C$DW$125, DW_AT_external
     747                      .global _stopRunning
     748 000082               .bss    _stopRunning,1,0,0
     749              $C$DW$126       .dwtag  DW_TAG_variable, DW_AT_name("stopRunning")
     750                      .dwattr $C$DW$126, DW_AT_TI_symbol_name("_stopRunning")
     751                      .dwattr $C$DW$126, DW_AT_location[DW_OP_addr _stopRunning]
     752                      .dwattr $C$DW$126, DW_AT_type(*$C$DW$T$251)
     753                      .dwattr $C$DW$126, DW_AT_external
     754                      .global _usbDevDisconnect
     755 000083               .bss    _usbDevDisconnect,1,0,0
     756              $C$DW$127       .dwtag  DW_TAG_variable, DW_AT_name("usbDevDisconnect")
     757                      .dwattr $C$DW$127, DW_AT_TI_symbol_name("_usbDevDisconnect")
     758                      .dwattr $C$DW$127, DW_AT_location[DW_OP_addr _usbDevDisconnect]
TMS320C55x Assembler PC v4.4.1 Sat Sep 29 23:08:33 2018

Tools Copyright (c) 1996-2012 Texas Instruments Incorporated
csl_usb_poll_example.asm                                             PAGE   15

     759                      .dwattr $C$DW$127, DW_AT_type(*$C$DW$T$95)
     760                      .dwattr $C$DW$127, DW_AT_external
     761                      .global _usbDataBuffer
     762 000084               .bss    _usbDataBuffer,256,0,0
     763              $C$DW$128       .dwtag  DW_TAG_variable, DW_AT_name("usbDataBuffer")
     764                      .dwattr $C$DW$128, DW_AT_TI_symbol_name("_usbDataBuffer")
     765                      .dwattr $C$DW$128, DW_AT_location[DW_OP_addr _usbDataBuffer]
     766                      .dwattr $C$DW$128, DW_AT_type(*$C$DW$T$244)
     767                      .dwattr $C$DW$128, DW_AT_external
     768                      .global _deviceDesc
     769 000184               .bss    _deviceDesc,9,0,0
     770              $C$DW$129       .dwtag  DW_TAG_variable, DW_AT_name("deviceDesc")
     771                      .dwattr $C$DW$129, DW_AT_TI_symbol_name("_deviceDesc")
     772                      .dwattr $C$DW$129, DW_AT_location[DW_OP_addr _deviceDesc]
     773                      .dwattr $C$DW$129, DW_AT_type(*$C$DW$T$246)
     774                      .dwattr $C$DW$129, DW_AT_external
     775                      .global _cfgDesc
     776 00018d               .bss    _cfgDesc,40,0,0
     777              $C$DW$130       .dwtag  DW_TAG_variable, DW_AT_name("cfgDesc")
     778                      .dwattr $C$DW$130, DW_AT_TI_symbol_name("_cfgDesc")
     779                      .dwattr $C$DW$130, DW_AT_location[DW_OP_addr _cfgDesc]
     780                      .dwattr $C$DW$130, DW_AT_type(*$C$DW$T$247)
     781                      .dwattr $C$DW$130, DW_AT_external
     782                      .global _strDesc
     783 0001b5               .bss    _strDesc,80,0,0
     784              $C$DW$131       .dwtag  DW_TAG_variable, DW_AT_name("strDesc")
     785                      .dwattr $C$DW$131, DW_AT_TI_symbol_name("_strDesc")
     786                      .dwattr $C$DW$131, DW_AT_location[DW_OP_addr _strDesc]
     787                      .dwattr $C$DW$131, DW_AT_type(*$C$DW$T$249)
     788                      .dwattr $C$DW$131, DW_AT_external
     789                      .global _PaSs_StAtE
     790 000205               .bss    _PaSs_StAtE,1,0,0
     791              $C$DW$132       .dwtag  DW_TAG_variable, DW_AT_name("PaSs_StAtE")
     792                      .dwattr $C$DW$132, DW_AT_TI_symbol_name("_PaSs_StAtE")
     793                      .dwattr $C$DW$132, DW_AT_location[DW_OP_addr _PaSs_StAtE]
     794                      .dwattr $C$DW$132, DW_AT_type(*$C$DW$T$235)
     795                      .dwattr $C$DW$132, DW_AT_external
     796                      .global _PaSs
     797 000206               .bss    _PaSs,1,0,0
     798              $C$DW$133       .dwtag  DW_TAG_variable, DW_AT_name("PaSs")
     799                      .dwattr $C$DW$133, DW_AT_TI_symbol_name("_PaSs")
     800                      .dwattr $C$DW$133, DW_AT_location[DW_OP_addr _PaSs]
     801                      .dwattr $C$DW$133, DW_AT_type(*$C$DW$T$235)
     802                      .dwattr $C$DW$133, DW_AT_external
     803                      .global _usb_income_num_bytes
     804 000207               .bss    _usb_income_num_bytes,1,0,0
     805              $C$DW$134       .dwtag  DW_TAG_variable, DW_AT_name("usb_income_num_bytes")
     806                      .dwattr $C$DW$134, DW_AT_TI_symbol_name("_usb_income_num_bytes")
     807                      .dwattr $C$DW$134, DW_AT_location[DW_OP_addr _usb_income_num_bytes]
     808                      .dwattr $C$DW$134, DW_AT_type(*$C$DW$T$19)
     809                      .dwattr $C$DW$134, DW_AT_external
     810              ;       F:\t\cc5p5\ccsv5\tools\compiler\c5500_4.4.1\bin\acp55.exe -@f:\\AppData\\Local\\Temp\\0978812 
     811 000000               .sect   ".text"
     812                      .align 4
     813              
TMS320C55x Assembler PC v4.4.1 Sat Sep 29 23:08:33 2018

Tools Copyright (c) 1996-2012 Texas Instruments Incorporated
csl_usb_poll_example.asm                                             PAGE   16

     814              $C$DW$135       .dwtag  DW_TAG_subprogram, DW_AT_name("USB_dmaRxStart")
     815                      .dwattr $C$DW$135, DW_AT_low_pc(_USB_dmaRxStart)
     816                      .dwattr $C$DW$135, DW_AT_high_pc(0x00)
     817                      .dwattr $C$DW$135, DW_AT_TI_symbol_name("_USB_dmaRxStart")
     818                      .dwattr $C$DW$135, DW_AT_TI_begin_file("F:/eZdsp_DBG/tmp1/c55x-sim2/foo/c5535_bsl_revc/ezdsp5535_v1/c
     819                      .dwattr $C$DW$135, DW_AT_TI_begin_line(0x180)
     820                      .dwattr $C$DW$135, DW_AT_TI_begin_column(0x06)
     821                      .dwattr $C$DW$135, DW_AT_TI_max_frame_size(0x04)
     822                      .dwpsn  file "F:/eZdsp_DBG/tmp1/c55x-sim2/foo/c5535_bsl_revc/ezdsp5535_v1/c55xx_csl/inc/csl_usbAux.h"
     823              
     824                      .dwfde $C$DW$CIE, _USB_dmaRxStart
     825              $C$DW$136       .dwtag  DW_TAG_formal_parameter, DW_AT_name("dwEndpoint")
     826                      .dwattr $C$DW$136, DW_AT_TI_symbol_name("_dwEndpoint")
     827                      .dwattr $C$DW$136, DW_AT_type(*$C$DW$T$98)
     828                      .dwattr $C$DW$136, DW_AT_location[DW_OP_reg0]
     829              ;*******************************************************************************
     830              ;* FUNCTION NAME: USB_dmaRxStart                                               *
     831              ;*                                                                             *
     832              ;*   Function Uses Regs : AC0,AC0,T0,AR1,AR3,SP,M40,SATA,SATD,RDM,FRCT,SMUL    *
     833              ;*   Stack Frame        : Compact (No Frame Pointer, w/ debug)                 *
     834              ;*   Total Frame Size   : 4 words                                              *
     835              ;*                        (1 return address/alignment)                         *
     836              ;*                        (3 local values)                                     *
     837              ;*   Min System Stack   : 1 word                                               *
     838              ;*******************************************************************************
     839 000000       _USB_dmaRxStart:
     840                      .dwcfi  cfa_offset, 1
     841                      .dwcfi  save_reg_to_mem, 91, -1
     842 000000 4EFD          AADD #-3, SP
     843                      .dwcfi  cfa_offset, 4
     844              $C$DW$137       .dwtag  DW_TAG_variable, DW_AT_name("dwEndpoint")
     845                      .dwattr $C$DW$137, DW_AT_TI_symbol_name("_dwEndpoint")
     846                      .dwattr $C$DW$137, DW_AT_type(*$C$DW$T$98)
     847                      .dwattr $C$DW$137, DW_AT_location[DW_OP_bregx 0x24 0]
     848              $C$DW$138       .dwtag  DW_TAG_variable, DW_AT_name("saveIndex")
     849                      .dwattr $C$DW$138, DW_AT_TI_symbol_name("_saveIndex")
     850                      .dwattr $C$DW$138, DW_AT_type(*$C$DW$T$19)
     851                      .dwattr $C$DW$138, DW_AT_location[DW_OP_bregx 0x24 2]
     852 000002 EB00          MOV AC0, dbl(*SP(#0)) ; |385| 
         000004 08   
     853                      .dwpsn  file "F:/eZdsp_DBG/tmp1/c55x-sim2/foo/c5535_bsl_revc/ezdsp5535_v1/c55xx_csl/inc/csl_usbAux.h"
     854 000005 7604          MOV #1038, T0 ; |389| 
         000007 0E48 
     855 000009 AB31          MOV *(#_usbRegisters), AR3 ; |389| 
         00000b 0000 
         00000d 00!  
     856 00000e A96B          MOV port(*AR3(T0)), AR1 ; |389| 
         000010 99   
     857 000011 C904          MOV AR1, *SP(#2) ; |389| 
     858                      .dwpsn  file "F:/eZdsp_DBG/tmp1/c55x-sim2/foo/c5535_bsl_revc/ezdsp5535_v1/c55xx_csl/inc/csl_usbAux.h"
     859 000013 F46B          AND #0xfff0, port(*AR3(T0)) ; |392| 
         000015 FFF0 
         000017 9A   
     860                      .dwpsn  file "F:/eZdsp_DBG/tmp1/c55x-sim2/foo/c5535_bsl_revc/ezdsp5535_v1/c55xx_csl/inc/csl_usbAux.h"
     861 000018 AB31          MOV *(#_usbRegisters), AR3 ; |393| 
TMS320C55x Assembler PC v4.4.1 Sat Sep 29 23:08:33 2018

Tools Copyright (c) 1996-2012 Texas Instruments Incorporated
csl_usb_poll_example.asm                                             PAGE   17

         00001a 0000 
         00001c 00!  
     862 00001d ED00          MOV dbl(*SP(#0)), AC0 ; |393| 
         00001f 08   
     863 000020 DA6B          OR port(*AR3(T0)), AC0, AC0 ; |393| 
         000022 00   
         000023 99   
     864 000024 C06B          MOV AC0, port(*AR3(T0)) ; |393| 
         000026 9A   
     865                      .dwpsn  file "F:/eZdsp_DBG/tmp1/c55x-sim2/foo/c5535_bsl_revc/ezdsp5535_v1/c55xx_csl/inc/csl_usbAux.h"
     866 000027 7604          MOV #1046, T0 ; |396| 
         000029 1648 
     867 00002b AB31          MOV *(#_usbRegisters), AR3 ; |396| 
         00002d 0000 
         00002f 00!  
     868 000030 F46B          AND #0x6fff, port(*AR3(T0)) ; |396| 
         000032 6FFF 
         000034 9A   
     869                      .dwpsn  file "F:/eZdsp_DBG/tmp1/c55x-sim2/foo/c5535_bsl_revc/ezdsp5535_v1/c55xx_csl/inc/csl_usbAux.h"
     870 000035 AB31          MOV *(#_usbRegisters), AR3 ; |399| 
         000037 0000 
         000039 00!  
     871 00003a F56B          OR #0x2000, port(*AR3(T0)) ; |399| 
         00003c 2000 
         00003e 9A   
     872                      .dwpsn  file "F:/eZdsp_DBG/tmp1/c55x-sim2/foo/c5535_bsl_revc/ezdsp5535_v1/c55xx_csl/inc/csl_usbAux.h"
     873 00003f 7604          MOV #1038, T0 ; |402| 
         000041 0E48 
     874 000043 AB31          MOV *(#_usbRegisters), AR3 ; |402| 
         000045 0000 
         000047 00!  
     875 000048 A904          MOV *SP(#2), AR1 ; |402| 
     876 00004a C96B          MOV AR1, port(*AR3(T0)) ; |402| 
         00004c 9A   
     877                      .dwpsn  file "F:/eZdsp_DBG/tmp1/c55x-sim2/foo/c5535_bsl_revc/ezdsp5535_v1/c55xx_csl/inc/csl_usbAux.h"
     878 00004d 4E03          AADD #3, SP
     879                      .dwcfi  cfa_offset, 1
     880              $C$DW$139       .dwtag  DW_TAG_TI_branch
     881                      .dwattr $C$DW$139, DW_AT_low_pc(0x00)
     882                      .dwattr $C$DW$139, DW_AT_TI_return
     883 00004f 4804          RET
     884                                                      ; return occurs
     885                      .dwattr $C$DW$135, DW_AT_TI_end_file("F:/eZdsp_DBG/tmp1/c55x-sim2/foo/c5535_bsl_revc/ezdsp5535_v1/c55
     886                      .dwattr $C$DW$135, DW_AT_TI_end_line(0x193)
     887                      .dwattr $C$DW$135, DW_AT_TI_end_column(0x01)
     888                      .dwendentry
     889                      .dwendtag $C$DW$135
     890              
     891 000051               .sect   ".text"
     892                      .align 4
     893              
     894              $C$DW$140       .dwtag  DW_TAG_subprogram, DW_AT_name("USB_dmaTxStart")
     895                      .dwattr $C$DW$140, DW_AT_low_pc(_USB_dmaTxStart)
     896                      .dwattr $C$DW$140, DW_AT_high_pc(0x00)
     897                      .dwattr $C$DW$140, DW_AT_TI_symbol_name("_USB_dmaTxStart")
TMS320C55x Assembler PC v4.4.1 Sat Sep 29 23:08:33 2018

Tools Copyright (c) 1996-2012 Texas Instruments Incorporated
csl_usb_poll_example.asm                                             PAGE   18

     898                      .dwattr $C$DW$140, DW_AT_TI_begin_file("F:/eZdsp_DBG/tmp1/c55x-sim2/foo/c5535_bsl_revc/ezdsp5535_v1/c
     899                      .dwattr $C$DW$140, DW_AT_TI_begin_line(0x2da)
     900                      .dwattr $C$DW$140, DW_AT_TI_begin_column(0x06)
     901                      .dwattr $C$DW$140, DW_AT_TI_max_frame_size(0x04)
     902                      .dwpsn  file "F:/eZdsp_DBG/tmp1/c55x-sim2/foo/c5535_bsl_revc/ezdsp5535_v1/c55xx_csl/inc/csl_usbAux.h"
     903              
     904                      .dwfde $C$DW$CIE, _USB_dmaTxStart
     905              $C$DW$141       .dwtag  DW_TAG_formal_parameter, DW_AT_name("dwEndpoint")
     906                      .dwattr $C$DW$141, DW_AT_TI_symbol_name("_dwEndpoint")
     907                      .dwattr $C$DW$141, DW_AT_type(*$C$DW$T$98)
     908                      .dwattr $C$DW$141, DW_AT_location[DW_OP_reg0]
     909              ;*******************************************************************************
     910              ;* FUNCTION NAME: USB_dmaTxStart                                               *
     911              ;*                                                                             *
     912              ;*   Function Uses Regs : AC0,AC0,T0,AR1,AR3,SP,M40,SATA,SATD,RDM,FRCT,SMUL    *
     913              ;*   Stack Frame        : Compact (No Frame Pointer, w/ debug)                 *
     914              ;*   Total Frame Size   : 4 words                                              *
     915              ;*                        (1 return address/alignment)                         *
     916              ;*                        (3 local values)                                     *
     917              ;*   Min System Stack   : 1 word                                               *
     918              ;*******************************************************************************
     919 000054       _USB_dmaTxStart:
     920                      .dwcfi  cfa_offset, 1
     921                      .dwcfi  save_reg_to_mem, 91, -1
     922 000054 4EFD          AADD #-3, SP
     923                      .dwcfi  cfa_offset, 4
     924              $C$DW$142       .dwtag  DW_TAG_variable, DW_AT_name("dwEndpoint")
     925                      .dwattr $C$DW$142, DW_AT_TI_symbol_name("_dwEndpoint")
     926                      .dwattr $C$DW$142, DW_AT_type(*$C$DW$T$98)
     927                      .dwattr $C$DW$142, DW_AT_location[DW_OP_bregx 0x24 0]
     928              $C$DW$143       .dwtag  DW_TAG_variable, DW_AT_name("saveIndex")
     929                      .dwattr $C$DW$143, DW_AT_TI_symbol_name("_saveIndex")
     930                      .dwattr $C$DW$143, DW_AT_type(*$C$DW$T$19)
     931                      .dwattr $C$DW$143, DW_AT_location[DW_OP_bregx 0x24 2]
     932 000056 EB00          MOV AC0, dbl(*SP(#0)) ; |731| 
         000058 08   
     933                      .dwpsn  file "F:/eZdsp_DBG/tmp1/c55x-sim2/foo/c5535_bsl_revc/ezdsp5535_v1/c55xx_csl/inc/csl_usbAux.h"
     934 000059 7604          MOV #1038, T0 ; |735| 
         00005b 0E48 
     935 00005d AB31          MOV *(#_usbRegisters), AR3 ; |735| 
         00005f 0000 
         000061 00!  
     936 000062 A96B          MOV port(*AR3(T0)), AR1 ; |735| 
         000064 99   
     937 000065 C904          MOV AR1, *SP(#2) ; |735| 
     938                      .dwpsn  file "F:/eZdsp_DBG/tmp1/c55x-sim2/foo/c5535_bsl_revc/ezdsp5535_v1/c55xx_csl/inc/csl_usbAux.h"
     939 000067 F46B          AND #0xfff0, port(*AR3(T0)) ; |738| 
         000069 FFF0 
         00006b 9A   
     940                      .dwpsn  file "F:/eZdsp_DBG/tmp1/c55x-sim2/foo/c5535_bsl_revc/ezdsp5535_v1/c55xx_csl/inc/csl_usbAux.h"
     941 00006c AB31          MOV *(#_usbRegisters), AR3 ; |739| 
         00006e 0000 
         000070 00!  
     942 000071 ED00          MOV dbl(*SP(#0)), AC0 ; |739| 
         000073 08   
TMS320C55x Assembler PC v4.4.1 Sat Sep 29 23:08:33 2018

Tools Copyright (c) 1996-2012 Texas Instruments Incorporated
csl_usb_poll_example.asm                                             PAGE   19

     943 000074 DA6B          OR port(*AR3(T0)), AC0, AC0 ; |739| 
         000076 00   
         000077 99   
     944 000078 C06B          MOV AC0, port(*AR3(T0)) ; |739| 
         00007a 9A   
     945                      .dwpsn  file "F:/eZdsp_DBG/tmp1/c55x-sim2/foo/c5535_bsl_revc/ezdsp5535_v1/c55xx_csl/inc/csl_usbAux.h"
     946 00007b 7604          MOV #1042, T0 ; |742| 
         00007d 1248 
     947 00007f AB31          MOV *(#_usbRegisters), AR3 ; |742| 
         000081 0000 
         000083 00!  
     948 000084 A96B          MOV port(*AR3(T0)), AR1 ; |742| 
         000086 99   
     949 000087 EC06          BCLR @#3, AR1 ; |742| 
         000089 92   
     950 00008a EC06          BSET @#3, AR1 ; |742| 
         00008c 90   
     951 00008d C96B          MOV AR1, port(*AR3(T0)) ; |742| 
         00008f 9A   
     952                      .dwpsn  file "F:/eZdsp_DBG/tmp1/c55x-sim2/foo/c5535_bsl_revc/ezdsp5535_v1/c55xx_csl/inc/csl_usbAux.h"
     953 000090 AB31          MOV *(#_usbRegisters), AR3 ; |745| 
         000092 0000 
         000094 00!  
     954 000095 F46B          AND #0x7fff, port(*AR3(T0)) ; |745| 
         000097 7FFF 
         000099 9A   
     955                      .dwpsn  file "F:/eZdsp_DBG/tmp1/c55x-sim2/foo/c5535_bsl_revc/ezdsp5535_v1/c55xx_csl/inc/csl_usbAux.h"
     956 00009a AB31          MOV *(#_usbRegisters), AR3 ; |746| 
         00009c 0000 
         00009e 00!  
     957 00009f F56B          OR #0x1000, port(*AR3(T0)) ; |746| 
         0000a1 1000 
         0000a3 9A   
     958                      .dwpsn  file "F:/eZdsp_DBG/tmp1/c55x-sim2/foo/c5535_bsl_revc/ezdsp5535_v1/c55xx_csl/inc/csl_usbAux.h"
     959 0000a4 AB31          MOV *(#_usbRegisters), AR3 ; |749| 
         0000a6 0000 
         0000a8 00!  
     960 0000a9 F56B          OR #0x1000, port(*AR3(T0)) ; |749| 
         0000ab 1000 
         0000ad 9A   
     961                      .dwpsn  file "F:/eZdsp_DBG/tmp1/c55x-sim2/foo/c5535_bsl_revc/ezdsp5535_v1/c55xx_csl/inc/csl_usbAux.h"
     962 0000ae 7604          MOV #1038, T0 ; |752| 
         0000b0 0E48 
     963 0000b2 AB31          MOV *(#_usbRegisters), AR3 ; |752| 
         0000b4 0000 
         0000b6 00!  
     964 0000b7 A904          MOV *SP(#2), AR1 ; |752| 
     965 0000b9 C96B          MOV AR1, port(*AR3(T0)) ; |752| 
         0000bb 9A   
     966                      .dwpsn  file "F:/eZdsp_DBG/tmp1/c55x-sim2/foo/c5535_bsl_revc/ezdsp5535_v1/c55xx_csl/inc/csl_usbAux.h"
     967 0000bc 4E03          AADD #3, SP
     968                      .dwcfi  cfa_offset, 1
     969              $C$DW$144       .dwtag  DW_TAG_TI_branch
     970                      .dwattr $C$DW$144, DW_AT_low_pc(0x00)
     971                      .dwattr $C$DW$144, DW_AT_TI_return
TMS320C55x Assembler PC v4.4.1 Sat Sep 29 23:08:33 2018

Tools Copyright (c) 1996-2012 Texas Instruments Incorporated
csl_usb_poll_example.asm                                             PAGE   20

     972 0000be 4804          RET
     973                                                      ; return occurs
     974                      .dwattr $C$DW$140, DW_AT_TI_end_file("F:/eZdsp_DBG/tmp1/c55x-sim2/foo/c5535_bsl_revc/ezdsp5535_v1/c55
     975                      .dwattr $C$DW$140, DW_AT_TI_end_line(0x2f1)
     976                      .dwattr $C$DW$140, DW_AT_TI_end_column(0x01)
     977                      .dwendentry
     978                      .dwendtag $C$DW$140
     979              
     980 0000c0               .sect   ".text"
     981                      .align 4
     982              
     983              $C$DW$145       .dwtag  DW_TAG_subprogram, DW_AT_name("USB_processEP0Out")
     984                      .dwattr $C$DW$145, DW_AT_low_pc(_USB_processEP0Out)
     985                      .dwattr $C$DW$145, DW_AT_high_pc(0x00)
     986                      .dwattr $C$DW$145, DW_AT_TI_symbol_name("_USB_processEP0Out")
     987                      .dwattr $C$DW$145, DW_AT_type(*$C$DW$T$89)
     988                      .dwattr $C$DW$145, DW_AT_TI_begin_file("F:/eZdsp_DBG/tmp1/c55x-sim2/foo/c5535_bsl_revc/ezdsp5535_v1/c
     989                      .dwattr $C$DW$145, DW_AT_TI_begin_line(0x511)
     990                      .dwattr $C$DW$145, DW_AT_TI_begin_column(0x0c)
     991                      .dwattr $C$DW$145, DW_AT_TI_max_frame_size(0x0a)
     992                      .dwpsn  file "F:/eZdsp_DBG/tmp1/c55x-sim2/foo/c5535_bsl_revc/ezdsp5535_v1/c55xx_csl/inc/csl_usbAux.h"
     993              
     994                      .dwfde $C$DW$CIE, _USB_processEP0Out
     995              $C$DW$146       .dwtag  DW_TAG_formal_parameter, DW_AT_name("pContext")
     996                      .dwattr $C$DW$146, DW_AT_TI_symbol_name("_pContext")
     997                      .dwattr $C$DW$146, DW_AT_type(*$C$DW$T$167)
     998                      .dwattr $C$DW$146, DW_AT_location[DW_OP_reg17]
     999              ;*******************************************************************************
    1000              ;* FUNCTION NAME: USB_processEP0Out                                            *
    1001              ;*                                                                             *
    1002              ;*   Function Uses Regs : AC0,AC0,AC1,AC1,T0,AR0,XAR0,AR1,XAR1,AR2,XAR2,AR3,   *
    1003              ;*                        XAR3,SP,CARRY,TC1,M40,SATA,SATD,RDM,FRCT,SMUL        *
    1004              ;*   Stack Frame        : Compact (No Frame Pointer, w/ debug)                 *
    1005              ;*   Total Frame Size   : 10 words                                             *
    1006              ;*                        (1 return address/alignment)                         *
    1007              ;*                        (9 local values)                                     *
    1008              ;*   Min System Stack   : 1 word                                               *
    1009              ;*******************************************************************************
    1010 0000c0       _USB_processEP0Out:
    1011                      .dwcfi  cfa_offset, 1
    1012                      .dwcfi  save_reg_to_mem, 91, -1
    1013 0000c0 4EF7          AADD #-9, SP
    1014                      .dwcfi  cfa_offset, 10
    1015              $C$DW$147       .dwtag  DW_TAG_variable, DW_AT_name("pContext")
    1016                      .dwattr $C$DW$147, DW_AT_TI_symbol_name("_pContext")
    1017                      .dwattr $C$DW$147, DW_AT_type(*$C$DW$T$167)
    1018                      .dwattr $C$DW$147, DW_AT_location[DW_OP_bregx 0x24 0]
    1019              $C$DW$148       .dwtag  DW_TAG_variable, DW_AT_name("peps")
    1020                      .dwattr $C$DW$148, DW_AT_TI_symbol_name("_peps")
    1021                      .dwattr $C$DW$148, DW_AT_type(*$C$DW$T$171)
    1022                      .dwattr $C$DW$148, DW_AT_location[DW_OP_bregx 0x24 2]
    1023              $C$DW$149       .dwtag  DW_TAG_variable, DW_AT_name("pTransfer")
    1024                      .dwattr $C$DW$149, DW_AT_TI_symbol_name("_pTransfer")
    1025                      .dwattr $C$DW$149, DW_AT_type(*$C$DW$T$173)
    1026                      .dwattr $C$DW$149, DW_AT_location[DW_OP_bregx 0x24 4]
TMS320C55x Assembler PC v4.4.1 Sat Sep 29 23:08:33 2018

Tools Copyright (c) 1996-2012 Texas Instruments Incorporated
csl_usb_poll_example.asm                                             PAGE   21

    1027              $C$DW$150       .dwtag  DW_TAG_variable, DW_AT_name("pwBuffer")
    1028                      .dwattr $C$DW$150, DW_AT_TI_symbol_name("_pwBuffer")
    1029                      .dwattr $C$DW$150, DW_AT_type(*$C$DW$T$96)
    1030                      .dwattr $C$DW$150, DW_AT_location[DW_OP_bregx 0x24 6]
    1031              $C$DW$151       .dwtag  DW_TAG_variable, DW_AT_name("status")
    1032                      .dwattr $C$DW$151, DW_AT_TI_symbol_name("_status")
    1033                      .dwattr $C$DW$151, DW_AT_type(*$C$DW$T$89)
    1034                      .dwattr $C$DW$151, DW_AT_location[DW_OP_bregx 0x24 8]
    1035 0000c2 EB00          MOV XAR0, dbl(*SP(#0))
         0000c4 85   
    1036                      .dwpsn  file "F:/eZdsp_DBG/tmp1/c55x-sim2/foo/c5535_bsl_revc/ezdsp5535_v1/c55xx_csl/inc/csl_usbAux.h"
    1037 0000c5 E610          MOV #0, *SP(#8) ; |1304| 
         0000c7 00   
    1038                      .dwpsn  file "F:/eZdsp_DBG/tmp1/c55x-sim2/foo/c5535_bsl_revc/ezdsp5535_v1/c55xx_csl/inc/csl_usbAux.h"
    1039 0000c8 ED00          MOV dbl(*SP(#0)), XAR3
         0000ca BF   
    1040 0000cb 90B0          MOV XAR3, AC0
    1041 0000cd 6D00          BCC $C$L4,AC0 == #0 ; |1306| 
         0000cf 00A9 
    1042                                                      ; branchcc occurs ; |1306| 
    1043                      .dwpsn  file "F:/eZdsp_DBG/tmp1/c55x-sim2/foo/c5535_bsl_revc/ezdsp5535_v1/c55xx_csl/inc/csl_usbAux.h"
    1044 0000d1 ED6D          MOV dbl(*AR3(#98)), XAR3
         0000d3 BF00 
         0000d5 62   
    1045 0000d6 EB04          MOV XAR3, dbl(*SP(#2))
         0000d8 B5   
    1046                      .dwpsn  file "F:/eZdsp_DBG/tmp1/c55x-sim2/foo/c5535_bsl_revc/ezdsp5535_v1/c55xx_csl/inc/csl_usbAux.h"
    1047 0000d9 ED6D          MOV dbl(*AR3(#10)), XAR3
         0000db BF00 
         0000dd 0A   
    1048 0000de EB08          MOV XAR3, dbl(*SP(#4))
         0000e0 B5   
    1049                      .dwpsn  file "F:/eZdsp_DBG/tmp1/c55x-sim2/foo/c5535_bsl_revc/ezdsp5535_v1/c55xx_csl/inc/csl_usbAux.h"
    1050 0000e1 90B0          MOV XAR3, AC0
    1051 0000e3 6D00          BCC $C$L3,AC0 == #0 ; |1311| 
         0000e5 008E 
    1052                                                      ; branchcc occurs ; |1311| 
    1053 0000e7 A96D          MOV *AR3(#12), AR1 ; |1311| 
         0000e9 000C 
    1054 0000eb 6D19          BCC $C$L3,AR1 != #0 ; |1311| 
         0000ed 0086 
    1055                                                      ; branchcc occurs ; |1311| 
    1056                      .dwpsn  file "F:/eZdsp_DBG/tmp1/c55x-sim2/foo/c5535_bsl_revc/ezdsp5535_v1/c55xx_csl/inc/csl_usbAux.h"
    1057 0000ef ED6D          MOV dbl(*AR3(#8)), AC0 ; |1314| 
         0000f1 0800 
         0000f3 08   
    1058 0000f4 ED79          MOV dbl(*AR3(short(#4))), XAR3
         0000f6 BF   
    1059 0000f7 5001          SFTL AC0, #-1 ; |1314| 
    1060 0000f9 2209          MOV AC0, AR1 ; |1314| 
    1061              
    1062 0000fb 8E0C          MOV XAR3, dbl(*SP(#6))
         0000fd BB10 
         0000ff B590 
    1063              ||      AADD AR1, AR3 ; |1314| 
TMS320C55x Assembler PC v4.4.1 Sat Sep 29 23:08:33 2018

Tools Copyright (c) 1996-2012 Texas Instruments Incorporated
csl_usb_poll_example.asm                                             PAGE   22

    1064              
    1065                      .dwpsn  file "F:/eZdsp_DBG/tmp1/c55x-sim2/foo/c5535_bsl_revc/ezdsp5535_v1/c55xx_csl/inc/csl_usbAux.h"
    1066 000101 ED08          MOV dbl(*SP(#4)), XAR3
         000103 BF   
    1067 000104 ED7D          MOV dbl(*AR3(short(#6))), AC0 ; |1323| 
         000106 08   
    1068 000107 ED00          MOV dbl(*SP(#0)), XAR3
         000109 BF   
    1069 00010a DF6D          MOV uns(*AR3(#24)), AC1 ; |1323| 
         00010c 1500 
         00010e 18   
    1070 00010f 1218          CMPU AC1 >= AC0, TC1 ; |1323| 
         000111 04   
    1071 000112 63E4          BCC $C$L1,TC1 ; |1323| 
    1072                                                      ; branchcc occurs ; |1323| 
    1073 000114 DF6D          MOV uns(*AR3(#24)), AC0 ; |1323| 
         000116 0500 
         000118 18   
    1074 000119 4A06          B $C$L2   ; |1323| 
    1075                                                      ; branch occurs ; |1323| 
    1076 00011b       $C$L1:    
    1077 00011b ED08          MOV dbl(*SP(#4)), XAR3
         00011d BF   
    1078 00011e ED7D          MOV dbl(*AR3(short(#6))), AC0 ; |1323| 
         000120 08   
    1079 000121       $C$L2:    
    1080 000121 ED08          MOV dbl(*SP(#4)), XAR3
         000123 BF   
    1081 000124 EB6D          MOV AC0, dbl(*AR3(#8)) ; |1323| 
         000126 0800 
         000128 08   
    1082                      .dwpsn  file "F:/eZdsp_DBG/tmp1/c55x-sim2/foo/c5535_bsl_revc/ezdsp5535_v1/c55xx_csl/inc/csl_usbAux.h"
    1083 000129 ED08          MOV dbl(*SP(#4)), XAR3
         00012b BF   
    1084 00012c ED00          MOV dbl(*SP(#0)), XAR1
         00012e 9F   
    1085 00012f ED0C          MOV dbl(*SP(#6)), XAR0
         000131 8F   
    1086 000132 ED6D          MOV dbl(*AR3(#8)), AC0 ; |1326| 
         000134 0800 
         000136 08   
    1087 000137 4010          ADD #1, AC0 ; |1326| 
    1088              
    1089 00013c 5101          SFTL AC0, #-1 ; |1326| 
    1090 000139 141A  ||      AADD #26, AR1 ; |1326| 
         00013b 94   
    1091              
    1092              $C$DW$152       .dwtag  DW_TAG_TI_branch
    1093                      .dwattr $C$DW$152, DW_AT_low_pc(0x00)
    1094                      .dwattr $C$DW$152, DW_AT_name("_memcpy")
    1095                      .dwattr $C$DW$152, DW_AT_TI_call
    1096              
    1097 00013e 6C00          CALL #_memcpy ; |1326| 
         000140 0000!
    1098 000142 2304  ||      MOV AC0, T0 ; |1326| 
TMS320C55x Assembler PC v4.4.1 Sat Sep 29 23:08:33 2018

Tools Copyright (c) 1996-2012 Texas Instruments Incorporated
csl_usb_poll_example.asm                                             PAGE   23

    1099              
    1100                                                      ; call occurs [#_memcpy] ; |1326| 
    1101                      .dwpsn  file "F:/eZdsp_DBG/tmp1/c55x-sim2/foo/c5535_bsl_revc/ezdsp5535_v1/c55xx_csl/inc/csl_usbAux.h"
    1102 000144 ED00          MOV dbl(*SP(#0)), XAR3
         000146 BF   
    1103 000147 E679          MOV #0, *AR3(short(#4)) ; |1329| 
         000149 00   
    1104                      .dwpsn  file "F:/eZdsp_DBG/tmp1/c55x-sim2/foo/c5535_bsl_revc/ezdsp5535_v1/c55xx_csl/inc/csl_usbAux.h"
    1105 00014a ED08          MOV dbl(*SP(#4)), XAR3
         00014c BF   
    1106 00014d E66D          MOV #1, *AR3(#12) ; |1330| 
         00014f 0100 
         000151 0C   
    1107                      .dwpsn  file "F:/eZdsp_DBG/tmp1/c55x-sim2/foo/c5535_bsl_revc/ezdsp5535_v1/c55xx_csl/inc/csl_usbAux.h"
    1108 000152 ED08          MOV dbl(*SP(#4)), XAR2
         000154 AF   
    1109 000155 ED08          MOV dbl(*SP(#4)), XAR3
         000157 BF   
    1110              
    1111 000158 1408          AADD #8, AR3 ; |1331| 
         00015a B4   
    1112 00015b 150A  ||      AADD #10, AR2 ; |1331| 
         00015d AC   
    1113              
    1114 00015e 8061          MOV dbl(*AR3), dbl(*AR2) ; |1331| 
         000160 00   
    1115                      .dwpsn  file "F:/eZdsp_DBG/tmp1/c55x-sim2/foo/c5535_bsl_revc/ezdsp5535_v1/c55xx_csl/inc/csl_usbAux.h"
    1116 000161 ED00          MOV dbl(*SP(#0)), XAR3
         000163 BF   
    1117 000164 ED00          MOV dbl(*SP(#0)), XAR0
         000166 8F   
    1118 000167 ED04          MOV dbl(*SP(#2)), XAR1
         000169 9F   
    1119 00016a ED6D          MOV dbl(*AR3(#116)), AC0 ; |1337| 
         00016c 0800 
         00016e 74   
    1120              $C$DW$153       .dwtag  DW_TAG_TI_branch
    1121                      .dwattr $C$DW$153, DW_AT_low_pc(0x00)
    1122                      .dwattr $C$DW$153, DW_AT_TI_call
    1123                      .dwattr $C$DW$153, DW_AT_TI_indirect
    1124 00016f 9200          CALL AC0  ; |1337| 
    1125                                                      ; call occurs [AC0] ; |1337| 
    1126 000171 C410          MOV T0, *SP(#8) ; |1337| 
    1127                      .dwpsn  file "F:/eZdsp_DBG/tmp1/c55x-sim2/foo/c5535_bsl_revc/ezdsp5535_v1/c55xx_csl/inc/csl_usbAux.h"
    1128 000173 4A08          B $C$L5   ; |1338| 
    1129                                                      ; branch occurs ; |1338| 
    1130 000175       $C$L3:    
    1131                      .dwpsn  file "F:/eZdsp_DBG/tmp1/c55x-sim2/foo/c5535_bsl_revc/ezdsp5535_v1/c55xx_csl/inc/csl_usbAux.h"
    1132 000175 E610          MOV #-6, *SP(#8) ; |1341| 
         000177 FA   
    1133                      .dwpsn  file "F:/eZdsp_DBG/tmp1/c55x-sim2/foo/c5535_bsl_revc/ezdsp5535_v1/c55xx_csl/inc/csl_usbAux.h"
    1134 000178 4A03          B $C$L5   ; |1343| 
    1135                                                      ; branch occurs ; |1343| 
    1136 00017a       $C$L4:    
    1137                      .dwpsn  file "F:/eZdsp_DBG/tmp1/c55x-sim2/foo/c5535_bsl_revc/ezdsp5535_v1/c55xx_csl/inc/csl_usbAux.h"
TMS320C55x Assembler PC v4.4.1 Sat Sep 29 23:08:33 2018

Tools Copyright (c) 1996-2012 Texas Instruments Incorporated
csl_usb_poll_example.asm                                             PAGE   24

    1138 00017a E610          MOV #-6, *SP(#8) ; |1346| 
         00017c FA   
    1139 00017d       $C$L5:    
    1140                      .dwpsn  file "F:/eZdsp_DBG/tmp1/c55x-sim2/foo/c5535_bsl_revc/ezdsp5535_v1/c55xx_csl/inc/csl_usbAux.h"
    1141 00017d A410          MOV *SP(#8), T0 ; |1348| 
    1142                      .dwpsn  file "F:/eZdsp_DBG/tmp1/c55x-sim2/foo/c5535_bsl_revc/ezdsp5535_v1/c55xx_csl/inc/csl_usbAux.h"
    1143 00017f 4E09          AADD #9, SP
    1144                      .dwcfi  cfa_offset, 1
    1145              $C$DW$154       .dwtag  DW_TAG_TI_branch
    1146                      .dwattr $C$DW$154, DW_AT_low_pc(0x00)
    1147                      .dwattr $C$DW$154, DW_AT_TI_return
    1148 000181 4804          RET
    1149                                                      ; return occurs
    1150                      .dwattr $C$DW$145, DW_AT_TI_end_file("F:/eZdsp_DBG/tmp1/c55x-sim2/foo/c5535_bsl_revc/ezdsp5535_v1/c55
    1151                      .dwattr $C$DW$145, DW_AT_TI_end_line(0x545)
    1152                      .dwattr $C$DW$145, DW_AT_TI_end_column(0x01)
    1153                      .dwendentry
    1154                      .dwendtag $C$DW$145
    1155              
    1156 000183               .sect   ".text"
    1157                      .align 4
    1158              
    1159              $C$DW$155       .dwtag  DW_TAG_subprogram, DW_AT_name("USB_processEP0In")
    1160                      .dwattr $C$DW$155, DW_AT_low_pc(_USB_processEP0In)
    1161                      .dwattr $C$DW$155, DW_AT_high_pc(0x00)
    1162                      .dwattr $C$DW$155, DW_AT_TI_symbol_name("_USB_processEP0In")
    1163                      .dwattr $C$DW$155, DW_AT_type(*$C$DW$T$89)
    1164                      .dwattr $C$DW$155, DW_AT_TI_begin_file("F:/eZdsp_DBG/tmp1/c55x-sim2/foo/c5535_bsl_revc/ezdsp5535_v1/c
    1165                      .dwattr $C$DW$155, DW_AT_TI_begin_line(0x576)
    1166                      .dwattr $C$DW$155, DW_AT_TI_begin_column(0x0c)
    1167                      .dwattr $C$DW$155, DW_AT_TI_max_frame_size(0x12)
    1168                      .dwpsn  file "F:/eZdsp_DBG/tmp1/c55x-sim2/foo/c5535_bsl_revc/ezdsp5535_v1/c55xx_csl/inc/csl_usbAux.h"
    1169              
    1170                      .dwfde $C$DW$CIE, _USB_processEP0In
    1171              $C$DW$156       .dwtag  DW_TAG_formal_parameter, DW_AT_name("pContext")
    1172                      .dwattr $C$DW$156, DW_AT_TI_symbol_name("_pContext")
    1173                      .dwattr $C$DW$156, DW_AT_type(*$C$DW$T$167)
    1174                      .dwattr $C$DW$156, DW_AT_location[DW_OP_reg17]
    1175              ;*******************************************************************************
    1176              ;* FUNCTION NAME: USB_processEP0In                                             *
    1177              ;*                                                                             *
    1178              ;*   Function Uses Regs : AC0,AC0,AC1,AC1,T0,AR0,XAR0,AR1,XAR1,AR2,AR3,XAR3,   *
    1179              ;*                        AR4,SP,CARRY,TC1,M40,SATA,SATD,RDM,FRCT,SMUL         *
    1180              ;*   Stack Frame        : Compact (No Frame Pointer, w/ debug)                 *
    1181              ;*   Total Frame Size   : 18 words                                             *
    1182              ;*                        (2 return address/alignment)                         *
    1183              ;*                        (16 local values)                                    *
    1184              ;*   Min System Stack   : 1 word                                               *
    1185              ;*******************************************************************************
    1186 000184       _USB_processEP0In:
    1187                      .dwcfi  cfa_offset, 1
    1188                      .dwcfi  save_reg_to_mem, 91, -1
    1189 000184 4EEF          AADD #-17, SP
    1190                      .dwcfi  cfa_offset, 18
    1191              $C$DW$157       .dwtag  DW_TAG_variable, DW_AT_name("pContext")
TMS320C55x Assembler PC v4.4.1 Sat Sep 29 23:08:33 2018

Tools Copyright (c) 1996-2012 Texas Instruments Incorporated
csl_usb_poll_example.asm                                             PAGE   25

    1192                      .dwattr $C$DW$157, DW_AT_TI_symbol_name("_pContext")
    1193                      .dwattr $C$DW$157, DW_AT_type(*$C$DW$T$167)
    1194                      .dwattr $C$DW$157, DW_AT_location[DW_OP_bregx 0x24 0]
    1195              $C$DW$158       .dwtag  DW_TAG_variable, DW_AT_name("peps")
    1196                      .dwattr $C$DW$158, DW_AT_TI_symbol_name("_peps")
    1197                      .dwattr $C$DW$158, DW_AT_type(*$C$DW$T$171)
    1198                      .dwattr $C$DW$158, DW_AT_location[DW_OP_bregx 0x24 2]
    1199              $C$DW$159       .dwtag  DW_TAG_variable, DW_AT_name("pTransfer")
    1200                      .dwattr $C$DW$159, DW_AT_TI_symbol_name("_pTransfer")
    1201                      .dwattr $C$DW$159, DW_AT_type(*$C$DW$T$173)
    1202                      .dwattr $C$DW$159, DW_AT_location[DW_OP_bregx 0x24 4]
    1203              $C$DW$160       .dwtag  DW_TAG_variable, DW_AT_name("status")
    1204                      .dwattr $C$DW$160, DW_AT_TI_symbol_name("_status")
    1205                      .dwattr $C$DW$160, DW_AT_type(*$C$DW$T$89)
    1206                      .dwattr $C$DW$160, DW_AT_location[DW_OP_bregx 0x24 6]
    1207              $C$DW$161       .dwtag  DW_TAG_variable, DW_AT_name("pwBuffer")
    1208                      .dwattr $C$DW$161, DW_AT_TI_symbol_name("_pwBuffer")
    1209                      .dwattr $C$DW$161, DW_AT_type(*$C$DW$T$241)
    1210                      .dwattr $C$DW$161, DW_AT_location[DW_OP_bregx 0x24 8]
    1211              $C$DW$162       .dwtag  DW_TAG_variable, DW_AT_name("cbBuffer")
    1212                      .dwattr $C$DW$162, DW_AT_TI_symbol_name("_cbBuffer")
    1213                      .dwattr $C$DW$162, DW_AT_type(*$C$DW$T$98)
    1214                      .dwattr $C$DW$162, DW_AT_location[DW_OP_bregx 0x24 10]
    1215              $C$DW$163       .dwtag  DW_TAG_variable, DW_AT_name("cbToWrite")
    1216                      .dwattr $C$DW$163, DW_AT_TI_symbol_name("_cbToWrite")
    1217                      .dwattr $C$DW$163, DW_AT_type(*$C$DW$T$94)
    1218                      .dwattr $C$DW$163, DW_AT_location[DW_OP_bregx 0x24 12]
    1219              $C$DW$164       .dwtag  DW_TAG_variable, DW_AT_name("count")
    1220                      .dwattr $C$DW$164, DW_AT_TI_symbol_name("_count")
    1221                      .dwattr $C$DW$164, DW_AT_type(*$C$DW$T$19)
    1222                      .dwattr $C$DW$164, DW_AT_location[DW_OP_bregx 0x24 13]
    1223              $C$DW$165       .dwtag  DW_TAG_variable, DW_AT_name("flag")
    1224                      .dwattr $C$DW$165, DW_AT_TI_symbol_name("_flag")
    1225                      .dwattr $C$DW$165, DW_AT_type(*$C$DW$T$19)
    1226                      .dwattr $C$DW$165, DW_AT_location[DW_OP_bregx 0x24 14]
    1227              $C$DW$166       .dwtag  DW_TAG_variable, DW_AT_name("saveIndex")
    1228                      .dwattr $C$DW$166, DW_AT_TI_symbol_name("_saveIndex")
    1229                      .dwattr $C$DW$166, DW_AT_type(*$C$DW$T$19)
    1230                      .dwattr $C$DW$166, DW_AT_location[DW_OP_bregx 0x24 15]
    1231 000186 EB00          MOV XAR0, dbl(*SP(#0))
         000188 85   
    1232                      .dwpsn  file "F:/eZdsp_DBG/tmp1/c55x-sim2/foo/c5535_bsl_revc/ezdsp5535_v1/c55xx_csl/inc/csl_usbAux.h"
    1233 000189 E61C          MOV #0, *SP(#14) ; |1410| 
         00018b 00   
    1234                      .dwpsn  file "F:/eZdsp_DBG/tmp1/c55x-sim2/foo/c5535_bsl_revc/ezdsp5535_v1/c55xx_csl/inc/csl_usbAux.h"
    1235 00018c E60C          MOV #0, *SP(#6) ; |1411| 
         00018e 00   
    1236                      .dwpsn  file "F:/eZdsp_DBG/tmp1/c55x-sim2/foo/c5535_bsl_revc/ezdsp5535_v1/c55xx_csl/inc/csl_usbAux.h"
    1237 00018f ED00          MOV dbl(*SP(#0)), XAR3
         000191 BF   
    1238 000192 90B0          MOV XAR3, AC0
    1239 000194 6D00          BCC $C$L18,AC0 == #0 ; |1413| 
         000196 01BF 
    1240                                                      ; branchcc occurs ; |1413| 
    1241                      .dwpsn  file "F:/eZdsp_DBG/tmp1/c55x-sim2/foo/c5535_bsl_revc/ezdsp5535_v1/c55xx_csl/inc/csl_usbAux.h"
TMS320C55x Assembler PC v4.4.1 Sat Sep 29 23:08:33 2018

Tools Copyright (c) 1996-2012 Texas Instruments Incorporated
csl_usb_poll_example.asm                                             PAGE   26

    1242 000198 ED6D          MOV dbl(*AR3(#98)), XAR3
         00019a BF00 
         00019c 62   
    1243 00019d EB04          MOV XAR3, dbl(*SP(#2))
         00019f B5   
    1244                      .dwpsn  file "F:/eZdsp_DBG/tmp1/c55x-sim2/foo/c5535_bsl_revc/ezdsp5535_v1/c55xx_csl/inc/csl_usbAux.h"
    1245 0001a0 ED6D          MOV dbl(*AR3(#10)), XAR3
         0001a2 BF00 
         0001a4 0A   
    1246 0001a5 EB08          MOV XAR3, dbl(*SP(#4))
         0001a7 B5   
    1247                      .dwpsn  file "F:/eZdsp_DBG/tmp1/c55x-sim2/foo/c5535_bsl_revc/ezdsp5535_v1/c55xx_csl/inc/csl_usbAux.h"
    1248 0001a8 90B0          MOV XAR3, AC0
    1249 0001aa 6D00          BCC $C$L17,AC0 == #0 ; |1418| 
         0001ac 01A4 
    1250                                                      ; branchcc occurs ; |1418| 
    1251 0001ae A96D          MOV *AR3(#12), AR1 ; |1418| 
         0001b0 000C 
    1252 0001b2 6D19          BCC $C$L17,AR1 != #0 ; |1418| 
         0001b4 019C 
    1253                                                      ; branchcc occurs ; |1418| 
    1254                      .dwpsn  file "F:/eZdsp_DBG/tmp1/c55x-sim2/foo/c5535_bsl_revc/ezdsp5535_v1/c55xx_csl/inc/csl_usbAux.h"
    1255 0001b6 ED6D          MOV dbl(*AR3(#8)), AC0 ; |1421| 
         0001b8 0800 
         0001ba 08   
    1256 0001bb ED79          MOV dbl(*AR3(short(#4))), XAR3
         0001bd BF   
    1257 0001be 5001          SFTL AC0, #-1 ; |1421| 
    1258 0001c0 2209          MOV AC0, AR1 ; |1421| 
    1259              
    1260 0001c2 8E10          MOV XAR3, dbl(*SP(#8))
         0001c4 BB10 
         0001c6 B590 
    1261              ||      AADD AR1, AR3 ; |1421| 
    1262              
    1263                      .dwpsn  file "F:/eZdsp_DBG/tmp1/c55x-sim2/foo/c5535_bsl_revc/ezdsp5535_v1/c55xx_csl/inc/csl_usbAux.h"
    1264 0001c8 ED08          MOV dbl(*SP(#4)), XAR3
         0001ca BF   
    1265 0001cb ED6D          MOV dbl(*AR3(#8)), AC0 ; |1422| 
         0001cd 0800 
         0001cf 08   
    1266 0001d0 ED7D          SUB AC0, dbl(*AR3(short(#6))), AC0 ; |1422| 
         0001d2 04   
    1267 0001d3 EB14          MOV AC0, dbl(*SP(#10)) ; |1422| 
         0001d5 08   
    1268                      .dwpsn  file "F:/eZdsp_DBG/tmp1/c55x-sim2/foo/c5535_bsl_revc/ezdsp5535_v1/c55xx_csl/inc/csl_usbAux.h"
    1269 0001d6 ED04          MOV dbl(*SP(#2)), XAR3
         0001d8 BF   
    1270 0001d9 ED14          MOV dbl(*SP(#10)), AC1 ; |1430| 
         0001db 18   
    1271 0001dc ED79          MOV dbl(*AR3(short(#4))), AC0 ; |1430| 
         0001de 08   
    1272 0001df 1218          CMPU AC1 >= AC0, TC1 ; |1430| 
         0001e1 04   
    1273 0001e2 62E4          BCC $C$L6,TC1 ; |1430| 
TMS320C55x Assembler PC v4.4.1 Sat Sep 29 23:08:33 2018

Tools Copyright (c) 1996-2012 Texas Instruments Incorporated
csl_usb_poll_example.asm                                             PAGE   27

    1274                                                      ; branchcc occurs ; |1430| 
    1275 0001e4 ED14          MOV dbl(*SP(#10)), AC0 ; |1430| 
         0001e6 08   
    1276 0001e7 4A03          B $C$L7   ; |1430| 
    1277                                                      ; branch occurs ; |1430| 
    1278 0001e9       $C$L6:    
    1279 0001e9 ED79          MOV dbl(*AR3(short(#4))), AC0 ; |1430| 
         0001eb 08   
    1280 0001ec       $C$L7:    
    1281 0001ec 7600          MOV #64, AR1 ; |1451| 
         0001ee 4098 
    1282              
    1283 0001f0 C018          MOV AC0, *SP(#12) ; |1430| 
    1284 0001f2 3D1A  ||      MOV #1, AR2
    1285              
    1286                      .dwpsn  file "F:/eZdsp_DBG/tmp1/c55x-sim2/foo/c5535_bsl_revc/ezdsp5535_v1/c55xx_csl/inc/csl_usbAux.h"
    1287 0001f4       $C$L8:    
    1288 0001f4       $C$DW$L$_USB_processEP0In$8$B:
    1289                      .dwpsn  file "F:/eZdsp_DBG/tmp1/c55x-sim2/foo/c5535_bsl_revc/ezdsp5535_v1/c55xx_csl/inc/csl_usbAux.h"
    1290 0001f4 E61A          MOV #0, *SP(#13) ; |1435| 
         0001f6 00   
    1291                      .dwpsn  file "F:/eZdsp_DBG/tmp1/c55x-sim2/foo/c5535_bsl_revc/ezdsp5535_v1/c55xx_csl/inc/csl_usbAux.h"
    1292 0001f7 AB18          MOV *SP(#12), AR3 ; |1435| 
    1293              
    1294 0001fb 51B1          SFTL AR3, #-1 ; |1435| 
    1295 0001f9 AC1A  ||      MOV *SP(#13), AR4 ; |1435| 
    1296              
    1297 0001fd 12C8          CMPU AR4 >= AR3, TC1 ; |1435| 
         0001ff B4   
    1298 000200 0464          BCC $C$L10,TC1 ; |1435| 
         000202 29   
    1299                                                      ; branchcc occurs ; |1435| 
    1300 000203       $C$DW$L$_USB_processEP0In$8$E:
    1301 000203       $C$L9:    
    1302 000203       $C$DW$L$_USB_processEP0In$9$B:
    1303                      .dwpsn  file "F:/eZdsp_DBG/tmp1/c55x-sim2/foo/c5535_bsl_revc/ezdsp5535_v1/c55xx_csl/inc/csl_usbAux.h"
    1304 000203 ED10          MOV dbl(*SP(#8)), XAR3
         000205 BF   
    1305 000206 7604          MOV #1057, T0 ; |1437| 
         000208 2148 
    1306 00020a AC61          MOV *AR3, AR4 ; |1437| 
    1307 00020c AB31          MOV *(#_usbRegisters), AR3 ; |1437| 
         00020e 0000 
         000210 00!  
    1308 000211 CC6B          MOV AR4, port(*AR3(T0)) ; |1437| 
         000213 9A   
    1309                      .dwpsn  file "F:/eZdsp_DBG/tmp1/c55x-sim2/foo/c5535_bsl_revc/ezdsp5535_v1/c55xx_csl/inc/csl_usbAux.h"
    1310 000214 ED10          MOV dbl(*SP(#8)), XAR3
         000216 BF   
    1311 000217 B463          AMAR *AR3+
    1312 000219 EB10          MOV XAR3, dbl(*SP(#8))
         00021b B5   
    1313                      .dwpsn  file "F:/eZdsp_DBG/tmp1/c55x-sim2/foo/c5535_bsl_revc/ezdsp5535_v1/c55xx_csl/inc/csl_usbAux.h"
    1314 00021c F71A          ADD #1, *SP(#13) ; |1435| 
         00021e 0001 
TMS320C55x Assembler PC v4.4.1 Sat Sep 29 23:08:33 2018

Tools Copyright (c) 1996-2012 Texas Instruments Incorporated
csl_usb_poll_example.asm                                             PAGE   28

    1315                      .dwpsn  file "F:/eZdsp_DBG/tmp1/c55x-sim2/foo/c5535_bsl_revc/ezdsp5535_v1/c55xx_csl/inc/csl_usbAux.h"
    1316 000220 AB18          MOV *SP(#12), AR3 ; |1435| 
    1317              
    1318 000224 51B1          SFTL AR3, #-1 ; |1435| 
    1319 000222 AC1A  ||      MOV *SP(#13), AR4 ; |1435| 
    1320              
    1321 000226 12C4          CMPU AR4 < AR3, TC1 ; |1435| 
         000228 B4   
    1322 000229 0464          BCC $C$L9,TC1 ; |1435| 
         00022b D7   
    1323                                                      ; branchcc occurs ; |1435| 
    1324 00022c       $C$DW$L$_USB_processEP0In$9$E:
    1325 00022c       $C$L10:    
    1326 00022c       $C$DW$L$_USB_processEP0In$10$B:
    1327                      .dwpsn  file "F:/eZdsp_DBG/tmp1/c55x-sim2/foo/c5535_bsl_revc/ezdsp5535_v1/c55xx_csl/inc/csl_usbAux.h"
    1328 00022c AB18          MOV *SP(#12), AR3 ; |1441| 
    1329 00022e 1801          AND #0x0001, AR3, AR3 ; |1441| 
         000230 BB   
    1330 000231 12BC          CMPU AR3 != AR2, TC1 ; |1441| 
         000233 A4   
    1331 000234 0464          BCC $C$L11,TC1 ; |1441| 
         000236 44   
    1332                                                      ; branchcc occurs ; |1441| 
    1333 000237       $C$DW$L$_USB_processEP0In$10$E:
    1334 000237       $C$DW$L$_USB_processEP0In$11$B:
    1335                      .dwpsn  file "F:/eZdsp_DBG/tmp1/c55x-sim2/foo/c5535_bsl_revc/ezdsp5535_v1/c55xx_csl/inc/csl_usbAux.h"
    1336 000237 7600          MOV #50, T0 ; |1444| 
         000239 3248 
    1337 00023b AB31          MOV *(#_sysCtrlRegs), AR3 ; |1444| 
         00023d 0000 
         00023f 00!  
    1338 000240 AB6B          MOV port(*AR3(T0)), AR3 ; |1444| 
         000242 99   
    1339 000243 7DFF          AND #0xfffc, AR3, AC0 ; |1444| 
         000245 FC0B 
    1340 000247 AB31          MOV *(#_sysCtrlRegs), AR3 ; |1444| 
         000249 0000 
         00024b 00!  
    1341 00024c EC02          BSET @#1, AC0 ; |1444| 
         00024e 00   
    1342 00024f C06B          MOV AC0, port(*AR3(T0)) ; |1444| 
         000251 9A   
    1343                      .dwpsn  file "F:/eZdsp_DBG/tmp1/c55x-sim2/foo/c5535_bsl_revc/ezdsp5535_v1/c55xx_csl/inc/csl_usbAux.h"
    1344 000252 ED10          MOV dbl(*SP(#8)), XAR3
         000254 BF   
    1345 000255 7604          MOV #1057, T0 ; |1445| 
         000257 2148 
    1346 000259 AC61          MOV *AR3, AR4 ; |1445| 
    1347 00025b AB31          MOV *(#_usbRegisters), AR3 ; |1445| 
         00025d 0000 
         00025f 00!  
    1348 000260 CC6B          MOV AR4, port(*AR3(T0)) ; |1445| 
         000262 9A   
    1349                      .dwpsn  file "F:/eZdsp_DBG/tmp1/c55x-sim2/foo/c5535_bsl_revc/ezdsp5535_v1/c55xx_csl/inc/csl_usbAux.h"
    1350 000263 7600          MOV #50, T0 ; |1447| 
TMS320C55x Assembler PC v4.4.1 Sat Sep 29 23:08:33 2018

Tools Copyright (c) 1996-2012 Texas Instruments Incorporated
csl_usb_poll_example.asm                                             PAGE   29

         000265 3248 
    1351 000267 AB31          MOV *(#_sysCtrlRegs), AR3 ; |1447| 
         000269 0000 
         00026b 00!  
    1352 00026c AB6B          MOV port(*AR3(T0)), AR3 ; |1447| 
         00026e 99   
    1353 00026f 7DFF          AND #0xfffc, AR3, AC0 ; |1447| 
         000271 FC0B 
    1354 000273 AB31          MOV *(#_sysCtrlRegs), AR3 ; |1447| 
         000275 0000 
         000277 00!  
    1355 000278 C06B          MOV AC0, port(*AR3(T0)) ; |1447| 
         00027a 9A   
    1356 00027b       $C$DW$L$_USB_processEP0In$11$E:
    1357 00027b       $C$L11:    
    1358 00027b       $C$DW$L$_USB_processEP0In$12$B:
    1359                      .dwpsn  file "F:/eZdsp_DBG/tmp1/c55x-sim2/foo/c5535_bsl_revc/ezdsp5535_v1/c55xx_csl/inc/csl_usbAux.h"
    1360 00027b AB18          MOV *SP(#12), AR3 ; |1451| 
    1361 00027d 1294          CMPU AR3 > AR1, TC1 ; |1451| 
         00027f B4   
    1362 000280 6164          BCC $C$L12,TC1 ; |1451| 
    1363                                                      ; branchcc occurs ; |1451| 
    1364 000282       $C$DW$L$_USB_processEP0In$12$E:
    1365                      .dwpsn  file "F:/eZdsp_DBG/tmp1/c55x-sim2/foo/c5535_bsl_revc/ezdsp5535_v1/c55xx_csl/inc/csl_usbAux.h"
    1366 000282 4A07          B $C$L13  ; |1453| 
    1367                                                      ; branch occurs ; |1453| 
    1368 000284       $C$L12:    
    1369 000284       $C$DW$L$_USB_processEP0In$15$B:
    1370                      .dwpsn  file "F:/eZdsp_DBG/tmp1/c55x-sim2/foo/c5535_bsl_revc/ezdsp5535_v1/c55xx_csl/inc/csl_usbAux.h"
    1371 000284 F718          SUB #64, *SP(#12) ; |1457| 
         000286 FFC0 
    1372                      .dwpsn  file "F:/eZdsp_DBG/tmp1/c55x-sim2/foo/c5535_bsl_revc/ezdsp5535_v1/c55xx_csl/inc/csl_usbAux.h"
    1373 000288 06FF          B $C$L8   ; |1432| 
         00028a 69   
    1374                                                      ; branch occurs ; |1432| 
    1375 00028b       $C$DW$L$_USB_processEP0In$15$E:
    1376 00028b       $C$L13:    
    1377                      .dwpsn  file "F:/eZdsp_DBG/tmp1/c55x-sim2/foo/c5535_bsl_revc/ezdsp5535_v1/c55xx_csl/inc/csl_usbAux.h"
    1378 00028b ED00          MOV dbl(*SP(#0)), XAR3
         00028d BF   
    1379 00028e E66D          MOV #0, *AR3(#90) ; |1461| 
         000290 0000 
         000292 5A   
    1380                      .dwpsn  file "F:/eZdsp_DBG/tmp1/c55x-sim2/foo/c5535_bsl_revc/ezdsp5535_v1/c55xx_csl/inc/csl_usbAux.h"
    1381 000293 ED08          MOV dbl(*SP(#4)), XAR3
         000295 BF   
    1382 000296 DF18          MOV uns(*SP(#12)), AC0 ; |1463| 
         000298 05   
    1383 000299 ED6D          ADD dbl(*AR3(#8)), AC0, AC0 ; |1463| 
         00029b 0000 
         00029d 08   
    1384 00029e EB6D          MOV AC0, dbl(*AR3(#8)) ; |1463| 
         0002a0 0800 
         0002a2 08   
    1385                      .dwpsn  file "F:/eZdsp_DBG/tmp1/c55x-sim2/foo/c5535_bsl_revc/ezdsp5535_v1/c55xx_csl/inc/csl_usbAux.h"
TMS320C55x Assembler PC v4.4.1 Sat Sep 29 23:08:33 2018

Tools Copyright (c) 1996-2012 Texas Instruments Incorporated
csl_usb_poll_example.asm                                             PAGE   30

    1386 0002a3 ED08          MOV dbl(*SP(#4)), XAR3
         0002a5 BF   
    1387 0002a6 DF18          MOV uns(*SP(#12)), AC0 ; |1464| 
         0002a8 05   
    1388 0002a9 EB6D          MOV AC0, dbl(*AR3(#10)) ; |1464| 
         0002ab 0800 
         0002ad 0A   
    1389                      .dwpsn  file "F:/eZdsp_DBG/tmp1/c55x-sim2/foo/c5535_bsl_revc/ezdsp5535_v1/c55xx_csl/inc/csl_usbAux.h"
    1390 0002ae ED08          MOV dbl(*SP(#4)), XAR3
         0002b0 BF   
    1391 0002b1 ED6D          MOV dbl(*AR3(#8)), AC1 ; |1465| 
         0002b3 1800 
         0002b5 08   
    1392 0002b6 ED7D          MOV dbl(*AR3(short(#6))), AC0 ; |1465| 
         0002b8 08   
    1393 0002b9 121C          CMPU AC1 != AC0, TC1 ; |1465| 
         0002bb 04   
    1394 0002bc 62E4          BCC $C$L14,TC1 ; |1465| 
    1395                                                      ; branchcc occurs ; |1465| 
    1396                      .dwpsn  file "F:/eZdsp_DBG/tmp1/c55x-sim2/foo/c5535_bsl_revc/ezdsp5535_v1/c55xx_csl/inc/csl_usbAux.h"
    1397 0002be E66D          MOV #1, *AR3(#12) ; |1467| 
         0002c0 0100 
         0002c2 0C   
    1398 0002c3       $C$L14:    
    1399                      .dwpsn  file "F:/eZdsp_DBG/tmp1/c55x-sim2/foo/c5535_bsl_revc/ezdsp5535_v1/c55xx_csl/inc/csl_usbAux.h"
    1400 0002c3 7604          MOV #1038, T0 ; |1471| 
         0002c5 0E48 
    1401 0002c7 AB31          MOV *(#_usbRegisters), AR3 ; |1471| 
         0002c9 0000 
         0002cb 00!  
    1402 0002cc A96B          MOV port(*AR3(T0)), AR1 ; |1471| 
         0002ce 99   
    1403 0002cf C91E          MOV AR1, *SP(#15) ; |1471| 
    1404                      .dwpsn  file "F:/eZdsp_DBG/tmp1/c55x-sim2/foo/c5535_bsl_revc/ezdsp5535_v1/c55xx_csl/inc/csl_usbAux.h"
    1405 0002d1 A96B          MOV port(*AR3(T0)), AR1 ; |1474| 
         0002d3 99   
    1406 0002d4 7DFF          AND #0xfff0, AR1, AC0 ; |1474| 
         0002d6 F009 
    1407 0002d8 C06B          MOV AC0, port(*AR3(T0)) ; |1474| 
         0002da 9A   
    1408                      .dwpsn  file "F:/eZdsp_DBG/tmp1/c55x-sim2/foo/c5535_bsl_revc/ezdsp5535_v1/c55xx_csl/inc/csl_usbAux.h"
    1409 0002db AB31          MOV *(#_usbRegisters), AR3 ; |1479| 
         0002dd 0000 
         0002df 00!  
    1410 0002e0 A96B          MOV port(*AR3(T0)), AR1 ; |1479| 
         0002e2 99   
    1411 0002e3 7DFF          AND #0xfff0, AR1, AC0 ; |1479| 
         0002e5 F009 
    1412 0002e7 C06B          MOV AC0, port(*AR3(T0)) ; |1479| 
         0002e9 9A   
    1413                      .dwpsn  file "F:/eZdsp_DBG/tmp1/c55x-sim2/foo/c5535_bsl_revc/ezdsp5535_v1/c55xx_csl/inc/csl_usbAux.h"
    1414 0002ea ED08          MOV dbl(*SP(#4)), XAR3
         0002ec BF   
    1415 0002ed F06D          CMP *AR3(#12) == #1, TC1 ; |1483| 
         0002ef 0001 
TMS320C55x Assembler PC v4.4.1 Sat Sep 29 23:08:33 2018

Tools Copyright (c) 1996-2012 Texas Instruments Incorporated
csl_usb_poll_example.asm                                             PAGE   31

         0002f1 000C 
    1416 0002f3 0474          BCC $C$L15,!TC1 ; |1483| 
         0002f5 37   
    1417                                                      ; branchcc occurs ; |1483| 
    1418                      .dwpsn  file "F:/eZdsp_DBG/tmp1/c55x-sim2/foo/c5535_bsl_revc/ezdsp5535_v1/c55xx_csl/inc/csl_usbAux.h"
    1419 0002f6 ED00          MOV dbl(*SP(#0)), XAR3
         0002f8 BF   
    1420 0002f9 E67F          MOV #0, *AR3(short(#7)) ; |1485| 
         0002fb 00   
    1421                      .dwpsn  file "F:/eZdsp_DBG/tmp1/c55x-sim2/foo/c5535_bsl_revc/ezdsp5535_v1/c55xx_csl/inc/csl_usbAux.h"
    1422 0002fc E61C          MOV #10, *SP(#14) ; |1488| 
         0002fe 0A   
    1423                      .dwpsn  file "F:/eZdsp_DBG/tmp1/c55x-sim2/foo/c5535_bsl_revc/ezdsp5535_v1/c55xx_csl/inc/csl_usbAux.h"
    1424 0002ff ED00          MOV dbl(*SP(#0)), XAR3
         000301 BF   
    1425 000302 E66D          MOV #0, *AR3(#101) ; |1491| 
         000304 0000 
         000306 65   
    1426                      .dwpsn  file "F:/eZdsp_DBG/tmp1/c55x-sim2/foo/c5535_bsl_revc/ezdsp5535_v1/c55xx_csl/inc/csl_usbAux.h"
    1427 000307 7604          MOV #1042, T0 ; |1493| 
         000309 1248 
    1428 00030b AB31          MOV *(#_usbRegisters), AR3 ; |1493| 
         00030d 0000 
         00030f 00!  
    1429 000310 A91C          MOV *SP(#14), AR1 ; |1493| 
    1430 000312 DA6B          OR port(*AR3(T0)), AR1, AR1 ; |1493| 
         000314 99   
         000315 99   
    1431 000316 C96B          MOV AR1, port(*AR3(T0)) ; |1493| 
         000318 9A   
    1432                      .dwpsn  file "F:/eZdsp_DBG/tmp1/c55x-sim2/foo/c5535_bsl_revc/ezdsp5535_v1/c55xx_csl/inc/csl_usbAux.h"
    1433 000319 ED00          MOV dbl(*SP(#0)), XAR3
         00031b BF   
    1434 00031c ED00          MOV dbl(*SP(#0)), XAR0
         00031e 8F   
    1435 00031f ED04          MOV dbl(*SP(#2)), XAR1
         000321 9F   
    1436 000322 ED6D          MOV dbl(*AR3(#116)), AC0 ; |1495| 
         000324 0800 
         000326 74   
    1437              $C$DW$167       .dwtag  DW_TAG_TI_branch
    1438                      .dwattr $C$DW$167, DW_AT_low_pc(0x00)
    1439                      .dwattr $C$DW$167, DW_AT_TI_call
    1440                      .dwattr $C$DW$167, DW_AT_TI_indirect
    1441 000327 9200          CALL AC0  ; |1495| 
    1442                                                      ; call occurs [AC0] ; |1495| 
    1443 000329 C40C          MOV T0, *SP(#6) ; |1495| 
    1444                      .dwpsn  file "F:/eZdsp_DBG/tmp1/c55x-sim2/foo/c5535_bsl_revc/ezdsp5535_v1/c55xx_csl/inc/csl_usbAux.h"
    1445 00032b 4A15          B $C$L16  ; |1496| 
    1446                                                      ; branch occurs ; |1496| 
    1447 00032d       $C$L15:    
    1448                      .dwpsn  file "F:/eZdsp_DBG/tmp1/c55x-sim2/foo/c5535_bsl_revc/ezdsp5535_v1/c55xx_csl/inc/csl_usbAux.h"
    1449 00032d E61C          MOV #2, *SP(#14) ; |1500| 
         00032f 02   
    1450                      .dwpsn  file "F:/eZdsp_DBG/tmp1/c55x-sim2/foo/c5535_bsl_revc/ezdsp5535_v1/c55xx_csl/inc/csl_usbAux.h"
TMS320C55x Assembler PC v4.4.1 Sat Sep 29 23:08:33 2018

Tools Copyright (c) 1996-2012 Texas Instruments Incorporated
csl_usb_poll_example.asm                                             PAGE   32

    1451 000330 7604          MOV #1042, T0 ; |1503| 
         000332 1248 
    1452 000334 AB31          MOV *(#_usbRegisters), AR3 ; |1503| 
         000336 0000 
         000338 00!  
    1453 000339 A91C          MOV *SP(#14), AR1 ; |1503| 
    1454 00033b DA6B          OR port(*AR3(T0)), AR1, AR1 ; |1503| 
         00033d 99   
         00033e 99   
    1455 00033f C96B          MOV AR1, port(*AR3(T0)) ; |1503| 
         000341 9A   
    1456 000342       $C$L16:    
    1457                      .dwpsn  file "F:/eZdsp_DBG/tmp1/c55x-sim2/foo/c5535_bsl_revc/ezdsp5535_v1/c55xx_csl/inc/csl_usbAux.h"
    1458 000342 AB31          MOV *(#_usbRegisters), AR3 ; |1507| 
         000344 0000 
         000346 00!  
    1459 000347 7604          MOV #1038, T0 ; |1507| 
         000349 0E48 
    1460 00034b A91E          MOV *SP(#15), AR1 ; |1507| 
    1461 00034d C96B          MOV AR1, port(*AR3(T0)) ; |1507| 
         00034f 9A   
    1462                      .dwpsn  file "F:/eZdsp_DBG/tmp1/c55x-sim2/foo/c5535_bsl_revc/ezdsp5535_v1/c55xx_csl/inc/csl_usbAux.h"
    1463 000350 4A08          B $C$L19  ; |1508| 
    1464                                                      ; branch occurs ; |1508| 
    1465 000352       $C$L17:    
    1466                      .dwpsn  file "F:/eZdsp_DBG/tmp1/c55x-sim2/foo/c5535_bsl_revc/ezdsp5535_v1/c55xx_csl/inc/csl_usbAux.h"
    1467 000352 E60C          MOV #-6, *SP(#6) ; |1511| 
         000354 FA   
    1468                      .dwpsn  file "F:/eZdsp_DBG/tmp1/c55x-sim2/foo/c5535_bsl_revc/ezdsp5535_v1/c55xx_csl/inc/csl_usbAux.h"
    1469 000355 4A03          B $C$L19  ; |1513| 
    1470                                                      ; branch occurs ; |1513| 
    1471 000357       $C$L18:    
    1472                      .dwpsn  file "F:/eZdsp_DBG/tmp1/c55x-sim2/foo/c5535_bsl_revc/ezdsp5535_v1/c55xx_csl/inc/csl_usbAux.h"
    1473 000357 E60C          MOV #-6, *SP(#6) ; |1516| 
         000359 FA   
    1474 00035a       $C$L19:    
    1475                      .dwpsn  file "F:/eZdsp_DBG/tmp1/c55x-sim2/foo/c5535_bsl_revc/ezdsp5535_v1/c55xx_csl/inc/csl_usbAux.h"
    1476 00035a A40C          MOV *SP(#6), T0 ; |1519| 
    1477                      .dwpsn  file "F:/eZdsp_DBG/tmp1/c55x-sim2/foo/c5535_bsl_revc/ezdsp5535_v1/c55xx_csl/inc/csl_usbAux.h"
    1478 00035c 4E11          AADD #17, SP
    1479                      .dwcfi  cfa_offset, 1
    1480              $C$DW$168       .dwtag  DW_TAG_TI_branch
    1481                      .dwattr $C$DW$168, DW_AT_low_pc(0x00)
    1482                      .dwattr $C$DW$168, DW_AT_TI_return
    1483 00035e 4804          RET
    1484                                                      ; return occurs
    1485              
    1486              $C$DW$169       .dwtag  DW_TAG_TI_loop
    1487                      .dwattr $C$DW$169, DW_AT_name("F:\eZdsp_DBG\tmp1\c55x-sim2\foo\Debug\csl_usb_poll_example.asm:$C$L8:1
    1488                      .dwattr $C$DW$169, DW_AT_TI_begin_file("F:/eZdsp_DBG/tmp1/c55x-sim2/foo/c5535_bsl_revc/ezdsp5535_v1/c
    1489                      .dwattr $C$DW$169, DW_AT_TI_begin_line(0x598)
    1490                      .dwattr $C$DW$169, DW_AT_TI_end_line(0x5b3)
    1491              $C$DW$170       .dwtag  DW_TAG_TI_loop_range
    1492                      .dwattr $C$DW$170, DW_AT_low_pc($C$DW$L$_USB_processEP0In$8$B)
    1493                      .dwattr $C$DW$170, DW_AT_high_pc($C$DW$L$_USB_processEP0In$8$E)
TMS320C55x Assembler PC v4.4.1 Sat Sep 29 23:08:33 2018

Tools Copyright (c) 1996-2012 Texas Instruments Incorporated
csl_usb_poll_example.asm                                             PAGE   33

    1494              $C$DW$171       .dwtag  DW_TAG_TI_loop_range
    1495                      .dwattr $C$DW$171, DW_AT_low_pc($C$DW$L$_USB_processEP0In$10$B)
    1496                      .dwattr $C$DW$171, DW_AT_high_pc($C$DW$L$_USB_processEP0In$10$E)
    1497              $C$DW$172       .dwtag  DW_TAG_TI_loop_range
    1498                      .dwattr $C$DW$172, DW_AT_low_pc($C$DW$L$_USB_processEP0In$11$B)
    1499                      .dwattr $C$DW$172, DW_AT_high_pc($C$DW$L$_USB_processEP0In$11$E)
    1500              $C$DW$173       .dwtag  DW_TAG_TI_loop_range
    1501                      .dwattr $C$DW$173, DW_AT_low_pc($C$DW$L$_USB_processEP0In$12$B)
    1502                      .dwattr $C$DW$173, DW_AT_high_pc($C$DW$L$_USB_processEP0In$12$E)
    1503              $C$DW$174       .dwtag  DW_TAG_TI_loop_range
    1504                      .dwattr $C$DW$174, DW_AT_low_pc($C$DW$L$_USB_processEP0In$15$B)
    1505                      .dwattr $C$DW$174, DW_AT_high_pc($C$DW$L$_USB_processEP0In$15$E)
    1506              
    1507              $C$DW$175       .dwtag  DW_TAG_TI_loop
    1508                      .dwattr $C$DW$175, DW_AT_name("F:\eZdsp_DBG\tmp1\c55x-sim2\foo\Debug\csl_usb_poll_example.asm:$C$L9:2
    1509                      .dwattr $C$DW$175, DW_AT_TI_begin_file("F:/eZdsp_DBG/tmp1/c55x-sim2/foo/c5535_bsl_revc/ezdsp5535_v1/c
    1510                      .dwattr $C$DW$175, DW_AT_TI_begin_line(0x59b)
    1511                      .dwattr $C$DW$175, DW_AT_TI_end_line(0x59f)
    1512              $C$DW$176       .dwtag  DW_TAG_TI_loop_range
    1513                      .dwattr $C$DW$176, DW_AT_low_pc($C$DW$L$_USB_processEP0In$9$B)
    1514                      .dwattr $C$DW$176, DW_AT_high_pc($C$DW$L$_USB_processEP0In$9$E)
    1515                      .dwendtag $C$DW$175
    1516              
    1517                      .dwendtag $C$DW$169
    1518              
    1519                      .dwattr $C$DW$155, DW_AT_TI_end_file("F:/eZdsp_DBG/tmp1/c55x-sim2/foo/c5535_bsl_revc/ezdsp5535_v1/c55
    1520                      .dwattr $C$DW$155, DW_AT_TI_end_line(0x5f0)
    1521                      .dwattr $C$DW$155, DW_AT_TI_end_column(0x01)
    1522                      .dwendentry
    1523                      .dwendtag $C$DW$155
    1524              
    1525 000360               .sect   ".text"
    1526                      .align 4
    1527              
    1528              $C$DW$177       .dwtag  DW_TAG_subprogram, DW_AT_name("USB_isValidDataInFifoOut")
    1529                      .dwattr $C$DW$177, DW_AT_low_pc(_USB_isValidDataInFifoOut)
    1530                      .dwattr $C$DW$177, DW_AT_high_pc(0x00)
    1531                      .dwattr $C$DW$177, DW_AT_TI_symbol_name("_USB_isValidDataInFifoOut")
    1532                      .dwattr $C$DW$177, DW_AT_type(*$C$DW$T$95)
    1533                      .dwattr $C$DW$177, DW_AT_TI_begin_file("F:/eZdsp_DBG/tmp1/c55x-sim2/foo/c5535_bsl_revc/ezdsp5535_v1/c
    1534                      .dwattr $C$DW$177, DW_AT_TI_begin_line(0x80d)
    1535                      .dwattr $C$DW$177, DW_AT_TI_begin_column(0x06)
    1536                      .dwattr $C$DW$177, DW_AT_TI_max_frame_size(0x06)
    1537                      .dwpsn  file "F:/eZdsp_DBG/tmp1/c55x-sim2/foo/c5535_bsl_revc/ezdsp5535_v1/c55xx_csl/inc/csl_usbAux.h"
    1538              
    1539                      .dwfde $C$DW$CIE, _USB_isValidDataInFifoOut
    1540              $C$DW$178       .dwtag  DW_TAG_formal_parameter, DW_AT_name("peps")
    1541                      .dwattr $C$DW$178, DW_AT_TI_symbol_name("_peps")
    1542                      .dwattr $C$DW$178, DW_AT_type(*$C$DW$T$171)
    1543                      .dwattr $C$DW$178, DW_AT_location[DW_OP_reg17]
    1544              ;*******************************************************************************
    1545              ;* FUNCTION NAME: USB_isValidDataInFifoOut                                     *
    1546              ;*                                                                             *
    1547              ;*   Function Uses Regs : AC0,AC0,AC1,AC1,T0,AR0,XAR0,AR1,AR2,AR3,XAR3,SP,TC1, *
    1548              ;*                        M40,SATA,SATD,RDM,FRCT,SMUL                          *
TMS320C55x Assembler PC v4.4.1 Sat Sep 29 23:08:33 2018

Tools Copyright (c) 1996-2012 Texas Instruments Incorporated
csl_usb_poll_example.asm                                             PAGE   34

    1549              ;*   Stack Frame        : Compact (No Frame Pointer, w/ debug)                 *
    1550              ;*   Total Frame Size   : 6 words                                              *
    1551              ;*                        (1 return address/alignment)                         *
    1552              ;*                        (5 local values)                                     *
    1553              ;*   Min System Stack   : 1 word                                               *
    1554              ;*******************************************************************************
    1555 000360       _USB_isValidDataInFifoOut:
    1556                      .dwcfi  cfa_offset, 1
    1557                      .dwcfi  save_reg_to_mem, 91, -1
    1558 000360 4EFB          AADD #-5, SP
    1559                      .dwcfi  cfa_offset, 6
    1560              $C$DW$179       .dwtag  DW_TAG_variable, DW_AT_name("peps")
    1561                      .dwattr $C$DW$179, DW_AT_TI_symbol_name("_peps")
    1562                      .dwattr $C$DW$179, DW_AT_type(*$C$DW$T$171)
    1563                      .dwattr $C$DW$179, DW_AT_location[DW_OP_bregx 0x24 0]
    1564              $C$DW$180       .dwtag  DW_TAG_variable, DW_AT_name("saveIndex")
    1565                      .dwattr $C$DW$180, DW_AT_TI_symbol_name("_saveIndex")
    1566                      .dwattr $C$DW$180, DW_AT_type(*$C$DW$T$19)
    1567                      .dwattr $C$DW$180, DW_AT_location[DW_OP_bregx 0x24 2]
    1568              $C$DW$181       .dwtag  DW_TAG_variable, DW_AT_name("wByteCount")
    1569                      .dwattr $C$DW$181, DW_AT_TI_symbol_name("_wByteCount")
    1570                      .dwattr $C$DW$181, DW_AT_type(*$C$DW$T$19)
    1571                      .dwattr $C$DW$181, DW_AT_location[DW_OP_bregx 0x24 3]
    1572              $C$DW$182       .dwtag  DW_TAG_variable, DW_AT_name("flag")
    1573                      .dwattr $C$DW$182, DW_AT_TI_symbol_name("_flag")
    1574                      .dwattr $C$DW$182, DW_AT_type(*$C$DW$T$19)
    1575                      .dwattr $C$DW$182, DW_AT_location[DW_OP_bregx 0x24 4]
    1576 000362 EB00          MOV XAR0, dbl(*SP(#0))
         000364 85   
    1577                      .dwpsn  file "F:/eZdsp_DBG/tmp1/c55x-sim2/foo/c5535_bsl_revc/ezdsp5535_v1/c55xx_csl/inc/csl_usbAux.h"
    1578 000365 E604          MOV #0, *SP(#2) ; |2067| 
         000367 00   
    1579                      .dwpsn  file "F:/eZdsp_DBG/tmp1/c55x-sim2/foo/c5535_bsl_revc/ezdsp5535_v1/c55xx_csl/inc/csl_usbAux.h"
    1580 000368 E606          MOV #0, *SP(#3) ; |2068| 
         00036a 00   
    1581                      .dwpsn  file "F:/eZdsp_DBG/tmp1/c55x-sim2/foo/c5535_bsl_revc/ezdsp5535_v1/c55xx_csl/inc/csl_usbAux.h"
    1582 00036b E608          MOV #0, *SP(#4) ; |2069| 
         00036d 00   
    1583                      .dwpsn  file "F:/eZdsp_DBG/tmp1/c55x-sim2/foo/c5535_bsl_revc/ezdsp5535_v1/c55xx_csl/inc/csl_usbAux.h"
    1584 00036e ED00          MOV dbl(*SP(#0)), XAR3
         000370 BF   
    1585              
    1586 000371 ED61          MOV dbl(*AR3), AC0 ; |2071| 
         000373 08   
    1587 000374 3D21  ||      MOV #2, AC1 ; |2071| 
    1588              
    1589 000376 121C          CMPU AC1 != AC0, TC1 ; |2071| 
         000378 04   
    1590 000379 0464          BCC $C$L22,TC1 ; |2071| 
         00037b 70   
    1591                                                      ; branchcc occurs ; |2071| 
    1592                      .dwpsn  file "F:/eZdsp_DBG/tmp1/c55x-sim2/foo/c5535_bsl_revc/ezdsp5535_v1/c55xx_csl/inc/csl_usbAux.h"
    1593 00037c 7604          MOV #1038, T0 ; |2074| 
         00037e 0E48 
    1594 000380 AB31          MOV *(#_usbRegisters), AR3 ; |2074| 
TMS320C55x Assembler PC v4.4.1 Sat Sep 29 23:08:33 2018

Tools Copyright (c) 1996-2012 Texas Instruments Incorporated
csl_usb_poll_example.asm                                             PAGE   35

         000382 0000 
         000384 00!  
    1595 000385 A96B          MOV port(*AR3(T0)), AR1 ; |2074| 
         000387 99   
    1596 000388 C904          MOV AR1, *SP(#2) ; |2074| 
    1597                      .dwpsn  file "F:/eZdsp_DBG/tmp1/c55x-sim2/foo/c5535_bsl_revc/ezdsp5535_v1/c55xx_csl/inc/csl_usbAux.h"
    1598 00038a F46B          AND #0xfff0, port(*AR3(T0)) ; |2076| 
         00038c FFF0 
         00038e 9A   
    1599                      .dwpsn  file "F:/eZdsp_DBG/tmp1/c55x-sim2/foo/c5535_bsl_revc/ezdsp5535_v1/c55xx_csl/inc/csl_usbAux.h"
    1600 00038f AB31          MOV *(#_usbRegisters), AR3 ; |2077| 
         000391 0000 
         000393 00!  
    1601 000394 F56B          OR #0x0002, port(*AR3(T0)) ; |2077| 
         000396 0002 
         000398 9A   
    1602                      .dwpsn  file "F:/eZdsp_DBG/tmp1/c55x-sim2/foo/c5535_bsl_revc/ezdsp5535_v1/c55xx_csl/inc/csl_usbAux.h"
    1603 000399 7604          MOV #1046, T0 ; |2080| 
         00039b 1648 
    1604 00039d AB31          MOV *(#_usbRegisters), AR3 ; |2080| 
         00039f 0000 
         0003a1 00!  
    1605 0003a2 A96B          MOV port(*AR3(T0)), AR1 ; |2080| 
         0003a4 99   
    1606              
    1607 0003a5 1801          AND #0x0001, AR1, AR1 ; |2080| 
         0003a7 99   
    1608 0003a8 3D1A  ||      MOV #1, AR2
    1609              
    1610 0003aa 129C          CMPU AR1 != AR2, TC1 ; |2080| 
         0003ac A4   
    1611 0003ad 0464          BCC $C$L21,TC1 ; |2080| 
         0003af 2E   
    1612                                                      ; branchcc occurs ; |2080| 
    1613                      .dwpsn  file "F:/eZdsp_DBG/tmp1/c55x-sim2/foo/c5535_bsl_revc/ezdsp5535_v1/c55xx_csl/inc/csl_usbAux.h"
    1614 0003b0 7604          MOV #1049, T0 ; |2083| 
         0003b2 1948 
    1615 0003b4 DF6B          MOV uns(low_byte(port(*AR3(T0)))), AR1 ; |2083| 
         0003b6 93   
         0003b7 99   
    1616 0003b8 C906          MOV AR1, *SP(#3) ; |2083| 
    1617                      .dwpsn  file "F:/eZdsp_DBG/tmp1/c55x-sim2/foo/c5535_bsl_revc/ezdsp5535_v1/c55xx_csl/inc/csl_usbAux.h"
    1618 0003ba ED00          MOV dbl(*SP(#0)), XAR3
         0003bc BF   
    1619 0003bd C96D          MOV AR1, *AR3(#13) ; |2084| 
         0003bf 000D 
    1620                      .dwpsn  file "F:/eZdsp_DBG/tmp1/c55x-sim2/foo/c5535_bsl_revc/ezdsp5535_v1/c55xx_csl/inc/csl_usbAux.h"
    1621 0003c1 ED00          MOV dbl(*SP(#0)), XAR3
         0003c3 BF   
    1622 0003c4 F075          CMP *AR3(short(#2)) == #3, TC1 ; |2086| 
         0003c6 0003 
    1623 0003c8 0464          BCC $C$L20,TC1 ; |2086| 
         0003ca 10   
    1624                                                      ; branchcc occurs ; |2086| 
    1625                      .dwpsn  file "F:/eZdsp_DBG/tmp1/c55x-sim2/foo/c5535_bsl_revc/ezdsp5535_v1/c55xx_csl/inc/csl_usbAux.h"
TMS320C55x Assembler PC v4.4.1 Sat Sep 29 23:08:33 2018

Tools Copyright (c) 1996-2012 Texas Instruments Incorporated
csl_usb_poll_example.asm                                             PAGE   36

    1626 0003cb ED79          MOV dbl(*AR3(short(#4))), AC0 ; |2088| 
         0003cd 08   
    1627 0003ce DF06          MOV uns(*SP(#3)), AC1 ; |2088| 
         0003d0 15   
    1628 0003d1 1204          CMPU AC1 > AC0, TC1 ; |2088| 
         0003d3 14   
    1629 0003d4 6464          BCC $C$L21,TC1 ; |2088| 
    1630                                                      ; branchcc occurs ; |2088| 
    1631                      .dwpsn  file "F:/eZdsp_DBG/tmp1/c55x-sim2/foo/c5535_bsl_revc/ezdsp5535_v1/c55xx_csl/inc/csl_usbAux.h"
    1632 0003d6 E608          MOV #1, *SP(#4) ; |2092| 
         0003d8 01   
    1633                      .dwpsn  file "F:/eZdsp_DBG/tmp1/c55x-sim2/foo/c5535_bsl_revc/ezdsp5535_v1/c55xx_csl/inc/csl_usbAux.h"
    1634 0003d9 4A03          B $C$L21  ; |2094| 
    1635                                                      ; branch occurs ; |2094| 
    1636 0003db       $C$L20:    
    1637                      .dwpsn  file "F:/eZdsp_DBG/tmp1/c55x-sim2/foo/c5535_bsl_revc/ezdsp5535_v1/c55xx_csl/inc/csl_usbAux.h"
    1638 0003db E608          MOV #1, *SP(#4) ; |2097| 
         0003dd 01   
    1639 0003de       $C$L21:    
    1640                      .dwpsn  file "F:/eZdsp_DBG/tmp1/c55x-sim2/foo/c5535_bsl_revc/ezdsp5535_v1/c55xx_csl/inc/csl_usbAux.h"
    1641 0003de AB31          MOV *(#_usbRegisters), AR3 ; |2102| 
         0003e0 0000 
         0003e2 00!  
    1642 0003e3 7604          MOV #1038, T0 ; |2102| 
         0003e5 0E48 
    1643 0003e7 A904          MOV *SP(#2), AR1 ; |2102| 
    1644 0003e9 C96B          MOV AR1, port(*AR3(T0)) ; |2102| 
         0003eb 9A   
    1645 0003ec       $C$L22:    
    1646                      .dwpsn  file "F:/eZdsp_DBG/tmp1/c55x-sim2/foo/c5535_bsl_revc/ezdsp5535_v1/c55xx_csl/inc/csl_usbAux.h"
    1647 0003ec A408          MOV *SP(#4), T0 ; |2105| 
    1648                      .dwpsn  file "F:/eZdsp_DBG/tmp1/c55x-sim2/foo/c5535_bsl_revc/ezdsp5535_v1/c55xx_csl/inc/csl_usbAux.h"
    1649 0003ee 4E05          AADD #5, SP
    1650                      .dwcfi  cfa_offset, 1
    1651              $C$DW$183       .dwtag  DW_TAG_TI_branch
    1652                      .dwattr $C$DW$183, DW_AT_low_pc(0x00)
    1653                      .dwattr $C$DW$183, DW_AT_TI_return
    1654 0003f0 4804          RET
    1655                                                      ; return occurs
    1656                      .dwattr $C$DW$177, DW_AT_TI_end_file("F:/eZdsp_DBG/tmp1/c55x-sim2/foo/c5535_bsl_revc/ezdsp5535_v1/c55
    1657                      .dwattr $C$DW$177, DW_AT_TI_end_line(0x83a)
    1658                      .dwattr $C$DW$177, DW_AT_TI_end_column(0x01)
    1659                      .dwendentry
    1660                      .dwendtag $C$DW$177
    1661              
    1662 0003f2               .sect   ".text"
    1663                      .align 4
    1664              
    1665              $C$DW$184       .dwtag  DW_TAG_subprogram, DW_AT_name("USB_handleTx")
    1666                      .dwattr $C$DW$184, DW_AT_low_pc(_USB_handleTx)
    1667                      .dwattr $C$DW$184, DW_AT_high_pc(0x00)
    1668                      .dwattr $C$DW$184, DW_AT_TI_symbol_name("_USB_handleTx")
    1669                      .dwattr $C$DW$184, DW_AT_type(*$C$DW$T$89)
    1670                      .dwattr $C$DW$184, DW_AT_TI_begin_file("F:/eZdsp_DBG/tmp1/c55x-sim2/foo/c5535_bsl_revc/ezdsp5535_v1/c
    1671                      .dwattr $C$DW$184, DW_AT_TI_begin_line(0x371)
TMS320C55x Assembler PC v4.4.1 Sat Sep 29 23:08:33 2018

Tools Copyright (c) 1996-2012 Texas Instruments Incorporated
csl_usb_poll_example.asm                                             PAGE   37

    1672                      .dwattr $C$DW$184, DW_AT_TI_begin_column(0x0c)
    1673                      .dwattr $C$DW$184, DW_AT_TI_max_frame_size(0x16)
    1674                      .dwpsn  file "F:/eZdsp_DBG/tmp1/c55x-sim2/foo/c5535_bsl_revc/ezdsp5535_v1/c55xx_csl/inc/csl_usbAux.h"
    1675              
    1676                      .dwfde $C$DW$CIE, _USB_handleTx
    1677              $C$DW$185       .dwtag  DW_TAG_formal_parameter, DW_AT_name("pContext")
    1678                      .dwattr $C$DW$185, DW_AT_TI_symbol_name("_pContext")
    1679                      .dwattr $C$DW$185, DW_AT_type(*$C$DW$T$167)
    1680                      .dwattr $C$DW$185, DW_AT_location[DW_OP_reg17]
    1681              $C$DW$186       .dwtag  DW_TAG_formal_parameter, DW_AT_name("dwEndpoint")
    1682                      .dwattr $C$DW$186, DW_AT_TI_symbol_name("_dwEndpoint")
    1683                      .dwattr $C$DW$186, DW_AT_type(*$C$DW$T$98)
    1684                      .dwattr $C$DW$186, DW_AT_location[DW_OP_reg0]
    1685              ;*******************************************************************************
    1686              ;* FUNCTION NAME: USB_handleTx                                                 *
    1687              ;*                                                                             *
    1688              ;*   Function Uses Regs : AC0,AC0,AC1,AC1,T0,AR0,XAR0,AR1,XAR1,AR3,XAR3,SP,    *
    1689              ;*                        CARRY,TC1,M40,SATA,SATD,RDM,FRCT,SMUL                *
    1690              ;*   Stack Frame        : Compact (No Frame Pointer, w/ debug)                 *
    1691              ;*   Total Frame Size   : 22 words                                             *
    1692              ;*                        (1 return address/alignment)                         *
    1693              ;*                        (21 local values)                                    *
    1694              ;*   Min System Stack   : 1 word                                               *
    1695              ;*******************************************************************************
    1696 0003f4       _USB_handleTx:
    1697                      .dwcfi  cfa_offset, 1
    1698                      .dwcfi  save_reg_to_mem, 91, -1
    1699 0003f4 4EEB          AADD #-21, SP
    1700                      .dwcfi  cfa_offset, 22
    1701              $C$DW$187       .dwtag  DW_TAG_variable, DW_AT_name("pContext")
    1702                      .dwattr $C$DW$187, DW_AT_TI_symbol_name("_pContext")
    1703                      .dwattr $C$DW$187, DW_AT_type(*$C$DW$T$167)
    1704                      .dwattr $C$DW$187, DW_AT_location[DW_OP_bregx 0x24 0]
    1705              $C$DW$188       .dwtag  DW_TAG_variable, DW_AT_name("dwEndpoint")
    1706                      .dwattr $C$DW$188, DW_AT_TI_symbol_name("_dwEndpoint")
    1707                      .dwattr $C$DW$188, DW_AT_type(*$C$DW$T$98)
    1708                      .dwattr $C$DW$188, DW_AT_location[DW_OP_bregx 0x24 2]
    1709              $C$DW$189       .dwtag  DW_TAG_variable, DW_AT_name("cbToWrite")
    1710                      .dwattr $C$DW$189, DW_AT_TI_symbol_name("_cbToWrite")
    1711                      .dwattr $C$DW$189, DW_AT_type(*$C$DW$T$98)
    1712                      .dwattr $C$DW$189, DW_AT_location[DW_OP_bregx 0x24 4]
    1713              $C$DW$190       .dwtag  DW_TAG_variable, DW_AT_name("pwBuffer")
    1714                      .dwattr $C$DW$190, DW_AT_TI_symbol_name("_pwBuffer")
    1715                      .dwattr $C$DW$190, DW_AT_type(*$C$DW$T$96)
    1716                      .dwattr $C$DW$190, DW_AT_location[DW_OP_bregx 0x24 6]
    1717              $C$DW$191       .dwtag  DW_TAG_variable, DW_AT_name("cbBuffer")
    1718                      .dwattr $C$DW$191, DW_AT_TI_symbol_name("_cbBuffer")
    1719                      .dwattr $C$DW$191, DW_AT_type(*$C$DW$T$98)
    1720                      .dwattr $C$DW$191, DW_AT_location[DW_OP_bregx 0x24 8]
    1721              $C$DW$192       .dwtag  DW_TAG_variable, DW_AT_name("cbWritten")
    1722                      .dwattr $C$DW$192, DW_AT_TI_symbol_name("_cbWritten")
    1723                      .dwattr $C$DW$192, DW_AT_type(*$C$DW$T$98)
    1724                      .dwattr $C$DW$192, DW_AT_location[DW_OP_bregx 0x24 10]
    1725              $C$DW$193       .dwtag  DW_TAG_variable, DW_AT_name("count")
    1726                      .dwattr $C$DW$193, DW_AT_TI_symbol_name("_count")
TMS320C55x Assembler PC v4.4.1 Sat Sep 29 23:08:33 2018

Tools Copyright (c) 1996-2012 Texas Instruments Incorporated
csl_usb_poll_example.asm                                             PAGE   38

    1727                      .dwattr $C$DW$193, DW_AT_type(*$C$DW$T$19)
    1728                      .dwattr $C$DW$193, DW_AT_location[DW_OP_bregx 0x24 12]
    1729              $C$DW$194       .dwtag  DW_TAG_variable, DW_AT_name("saveIndex")
    1730                      .dwattr $C$DW$194, DW_AT_TI_symbol_name("_saveIndex")
    1731                      .dwattr $C$DW$194, DW_AT_type(*$C$DW$T$19)
    1732                      .dwattr $C$DW$194, DW_AT_location[DW_OP_bregx 0x24 13]
    1733              $C$DW$195       .dwtag  DW_TAG_variable, DW_AT_name("status")
    1734                      .dwattr $C$DW$195, DW_AT_TI_symbol_name("_status")
    1735                      .dwattr $C$DW$195, DW_AT_type(*$C$DW$T$89)
    1736                      .dwattr $C$DW$195, DW_AT_location[DW_OP_bregx 0x24 14]
    1737              $C$DW$196       .dwtag  DW_TAG_variable, DW_AT_name("peps")
    1738                      .dwattr $C$DW$196, DW_AT_TI_symbol_name("_peps")
    1739                      .dwattr $C$DW$196, DW_AT_type(*$C$DW$T$171)
    1740                      .dwattr $C$DW$196, DW_AT_location[DW_OP_bregx 0x24 16]
    1741              $C$DW$197       .dwtag  DW_TAG_variable, DW_AT_name("pTransfer")
    1742                      .dwattr $C$DW$197, DW_AT_TI_symbol_name("_pTransfer")
    1743                      .dwattr $C$DW$197, DW_AT_type(*$C$DW$T$173)
    1744                      .dwattr $C$DW$197, DW_AT_location[DW_OP_bregx 0x24 18]
    1745              $C$DW$198       .dwtag  DW_TAG_variable, DW_AT_name("pFifoAddr")
    1746                      .dwattr $C$DW$198, DW_AT_TI_symbol_name("_pFifoAddr")
    1747                      .dwattr $C$DW$198, DW_AT_type(*$C$DW$T$240)
    1748                      .dwattr $C$DW$198, DW_AT_location[DW_OP_bregx 0x24 20]
    1749 0003f6 EB04          MOV AC0, dbl(*SP(#2)) ; |883| 
         0003f8 08   
    1750 0003f9 EB00          MOV XAR0, dbl(*SP(#0))
         0003fb 85   
    1751                      .dwpsn  file "F:/eZdsp_DBG/tmp1/c55x-sim2/foo/c5535_bsl_revc/ezdsp5535_v1/c55xx_csl/inc/csl_usbAux.h"
    1752 0003fc E61C          MOV #0, *SP(#14) ; |896| 
         0003fe 00   
    1753                      .dwpsn  file "F:/eZdsp_DBG/tmp1/c55x-sim2/foo/c5535_bsl_revc/ezdsp5535_v1/c55xx_csl/inc/csl_usbAux.h"
    1754 0003ff E618          MOV #0, *SP(#12) ; |897| 
         000401 00   
    1755                      .dwpsn  file "F:/eZdsp_DBG/tmp1/c55x-sim2/foo/c5535_bsl_revc/ezdsp5535_v1/c55xx_csl/inc/csl_usbAux.h"
    1756 000402 E61A          MOV #0, *SP(#13) ; |898| 
         000404 00   
    1757                      .dwpsn  file "F:/eZdsp_DBG/tmp1/c55x-sim2/foo/c5535_bsl_revc/ezdsp5535_v1/c55xx_csl/inc/csl_usbAux.h"
    1758 000405 3C00          MOV #0, AC0 ; |899| 
    1759 000407 EB14          MOV AC0, dbl(*SP(#10)) ; |899| 
         000409 08   
    1760                      .dwpsn  file "F:/eZdsp_DBG/tmp1/c55x-sim2/foo/c5535_bsl_revc/ezdsp5535_v1/c55xx_csl/inc/csl_usbAux.h"
    1761 00040a ED00          MOV dbl(*SP(#0)), XAR3
         00040c BF   
    1762 00040d 90B0          MOV XAR3, AC0
    1763 00040f 6D00          BCC $C$L37,AC0 == #0 ; |901| 
         000411 0258 
    1764                                                      ; branchcc occurs ; |901| 
    1765                      .dwpsn  file "F:/eZdsp_DBG/tmp1/c55x-sim2/foo/c5535_bsl_revc/ezdsp5535_v1/c55xx_csl/inc/csl_usbAux.h"
    1766 000413 ED6D          MOV dbl(*AR3(#98)), XAR3
         000415 BF00 
         000417 62   
    1767 000418 F806          MPYMK *SP(#3), #18, AC0 ; |903| 
         00041a 1200 
    1768 00041c 2209          MOV AC0, AR1 ; |903| 
    1769              
    1770 00041e 8E20          MOV XAR3, dbl(*SP(#16))
TMS320C55x Assembler PC v4.4.1 Sat Sep 29 23:08:33 2018

Tools Copyright (c) 1996-2012 Texas Instruments Incorporated
csl_usb_poll_example.asm                                             PAGE   39

         000420 BB10 
         000422 B590 
    1771              ||      AADD AR1, AR3 ; |903| 
    1772              
    1773                      .dwpsn  file "F:/eZdsp_DBG/tmp1/c55x-sim2/foo/c5535_bsl_revc/ezdsp5535_v1/c55xx_csl/inc/csl_usbAux.h"
    1774 000424 ED6D          MOV dbl(*AR3(#10)), XAR3
         000426 BF00 
         000428 0A   
    1775 000429 EB24          MOV XAR3, dbl(*SP(#18))
         00042b B5   
    1776                      .dwpsn  file "F:/eZdsp_DBG/tmp1/c55x-sim2/foo/c5535_bsl_revc/ezdsp5535_v1/c55xx_csl/inc/csl_usbAux.h"
    1777 00042c 90B0          MOV XAR3, AC0
    1778 00042e 6D00          BCC $C$L36,AC0 == #0 ; |906| 
         000430 0234 
    1779                                                      ; branchcc occurs ; |906| 
    1780 000432 A96D          MOV *AR3(#12), AR1 ; |906| 
         000434 000C 
    1781 000436 6D19          BCC $C$L36,AR1 != #0 ; |906| 
         000438 022C 
    1782                                                      ; branchcc occurs ; |906| 
    1783                      .dwpsn  file "F:/eZdsp_DBG/tmp1/c55x-sim2/foo/c5535_bsl_revc/ezdsp5535_v1/c55xx_csl/inc/csl_usbAux.h"
    1784 00043a ED6D          MOV dbl(*AR3(#8)), AC0 ; |908| 
         00043c 0800 
         00043e 08   
    1785 00043f ED79          MOV dbl(*AR3(short(#4))), XAR3
         000441 BF   
    1786 000442 5001          SFTL AC0, #-1 ; |908| 
    1787 000444 2209          MOV AC0, AR1 ; |908| 
    1788              
    1789 000446 8E0C          MOV XAR3, dbl(*SP(#6))
         000448 BB10 
         00044a B590 
    1790              ||      AADD AR1, AR3 ; |908| 
    1791              
    1792                      .dwpsn  file "F:/eZdsp_DBG/tmp1/c55x-sim2/foo/c5535_bsl_revc/ezdsp5535_v1/c55xx_csl/inc/csl_usbAux.h"
    1793 00044c ED24          MOV dbl(*SP(#18)), XAR3
         00044e BF   
    1794 00044f ED6D          MOV dbl(*AR3(#8)), AC0 ; |909| 
         000451 0800 
         000453 08   
    1795 000454 ED7D          SUB AC0, dbl(*AR3(short(#6))), AC0 ; |909| 
         000456 04   
    1796 000457 EB10          MOV AC0, dbl(*SP(#8)) ; |909| 
         000459 08   
    1797                      .dwpsn  file "F:/eZdsp_DBG/tmp1/c55x-sim2/foo/c5535_bsl_revc/ezdsp5535_v1/c55xx_csl/inc/csl_usbAux.h"
    1798 00045a ED20          MOV dbl(*SP(#16)), XAR3
         00045c BF   
    1799 00045d A96D          MOV *AR3(#9), AR1 ; |910| 
         00045f 0009 
    1800 000461 C928          MOV AR1, *SP(#20) ; |910| 
    1801                      .dwpsn  file "F:/eZdsp_DBG/tmp1/c55x-sim2/foo/c5535_bsl_revc/ezdsp5535_v1/c55xx_csl/inc/csl_usbAux.h"
    1802 000463 ED20          MOV dbl(*SP(#16)), XAR3
         000465 BF   
    1803 000466 ED10          MOV dbl(*SP(#8)), AC1 ; |913| 
         000468 18   
TMS320C55x Assembler PC v4.4.1 Sat Sep 29 23:08:33 2018

Tools Copyright (c) 1996-2012 Texas Instruments Incorporated
csl_usb_poll_example.asm                                             PAGE   40

    1804 000469 ED79          MOV dbl(*AR3(short(#4))), AC0 ; |913| 
         00046b 08   
    1805 00046c 1218          CMPU AC1 >= AC0, TC1 ; |913| 
         00046e 04   
    1806 00046f 62E4          BCC $C$L23,TC1 ; |913| 
    1807                                                      ; branchcc occurs ; |913| 
    1808 000471 ED10          MOV dbl(*SP(#8)), AC0 ; |913| 
         000473 08   
    1809 000474 4A03          B $C$L24  ; |913| 
    1810                                                      ; branch occurs ; |913| 
    1811 000476       $C$L23:    
    1812 000476 ED79          MOV dbl(*AR3(short(#4))), AC0 ; |913| 
         000478 08   
    1813 000479       $C$L24:    
    1814 000479 EB08          MOV AC0, dbl(*SP(#4)) ; |913| 
         00047b 08   
    1815                      .dwpsn  file "F:/eZdsp_DBG/tmp1/c55x-sim2/foo/c5535_bsl_revc/ezdsp5535_v1/c55xx_csl/inc/csl_usbAux.h"
    1816 00047c ED24          MOV dbl(*SP(#18)), XAR3
         00047e BF   
    1817 00047f F06D          CMP *AR3(#13) == #32, TC1 ; |916| 
         000481 0020 
         000483 000D 
    1818 000485 6474          BCC $C$L25,!TC1 ; |916| 
    1819                                                      ; branchcc occurs ; |916| 
    1820                      .dwpsn  file "F:/eZdsp_DBG/tmp1/c55x-sim2/foo/c5535_bsl_revc/ezdsp5535_v1/c55xx_csl/inc/csl_usbAux.h"
    1821 000487 E66D          MOV #1, *AR3(#12) ; |918| 
         000489 0100 
         00048b 0C   
    1822                      .dwpsn  file "F:/eZdsp_DBG/tmp1/c55x-sim2/foo/c5535_bsl_revc/ezdsp5535_v1/c55xx_csl/inc/csl_usbAux.h"
    1823 00048c 0601          B $C$L35  ; |919| 
         00048e B3   
    1824                                                      ; branch occurs ; |919| 
    1825 00048f       $C$L25:    
    1826                      .dwpsn  file "F:/eZdsp_DBG/tmp1/c55x-sim2/foo/c5535_bsl_revc/ezdsp5535_v1/c55xx_csl/inc/csl_usbAux.h"
    1827 00048f ED20          MOV dbl(*SP(#16)), XAR3
         000491 BF   
    1828 000492 F06D          CMP *AR3(#16) == #1, TC1 ; |922| 
         000494 0001 
         000496 0010 
    1829 000498 6D64          BCC $C$L35,TC1 ; |922| 
         00049a 01A6 
    1830                                                      ; branchcc occurs ; |922| 
    1831                      .dwpsn  file "F:/eZdsp_DBG/tmp1/c55x-sim2/foo/c5535_bsl_revc/ezdsp5535_v1/c55xx_csl/inc/csl_usbAux.h"
    1832 00049c 7602          MOV #512, AC0 ; |925| 
         00049e 0008 
    1833 0004a0 ED08          MOV dbl(*SP(#4)), AC1 ; |925| 
         0004a2 18   
    1834 0004a3 1210          CMPU AC1 == AC0, TC1 ; |925| 
         0004a5 04   
    1835 0004a6 66E4          BCC $C$L26,TC1 ; |925| 
    1836                                                      ; branchcc occurs ; |925| 
    1837 0004a8 7600          MOV #64, AC0 ; |925| 
         0004aa 4008 
    1838 0004ac ED08          MOV dbl(*SP(#4)), AC1 ; |925| 
         0004ae 18   
TMS320C55x Assembler PC v4.4.1 Sat Sep 29 23:08:33 2018

Tools Copyright (c) 1996-2012 Texas Instruments Incorporated
csl_usb_poll_example.asm                                             PAGE   41

    1839 0004af 121C          CMPU AC1 != AC0, TC1 ; |925| 
         0004b1 04   
    1840 0004b2 0464          BCC $C$L29,TC1 ; |925| 
         0004b4 5E   
    1841                                                      ; branchcc occurs ; |925| 
    1842 0004b5       $C$L26:    
    1843 0004b5 ED00          MOV dbl(*SP(#0)), XAR3
         0004b7 BF   
    1844 0004b8 F061          CMP *AR3 == #1, TC1 ; |925| 
         0004ba 0001 
    1845 0004bc 63E4          BCC $C$L27,TC1 ; |925| 
    1846                                                      ; branchcc occurs ; |925| 
    1847 0004be F061          CMP *AR3 == #2, TC1 ; |925| 
         0004c0 0002 
    1848 0004c2 0474          BCC $C$L29,!TC1 ; |925| 
         0004c4 4E   
    1849                                                      ; branchcc occurs ; |925| 
    1850 0004c5       $C$L27:    
    1851                      .dwpsn  file "F:/eZdsp_DBG/tmp1/c55x-sim2/foo/c5535_bsl_revc/ezdsp5535_v1/c55xx_csl/inc/csl_usbAux.h"
    1852 0004c5 ED24          MOV dbl(*SP(#18)), XAR3
         0004c7 BF   
    1853 0004c8 ED08          MOV dbl(*SP(#4)), AC0 ; |929| 
         0004ca 08   
    1854 0004cb ED6D          ADD dbl(*AR3(#8)), AC0, AC0 ; |929| 
         0004cd 0000 
         0004cf 08   
    1855 0004d0 EB6D          MOV AC0, dbl(*AR3(#8)) ; |929| 
         0004d2 0800 
         0004d4 08   
    1856                      .dwpsn  file "F:/eZdsp_DBG/tmp1/c55x-sim2/foo/c5535_bsl_revc/ezdsp5535_v1/c55xx_csl/inc/csl_usbAux.h"
    1857 0004d5 ED24          MOV dbl(*SP(#18)), XAR3
         0004d7 BF   
    1858 0004d8 ED08          MOV dbl(*SP(#4)), AC0 ; |930| 
         0004da 08   
    1859 0004db EB6D          MOV AC0, dbl(*AR3(#10)) ; |930| 
         0004dd 0800 
         0004df 0A   
    1860                      .dwpsn  file "F:/eZdsp_DBG/tmp1/c55x-sim2/foo/c5535_bsl_revc/ezdsp5535_v1/c55xx_csl/inc/csl_usbAux.h"
    1861 0004e0 ED04          MOV dbl(*SP(#2)), AC0 ; |932| 
         0004e2 08   
    1862              $C$DW$199       .dwtag  DW_TAG_TI_branch
    1863                      .dwattr $C$DW$199, DW_AT_low_pc(0x00)
    1864                      .dwattr $C$DW$199, DW_AT_name("_USB_dmaTxStart")
    1865                      .dwattr $C$DW$199, DW_AT_TI_call
    1866 0004e3 08FB          CALL #_USB_dmaTxStart ; |932| 
         0004e5 6E   
    1867                                                      ; call occurs [#_USB_dmaTxStart] ; |932| 
    1868                      .dwpsn  file "F:/eZdsp_DBG/tmp1/c55x-sim2/foo/c5535_bsl_revc/ezdsp5535_v1/c55xx_csl/inc/csl_usbAux.h"
    1869 0004e6 ED24          MOV dbl(*SP(#18)), XAR3
         0004e8 BF   
    1870 0004e9 ED6D          MOV dbl(*AR3(#8)), AC1 ; |934| 
         0004eb 1800 
         0004ed 08   
    1871 0004ee ED7D          MOV dbl(*AR3(short(#6))), AC0 ; |934| 
         0004f0 08   
TMS320C55x Assembler PC v4.4.1 Sat Sep 29 23:08:33 2018

Tools Copyright (c) 1996-2012 Texas Instruments Incorporated
csl_usb_poll_example.asm                                             PAGE   42

    1872 0004f1 121C          CMPU AC1 != AC0, TC1 ; |934| 
         0004f3 04   
    1873 0004f4 6464          BCC $C$L28,TC1 ; |934| 
    1874                                                      ; branchcc occurs ; |934| 
    1875                      .dwpsn  file "F:/eZdsp_DBG/tmp1/c55x-sim2/foo/c5535_bsl_revc/ezdsp5535_v1/c55xx_csl/inc/csl_usbAux.h"
    1876 0004f6 E66D          MOV #1, *AR3(#12) ; |936| 
         0004f8 0100 
         0004fa 0C   
    1877                      .dwpsn  file "F:/eZdsp_DBG/tmp1/c55x-sim2/foo/c5535_bsl_revc/ezdsp5535_v1/c55xx_csl/inc/csl_usbAux.h"
    1878 0004fb 0601          B $C$L35  ; |937| 
         0004fd 44   
    1879                                                      ; branch occurs ; |937| 
    1880 0004fe       $C$L28:    
    1881                      .dwpsn  file "F:/eZdsp_DBG/tmp1/c55x-sim2/foo/c5535_bsl_revc/ezdsp5535_v1/c55xx_csl/inc/csl_usbAux.h"
    1882 0004fe ED00          MOV dbl(*SP(#0)), XAR3
         000500 BF   
    1883 000501 ED00          MOV dbl(*SP(#0)), XAR0
         000503 8F   
    1884 000504 ED20          MOV dbl(*SP(#16)), XAR1
         000506 9F   
    1885 000507 ED6D          MOV dbl(*AR3(#116)), AC0 ; |940| 
         000509 0800 
         00050b 74   
    1886              $C$DW$200       .dwtag  DW_TAG_TI_branch
    1887                      .dwattr $C$DW$200, DW_AT_low_pc(0x00)
    1888                      .dwattr $C$DW$200, DW_AT_TI_call
    1889                      .dwattr $C$DW$200, DW_AT_TI_indirect
    1890 00050c 9200          CALL AC0  ; |940| 
    1891                                                      ; call occurs [AC0] ; |940| 
    1892 00050e C41C          MOV T0, *SP(#14) ; |940| 
    1893                      .dwpsn  file "F:/eZdsp_DBG/tmp1/c55x-sim2/foo/c5535_bsl_revc/ezdsp5535_v1/c55xx_csl/inc/csl_usbAux.h"
    1894 000510 0601          B $C$L35  ; |942| 
         000512 2F   
    1895                                                      ; branch occurs ; |942| 
    1896 000513       $C$L29:    
    1897                      .dwpsn  file "F:/eZdsp_DBG/tmp1/c55x-sim2/foo/c5535_bsl_revc/ezdsp5535_v1/c55xx_csl/inc/csl_usbAux.h"
    1898 000513 7604          MOV #1038, T0 ; |957| 
         000515 0E48 
    1899 000517 AB31          MOV *(#_usbRegisters), AR3 ; |957| 
         000519 0000 
         00051b 00!  
    1900 00051c A96B          MOV port(*AR3(T0)), AR1 ; |957| 
         00051e 99   
    1901 00051f C91A          MOV AR1, *SP(#13) ; |957| 
    1902                      .dwpsn  file "F:/eZdsp_DBG/tmp1/c55x-sim2/foo/c5535_bsl_revc/ezdsp5535_v1/c55xx_csl/inc/csl_usbAux.h"
    1903 000521 A96B          MOV port(*AR3(T0)), AR1 ; |960| 
         000523 99   
    1904 000524 7DFF          AND #0xfff0, AR1, AC0 ; |960| 
         000526 F009 
    1905 000528 C06B          MOV AC0, port(*AR3(T0)) ; |960| 
         00052a 9A   
    1906                      .dwpsn  file "F:/eZdsp_DBG/tmp1/c55x-sim2/foo/c5535_bsl_revc/ezdsp5535_v1/c55xx_csl/inc/csl_usbAux.h"
    1907 00052b AB31          MOV *(#_usbRegisters), AR3 ; |964| 
         00052d 0000 
         00052f 00!  
TMS320C55x Assembler PC v4.4.1 Sat Sep 29 23:08:33 2018

Tools Copyright (c) 1996-2012 Texas Instruments Incorporated
csl_usb_poll_example.asm                                             PAGE   43

    1908 000530 ED04          MOV dbl(*SP(#2)), AC0 ; |964| 
         000532 08   
    1909 000533 180F          AND #0x000f, AC0, AC0 ; |964| 
         000535 00   
    1910 000536 A96B          MOV port(*AR3(T0)), AR1 ; |964| 
         000538 99   
    1911 000539 7DFF          AND #0xfff0, AR1, AC1 ; |964| 
         00053b F019 
    1912 00053d 2A10          OR AC1, AC0 ; |964| 
    1913 00053f C06B          MOV AC0, port(*AR3(T0)) ; |964| 
         000541 9A   
    1914                      .dwpsn  file "F:/eZdsp_DBG/tmp1/c55x-sim2/foo/c5535_bsl_revc/ezdsp5535_v1/c55xx_csl/inc/csl_usbAux.h"
    1915 000542 7604          MOV #1042, T0 ; |969| 
         000544 1248 
    1916 000546 AB31          MOV *(#_usbRegisters), AR3 ; |969| 
         000548 0000 
         00054a 00!  
    1917 00054b A96B          MOV port(*AR3(T0)), AR1 ; |969| 
         00054d 99   
    1918 00054e EC06          BCLR @#3, AR1 ; |969| 
         000550 92   
    1919 000551 EC06          BSET @#3, AR1 ; |969| 
         000553 90   
    1920 000554 C96B          MOV AR1, port(*AR3(T0)) ; |969| 
         000556 9A   
    1921                      .dwpsn  file "F:/eZdsp_DBG/tmp1/c55x-sim2/foo/c5535_bsl_revc/ezdsp5535_v1/c55xx_csl/inc/csl_usbAux.h"
    1922 000557 ED08          MOV dbl(*SP(#4)), AC0 ; |972| 
         000559 08   
    1923 00055a 0400          BCC $C$L32,AC0 == #0 ; |972| 
         00055c 76   
    1924                                                      ; branchcc occurs ; |972| 
    1925                      .dwpsn  file "F:/eZdsp_DBG/tmp1/c55x-sim2/foo/c5535_bsl_revc/ezdsp5535_v1/c55xx_csl/inc/csl_usbAux.h"
    1926 00055d ED08          MOV dbl(*SP(#4)), AC0 ; |975| 
         00055f 08   
    1927 000560 EB14          MOV AC0, dbl(*SP(#10)) ; |975| 
         000562 08   
    1928                      .dwpsn  file "F:/eZdsp_DBG/tmp1/c55x-sim2/foo/c5535_bsl_revc/ezdsp5535_v1/c55xx_csl/inc/csl_usbAux.h"
    1929 000563 E618          MOV #0, *SP(#12) ; |977| 
         000565 00   
    1930                      .dwpsn  file "F:/eZdsp_DBG/tmp1/c55x-sim2/foo/c5535_bsl_revc/ezdsp5535_v1/c55xx_csl/inc/csl_usbAux.h"
    1931 000566 ED08          MOV dbl(*SP(#4)), AC0 ; |977| 
         000568 08   
    1932              
    1933 00056c 5101          SFTL AC0, #-1 ; |977| 
    1934 000569 DF18  ||      MOV uns(*SP(#12)), AC1 ; |977| 
         00056b 15   
    1935              
    1936 00056e 1218          CMPU AC1 >= AC0, TC1 ; |977| 
         000570 04   
    1937 000571 0464          BCC $C$L31,TC1 ; |977| 
         000573 1F   
    1938                                                      ; branchcc occurs ; |977| 
    1939 000574       $C$L30:    
    1940 000574       $C$DW$L$_USB_handleTx$19$B:
    1941                      .dwpsn  file "F:/eZdsp_DBG/tmp1/c55x-sim2/foo/c5535_bsl_revc/ezdsp5535_v1/c55xx_csl/inc/csl_usbAux.h"
TMS320C55x Assembler PC v4.4.1 Sat Sep 29 23:08:33 2018

Tools Copyright (c) 1996-2012 Texas Instruments Incorporated
csl_usb_poll_example.asm                                             PAGE   44

    1942 000574 ED0C          MOV dbl(*SP(#6)), XAR3
         000576 BF   
    1943 000577 A963          MOV *AR3+, AR1 ; |979| 
    1944 000579 EB0C          MOV XAR3, dbl(*SP(#6))
         00057b B5   
    1945 00057c AB28          MOV *SP(#20), AR3 ; |979| 
    1946 00057e C961          MOV AR1, port(*AR3) ; |979| 
         000580 9A   
    1947                      .dwpsn  file "F:/eZdsp_DBG/tmp1/c55x-sim2/foo/c5535_bsl_revc/ezdsp5535_v1/c55xx_csl/inc/csl_usbAux.h"
    1948 000581 F718          ADD #1, *SP(#12) ; |977| 
         000583 0001 
    1949                      .dwpsn  file "F:/eZdsp_DBG/tmp1/c55x-sim2/foo/c5535_bsl_revc/ezdsp5535_v1/c55xx_csl/inc/csl_usbAux.h"
    1950 000585 ED08          MOV dbl(*SP(#4)), AC0 ; |977| 
         000587 08   
    1951              
    1952 00058b 5101          SFTL AC0, #-1 ; |977| 
    1953 000588 DF18  ||      MOV uns(*SP(#12)), AC1 ; |977| 
         00058a 15   
    1954              
    1955 00058d 1214          CMPU AC1 < AC0, TC1 ; |977| 
         00058f 04   
    1956 000590 0464          BCC $C$L30,TC1 ; |977| 
         000592 E1   
    1957                                                      ; branchcc occurs ; |977| 
    1958 000593       $C$DW$L$_USB_handleTx$19$E:
    1959 000593       $C$L31:    
    1960                      .dwpsn  file "F:/eZdsp_DBG/tmp1/c55x-sim2/foo/c5535_bsl_revc/ezdsp5535_v1/c55xx_csl/inc/csl_usbAux.h"
    1961 000593 ED08          MOV dbl(*SP(#4)), AC0 ; |982| 
         000595 08   
    1962 000596 1801          AND #0x0001, AC0, AC0 ; |982| 
         000598 00   
    1963 000599 0400          BCC $C$L32,AC0 == #0 ; |982| 
         00059b 37   
    1964                                                      ; branchcc occurs ; |982| 
    1965                      .dwpsn  file "F:/eZdsp_DBG/tmp1/c55x-sim2/foo/c5535_bsl_revc/ezdsp5535_v1/c55xx_csl/inc/csl_usbAux.h"
    1966 00059c 7600          MOV #50, T0 ; |985| 
         00059e 3248 
    1967 0005a0 AB31          MOV *(#_sysCtrlRegs), AR3 ; |985| 
         0005a2 0000 
         0005a4 00!  
    1968 0005a5 A96B          MOV port(*AR3(T0)), AR1 ; |985| 
         0005a7 99   
    1969 0005a8 7DFF          AND #0xfffc, AR1, AC0 ; |985| 
         0005aa FC09 
    1970 0005ac EC02          BSET @#1, AC0 ; |985| 
         0005ae 00   
    1971 0005af C06B          MOV AC0, port(*AR3(T0)) ; |985| 
         0005b1 9A   
    1972                      .dwpsn  file "F:/eZdsp_DBG/tmp1/c55x-sim2/foo/c5535_bsl_revc/ezdsp5535_v1/c55xx_csl/inc/csl_usbAux.h"
    1973 0005b2 AB28          MOV *SP(#20), AR3 ; |987| 
    1974 0005b4 A961          MOV port(*AR3), AR1 ; |987| 
         0005b6 99   
    1975 0005b7 ED0C          MOV dbl(*SP(#6)), XAR3
         0005b9 BF   
    1976 0005ba A961          MOV *AR3, AR1 ; |987| 
TMS320C55x Assembler PC v4.4.1 Sat Sep 29 23:08:33 2018

Tools Copyright (c) 1996-2012 Texas Instruments Incorporated
csl_usb_poll_example.asm                                             PAGE   45

    1977 0005bc AB28          MOV *SP(#20), AR3 ; |987| 
    1978 0005be 1A00          OR #0x0000, AR1, AR1 ; |987| 
         0005c0 99   
    1979 0005c1 C961          MOV AR1, port(*AR3) ; |987| 
         0005c3 9A   
    1980                      .dwpsn  file "F:/eZdsp_DBG/tmp1/c55x-sim2/foo/c5535_bsl_revc/ezdsp5535_v1/c55xx_csl/inc/csl_usbAux.h"
    1981 0005c4 AB31          MOV *(#_sysCtrlRegs), AR3 ; |990| 
         0005c6 0000 
         0005c8 00!  
    1982 0005c9 A96B          MOV port(*AR3(T0)), AR1 ; |990| 
         0005cb 99   
    1983 0005cc 7DFF          AND #0xfffc, AR1, AC0 ; |990| 
         0005ce FC09 
    1984 0005d0 C06B          MOV AC0, port(*AR3(T0)) ; |990| 
         0005d2 9A   
    1985 0005d3       $C$L32:    
    1986                      .dwpsn  file "F:/eZdsp_DBG/tmp1/c55x-sim2/foo/c5535_bsl_revc/ezdsp5535_v1/c55xx_csl/inc/csl_usbAux.h"
    1987 0005d3 ED20          MOV dbl(*SP(#16)), XAR3
         0005d5 BF   
    1988 0005d6 F075          CMP *AR3(short(#2)) == #3, TC1 ; |995| 
         0005d8 0003 
    1989 0005da 6774          BCC $C$L33,!TC1 ; |995| 
    1990                                                      ; branchcc occurs ; |995| 
    1991                      .dwpsn  file "F:/eZdsp_DBG/tmp1/c55x-sim2/foo/c5535_bsl_revc/ezdsp5535_v1/c55xx_csl/inc/csl_usbAux.h"
    1992 0005dc 7604          MOV #1042, T0 ; |997| 
         0005de 1248 
    1993 0005e0 AB31          MOV *(#_usbRegisters), AR3 ; |997| 
         0005e2 0000 
         0005e4 00!  
    1994 0005e5 F56B          OR #0x0040, port(*AR3(T0)) ; |997| 
         0005e7 0040 
         0005e9 9A   
    1995 0005ea       $C$L33:    
    1996                      .dwpsn  file "F:/eZdsp_DBG/tmp1/c55x-sim2/foo/c5535_bsl_revc/ezdsp5535_v1/c55xx_csl/inc/csl_usbAux.h"
    1997 0005ea 7604          MOV #1042, T0 ; |1002| 
         0005ec 1248 
    1998 0005ee AB31          MOV *(#_usbRegisters), AR3 ; |1002| 
         0005f0 0000 
         0005f2 00!  
    1999 0005f3 A96B          MOV port(*AR3(T0)), AR1 ; |1002| 
         0005f5 99   
    2000 0005f6 EC00          BCLR @#0, AR1 ; |1002| 
         0005f8 92   
    2001 0005f9 EC00          BSET @#0, AR1 ; |1002| 
         0005fb 90   
    2002 0005fc C96B          MOV AR1, port(*AR3(T0)) ; |1002| 
         0005fe 9A   
    2003                      .dwpsn  file "F:/eZdsp_DBG/tmp1/c55x-sim2/foo/c5535_bsl_revc/ezdsp5535_v1/c55xx_csl/inc/csl_usbAux.h"
    2004 0005ff 7604          MOV #1038, T0 ; |1006| 
         000601 0E48 
    2005 000603 AB31          MOV *(#_usbRegisters), AR3 ; |1006| 
         000605 0000 
         000607 00!  
    2006 000608 A91A          MOV *SP(#13), AR1 ; |1006| 
    2007 00060a C96B          MOV AR1, port(*AR3(T0)) ; |1006| 
TMS320C55x Assembler PC v4.4.1 Sat Sep 29 23:08:33 2018

Tools Copyright (c) 1996-2012 Texas Instruments Incorporated
csl_usb_poll_example.asm                                             PAGE   46

         00060c 9A   
    2008                      .dwpsn  file "F:/eZdsp_DBG/tmp1/c55x-sim2/foo/c5535_bsl_revc/ezdsp5535_v1/c55xx_csl/inc/csl_usbAux.h"
    2009 00060d ED24          MOV dbl(*SP(#18)), XAR3
         00060f BF   
    2010 000610 ED14          MOV dbl(*SP(#10)), AC0 ; |1009| 
         000612 08   
    2011 000613 ED6D          ADD dbl(*AR3(#8)), AC0, AC0 ; |1009| 
         000615 0000 
         000617 08   
    2012 000618 EB6D          MOV AC0, dbl(*AR3(#8)) ; |1009| 
         00061a 0800 
         00061c 08   
    2013                      .dwpsn  file "F:/eZdsp_DBG/tmp1/c55x-sim2/foo/c5535_bsl_revc/ezdsp5535_v1/c55xx_csl/inc/csl_usbAux.h"
    2014 00061d ED24          MOV dbl(*SP(#18)), XAR3
         00061f BF   
    2015 000620 ED14          MOV dbl(*SP(#10)), AC0 ; |1010| 
         000622 08   
    2016 000623 EB6D          MOV AC0, dbl(*AR3(#10)) ; |1010| 
         000625 0800 
         000627 0A   
    2017                      .dwpsn  file "F:/eZdsp_DBG/tmp1/c55x-sim2/foo/c5535_bsl_revc/ezdsp5535_v1/c55xx_csl/inc/csl_usbAux.h"
    2018 000628 ED24          MOV dbl(*SP(#18)), XAR3
         00062a BF   
    2019 00062b ED6D          MOV dbl(*AR3(#8)), AC1 ; |1012| 
         00062d 1800 
         00062f 08   
    2020 000630 ED7D          MOV dbl(*AR3(short(#6))), AC0 ; |1012| 
         000632 08   
    2021 000633 1210          CMPU AC1 == AC0, TC1 ; |1012| 
         000635 04   
    2022 000636 62E4          BCC $C$L34,TC1 ; |1012| 
    2023                                                      ; branchcc occurs ; |1012| 
    2024 000638 ED14          MOV dbl(*SP(#10)), AC0 ; |1012| 
         00063a 08   
    2025 00063b 6290          BCC $C$L35,AC0 != #0 ; |1012| 
    2026                                                      ; branchcc occurs ; |1012| 
    2027 00063d       $C$L34:    
    2028                      .dwpsn  file "F:/eZdsp_DBG/tmp1/c55x-sim2/foo/c5535_bsl_revc/ezdsp5535_v1/c55xx_csl/inc/csl_usbAux.h"
    2029 00063d E66D          MOV #1, *AR3(#12) ; |1015| 
         00063f 0100 
         000641 0C   
    2030 000642       $C$L35:    
    2031                      .dwpsn  file "F:/eZdsp_DBG/tmp1/c55x-sim2/foo/c5535_bsl_revc/ezdsp5535_v1/c55xx_csl/inc/csl_usbAux.h"
    2032 000642 ED24          MOV dbl(*SP(#18)), XAR3
         000644 BF   
    2033 000645 A96D          MOV *AR3(#12), AR1 ; |1021| 
         000647 000C 
    2034 000649 0409          BCC $C$L38,AR1 == #0 ; |1021| 
         00064b 22   
    2035                                                      ; branchcc occurs ; |1021| 
    2036                      .dwpsn  file "F:/eZdsp_DBG/tmp1/c55x-sim2/foo/c5535_bsl_revc/ezdsp5535_v1/c55xx_csl/inc/csl_usbAux.h"
    2037 00064c ED00          MOV dbl(*SP(#0)), XAR3
         00064e BF   
    2038 00064f E67B          MOV #0, *AR3(short(#5)) ; |1023| 
         000651 00   
TMS320C55x Assembler PC v4.4.1 Sat Sep 29 23:08:33 2018

Tools Copyright (c) 1996-2012 Texas Instruments Incorporated
csl_usb_poll_example.asm                                             PAGE   47

    2039                      .dwpsn  file "F:/eZdsp_DBG/tmp1/c55x-sim2/foo/c5535_bsl_revc/ezdsp5535_v1/c55xx_csl/inc/csl_usbAux.h"
    2040 000652 ED00          MOV dbl(*SP(#0)), XAR3
         000654 BF   
    2041 000655 ED00          MOV dbl(*SP(#0)), XAR0
         000657 8F   
    2042 000658 ED20          MOV dbl(*SP(#16)), XAR1
         00065a 9F   
    2043 00065b ED6D          MOV dbl(*AR3(#116)), AC0 ; |1024| 
         00065d 0800 
         00065f 74   
    2044              $C$DW$201       .dwtag  DW_TAG_TI_branch
    2045                      .dwattr $C$DW$201, DW_AT_low_pc(0x00)
    2046                      .dwattr $C$DW$201, DW_AT_TI_call
    2047                      .dwattr $C$DW$201, DW_AT_TI_indirect
    2048 000660 9200          CALL AC0  ; |1024| 
    2049                                                      ; call occurs [AC0] ; |1024| 
    2050 000662 C41C          MOV T0, *SP(#14) ; |1024| 
    2051                      .dwpsn  file "F:/eZdsp_DBG/tmp1/c55x-sim2/foo/c5535_bsl_revc/ezdsp5535_v1/c55xx_csl/inc/csl_usbAux.h"
    2052 000664 4A08          B $C$L38  ; |1026| 
    2053                                                      ; branch occurs ; |1026| 
    2054 000666       $C$L36:    
    2055                      .dwpsn  file "F:/eZdsp_DBG/tmp1/c55x-sim2/foo/c5535_bsl_revc/ezdsp5535_v1/c55xx_csl/inc/csl_usbAux.h"
    2056 000666 E61C          MOV #-6, *SP(#14) ; |1029| 
         000668 FA   
    2057                      .dwpsn  file "F:/eZdsp_DBG/tmp1/c55x-sim2/foo/c5535_bsl_revc/ezdsp5535_v1/c55xx_csl/inc/csl_usbAux.h"
    2058 000669 4A03          B $C$L38  ; |1031| 
    2059                                                      ; branch occurs ; |1031| 
    2060 00066b       $C$L37:    
    2061                      .dwpsn  file "F:/eZdsp_DBG/tmp1/c55x-sim2/foo/c5535_bsl_revc/ezdsp5535_v1/c55xx_csl/inc/csl_usbAux.h"
    2062 00066b E61C          MOV #-6, *SP(#14) ; |1034| 
         00066d FA   
    2063 00066e       $C$L38:    
    2064                      .dwpsn  file "F:/eZdsp_DBG/tmp1/c55x-sim2/foo/c5535_bsl_revc/ezdsp5535_v1/c55xx_csl/inc/csl_usbAux.h"
    2065 00066e A41C          MOV *SP(#14), T0 ; |1037| 
    2066                      .dwpsn  file "F:/eZdsp_DBG/tmp1/c55x-sim2/foo/c5535_bsl_revc/ezdsp5535_v1/c55xx_csl/inc/csl_usbAux.h"
    2067 000670 4E15          AADD #21, SP
    2068                      .dwcfi  cfa_offset, 1
    2069              $C$DW$202       .dwtag  DW_TAG_TI_branch
    2070                      .dwattr $C$DW$202, DW_AT_low_pc(0x00)
    2071                      .dwattr $C$DW$202, DW_AT_TI_return
    2072 000672 4804          RET
    2073                                                      ; return occurs
    2074              
    2075              $C$DW$203       .dwtag  DW_TAG_TI_loop
    2076                      .dwattr $C$DW$203, DW_AT_name("F:\eZdsp_DBG\tmp1\c55x-sim2\foo\Debug\csl_usb_poll_example.asm:$C$L30:
    2077                      .dwattr $C$DW$203, DW_AT_TI_begin_file("F:/eZdsp_DBG/tmp1/c55x-sim2/foo/c5535_bsl_revc/ezdsp5535_v1/c
    2078                      .dwattr $C$DW$203, DW_AT_TI_begin_line(0x3d1)
    2079                      .dwattr $C$DW$203, DW_AT_TI_end_line(0x3d4)
    2080              $C$DW$204       .dwtag  DW_TAG_TI_loop_range
    2081                      .dwattr $C$DW$204, DW_AT_low_pc($C$DW$L$_USB_handleTx$19$B)
    2082                      .dwattr $C$DW$204, DW_AT_high_pc($C$DW$L$_USB_handleTx$19$E)
    2083                      .dwendtag $C$DW$203
    2084              
    2085                      .dwattr $C$DW$184, DW_AT_TI_end_file("F:/eZdsp_DBG/tmp1/c55x-sim2/foo/c5535_bsl_revc/ezdsp5535_v1/c55
    2086                      .dwattr $C$DW$184, DW_AT_TI_end_line(0x40e)
TMS320C55x Assembler PC v4.4.1 Sat Sep 29 23:08:33 2018

Tools Copyright (c) 1996-2012 Texas Instruments Incorporated
csl_usb_poll_example.asm                                             PAGE   48

    2087                      .dwattr $C$DW$184, DW_AT_TI_end_column(0x01)
    2088                      .dwendentry
    2089                      .dwendtag $C$DW$184
    2090              
    2091 000674               .sect   ".text"
    2092                      .align 4
    2093              
    2094              $C$DW$205       .dwtag  DW_TAG_subprogram, DW_AT_name("USB_handleRx")
    2095                      .dwattr $C$DW$205, DW_AT_low_pc(_USB_handleRx)
    2096                      .dwattr $C$DW$205, DW_AT_high_pc(0x00)
    2097                      .dwattr $C$DW$205, DW_AT_TI_symbol_name("_USB_handleRx")
    2098                      .dwattr $C$DW$205, DW_AT_type(*$C$DW$T$89)
    2099                      .dwattr $C$DW$205, DW_AT_TI_begin_file("F:/eZdsp_DBG/tmp1/c55x-sim2/foo/c5535_bsl_revc/ezdsp5535_v1/c
    2100                      .dwattr $C$DW$205, DW_AT_TI_begin_line(0x453)
    2101                      .dwattr $C$DW$205, DW_AT_TI_begin_column(0x0c)
    2102                      .dwattr $C$DW$205, DW_AT_TI_max_frame_size(0x16)
    2103                      .dwpsn  file "F:/eZdsp_DBG/tmp1/c55x-sim2/foo/c5535_bsl_revc/ezdsp5535_v1/c55xx_csl/inc/csl_usbAux.h"
    2104              
    2105                      .dwfde $C$DW$CIE, _USB_handleRx
    2106              $C$DW$206       .dwtag  DW_TAG_formal_parameter, DW_AT_name("pContext")
    2107                      .dwattr $C$DW$206, DW_AT_TI_symbol_name("_pContext")
    2108                      .dwattr $C$DW$206, DW_AT_type(*$C$DW$T$167)
    2109                      .dwattr $C$DW$206, DW_AT_location[DW_OP_reg17]
    2110              $C$DW$207       .dwtag  DW_TAG_formal_parameter, DW_AT_name("dwEndpoint")
    2111                      .dwattr $C$DW$207, DW_AT_TI_symbol_name("_dwEndpoint")
    2112                      .dwattr $C$DW$207, DW_AT_type(*$C$DW$T$98)
    2113                      .dwattr $C$DW$207, DW_AT_location[DW_OP_reg0]
    2114              ;*******************************************************************************
    2115              ;* FUNCTION NAME: USB_handleRx                                                 *
    2116              ;*                                                                             *
    2117              ;*   Function Uses Regs : AC0,AC0,AC1,AC1,T0,AR0,XAR0,AR1,XAR1,AR2,XAR2,AR3,   *
    2118              ;*                        XAR3,SP,CARRY,TC1,M40,SATA,SATD,RDM,FRCT,SMUL        *
    2119              ;*   Stack Frame        : Compact (No Frame Pointer, w/ debug)                 *
    2120              ;*   Total Frame Size   : 22 words                                             *
    2121              ;*                        (2 return address/alignment)                         *
    2122              ;*                        (20 local values)                                    *
    2123              ;*   Min System Stack   : 1 word                                               *
    2124              ;*******************************************************************************
    2125 000674       _USB_handleRx:
    2126                      .dwcfi  cfa_offset, 1
    2127                      .dwcfi  save_reg_to_mem, 91, -1
    2128 000674 4EEB          AADD #-21, SP
    2129                      .dwcfi  cfa_offset, 22
    2130              $C$DW$208       .dwtag  DW_TAG_variable, DW_AT_name("pContext")
    2131                      .dwattr $C$DW$208, DW_AT_TI_symbol_name("_pContext")
    2132                      .dwattr $C$DW$208, DW_AT_type(*$C$DW$T$167)
    2133                      .dwattr $C$DW$208, DW_AT_location[DW_OP_bregx 0x24 0]
    2134              $C$DW$209       .dwtag  DW_TAG_variable, DW_AT_name("dwEndpoint")
    2135                      .dwattr $C$DW$209, DW_AT_TI_symbol_name("_dwEndpoint")
    2136                      .dwattr $C$DW$209, DW_AT_type(*$C$DW$T$98)
    2137                      .dwattr $C$DW$209, DW_AT_location[DW_OP_bregx 0x24 2]
    2138              $C$DW$210       .dwtag  DW_TAG_variable, DW_AT_name("cbToRead")
    2139                      .dwattr $C$DW$210, DW_AT_TI_symbol_name("_cbToRead")
    2140                      .dwattr $C$DW$210, DW_AT_type(*$C$DW$T$98)
    2141                      .dwattr $C$DW$210, DW_AT_location[DW_OP_bregx 0x24 4]
TMS320C55x Assembler PC v4.4.1 Sat Sep 29 23:08:33 2018

Tools Copyright (c) 1996-2012 Texas Instruments Incorporated
csl_usb_poll_example.asm                                             PAGE   49

    2142              $C$DW$211       .dwtag  DW_TAG_variable, DW_AT_name("cbBuffer")
    2143                      .dwattr $C$DW$211, DW_AT_TI_symbol_name("_cbBuffer")
    2144                      .dwattr $C$DW$211, DW_AT_type(*$C$DW$T$98)
    2145                      .dwattr $C$DW$211, DW_AT_location[DW_OP_bregx 0x24 6]
    2146              $C$DW$212       .dwtag  DW_TAG_variable, DW_AT_name("dwBytesRead")
    2147                      .dwattr $C$DW$212, DW_AT_TI_symbol_name("_dwBytesRead")
    2148                      .dwattr $C$DW$212, DW_AT_type(*$C$DW$T$98)
    2149                      .dwattr $C$DW$212, DW_AT_location[DW_OP_bregx 0x24 8]
    2150              $C$DW$213       .dwtag  DW_TAG_variable, DW_AT_name("pwBuffer")
    2151                      .dwattr $C$DW$213, DW_AT_TI_symbol_name("_pwBuffer")
    2152                      .dwattr $C$DW$213, DW_AT_type(*$C$DW$T$96)
    2153                      .dwattr $C$DW$213, DW_AT_location[DW_OP_bregx 0x24 10]
    2154              $C$DW$214       .dwtag  DW_TAG_variable, DW_AT_name("pTransfer")
    2155                      .dwattr $C$DW$214, DW_AT_TI_symbol_name("_pTransfer")
    2156                      .dwattr $C$DW$214, DW_AT_type(*$C$DW$T$173)
    2157                      .dwattr $C$DW$214, DW_AT_location[DW_OP_bregx 0x24 12]
    2158              $C$DW$215       .dwtag  DW_TAG_variable, DW_AT_name("status")
    2159                      .dwattr $C$DW$215, DW_AT_TI_symbol_name("_status")
    2160                      .dwattr $C$DW$215, DW_AT_type(*$C$DW$T$89)
    2161                      .dwattr $C$DW$215, DW_AT_location[DW_OP_bregx 0x24 14]
    2162              $C$DW$216       .dwtag  DW_TAG_variable, DW_AT_name("saveIndex")
    2163                      .dwattr $C$DW$216, DW_AT_TI_symbol_name("_saveIndex")
    2164                      .dwattr $C$DW$216, DW_AT_type(*$C$DW$T$19)
    2165                      .dwattr $C$DW$216, DW_AT_location[DW_OP_bregx 0x24 15]
    2166              $C$DW$217       .dwtag  DW_TAG_variable, DW_AT_name("peps")
    2167                      .dwattr $C$DW$217, DW_AT_TI_symbol_name("_peps")
    2168                      .dwattr $C$DW$217, DW_AT_type(*$C$DW$T$171)
    2169                      .dwattr $C$DW$217, DW_AT_location[DW_OP_bregx 0x24 16]
    2170              $C$DW$218       .dwtag  DW_TAG_variable, DW_AT_name("count")
    2171                      .dwattr $C$DW$218, DW_AT_TI_symbol_name("_count")
    2172                      .dwattr $C$DW$218, DW_AT_type(*$C$DW$T$20)
    2173                      .dwattr $C$DW$218, DW_AT_location[DW_OP_bregx 0x24 18]
    2174              $C$DW$219       .dwtag  DW_TAG_variable, DW_AT_name("pFifoAddr")
    2175                      .dwattr $C$DW$219, DW_AT_TI_symbol_name("_pFifoAddr")
    2176                      .dwattr $C$DW$219, DW_AT_type(*$C$DW$T$240)
    2177                      .dwattr $C$DW$219, DW_AT_location[DW_OP_bregx 0x24 19]
    2178 000676 EB04          MOV AC0, dbl(*SP(#2)) ; |1109| 
         000678 08   
    2179 000679 EB00          MOV XAR0, dbl(*SP(#0))
         00067b 85   
    2180                      .dwpsn  file "F:/eZdsp_DBG/tmp1/c55x-sim2/foo/c5535_bsl_revc/ezdsp5535_v1/c55xx_csl/inc/csl_usbAux.h"
    2181 00067c E61C          MOV #0, *SP(#14) ; |1121| 
         00067e 00   
    2182                      .dwpsn  file "F:/eZdsp_DBG/tmp1/c55x-sim2/foo/c5535_bsl_revc/ezdsp5535_v1/c55xx_csl/inc/csl_usbAux.h"
    2183 00067f 3C00          MOV #0, AC0 ; |1122| 
    2184 000681 EB10          MOV AC0, dbl(*SP(#8)) ; |1122| 
         000683 08   
    2185                      .dwpsn  file "F:/eZdsp_DBG/tmp1/c55x-sim2/foo/c5535_bsl_revc/ezdsp5535_v1/c55xx_csl/inc/csl_usbAux.h"
    2186 000684 ED00          MOV dbl(*SP(#0)), XAR3
         000686 BF   
    2187 000687 90B0          MOV XAR3, AC0
    2188 000689 6D00          BCC $C$L51,AC0 == #0 ; |1124| 
         00068b 0221 
    2189                                                      ; branchcc occurs ; |1124| 
    2190                      .dwpsn  file "F:/eZdsp_DBG/tmp1/c55x-sim2/foo/c5535_bsl_revc/ezdsp5535_v1/c55xx_csl/inc/csl_usbAux.h"
TMS320C55x Assembler PC v4.4.1 Sat Sep 29 23:08:33 2018

Tools Copyright (c) 1996-2012 Texas Instruments Incorporated
csl_usb_poll_example.asm                                             PAGE   50

    2191 00068d ED6D          MOV dbl(*AR3(#98)), XAR3
         00068f BF00 
         000691 62   
    2192 000692 F806          MPYMK *SP(#3), #18, AC0 ; |1126| 
         000694 1200 
    2193 000696 2209          MOV AC0, AR1 ; |1126| 
    2194              
    2195 000698 8E20          MOV XAR3, dbl(*SP(#16))
         00069a BB10 
         00069c B590 
    2196              ||      AADD AR1, AR3 ; |1126| 
    2197              
    2198                      .dwpsn  file "F:/eZdsp_DBG/tmp1/c55x-sim2/foo/c5535_bsl_revc/ezdsp5535_v1/c55xx_csl/inc/csl_usbAux.h"
    2199 00069e ED6D          MOV dbl(*AR3(#10)), XAR3
         0006a0 BF00 
         0006a2 0A   
    2200 0006a3 EB18          MOV XAR3, dbl(*SP(#12))
         0006a5 B5   
    2201                      .dwpsn  file "F:/eZdsp_DBG/tmp1/c55x-sim2/foo/c5535_bsl_revc/ezdsp5535_v1/c55xx_csl/inc/csl_usbAux.h"
    2202 0006a6 90B0          MOV XAR3, AC0
    2203 0006a8 6D00          BCC $C$L50,AC0 == #0 ; |1129| 
         0006aa 01FD 
    2204                                                      ; branchcc occurs ; |1129| 
    2205 0006ac A96D          MOV *AR3(#12), AR1 ; |1129| 
         0006ae 000C 
    2206 0006b0 6D19          BCC $C$L50,AR1 != #0 ; |1129| 
         0006b2 01F5 
    2207                                                      ; branchcc occurs ; |1129| 
    2208                      .dwpsn  file "F:/eZdsp_DBG/tmp1/c55x-sim2/foo/c5535_bsl_revc/ezdsp5535_v1/c55xx_csl/inc/csl_usbAux.h"
    2209 0006b4 ED6D          MOV dbl(*AR3(#8)), AC0 ; |1131| 
         0006b6 0800 
         0006b8 08   
    2210 0006b9 ED7D          SUB AC0, dbl(*AR3(short(#6))), AC0 ; |1131| 
         0006bb 04   
    2211 0006bc EB0C          MOV AC0, dbl(*SP(#6)) ; |1131| 
         0006be 08   
    2212                      .dwpsn  file "F:/eZdsp_DBG/tmp1/c55x-sim2/foo/c5535_bsl_revc/ezdsp5535_v1/c55xx_csl/inc/csl_usbAux.h"
    2213 0006bf ED18          MOV dbl(*SP(#12)), XAR3
         0006c1 BF   
    2214 0006c2 ED6D          MOV dbl(*AR3(#8)), AC0 ; |1132| 
         0006c4 0800 
         0006c6 08   
    2215 0006c7 5001          SFTL AC0, #-1 ; |1132| 
    2216 0006c9 2209          MOV AC0, AR1 ; |1132| 
    2217 0006cb ED79          MOV dbl(*AR3(short(#4))), XAR3
         0006cd BF   
    2218              
    2219 0006ce 8E14          MOV XAR3, dbl(*SP(#10))
         0006d0 BB10 
         0006d2 B590 
    2220              ||      AADD AR1, AR3 ; |1132| 
    2221              
    2222                      .dwpsn  file "F:/eZdsp_DBG/tmp1/c55x-sim2/foo/c5535_bsl_revc/ezdsp5535_v1/c55xx_csl/inc/csl_usbAux.h"
    2223 0006d4 ED20          MOV dbl(*SP(#16)), XAR3
         0006d6 BF   
TMS320C55x Assembler PC v4.4.1 Sat Sep 29 23:08:33 2018

Tools Copyright (c) 1996-2012 Texas Instruments Incorporated
csl_usb_poll_example.asm                                             PAGE   51

    2224 0006d7 A96D          MOV *AR3(#9), AR1 ; |1133| 
         0006d9 0009 
    2225 0006db C926          MOV AR1, *SP(#19) ; |1133| 
    2226                      .dwpsn  file "F:/eZdsp_DBG/tmp1/c55x-sim2/foo/c5535_bsl_revc/ezdsp5535_v1/c55xx_csl/inc/csl_usbAux.h"
    2227 0006dd ED20          MOV dbl(*SP(#16)), XAR3
         0006df BF   
    2228 0006e0 ED0C          MOV dbl(*SP(#6)), AC1 ; |1136| 
         0006e2 18   
    2229 0006e3 ED79          MOV dbl(*AR3(short(#4))), AC0 ; |1136| 
         0006e5 08   
    2230 0006e6 1218          CMPU AC1 >= AC0, TC1 ; |1136| 
         0006e8 04   
    2231 0006e9 62E4          BCC $C$L39,TC1 ; |1136| 
    2232                                                      ; branchcc occurs ; |1136| 
    2233 0006eb ED0C          MOV dbl(*SP(#6)), AC0 ; |1136| 
         0006ed 08   
    2234 0006ee 4A03          B $C$L40  ; |1136| 
    2235                                                      ; branch occurs ; |1136| 
    2236 0006f0       $C$L39:    
    2237 0006f0 ED79          MOV dbl(*AR3(short(#4))), AC0 ; |1136| 
         0006f2 08   
    2238 0006f3       $C$L40:    
    2239 0006f3 EB08          MOV AC0, dbl(*SP(#4)) ; |1136| 
         0006f5 08   
    2240                      .dwpsn  file "F:/eZdsp_DBG/tmp1/c55x-sim2/foo/c5535_bsl_revc/ezdsp5535_v1/c55xx_csl/inc/csl_usbAux.h"
    2241 0006f6 7602          MOV #512, AC0 ; |1138| 
         0006f8 0008 
    2242 0006fa ED08          MOV dbl(*SP(#4)), AC1 ; |1138| 
         0006fc 18   
    2243 0006fd 1210          CMPU AC1 == AC0, TC1 ; |1138| 
         0006ff 04   
    2244 000700 66E4          BCC $C$L41,TC1 ; |1138| 
    2245                                                      ; branchcc occurs ; |1138| 
    2246 000702 7600          MOV #64, AC0 ; |1138| 
         000704 4008 
    2247 000706 ED08          MOV dbl(*SP(#4)), AC1 ; |1138| 
         000708 18   
    2248 000709 121C          CMPU AC1 != AC0, TC1 ; |1138| 
         00070b 04   
    2249 00070c 0464          BCC $C$L43,TC1 ; |1138| 
         00070e 5B   
    2250                                                      ; branchcc occurs ; |1138| 
    2251 00070f       $C$L41:    
    2252 00070f ED00          MOV dbl(*SP(#0)), XAR3
         000711 BF   
    2253 000712 F061          CMP *AR3 == #1, TC1 ; |1138| 
         000714 0001 
    2254 000716 0474          BCC $C$L43,!TC1 ; |1138| 
         000718 51   
    2255                                                      ; branchcc occurs ; |1138| 
    2256                      .dwpsn  file "F:/eZdsp_DBG/tmp1/c55x-sim2/foo/c5535_bsl_revc/ezdsp5535_v1/c55xx_csl/inc/csl_usbAux.h"
    2257 000719 ED18          MOV dbl(*SP(#12)), XAR3
         00071b BF   
    2258 00071c ED08          MOV dbl(*SP(#4)), AC0 ; |1141| 
         00071e 08   
TMS320C55x Assembler PC v4.4.1 Sat Sep 29 23:08:33 2018

Tools Copyright (c) 1996-2012 Texas Instruments Incorporated
csl_usb_poll_example.asm                                             PAGE   52

    2259 00071f ED6D          ADD dbl(*AR3(#8)), AC0, AC0 ; |1141| 
         000721 0000 
         000723 08   
    2260 000724 EB6D          MOV AC0, dbl(*AR3(#8)) ; |1141| 
         000726 0800 
         000728 08   
    2261                      .dwpsn  file "F:/eZdsp_DBG/tmp1/c55x-sim2/foo/c5535_bsl_revc/ezdsp5535_v1/c55xx_csl/inc/csl_usbAux.h"
    2262 000729 ED18          MOV dbl(*SP(#12)), XAR3
         00072b BF   
    2263 00072c ED08          MOV dbl(*SP(#4)), AC0 ; |1142| 
         00072e 08   
    2264 00072f EB6D          MOV AC0, dbl(*AR3(#10)) ; |1142| 
         000731 0800 
         000733 0A   
    2265                      .dwpsn  file "F:/eZdsp_DBG/tmp1/c55x-sim2/foo/c5535_bsl_revc/ezdsp5535_v1/c55xx_csl/inc/csl_usbAux.h"
    2266 000734 ED04          MOV dbl(*SP(#2)), AC0 ; |1144| 
         000736 08   
    2267              $C$DW$220       .dwtag  DW_TAG_TI_branch
    2268                      .dwattr $C$DW$220, DW_AT_low_pc(0x00)
    2269                      .dwattr $C$DW$220, DW_AT_name("_USB_dmaRxStart")
    2270                      .dwattr $C$DW$220, DW_AT_TI_call
    2271 000737 08F8          CALL #_USB_dmaRxStart ; |1144| 
         000739 C6   
    2272                                                      ; call occurs [#_USB_dmaRxStart] ; |1144| 
    2273                      .dwpsn  file "F:/eZdsp_DBG/tmp1/c55x-sim2/foo/c5535_bsl_revc/ezdsp5535_v1/c55xx_csl/inc/csl_usbAux.h"
    2274 00073a ED18          MOV dbl(*SP(#12)), XAR3
         00073c BF   
    2275 00073d ED6D          MOV dbl(*AR3(#8)), AC1 ; |1146| 
         00073f 1800 
         000741 08   
    2276 000742 ED7D          MOV dbl(*AR3(short(#6))), AC0 ; |1146| 
         000744 08   
    2277 000745 121C          CMPU AC1 != AC0, TC1 ; |1146| 
         000747 04   
    2278 000748 65E4          BCC $C$L42,TC1 ; |1146| 
    2279                                                      ; branchcc occurs ; |1146| 
    2280                      .dwpsn  file "F:/eZdsp_DBG/tmp1/c55x-sim2/foo/c5535_bsl_revc/ezdsp5535_v1/c55xx_csl/inc/csl_usbAux.h"
    2281 00074a E66D          MOV #1, *AR3(#12) ; |1148| 
         00074c 0100 
         00074e 0C   
    2282                      .dwpsn  file "F:/eZdsp_DBG/tmp1/c55x-sim2/foo/c5535_bsl_revc/ezdsp5535_v1/c55xx_csl/inc/csl_usbAux.h"
    2283 00074f ED00          MOV dbl(*SP(#0)), XAR3
         000751 BF   
    2284 000752 E67D          MOV #0, *AR3(short(#6)) ; |1149| 
         000754 00   
    2285 000755       $C$L42:    
    2286                      .dwpsn  file "F:/eZdsp_DBG/tmp1/c55x-sim2/foo/c5535_bsl_revc/ezdsp5535_v1/c55xx_csl/inc/csl_usbAux.h"
    2287 000755 ED00          MOV dbl(*SP(#0)), XAR3
         000757 BF   
    2288 000758 ED00          MOV dbl(*SP(#0)), XAR0
         00075a 8F   
    2289 00075b ED20          MOV dbl(*SP(#16)), XAR1
         00075d 9F   
    2290 00075e ED6D          MOV dbl(*AR3(#116)), AC0 ; |1152| 
         000760 0800 
TMS320C55x Assembler PC v4.4.1 Sat Sep 29 23:08:33 2018

Tools Copyright (c) 1996-2012 Texas Instruments Incorporated
csl_usb_poll_example.asm                                             PAGE   53

         000762 74   
    2291              $C$DW$221       .dwtag  DW_TAG_TI_branch
    2292                      .dwattr $C$DW$221, DW_AT_low_pc(0x00)
    2293                      .dwattr $C$DW$221, DW_AT_TI_call
    2294                      .dwattr $C$DW$221, DW_AT_TI_indirect
    2295 000763 9200          CALL AC0  ; |1152| 
    2296                                                      ; call occurs [AC0] ; |1152| 
    2297 000765 C41C          MOV T0, *SP(#14) ; |1152| 
    2298                      .dwpsn  file "F:/eZdsp_DBG/tmp1/c55x-sim2/foo/c5535_bsl_revc/ezdsp5535_v1/c55xx_csl/inc/csl_usbAux.h"
    2299 000767 0601          B $C$L52  ; |1153| 
         000769 47   
    2300                                                      ; branch occurs ; |1153| 
    2301 00076a       $C$L43:    
    2302                      .dwpsn  file "F:/eZdsp_DBG/tmp1/c55x-sim2/foo/c5535_bsl_revc/ezdsp5535_v1/c55xx_csl/inc/csl_usbAux.h"
    2303 00076a ED08          MOV dbl(*SP(#4)), AC0 ; |1166| 
         00076c 08   
    2304 00076d 0400          BCC $C$L46,AC0 == #0 ; |1166| 
         00076f 78   
    2305                                                      ; branchcc occurs ; |1166| 
    2306                      .dwpsn  file "F:/eZdsp_DBG/tmp1/c55x-sim2/foo/c5535_bsl_revc/ezdsp5535_v1/c55xx_csl/inc/csl_usbAux.h"
    2307 000770 ED08          MOV dbl(*SP(#4)), AC0 ; |1169| 
         000772 08   
    2308 000773 EB10          MOV AC0, dbl(*SP(#8)) ; |1169| 
         000775 08   
    2309                      .dwpsn  file "F:/eZdsp_DBG/tmp1/c55x-sim2/foo/c5535_bsl_revc/ezdsp5535_v1/c55xx_csl/inc/csl_usbAux.h"
    2310 000776 E624          MOV #0, *SP(#18) ; |1171| 
         000778 00   
    2311 000779 20            NOP
    2312 00077a 20            NOP
    2313                      .dwpsn  file "F:/eZdsp_DBG/tmp1/c55x-sim2/foo/c5535_bsl_revc/ezdsp5535_v1/c55xx_csl/inc/csl_usbAux.h"
    2314 00077b ED08          MOV dbl(*SP(#4)), AC0 ; |1171| 
         00077d 08   
    2315              
    2316 000781 5101          SFTL AC0, #-1 ; |1171| 
    2317 00077e DF24  ||      MOV uns(*SP(#18)), AC1 ; |1171| 
         000780 15   
    2318              
    2319 000783 1218          CMPU AC1 >= AC0, TC1 ; |1171| 
         000785 04   
    2320 000786 0464          BCC $C$L45,TC1 ; |1171| 
         000788 26   
    2321                                                      ; branchcc occurs ; |1171| 
    2322 000789       $C$L44:    
    2323 000789       $C$DW$L$_USB_handleRx$15$B:
    2324                      .dwpsn  file "F:/eZdsp_DBG/tmp1/c55x-sim2/foo/c5535_bsl_revc/ezdsp5535_v1/c55xx_csl/inc/csl_usbAux.h"
    2325 000789 ED14          MOV dbl(*SP(#10)), XAR2
         00078b AF   
    2326 00078c EC41          AMAR *AR2, XAR3
         00078e BE   
    2327 00078f B463          AMAR *AR3+
    2328 000791 EB14          MOV XAR3, dbl(*SP(#10))
         000793 B5   
    2329 000794 AB26          MOV *SP(#19), AR3 ; |1173| 
    2330 000796 A961          MOV port(*AR3), AR1 ; |1173| 
         000798 99   
TMS320C55x Assembler PC v4.4.1 Sat Sep 29 23:08:33 2018

Tools Copyright (c) 1996-2012 Texas Instruments Incorporated
csl_usb_poll_example.asm                                             PAGE   54

    2331 000799 C941          MOV AR1, *AR2 ; |1173| 
    2332                      .dwpsn  file "F:/eZdsp_DBG/tmp1/c55x-sim2/foo/c5535_bsl_revc/ezdsp5535_v1/c55xx_csl/inc/csl_usbAux.h"
    2333 00079b F724          ADD #1, *SP(#18) ; |1171| 
         00079d 0001 
    2334 00079f 20            NOP
    2335 0007a0 20            NOP
    2336                      .dwpsn  file "F:/eZdsp_DBG/tmp1/c55x-sim2/foo/c5535_bsl_revc/ezdsp5535_v1/c55xx_csl/inc/csl_usbAux.h"
    2337 0007a1 ED08          MOV dbl(*SP(#4)), AC0 ; |1171| 
         0007a3 08   
    2338              
    2339 0007a7 5101          SFTL AC0, #-1 ; |1171| 
    2340 0007a4 DF24  ||      MOV uns(*SP(#18)), AC1 ; |1171| 
         0007a6 15   
    2341              
    2342 0007a9 1214          CMPU AC1 < AC0, TC1 ; |1171| 
         0007ab 04   
    2343 0007ac 0464          BCC $C$L44,TC1 ; |1171| 
         0007ae DA   
    2344                                                      ; branchcc occurs ; |1171| 
    2345 0007af       $C$DW$L$_USB_handleRx$15$E:
    2346 0007af       $C$L45:    
    2347                      .dwpsn  file "F:/eZdsp_DBG/tmp1/c55x-sim2/foo/c5535_bsl_revc/ezdsp5535_v1/c55xx_csl/inc/csl_usbAux.h"
    2348 0007af ED08          MOV dbl(*SP(#4)), AC0 ; |1176| 
         0007b1 08   
    2349 0007b2 1801          AND #0x0001, AC0, AC0 ; |1176| 
         0007b4 00   
    2350 0007b5 0400          BCC $C$L46,AC0 == #0 ; |1176| 
         0007b7 30   
    2351                                                      ; branchcc occurs ; |1176| 
    2352                      .dwpsn  file "F:/eZdsp_DBG/tmp1/c55x-sim2/foo/c5535_bsl_revc/ezdsp5535_v1/c55xx_csl/inc/csl_usbAux.h"
    2353 0007b8 7600          MOV #50, T0 ; |1179| 
         0007ba 3248 
    2354 0007bc AB31          MOV *(#_sysCtrlRegs), AR3 ; |1179| 
         0007be 0000 
         0007c0 00!  
    2355 0007c1 A96B          MOV port(*AR3(T0)), AR1 ; |1179| 
         0007c3 99   
    2356 0007c4 7DFF          AND #0xfffc, AR1, AC0 ; |1179| 
         0007c6 FC09 
    2357 0007c8 EC02          BSET @#1, AC0 ; |1179| 
         0007ca 00   
    2358 0007cb C06B          MOV AC0, port(*AR3(T0)) ; |1179| 
         0007cd 9A   
    2359                      .dwpsn  file "F:/eZdsp_DBG/tmp1/c55x-sim2/foo/c5535_bsl_revc/ezdsp5535_v1/c55xx_csl/inc/csl_usbAux.h"
    2360 0007ce AB26          MOV *SP(#19), AR3 ; |1181| 
    2361 0007d0 ED14          MOV dbl(*SP(#10)), XAR2
         0007d2 AF   
    2362 0007d3 DF61          MOV uns(low_byte(port(*AR3))), AR1 ; |1181| 
         0007d5 93   
         0007d6 99   
    2363 0007d7 C941          MOV AR1, *AR2 ; |1181| 
    2364                      .dwpsn  file "F:/eZdsp_DBG/tmp1/c55x-sim2/foo/c5535_bsl_revc/ezdsp5535_v1/c55xx_csl/inc/csl_usbAux.h"
    2365 0007d9 AB31          MOV *(#_sysCtrlRegs), AR3 ; |1184| 
         0007db 0000 
         0007dd 00!  
TMS320C55x Assembler PC v4.4.1 Sat Sep 29 23:08:33 2018

Tools Copyright (c) 1996-2012 Texas Instruments Incorporated
csl_usb_poll_example.asm                                             PAGE   55

    2366 0007de A96B          MOV port(*AR3(T0)), AR1 ; |1184| 
         0007e0 99   
    2367 0007e1 7DFF          AND #0xfffc, AR1, AC0 ; |1184| 
         0007e3 FC09 
    2368 0007e5 C06B          MOV AC0, port(*AR3(T0)) ; |1184| 
         0007e7 9A   
    2369 0007e8       $C$L46:    
    2370                      .dwpsn  file "F:/eZdsp_DBG/tmp1/c55x-sim2/foo/c5535_bsl_revc/ezdsp5535_v1/c55xx_csl/inc/csl_usbAux.h"
    2371 0007e8 ED18          MOV dbl(*SP(#12)), XAR3
         0007ea BF   
    2372 0007eb ED10          MOV dbl(*SP(#8)), AC0 ; |1189| 
         0007ed 08   
    2373 0007ee ED6D          ADD dbl(*AR3(#8)), AC0, AC0 ; |1189| 
         0007f0 0000 
         0007f2 08   
    2374 0007f3 EB6D          MOV AC0, dbl(*AR3(#8)) ; |1189| 
         0007f5 0800 
         0007f7 08   
    2375                      .dwpsn  file "F:/eZdsp_DBG/tmp1/c55x-sim2/foo/c5535_bsl_revc/ezdsp5535_v1/c55xx_csl/inc/csl_usbAux.h"
    2376 0007f8 ED18          MOV dbl(*SP(#12)), XAR3
         0007fa BF   
    2377 0007fb ED10          MOV dbl(*SP(#8)), AC0 ; |1190| 
         0007fd 08   
    2378 0007fe EB6D          MOV AC0, dbl(*AR3(#10)) ; |1190| 
         000800 0800 
         000802 0A   
    2379                      .dwpsn  file "F:/eZdsp_DBG/tmp1/c55x-sim2/foo/c5535_bsl_revc/ezdsp5535_v1/c55xx_csl/inc/csl_usbAux.h"
    2380 000803 ED18          MOV dbl(*SP(#12)), XAR3
         000805 BF   
    2381 000806 ED6D          MOV dbl(*AR3(#8)), AC1 ; |1192| 
         000808 1800 
         00080a 08   
    2382 00080b ED7D          MOV dbl(*AR3(short(#6))), AC0 ; |1192| 
         00080d 08   
    2383 00080e 1210          CMPU AC1 == AC0, TC1 ; |1192| 
         000810 04   
    2384 000811 62E4          BCC $C$L47,TC1 ; |1192| 
    2385                                                      ; branchcc occurs ; |1192| 
    2386 000813 ED10          MOV dbl(*SP(#8)), AC0 ; |1192| 
         000815 08   
    2387 000816 6290          BCC $C$L48,AC0 != #0 ; |1192| 
    2388                                                      ; branchcc occurs ; |1192| 
    2389 000818       $C$L47:    
    2390                      .dwpsn  file "F:/eZdsp_DBG/tmp1/c55x-sim2/foo/c5535_bsl_revc/ezdsp5535_v1/c55xx_csl/inc/csl_usbAux.h"
    2391 000818 E66D          MOV #1, *AR3(#12) ; |1195| 
         00081a 0100 
         00081c 0C   
    2392 00081d       $C$L48:    
    2393                      .dwpsn  file "F:/eZdsp_DBG/tmp1/c55x-sim2/foo/c5535_bsl_revc/ezdsp5535_v1/c55xx_csl/inc/csl_usbAux.h"
    2394 00081d 7604          MOV #1038, T0 ; |1199| 
         00081f 0E48 
    2395 000821 AB31          MOV *(#_usbRegisters), AR3 ; |1199| 
         000823 0000 
         000825 00!  
    2396 000826 A96B          MOV port(*AR3(T0)), AR1 ; |1199| 
TMS320C55x Assembler PC v4.4.1 Sat Sep 29 23:08:33 2018

Tools Copyright (c) 1996-2012 Texas Instruments Incorporated
csl_usb_poll_example.asm                                             PAGE   56

         000828 99   
    2397 000829 C91E          MOV AR1, *SP(#15) ; |1199| 
    2398                      .dwpsn  file "F:/eZdsp_DBG/tmp1/c55x-sim2/foo/c5535_bsl_revc/ezdsp5535_v1/c55xx_csl/inc/csl_usbAux.h"
    2399 00082b A96B          MOV port(*AR3(T0)), AR1 ; |1201| 
         00082d 99   
    2400 00082e 7DFF          AND #0xfff0, AR1, AC0 ; |1201| 
         000830 F009 
    2401 000832 C06B          MOV AC0, port(*AR3(T0)) ; |1201| 
         000834 9A   
    2402                      .dwpsn  file "F:/eZdsp_DBG/tmp1/c55x-sim2/foo/c5535_bsl_revc/ezdsp5535_v1/c55xx_csl/inc/csl_usbAux.h"
    2403 000835 AB31          MOV *(#_usbRegisters), AR3 ; |1205| 
         000837 0000 
         000839 00!  
    2404 00083a ED04          MOV dbl(*SP(#2)), AC0 ; |1205| 
         00083c 08   
    2405 00083d 180F          AND #0x000f, AC0, AC0 ; |1205| 
         00083f 00   
    2406 000840 A96B          MOV port(*AR3(T0)), AR1 ; |1205| 
         000842 99   
    2407 000843 7DFF          AND #0xfff0, AR1, AC1 ; |1205| 
         000845 F019 
    2408 000847 2A10          OR AC1, AC0 ; |1205| 
    2409 000849 C06B          MOV AC0, port(*AR3(T0)) ; |1205| 
         00084b 9A   
    2410                      .dwpsn  file "F:/eZdsp_DBG/tmp1/c55x-sim2/foo/c5535_bsl_revc/ezdsp5535_v1/c55xx_csl/inc/csl_usbAux.h"
    2411 00084c ED20          MOV dbl(*SP(#16)), XAR3
         00084e BF   
    2412 00084f F075          CMP *AR3(short(#2)) == #3, TC1 ; |1208| 
         000851 0003 
    2413 000853 6774          BCC $C$L49,!TC1 ; |1208| 
    2414                                                      ; branchcc occurs ; |1208| 
    2415                      .dwpsn  file "F:/eZdsp_DBG/tmp1/c55x-sim2/foo/c5535_bsl_revc/ezdsp5535_v1/c55xx_csl/inc/csl_usbAux.h"
    2416 000855 7604          MOV #1046, T0 ; |1211| 
         000857 1648 
    2417 000859 AB31          MOV *(#_usbRegisters), AR3 ; |1211| 
         00085b 0000 
         00085d 00!  
    2418 00085e F56B          OR #0x0080, port(*AR3(T0)) ; |1211| 
         000860 0080 
         000862 9A   
    2419 000863       $C$L49:    
    2420                      .dwpsn  file "F:/eZdsp_DBG/tmp1/c55x-sim2/foo/c5535_bsl_revc/ezdsp5535_v1/c55xx_csl/inc/csl_usbAux.h"
    2421 000863 7604          MOV #1046, T0 ; |1215| 
         000865 1648 
    2422 000867 AB31          MOV *(#_usbRegisters), AR3 ; |1215| 
         000869 0000 
         00086b 00!  
    2423 00086c A96B          MOV port(*AR3(T0)), AR1 ; |1215| 
         00086e 99   
    2424 00086f EC00          BCLR @#0, AR1 ; |1215| 
         000871 92   
    2425 000872 C96B          MOV AR1, port(*AR3(T0)) ; |1215| 
         000874 9A   
    2426                      .dwpsn  file "F:/eZdsp_DBG/tmp1/c55x-sim2/foo/c5535_bsl_revc/ezdsp5535_v1/c55xx_csl/inc/csl_usbAux.h"
    2427 000875 7604          MOV #1038, T0 ; |1219| 
TMS320C55x Assembler PC v4.4.1 Sat Sep 29 23:08:33 2018

Tools Copyright (c) 1996-2012 Texas Instruments Incorporated
csl_usb_poll_example.asm                                             PAGE   57

         000877 0E48 
    2428 000879 AB31          MOV *(#_usbRegisters), AR3 ; |1219| 
         00087b 0000 
         00087d 00!  
    2429 00087e A91E          MOV *SP(#15), AR1 ; |1219| 
    2430 000880 C96B          MOV AR1, port(*AR3(T0)) ; |1219| 
         000882 9A   
    2431                      .dwpsn  file "F:/eZdsp_DBG/tmp1/c55x-sim2/foo/c5535_bsl_revc/ezdsp5535_v1/c55xx_csl/inc/csl_usbAux.h"
    2432 000883 ED18          MOV dbl(*SP(#12)), XAR3
         000885 BF   
    2433 000886 F06D          CMP *AR3(#12) == #1, TC1 ; |1221| 
         000888 0001 
         00088a 000C 
    2434 00088c 0474          BCC $C$L52,!TC1 ; |1221| 
         00088e 22   
    2435                                                      ; branchcc occurs ; |1221| 
    2436                      .dwpsn  file "F:/eZdsp_DBG/tmp1/c55x-sim2/foo/c5535_bsl_revc/ezdsp5535_v1/c55xx_csl/inc/csl_usbAux.h"
    2437 00088f ED00          MOV dbl(*SP(#0)), XAR3
         000891 BF   
    2438 000892 E67D          MOV #0, *AR3(short(#6)) ; |1223| 
         000894 00   
    2439                      .dwpsn  file "F:/eZdsp_DBG/tmp1/c55x-sim2/foo/c5535_bsl_revc/ezdsp5535_v1/c55xx_csl/inc/csl_usbAux.h"
    2440 000895 ED00          MOV dbl(*SP(#0)), XAR3
         000897 BF   
    2441 000898 ED00          MOV dbl(*SP(#0)), XAR0
         00089a 8F   
    2442 00089b ED20          MOV dbl(*SP(#16)), XAR1
         00089d 9F   
    2443 00089e ED6D          MOV dbl(*AR3(#116)), AC0 ; |1234| 
         0008a0 0800 
         0008a2 74   
    2444              $C$DW$222       .dwtag  DW_TAG_TI_branch
    2445                      .dwattr $C$DW$222, DW_AT_low_pc(0x00)
    2446                      .dwattr $C$DW$222, DW_AT_TI_call
    2447                      .dwattr $C$DW$222, DW_AT_TI_indirect
    2448 0008a3 9200          CALL AC0  ; |1234| 
    2449                                                      ; call occurs [AC0] ; |1234| 
    2450 0008a5 C41C          MOV T0, *SP(#14) ; |1234| 
    2451                      .dwpsn  file "F:/eZdsp_DBG/tmp1/c55x-sim2/foo/c5535_bsl_revc/ezdsp5535_v1/c55xx_csl/inc/csl_usbAux.h"
    2452 0008a7 4A08          B $C$L52  ; |1237| 
    2453                                                      ; branch occurs ; |1237| 
    2454 0008a9       $C$L50:    
    2455                      .dwpsn  file "F:/eZdsp_DBG/tmp1/c55x-sim2/foo/c5535_bsl_revc/ezdsp5535_v1/c55xx_csl/inc/csl_usbAux.h"
    2456 0008a9 E61C          MOV #-6, *SP(#14) ; |1240| 
         0008ab FA   
    2457                      .dwpsn  file "F:/eZdsp_DBG/tmp1/c55x-sim2/foo/c5535_bsl_revc/ezdsp5535_v1/c55xx_csl/inc/csl_usbAux.h"
    2458 0008ac 4A03          B $C$L52  ; |1242| 
    2459                                                      ; branch occurs ; |1242| 
    2460 0008ae       $C$L51:    
    2461                      .dwpsn  file "F:/eZdsp_DBG/tmp1/c55x-sim2/foo/c5535_bsl_revc/ezdsp5535_v1/c55xx_csl/inc/csl_usbAux.h"
    2462 0008ae E61C          MOV #-6, *SP(#14) ; |1245| 
         0008b0 FA   
    2463 0008b1       $C$L52:    
    2464                      .dwpsn  file "F:/eZdsp_DBG/tmp1/c55x-sim2/foo/c5535_bsl_revc/ezdsp5535_v1/c55xx_csl/inc/csl_usbAux.h"
    2465 0008b1 A41C          MOV *SP(#14), T0 ; |1248| 
TMS320C55x Assembler PC v4.4.1 Sat Sep 29 23:08:33 2018

Tools Copyright (c) 1996-2012 Texas Instruments Incorporated
csl_usb_poll_example.asm                                             PAGE   58

    2466                      .dwpsn  file "F:/eZdsp_DBG/tmp1/c55x-sim2/foo/c5535_bsl_revc/ezdsp5535_v1/c55xx_csl/inc/csl_usbAux.h"
    2467 0008b3 4E15          AADD #21, SP
    2468                      .dwcfi  cfa_offset, 1
    2469              $C$DW$223       .dwtag  DW_TAG_TI_branch
    2470                      .dwattr $C$DW$223, DW_AT_low_pc(0x00)
    2471                      .dwattr $C$DW$223, DW_AT_TI_return
    2472 0008b5 4804          RET
    2473                                                      ; return occurs
    2474              
    2475              $C$DW$224       .dwtag  DW_TAG_TI_loop
    2476                      .dwattr $C$DW$224, DW_AT_name("F:\eZdsp_DBG\tmp1\c55x-sim2\foo\Debug\csl_usb_poll_example.asm:$C$L44:
    2477                      .dwattr $C$DW$224, DW_AT_TI_begin_file("F:/eZdsp_DBG/tmp1/c55x-sim2/foo/c5535_bsl_revc/ezdsp5535_v1/c
    2478                      .dwattr $C$DW$224, DW_AT_TI_begin_line(0x493)
    2479                      .dwattr $C$DW$224, DW_AT_TI_end_line(0x496)
    2480              $C$DW$225       .dwtag  DW_TAG_TI_loop_range
    2481                      .dwattr $C$DW$225, DW_AT_low_pc($C$DW$L$_USB_handleRx$15$B)
    2482                      .dwattr $C$DW$225, DW_AT_high_pc($C$DW$L$_USB_handleRx$15$E)
    2483                      .dwendtag $C$DW$224
    2484              
    2485                      .dwattr $C$DW$205, DW_AT_TI_end_file("F:/eZdsp_DBG/tmp1/c55x-sim2/foo/c5535_bsl_revc/ezdsp5535_v1/c55
    2486                      .dwattr $C$DW$205, DW_AT_TI_end_line(0x4e1)
    2487                      .dwattr $C$DW$205, DW_AT_TI_end_column(0x01)
    2488                      .dwendentry
    2489                      .dwendtag $C$DW$205
    2490              
    2491 0008b7               .sect   ".text"
    2492                      .align 4
    2493                      .global _main
    2494              
    2495              $C$DW$226       .dwtag  DW_TAG_subprogram, DW_AT_name("main")
    2496                      .dwattr $C$DW$226, DW_AT_low_pc(_main)
    2497                      .dwattr $C$DW$226, DW_AT_high_pc(0x00)
    2498                      .dwattr $C$DW$226, DW_AT_TI_symbol_name("_main")
    2499                      .dwattr $C$DW$226, DW_AT_external
    2500                      .dwattr $C$DW$226, DW_AT_TI_begin_file("../c5535_bsl_revc/ezdsp5535_v1/c55xx_csl/ccs_v4.0_examples/us
    2501                      .dwattr $C$DW$226, DW_AT_TI_begin_line(0xda)
    2502                      .dwattr $C$DW$226, DW_AT_TI_begin_column(0x06)
    2503                      .dwattr $C$DW$226, DW_AT_TI_max_frame_size(0x04)
    2504                      .dwpsn  file "../c5535_bsl_revc/ezdsp5535_v1/c55xx_csl/ccs_v4.0_examples/usb/CSL_USB_PollExample/csl_
    2505              
    2506                      .dwfde $C$DW$CIE, _main
    2507              ;*******************************************************************************
    2508              ;* FUNCTION NAME: main                                                         *
    2509              ;*                                                                             *
    2510              ;*   Function Uses Regs : T0,AR1,AR3,XAR3,SP,M40,SATA,SATD,RDM,FRCT,SMUL       *
    2511              ;*   Stack Frame        : Compact (No Frame Pointer, w/ debug)                 *
    2512              ;*   Total Frame Size   : 4 words                                              *
    2513              ;*                        (1 return address/alignment)                         *
    2514              ;*                        (2 function parameters)                              *
    2515              ;*                        (1 local values)                                     *
    2516              ;*   Min System Stack   : 1 word                                               *
    2517              ;*******************************************************************************
    2518 0008b8       _main:
    2519                      .dwcfi  cfa_offset, 1
    2520                      .dwcfi  save_reg_to_mem, 91, -1
TMS320C55x Assembler PC v4.4.1 Sat Sep 29 23:08:33 2018

Tools Copyright (c) 1996-2012 Texas Instruments Incorporated
csl_usb_poll_example.asm                                             PAGE   59

    2521 0008b8 4EFD          AADD #-3, SP
    2522                      .dwcfi  cfa_offset, 4
    2523              $C$DW$227       .dwtag  DW_TAG_variable, DW_AT_name("result")
    2524                      .dwattr $C$DW$227, DW_AT_TI_symbol_name("_result")
    2525                      .dwattr $C$DW$227, DW_AT_type(*$C$DW$T$89)
    2526                      .dwattr $C$DW$227, DW_AT_location[DW_OP_bregx 0x24 2]
    2527                      .dwpsn  file "../c5535_bsl_revc/ezdsp5535_v1/c55xx_csl/ccs_v4.0_examples/usb/CSL_USB_PollExample/csl_
    2528 0008ba EC31          AMOV #$C$FSL1, XAR3 ; |222| 
         0008bc BE00 
         0008be 0000+
    2529 0008c0 EB00          MOV XAR3, dbl(*SP(#0))
         0008c2 B5   
    2530              $C$DW$228       .dwtag  DW_TAG_TI_branch
    2531                      .dwattr $C$DW$228, DW_AT_low_pc(0x00)
    2532                      .dwattr $C$DW$228, DW_AT_name("_printf")
    2533                      .dwattr $C$DW$228, DW_AT_TI_call
    2534 0008c3 6C00          CALL #_printf ; |222| 
         0008c5 0000!
    2535                                                      ; call occurs [#_printf] ; |222| 
    2536                      .dwpsn  file "../c5535_bsl_revc/ezdsp5535_v1/c55xx_csl/ccs_v4.0_examples/usb/CSL_USB_PollExample/csl_
    2537              $C$DW$229       .dwtag  DW_TAG_TI_branch
    2538                      .dwattr $C$DW$229, DW_AT_low_pc(0x00)
    2539                      .dwattr $C$DW$229, DW_AT_name("_CSL_usbPollTest")
    2540                      .dwattr $C$DW$229, DW_AT_TI_call
    2541 0008c7 0800          CALL #_CSL_usbPollTest ; |224| 
         0008c9 3A   
    2542                                                      ; call occurs [#_CSL_usbPollTest] ; |224| 
    2543 0008ca C404          MOV T0, *SP(#2) ; |224| 
    2544                      .dwpsn  file "../c5535_bsl_revc/ezdsp5535_v1/c55xx_csl/ccs_v4.0_examples/usb/CSL_USB_PollExample/csl_
    2545 0008cc 2249          MOV T0, AR1
    2546 0008ce 0419          BCC $C$L53,AR1 != #0 ; |226| 
         0008d0 15   
    2547                                                      ; branchcc occurs ; |226| 
    2548                      .dwpsn  file "../c5535_bsl_revc/ezdsp5535_v1/c55xx_csl/ccs_v4.0_examples/usb/CSL_USB_PollExample/csl_
    2549 0008d1 EC31          AMOV #$C$FSL2, XAR3 ; |228| 
         0008d3 BE00 
         0008d5 0018+
    2550 0008d7 EB00          MOV XAR3, dbl(*SP(#0))
         0008d9 B5   
    2551              $C$DW$230       .dwtag  DW_TAG_TI_branch
    2552                      .dwattr $C$DW$230, DW_AT_low_pc(0x00)
    2553                      .dwattr $C$DW$230, DW_AT_name("_printf")
    2554                      .dwattr $C$DW$230, DW_AT_TI_call
    2555 0008da 6C00          CALL #_printf ; |228| 
         0008dc 0000!
    2556                                                      ; call occurs [#_printf] ; |228| 
    2557                      .dwpsn  file "../c5535_bsl_revc/ezdsp5535_v1/c55xx_csl/ccs_v4.0_examples/usb/CSL_USB_PollExample/csl_
    2558 0008de E631          MOV #0, *(#_PaSs_StAtE) ; |231| 
         0008e0 0000 
         0008e2 0205-
    2559                      .dwpsn  file "../c5535_bsl_revc/ezdsp5535_v1/c55xx_csl/ccs_v4.0_examples/usb/CSL_USB_PollExample/csl_
    2560 0008e4 4A0D          B $C$L54  ; |233| 
    2561                                                      ; branch occurs ; |233| 
    2562 0008e6       $C$L53:    
    2563                      .dwpsn  file "../c5535_bsl_revc/ezdsp5535_v1/c55xx_csl/ccs_v4.0_examples/usb/CSL_USB_PollExample/csl_
TMS320C55x Assembler PC v4.4.1 Sat Sep 29 23:08:33 2018

Tools Copyright (c) 1996-2012 Texas Instruments Incorporated
csl_usb_poll_example.asm                                             PAGE   60

    2564 0008e6 EC31          AMOV #$C$FSL3, XAR3 ; |236| 
         0008e8 BE00 
         0008ea 002C+
    2565 0008ec EB00          MOV XAR3, dbl(*SP(#0))
         0008ee B5   
    2566              $C$DW$231       .dwtag  DW_TAG_TI_branch
    2567                      .dwattr $C$DW$231, DW_AT_low_pc(0x00)
    2568                      .dwattr $C$DW$231, DW_AT_name("_printf")
    2569                      .dwattr $C$DW$231, DW_AT_TI_call
    2570 0008ef 6C00          CALL #_printf ; |236| 
         0008f1 0000!
    2571                                                      ; call occurs [#_printf] ; |236| 
    2572 0008f3       $C$L54:    
    2573                      .dwpsn  file "../c5535_bsl_revc/ezdsp5535_v1/c55xx_csl/ccs_v4.0_examples/usb/CSL_USB_PollExample/csl_
    2574 0008f3 A931          MOV *(#_PaSs_StAtE), AR1 ; |240| 
         0008f5 0002 
         0008f7 05-  
    2575 0008f8 C931          MOV AR1, *(#_PaSs) ; |240| 
         0008fa 0002 
         0008fc 06-  
    2576                      .dwpsn  file "../c5535_bsl_revc/ezdsp5535_v1/c55xx_csl/ccs_v4.0_examples/usb/CSL_USB_PollExample/csl_
    2577 0008fd 4E03          AADD #3, SP
    2578                      .dwcfi  cfa_offset, 1
    2579              $C$DW$232       .dwtag  DW_TAG_TI_branch
    2580                      .dwattr $C$DW$232, DW_AT_low_pc(0x00)
    2581                      .dwattr $C$DW$232, DW_AT_TI_return
    2582 0008ff 4804          RET
    2583                                                      ; return occurs
    2584                      .dwattr $C$DW$226, DW_AT_TI_end_file("../c5535_bsl_revc/ezdsp5535_v1/c55xx_csl/ccs_v4.0_examples/usb/
    2585                      .dwattr $C$DW$226, DW_AT_TI_end_line(0xf5)
    2586                      .dwattr $C$DW$226, DW_AT_TI_end_column(0x01)
    2587                      .dwendentry
    2588                      .dwendtag $C$DW$226
    2589              
    2590 000901               .sect   ".text"
    2591                      .align 4
    2592                      .global _CSL_usbPollTest
    2593              
    2594              $C$DW$233       .dwtag  DW_TAG_subprogram, DW_AT_name("CSL_usbPollTest")
    2595                      .dwattr $C$DW$233, DW_AT_low_pc(_CSL_usbPollTest)
    2596                      .dwattr $C$DW$233, DW_AT_high_pc(0x00)
    2597                      .dwattr $C$DW$233, DW_AT_TI_symbol_name("_CSL_usbPollTest")
    2598                      .dwattr $C$DW$233, DW_AT_external
    2599                      .dwattr $C$DW$233, DW_AT_type(*$C$DW$T$89)
    2600                      .dwattr $C$DW$233, DW_AT_TI_begin_file("../c5535_bsl_revc/ezdsp5535_v1/c55xx_csl/ccs_v4.0_examples/us
    2601                      .dwattr $C$DW$233, DW_AT_TI_begin_line(0x100)
    2602                      .dwattr $C$DW$233, DW_AT_TI_begin_column(0x0c)
    2603                      .dwattr $C$DW$233, DW_AT_TI_max_frame_size(0x14)
    2604                      .dwpsn  file "../c5535_bsl_revc/ezdsp5535_v1/c55xx_csl/ccs_v4.0_examples/usb/CSL_USB_PollExample/csl_
    2605              
    2606                      .dwfde $C$DW$CIE, _CSL_usbPollTest
    2607              ;*******************************************************************************
    2608              ;* FUNCTION NAME: CSL_usbPollTest                                              *
    2609              ;*                                                                             *
    2610              ;*   Function Uses Regs : AC0,AC0,T0,T1,AR0,XAR0,AR1,XAR1,AR2,AR3,XAR3,SP,TC1, *
TMS320C55x Assembler PC v4.4.1 Sat Sep 29 23:08:33 2018

Tools Copyright (c) 1996-2012 Texas Instruments Incorporated
csl_usb_poll_example.asm                                             PAGE   61

    2611              ;*                        M40,SATA,SATD,RDM,FRCT,SMUL                          *
    2612              ;*   Stack Frame        : Compact (No Frame Pointer, w/ debug)                 *
    2613              ;*   Total Frame Size   : 20 words                                             *
    2614              ;*                        (2 return address/alignment)                         *
    2615              ;*                        (3 function parameters)                              *
    2616              ;*                        (15 local values)                                    *
    2617              ;*   Min System Stack   : 1 word                                               *
    2618              ;*******************************************************************************
    2619 000904       _CSL_usbPollTest:
    2620                      .dwcfi  cfa_offset, 1
    2621                      .dwcfi  save_reg_to_mem, 91, -1
    2622 000904 4EED          AADD #-19, SP
    2623                      .dwcfi  cfa_offset, 20
    2624              $C$DW$234       .dwtag  DW_TAG_variable, DW_AT_name("status")
    2625                      .dwattr $C$DW$234, DW_AT_TI_symbol_name("_status")
    2626                      .dwattr $C$DW$234, DW_AT_type(*$C$DW$T$89)
    2627                      .dwattr $C$DW$234, DW_AT_location[DW_OP_bregx 0x24 3]
    2628              $C$DW$235       .dwtag  DW_TAG_variable, DW_AT_name("result")
    2629                      .dwattr $C$DW$235, DW_AT_TI_symbol_name("_result")
    2630                      .dwattr $C$DW$235, DW_AT_type(*$C$DW$T$89)
    2631                      .dwattr $C$DW$235, DW_AT_location[DW_OP_bregx 0x24 4]
    2632              $C$DW$236       .dwtag  DW_TAG_variable, DW_AT_name("pContext")
    2633                      .dwattr $C$DW$236, DW_AT_TI_symbol_name("_pContext")
    2634                      .dwattr $C$DW$236, DW_AT_type(*$C$DW$T$167)
    2635                      .dwattr $C$DW$236, DW_AT_location[DW_OP_bregx 0x24 6]
    2636              $C$DW$237       .dwtag  DW_TAG_variable, DW_AT_name("hEPx")
    2637                      .dwattr $C$DW$237, DW_AT_TI_symbol_name("_hEPx")
    2638                      .dwattr $C$DW$237, DW_AT_type(*$C$DW$T$116)
    2639                      .dwattr $C$DW$237, DW_AT_location[DW_OP_bregx 0x24 8]
    2640              $C$DW$238       .dwtag  DW_TAG_variable, DW_AT_name("txRxStatus")
    2641                      .dwattr $C$DW$238, DW_AT_TI_symbol_name("_txRxStatus")
    2642                      .dwattr $C$DW$238, DW_AT_type(*$C$DW$T$102)
    2643                      .dwattr $C$DW$238, DW_AT_location[DW_OP_bregx 0x24 10]
    2644              $C$DW$239       .dwtag  DW_TAG_variable, DW_AT_name("bytesRem")
    2645                      .dwattr $C$DW$239, DW_AT_TI_symbol_name("_bytesRem")
    2646                      .dwattr $C$DW$239, DW_AT_type(*$C$DW$T$19)
    2647                      .dwattr $C$DW$239, DW_AT_location[DW_OP_bregx 0x24 11]
    2648              $C$DW$240       .dwtag  DW_TAG_variable, DW_AT_name("eventMask")
    2649                      .dwattr $C$DW$240, DW_AT_TI_symbol_name("_eventMask")
    2650                      .dwattr $C$DW$240, DW_AT_type(*$C$DW$T$19)
    2651                      .dwattr $C$DW$240, DW_AT_location[DW_OP_bregx 0x24 12]
    2652              $C$DW$241       .dwtag  DW_TAG_variable, DW_AT_name("saveIndex")
    2653                      .dwattr $C$DW$241, DW_AT_TI_symbol_name("_saveIndex")
    2654                      .dwattr $C$DW$241, DW_AT_type(*$C$DW$T$19)
    2655                      .dwattr $C$DW$241, DW_AT_location[DW_OP_bregx 0x24 13]
    2656              $C$DW$242       .dwtag  DW_TAG_variable, DW_AT_name("endpt")
    2657                      .dwattr $C$DW$242, DW_AT_TI_symbol_name("_endpt")
    2658                      .dwattr $C$DW$242, DW_AT_type(*$C$DW$T$19)
    2659                      .dwattr $C$DW$242, DW_AT_location[DW_OP_bregx 0x24 14]
    2660              $C$DW$243       .dwtag  DW_TAG_variable, DW_AT_name("tempEpH")
    2661                      .dwattr $C$DW$243, DW_AT_TI_symbol_name("_tempEpH")
    2662                      .dwattr $C$DW$243, DW_AT_type(*$C$DW$T$116)
    2663                      .dwattr $C$DW$243, DW_AT_location[DW_OP_bregx 0x24 16]
    2664                      .dwpsn  file "../c5535_bsl_revc/ezdsp5535_v1/c55xx_csl/ccs_v4.0_examples/usb/CSL_USB_PollExample/csl_
    2665 000906 EC31          AMOV #_gUsbContext, XAR3 ; |269| 
TMS320C55x Assembler PC v4.4.1 Sat Sep 29 23:08:33 2018

Tools Copyright (c) 1996-2012 Texas Instruments Incorporated
csl_usb_poll_example.asm                                             PAGE   62

         000908 BE00 
         00090a 0000!
    2666 00090c EB0C          MOV XAR3, dbl(*SP(#6))
         00090e B5   
    2667                      .dwpsn  file "../c5535_bsl_revc/ezdsp5535_v1/c55xx_csl/ccs_v4.0_examples/usb/CSL_USB_PollExample/csl_
    2668 00090f E608          MOV #1, *SP(#4) ; |270| 
         000911 01   
    2669                      .dwpsn  file "../c5535_bsl_revc/ezdsp5535_v1/c55xx_csl/ccs_v4.0_examples/usb/CSL_USB_PollExample/csl_
    2670 000912 E631          MOV #0, *(#(_usbConfig+1)) ; |272| 
         000914 0000 
         000916 0069-
    2671                      .dwpsn  file "../c5535_bsl_revc/ezdsp5535_v1/c55xx_csl/ccs_v4.0_examples/usb/CSL_USB_PollExample/csl_
    2672 000918 E631          MOV #0, *(#_usbConfig) ; |273| 
         00091a 0000 
         00091c 0068-
    2673                      .dwpsn  file "../c5535_bsl_revc/ezdsp5535_v1/c55xx_csl/ccs_v4.0_examples/usb/CSL_USB_PollExample/csl_
    2674 00091e E631          MOV #50, *(#(_usbConfig+2)) ; |274| 
         000920 3200 
         000922 006A-
    2675                      .dwpsn  file "../c5535_bsl_revc/ezdsp5535_v1/c55xx_csl/ccs_v4.0_examples/usb/CSL_USB_PollExample/csl_
    2676 000924 7A00          MOV #(_CSL_suspendCallBack >> 16) << #16, AC0 ; |275| 
         000926 000A%
    2677 000928 7E00          OR #(_CSL_suspendCallBack & 0xffff), AC0, AC0 ; |275| 
         00092a 0000%
    2678 00092c EB31          MOV AC0, dbl(*(#(_usbConfig+4))) ; |275| 
         00092e 0800 
         000930 006C-
    2679                      .dwpsn  file "../c5535_bsl_revc/ezdsp5535_v1/c55xx_csl/ccs_v4.0_examples/usb/CSL_USB_PollExample/csl_
    2680 000932 7A00          MOV #(_CSL_selfWakeupCallBack >> 16) << #16, AC0 ; |276| 
         000934 000A%
    2681 000936 7E00          OR #(_CSL_selfWakeupCallBack & 0xffff), AC0, AC0 ; |276| 
         000938 0000%
    2682 00093a EB31          MOV AC0, dbl(*(#(_usbConfig+6))) ; |276| 
         00093c 0800 
         00093e 006E-
    2683                      .dwpsn  file "../c5535_bsl_revc/ezdsp5535_v1/c55xx_csl/ccs_v4.0_examples/usb/CSL_USB_PollExample/csl_
    2684 000940 7A00          MOV #(_CSL_startTransferCallback >> 16) << #16, AC0 ; |277| 
         000942 000A%
    2685 000944 7E00          OR #(_CSL_startTransferCallback & 0xffff), AC0, AC0 ; |277| 
         000946 0000%
    2686 000948 EB31          MOV AC0, dbl(*(#(_usbConfig+8))) ; |277| 
         00094a 0800 
         00094c 0070-
    2687                      .dwpsn  file "../c5535_bsl_revc/ezdsp5535_v1/c55xx_csl/ccs_v4.0_examples/usb/CSL_USB_PollExample/csl_
    2688 00094e 7A00          MOV #(_CSL_completeTransferCallback >> 16) << #16, AC0 ; |278| 
         000950 000A%
    2689 000952 7E00          OR #(_CSL_completeTransferCallback & 0xffff), AC0, AC0 ; |278| 
         000954 0000%
    2690 000956 EB31          MOV AC0, dbl(*(#(_usbConfig+10))) ; |278| 
         000958 0800 
         00095a 0072-
    2691                      .dwpsn  file "../c5535_bsl_revc/ezdsp5535_v1/c55xx_csl/ccs_v4.0_examples/usb/CSL_USB_PollExample/csl_
    2692 00095c EC31          AMOV #_usbCtrlOutEpObj, XAR3 ; |280| 
         00095e BE00 
         000960 0018-
TMS320C55x Assembler PC v4.4.1 Sat Sep 29 23:08:33 2018

Tools Copyright (c) 1996-2012 Texas Instruments Incorporated
csl_usb_poll_example.asm                                             PAGE   63

    2693 000962 EB31          MOV XAR3, dbl(*(#_hEpObjArray))
         000964 B500 
         000966 0008-
    2694                      .dwpsn  file "../c5535_bsl_revc/ezdsp5535_v1/c55xx_csl/ccs_v4.0_examples/usb/CSL_USB_PollExample/csl_
    2695 000968 EC31          AMOV #_usbCtrlInEpObj, XAR3 ; |281| 
         00096a BE00 
         00096c 002C-
    2696 00096e EB31          MOV XAR3, dbl(*(#(_hEpObjArray+2)))
         000970 B500 
         000972 000A-
    2697                      .dwpsn  file "../c5535_bsl_revc/ezdsp5535_v1/c55xx_csl/ccs_v4.0_examples/usb/CSL_USB_PollExample/csl_
    2698 000974 EC31          AMOV #_usbBulkOutEpObj, XAR3 ; |282| 
         000976 BE00 
         000978 0040-
    2699 00097a EB31          MOV XAR3, dbl(*(#(_hEpObjArray+4)))
         00097c B500 
         00097e 000C-
    2700                      .dwpsn  file "../c5535_bsl_revc/ezdsp5535_v1/c55xx_csl/ccs_v4.0_examples/usb/CSL_USB_PollExample/csl_
    2701 000980 EC31          AMOV #_usbBulkInEpObj, XAR3 ; |283| 
         000982 BE00 
         000984 0054-
    2702 000986 EB31          MOV XAR3, dbl(*(#(_hEpObjArray+6)))
         000988 B500 
         00098a 000E-
    2703                      .dwpsn  file "../c5535_bsl_revc/ezdsp5535_v1/c55xx_csl/ccs_v4.0_examples/usb/CSL_USB_PollExample/csl_
    2704              $C$DW$244       .dwtag  DW_TAG_TI_branch
    2705                      .dwattr $C$DW$244, DW_AT_low_pc(0x00)
    2706                      .dwattr $C$DW$244, DW_AT_name("_CSL_configSarForSelfWakeup")
    2707                      .dwattr $C$DW$244, DW_AT_TI_call
    2708 00098c 0809          CALL #_CSL_configSarForSelfWakeup ; |289| 
         00098e 55   
    2709                                                      ; call occurs [#_CSL_configSarForSelfWakeup] ; |289| 
    2710 00098f C406          MOV T0, *SP(#3) ; |289| 
    2711                      .dwpsn  file "../c5535_bsl_revc/ezdsp5535_v1/c55xx_csl/ccs_v4.0_examples/usb/CSL_USB_PollExample/csl_
    2712 000991 2249          MOV T0, AR1
    2713 000993 0409          BCC $C$L55,AR1 == #0 ; |290| 
         000995 12   
    2714                                                      ; branchcc occurs ; |290| 
    2715                      .dwpsn  file "../c5535_bsl_revc/ezdsp5535_v1/c55xx_csl/ccs_v4.0_examples/usb/CSL_USB_PollExample/csl_
    2716 000996 EC31          AMOV #$C$FSL4, XAR3 ; |292| 
         000998 BE00 
         00099a 0040+
    2717 00099c EB00          MOV XAR3, dbl(*SP(#0))
         00099e B5   
    2718              $C$DW$245       .dwtag  DW_TAG_TI_branch
    2719                      .dwattr $C$DW$245, DW_AT_low_pc(0x00)
    2720                      .dwattr $C$DW$245, DW_AT_name("_printf")
    2721                      .dwattr $C$DW$245, DW_AT_TI_call
    2722 00099f 6C00          CALL #_printf ; |292| 
         0009a1 0000!
    2723                                                      ; call occurs [#_printf] ; |292| 
    2724                      .dwpsn  file "../c5535_bsl_revc/ezdsp5535_v1/c55xx_csl/ccs_v4.0_examples/usb/CSL_USB_PollExample/csl_
    2725 0009a3 A408          MOV *SP(#4), T0 ; |293| 
    2726 0009a5 0608          B $C$L106 ; |293| 
         0009a7 97   
TMS320C55x Assembler PC v4.4.1 Sat Sep 29 23:08:33 2018

Tools Copyright (c) 1996-2012 Texas Instruments Incorporated
csl_usb_poll_example.asm                                             PAGE   64

    2727                                                      ; branch occurs ; |293| 
    2728 0009a8       $C$L55:    
    2729                      .dwpsn  file "../c5535_bsl_revc/ezdsp5535_v1/c55xx_csl/ccs_v4.0_examples/usb/CSL_USB_PollExample/csl_
    2730 0009a8 EC31          AMOV #_usbConfig, XAR0 ; |299| 
         0009aa 8E00 
         0009ac 0068-
    2731              $C$DW$246       .dwtag  DW_TAG_TI_branch
    2732                      .dwattr $C$DW$246, DW_AT_low_pc(0x00)
    2733                      .dwattr $C$DW$246, DW_AT_name("_USB_init")
    2734                      .dwattr $C$DW$246, DW_AT_TI_call
    2735 0009ae 6C00          CALL #_USB_init ; |299| 
         0009b0 0000!
    2736                                                      ; call occurs [#_USB_init] ; |299| 
    2737 0009b2 C406          MOV T0, *SP(#3) ; |299| 
    2738                      .dwpsn  file "../c5535_bsl_revc/ezdsp5535_v1/c55xx_csl/ccs_v4.0_examples/usb/CSL_USB_PollExample/csl_
    2739 0009b4 2249          MOV T0, AR1
    2740 0009b6 0409          BCC $C$L56,AR1 == #0 ; |300| 
         0009b8 12   
    2741                                                      ; branchcc occurs ; |300| 
    2742                      .dwpsn  file "../c5535_bsl_revc/ezdsp5535_v1/c55xx_csl/ccs_v4.0_examples/usb/CSL_USB_PollExample/csl_
    2743 0009b9 EC31          AMOV #$C$FSL5, XAR3 ; |302| 
         0009bb BE00 
         0009bd 005A+
    2744 0009bf EB00          MOV XAR3, dbl(*SP(#0))
         0009c1 B5   
    2745              $C$DW$247       .dwtag  DW_TAG_TI_branch
    2746                      .dwattr $C$DW$247, DW_AT_low_pc(0x00)
    2747                      .dwattr $C$DW$247, DW_AT_name("_printf")
    2748                      .dwattr $C$DW$247, DW_AT_TI_call
    2749 0009c2 6C00          CALL #_printf ; |302| 
         0009c4 0000!
    2750                                                      ; call occurs [#_printf] ; |302| 
    2751                      .dwpsn  file "../c5535_bsl_revc/ezdsp5535_v1/c55xx_csl/ccs_v4.0_examples/usb/CSL_USB_PollExample/csl_
    2752 0009c6 A408          MOV *SP(#4), T0 ; |303| 
    2753 0009c8 0608          B $C$L106 ; |303| 
         0009ca 74   
    2754                                                      ; branch occurs ; |303| 
    2755 0009cb       $C$L56:    
    2756                      .dwpsn  file "../c5535_bsl_revc/ezdsp5535_v1/c55xx_csl/ccs_v4.0_examples/usb/CSL_USB_PollExample/csl_
    2757              $C$DW$248       .dwtag  DW_TAG_TI_branch
    2758                      .dwattr $C$DW$248, DW_AT_low_pc(0x00)
    2759                      .dwattr $C$DW$248, DW_AT_name("_USB_resetDev")
    2760                      .dwattr $C$DW$248, DW_AT_TI_call
    2761              
    2762 0009cb 6C00          CALL #_USB_resetDev ; |307| 
         0009cd 0000!
    2763 0009cf 3D04  ||      MOV #0, T0
    2764              
    2765                                                      ; call occurs [#_USB_resetDev] ; |307| 
    2766 0009d1 C406          MOV T0, *SP(#3) ; |307| 
    2767                      .dwpsn  file "../c5535_bsl_revc/ezdsp5535_v1/c55xx_csl/ccs_v4.0_examples/usb/CSL_USB_PollExample/csl_
    2768 0009d3 2249          MOV T0, AR1
    2769 0009d5 0409          BCC $C$L57,AR1 == #0 ; |308| 
         0009d7 12   
    2770                                                      ; branchcc occurs ; |308| 
TMS320C55x Assembler PC v4.4.1 Sat Sep 29 23:08:33 2018

Tools Copyright (c) 1996-2012 Texas Instruments Incorporated
csl_usb_poll_example.asm                                             PAGE   65

    2771                      .dwpsn  file "../c5535_bsl_revc/ezdsp5535_v1/c55xx_csl/ccs_v4.0_examples/usb/CSL_USB_PollExample/csl_
    2772 0009d8 EC31          AMOV #$C$FSL6, XAR3 ; |310| 
         0009da BE00 
         0009dc 006C+
    2773 0009de EB00          MOV XAR3, dbl(*SP(#0))
         0009e0 B5   
    2774              $C$DW$249       .dwtag  DW_TAG_TI_branch
    2775                      .dwattr $C$DW$249, DW_AT_low_pc(0x00)
    2776                      .dwattr $C$DW$249, DW_AT_name("_printf")
    2777                      .dwattr $C$DW$249, DW_AT_TI_call
    2778 0009e1 6C00          CALL #_printf ; |310| 
         0009e3 0000!
    2779                                                      ; call occurs [#_printf] ; |310| 
    2780                      .dwpsn  file "../c5535_bsl_revc/ezdsp5535_v1/c55xx_csl/ccs_v4.0_examples/usb/CSL_USB_PollExample/csl_
    2781 0009e5 A408          MOV *SP(#4), T0 ; |311| 
    2782 0009e7 0608          B $C$L106 ; |311| 
         0009e9 55   
    2783                                                      ; branch occurs ; |311| 
    2784 0009ea       $C$L57:    
    2785                      .dwpsn  file "../c5535_bsl_revc/ezdsp5535_v1/c55xx_csl/ccs_v4.0_examples/usb/CSL_USB_PollExample/csl_
    2786 0009ea E618          MOV #61, *SP(#12) ; |315| 
         0009ec 3D   
    2787                      .dwpsn  file "../c5535_bsl_revc/ezdsp5535_v1/c55xx_csl/ccs_v4.0_examples/usb/CSL_USB_PollExample/csl_
    2788 0009ed ED31          MOV dbl(*(#_hEpObjArray)), XAR0
         0009ef 8F00 
         0009f1 0008-
    2789 0009f3 3C05          MOV #0, T1
    2790              
    2791 0009f9 3D04          MOV #0, T0
    2792 0009f5 7600  ||      MOV #64, AR2 ; |319| 
         0009f7 40A8 
    2793              
    2794 0009fb AB18          MOV *SP(#12), AR3 ; |319| 
    2795 0009fd 3D09  ||      MOV #0, AR1
    2796              
    2797              $C$DW$250       .dwtag  DW_TAG_TI_branch
    2798                      .dwattr $C$DW$250, DW_AT_low_pc(0x00)
    2799                      .dwattr $C$DW$250, DW_AT_name("_USB_initEndptObj")
    2800                      .dwattr $C$DW$250, DW_AT_TI_call
    2801              
    2802 0009ff 6C00          CALL #_USB_initEndptObj ; |319| 
         000a01 0000!
    2803 000a03 3D00  ||      MOV #0, AC0 ; |319| 
    2804              
    2805                                                      ; call occurs [#_USB_initEndptObj] ; |319| 
    2806 000a05 C406          MOV T0, *SP(#3) ; |319| 
    2807                      .dwpsn  file "../c5535_bsl_revc/ezdsp5535_v1/c55xx_csl/ccs_v4.0_examples/usb/CSL_USB_PollExample/csl_
    2808 000a07 2249          MOV T0, AR1
    2809 000a09 0409          BCC $C$L58,AR1 == #0 ; |322| 
         000a0b 12   
    2810                                                      ; branchcc occurs ; |322| 
    2811                      .dwpsn  file "../c5535_bsl_revc/ezdsp5535_v1/c55xx_csl/ccs_v4.0_examples/usb/CSL_USB_PollExample/csl_
    2812 000a0c EC31          AMOV #$C$FSL7, XAR3 ; |324| 
         000a0e BE00 
         000a10 007E+
TMS320C55x Assembler PC v4.4.1 Sat Sep 29 23:08:33 2018

Tools Copyright (c) 1996-2012 Texas Instruments Incorporated
csl_usb_poll_example.asm                                             PAGE   66

    2813 000a12 EB00          MOV XAR3, dbl(*SP(#0))
         000a14 B5   
    2814              $C$DW$251       .dwtag  DW_TAG_TI_branch
    2815                      .dwattr $C$DW$251, DW_AT_low_pc(0x00)
    2816                      .dwattr $C$DW$251, DW_AT_name("_printf")
    2817                      .dwattr $C$DW$251, DW_AT_TI_call
    2818 000a15 6C00          CALL #_printf ; |324| 
         000a17 0000!
    2819                                                      ; call occurs [#_printf] ; |324| 
    2820                      .dwpsn  file "../c5535_bsl_revc/ezdsp5535_v1/c55xx_csl/ccs_v4.0_examples/usb/CSL_USB_PollExample/csl_
    2821 000a19 A408          MOV *SP(#4), T0 ; |325| 
    2822 000a1b 0608          B $C$L106 ; |325| 
         000a1d 21   
    2823                                                      ; branch occurs ; |325| 
    2824 000a1e       $C$L58:    
    2825                      .dwpsn  file "../c5535_bsl_revc/ezdsp5535_v1/c55xx_csl/ccs_v4.0_examples/usb/CSL_USB_PollExample/csl_
    2826 000a1e ED31          MOV dbl(*(#(_hEpObjArray+2))), XAR0
         000a20 8F00 
         000a22 000A-
    2827 000a24 3C09          MOV #0, AR1
    2828              
    2829 000a2a 3D85          MOV #8, T1
    2830 000a26 7600  ||      MOV #64, AR2 ; |329| 
         000a28 40A8 
    2831              
    2832 000a30 3D04          MOV #0, T0
    2833 000a2c 7600  ||      MOV #32, AR3 ; |329| 
         000a2e 20B8 
    2834              
    2835              $C$DW$252       .dwtag  DW_TAG_TI_branch
    2836                      .dwattr $C$DW$252, DW_AT_low_pc(0x00)
    2837                      .dwattr $C$DW$252, DW_AT_name("_USB_initEndptObj")
    2838                      .dwattr $C$DW$252, DW_AT_TI_call
    2839              
    2840 000a32 6C00          CALL #_USB_initEndptObj ; |329| 
         000a34 0000!
    2841 000a36 3D00  ||      MOV #0, AC0 ; |329| 
    2842              
    2843                                                      ; call occurs [#_USB_initEndptObj] ; |329| 
    2844 000a38 C406          MOV T0, *SP(#3) ; |329| 
    2845                      .dwpsn  file "../c5535_bsl_revc/ezdsp5535_v1/c55xx_csl/ccs_v4.0_examples/usb/CSL_USB_PollExample/csl_
    2846 000a3a 2249          MOV T0, AR1
    2847 000a3c 0409          BCC $C$L59,AR1 == #0 ; |332| 
         000a3e 12   
    2848                                                      ; branchcc occurs ; |332| 
    2849                      .dwpsn  file "../c5535_bsl_revc/ezdsp5535_v1/c55xx_csl/ccs_v4.0_examples/usb/CSL_USB_PollExample/csl_
    2850 000a3f EC31          AMOV #$C$FSL7, XAR3 ; |334| 
         000a41 BE00 
         000a43 007E+
    2851 000a45 EB00          MOV XAR3, dbl(*SP(#0))
         000a47 B5   
    2852              $C$DW$253       .dwtag  DW_TAG_TI_branch
    2853                      .dwattr $C$DW$253, DW_AT_low_pc(0x00)
    2854                      .dwattr $C$DW$253, DW_AT_name("_printf")
    2855                      .dwattr $C$DW$253, DW_AT_TI_call
TMS320C55x Assembler PC v4.4.1 Sat Sep 29 23:08:33 2018

Tools Copyright (c) 1996-2012 Texas Instruments Incorporated
csl_usb_poll_example.asm                                             PAGE   67

    2856 000a48 6C00          CALL #_printf ; |334| 
         000a4a 0000!
    2857                                                      ; call occurs [#_printf] ; |334| 
    2858                      .dwpsn  file "../c5535_bsl_revc/ezdsp5535_v1/c55xx_csl/ccs_v4.0_examples/usb/CSL_USB_PollExample/csl_
    2859 000a4c A408          MOV *SP(#4), T0 ; |335| 
    2860 000a4e 0607          B $C$L106 ; |335| 
         000a50 EE   
    2861                                                      ; branch occurs ; |335| 
    2862 000a51       $C$L59:    
    2863                      .dwpsn  file "../c5535_bsl_revc/ezdsp5535_v1/c55xx_csl/ccs_v4.0_examples/usb/CSL_USB_PollExample/csl_
    2864 000a51 E618          MOV #33, *SP(#12) ; |339| 
         000a53 21   
    2865                      .dwpsn  file "../c5535_bsl_revc/ezdsp5535_v1/c55xx_csl/ccs_v4.0_examples/usb/CSL_USB_PollExample/csl_
    2866 000a54 ED31          MOV dbl(*(#(_hEpObjArray+4))), XAR0
         000a56 8F00 
         000a58 000C-
    2867 000a5a 3C95          MOV #9, T1
    2868              
    2869 000a60 3D04          MOV #0, T0
    2870 000a5c 7600  ||      MOV #64, AR2 ; |340| 
         000a5e 40A8 
    2871              
    2872 000a62 AB18          MOV *SP(#12), AR3 ; |340| 
    2873 000a64 3D19  ||      MOV #1, AR1
    2874              
    2875              $C$DW$254       .dwtag  DW_TAG_TI_branch
    2876                      .dwattr $C$DW$254, DW_AT_low_pc(0x00)
    2877                      .dwattr $C$DW$254, DW_AT_name("_USB_initEndptObj")
    2878                      .dwattr $C$DW$254, DW_AT_TI_call
    2879              
    2880 000a66 6C00          CALL #_USB_initEndptObj ; |340| 
         000a68 0000!
    2881 000a6a 3D00  ||      MOV #0, AC0 ; |340| 
    2882              
    2883                                                      ; call occurs [#_USB_initEndptObj] ; |340| 
    2884 000a6c C406          MOV T0, *SP(#3) ; |340| 
    2885                      .dwpsn  file "../c5535_bsl_revc/ezdsp5535_v1/c55xx_csl/ccs_v4.0_examples/usb/CSL_USB_PollExample/csl_
    2886 000a6e 2249          MOV T0, AR1
    2887 000a70 0409          BCC $C$L60,AR1 == #0 ; |343| 
         000a72 12   
    2888                                                      ; branchcc occurs ; |343| 
    2889                      .dwpsn  file "../c5535_bsl_revc/ezdsp5535_v1/c55xx_csl/ccs_v4.0_examples/usb/CSL_USB_PollExample/csl_
    2890 000a73 EC31          AMOV #$C$FSL7, XAR3 ; |345| 
         000a75 BE00 
         000a77 007E+
    2891 000a79 EB00          MOV XAR3, dbl(*SP(#0))
         000a7b B5   
    2892              $C$DW$255       .dwtag  DW_TAG_TI_branch
    2893                      .dwattr $C$DW$255, DW_AT_low_pc(0x00)
    2894                      .dwattr $C$DW$255, DW_AT_name("_printf")
    2895                      .dwattr $C$DW$255, DW_AT_TI_call
    2896 000a7c 6C00          CALL #_printf ; |345| 
         000a7e 0000!
    2897                                                      ; call occurs [#_printf] ; |345| 
    2898                      .dwpsn  file "../c5535_bsl_revc/ezdsp5535_v1/c55xx_csl/ccs_v4.0_examples/usb/CSL_USB_PollExample/csl_
TMS320C55x Assembler PC v4.4.1 Sat Sep 29 23:08:33 2018

Tools Copyright (c) 1996-2012 Texas Instruments Incorporated
csl_usb_poll_example.asm                                             PAGE   68

    2899 000a80 A408          MOV *SP(#4), T0 ; |346| 
    2900 000a82 0607          B $C$L106 ; |346| 
         000a84 BA   
    2901                                                      ; branch occurs ; |346| 
    2902 000a85       $C$L60:    
    2903                      .dwpsn  file "../c5535_bsl_revc/ezdsp5535_v1/c55xx_csl/ccs_v4.0_examples/usb/CSL_USB_PollExample/csl_
    2904 000a85 ED31          MOV dbl(*(#(_hEpObjArray+6))), XAR0
         000a87 8F00 
         000a89 000E-
    2905 000a8b 3C19          MOV #1, AR1
    2906              
    2907 000a91 3D25          MOV #2, T1
    2908 000a8d 7600  ||      MOV #64, AR2 ; |350| 
         000a8f 40A8 
    2909              
    2910 000a97 3D04          MOV #0, T0
    2911 000a93 7600  ||      MOV #32, AR3 ; |350| 
         000a95 20B8 
    2912              
    2913              $C$DW$256       .dwtag  DW_TAG_TI_branch
    2914                      .dwattr $C$DW$256, DW_AT_low_pc(0x00)
    2915                      .dwattr $C$DW$256, DW_AT_name("_USB_initEndptObj")
    2916                      .dwattr $C$DW$256, DW_AT_TI_call
    2917              
    2918 000a99 6C00          CALL #_USB_initEndptObj ; |350| 
         000a9b 0000!
    2919 000a9d 3D00  ||      MOV #0, AC0 ; |350| 
    2920              
    2921                                                      ; call occurs [#_USB_initEndptObj] ; |350| 
    2922 000a9f C406          MOV T0, *SP(#3) ; |350| 
    2923                      .dwpsn  file "../c5535_bsl_revc/ezdsp5535_v1/c55xx_csl/ccs_v4.0_examples/usb/CSL_USB_PollExample/csl_
    2924 000aa1 2249          MOV T0, AR1
    2925 000aa3 0409          BCC $C$L61,AR1 == #0 ; |353| 
         000aa5 12   
    2926                                                      ; branchcc occurs ; |353| 
    2927                      .dwpsn  file "../c5535_bsl_revc/ezdsp5535_v1/c55xx_csl/ccs_v4.0_examples/usb/CSL_USB_PollExample/csl_
    2928 000aa6 EC31          AMOV #$C$FSL7, XAR3 ; |355| 
         000aa8 BE00 
         000aaa 007E+
    2929 000aac EB00          MOV XAR3, dbl(*SP(#0))
         000aae B5   
    2930              $C$DW$257       .dwtag  DW_TAG_TI_branch
    2931                      .dwattr $C$DW$257, DW_AT_low_pc(0x00)
    2932                      .dwattr $C$DW$257, DW_AT_name("_printf")
    2933                      .dwattr $C$DW$257, DW_AT_TI_call
    2934 000aaf 6C00          CALL #_printf ; |355| 
         000ab1 0000!
    2935                                                      ; call occurs [#_printf] ; |355| 
    2936                      .dwpsn  file "../c5535_bsl_revc/ezdsp5535_v1/c55xx_csl/ccs_v4.0_examples/usb/CSL_USB_PollExample/csl_
    2937 000ab3 A408          MOV *SP(#4), T0 ; |356| 
    2938 000ab5 0607          B $C$L106 ; |356| 
         000ab7 87   
    2939                                                      ; branch occurs ; |356| 
    2940 000ab8       $C$L61:    
    2941                      .dwpsn  file "../c5535_bsl_revc/ezdsp5535_v1/c55xx_csl/ccs_v4.0_examples/usb/CSL_USB_PollExample/csl_
TMS320C55x Assembler PC v4.4.1 Sat Sep 29 23:08:33 2018

Tools Copyright (c) 1996-2012 Texas Instruments Incorporated
csl_usb_poll_example.asm                                             PAGE   69

    2942 000ab8 EC31          AMOV #_hEpObjArray, XAR0 ; |360| 
         000aba 8E00 
         000abc 0008-
    2943 000abe 3C04          MOV #0, T0
    2944              $C$DW$258       .dwtag  DW_TAG_TI_branch
    2945                      .dwattr $C$DW$258, DW_AT_low_pc(0x00)
    2946                      .dwattr $C$DW$258, DW_AT_name("_USB_setParams")
    2947                      .dwattr $C$DW$258, DW_AT_TI_call
    2948              
    2949 000ac0 6C00          CALL #_USB_setParams ; |360| 
         000ac2 0000!
    2950 000ac4 3D05  ||      MOV #0, T1
    2951              
    2952                                                      ; call occurs [#_USB_setParams] ; |360| 
    2953 000ac6 C406          MOV T0, *SP(#3) ; |360| 
    2954                      .dwpsn  file "../c5535_bsl_revc/ezdsp5535_v1/c55xx_csl/ccs_v4.0_examples/usb/CSL_USB_PollExample/csl_
    2955 000ac8 2249          MOV T0, AR1
    2956 000aca 0409          BCC $C$L62,AR1 == #0 ; |361| 
         000acc 12   
    2957                                                      ; branchcc occurs ; |361| 
    2958                      .dwpsn  file "../c5535_bsl_revc/ezdsp5535_v1/c55xx_csl/ccs_v4.0_examples/usb/CSL_USB_PollExample/csl_
    2959 000acd EC31          AMOV #$C$FSL8, XAR3 ; |363| 
         000acf BE00 
         000ad1 009A+
    2960 000ad3 EB00          MOV XAR3, dbl(*SP(#0))
         000ad5 B5   
    2961              $C$DW$259       .dwtag  DW_TAG_TI_branch
    2962                      .dwattr $C$DW$259, DW_AT_low_pc(0x00)
    2963                      .dwattr $C$DW$259, DW_AT_name("_printf")
    2964                      .dwattr $C$DW$259, DW_AT_TI_call
    2965 000ad6 6C00          CALL #_printf ; |363| 
         000ad8 0000!
    2966                                                      ; call occurs [#_printf] ; |363| 
    2967                      .dwpsn  file "../c5535_bsl_revc/ezdsp5535_v1/c55xx_csl/ccs_v4.0_examples/usb/CSL_USB_PollExample/csl_
    2968 000ada A408          MOV *SP(#4), T0 ; |364| 
    2969 000adc 0607          B $C$L106 ; |364| 
         000ade 60   
    2970                                                      ; branch occurs ; |364| 
    2971 000adf       $C$L62:    
    2972                      .dwpsn  file "../c5535_bsl_revc/ezdsp5535_v1/c55xx_csl/ccs_v4.0_examples/usb/CSL_USB_PollExample/csl_
    2973              $C$DW$260       .dwtag  DW_TAG_TI_branch
    2974                      .dwattr $C$DW$260, DW_AT_low_pc(0x00)
    2975                      .dwattr $C$DW$260, DW_AT_name("_USB_connectDev")
    2976                      .dwattr $C$DW$260, DW_AT_TI_call
    2977              
    2978 000adf 6C00          CALL #_USB_connectDev ; |368| 
         000ae1 0000!
    2979 000ae3 3D04  ||      MOV #0, T0
    2980              
    2981                                                      ; call occurs [#_USB_connectDev] ; |368| 
    2982 000ae5 C406          MOV T0, *SP(#3) ; |368| 
    2983                      .dwpsn  file "../c5535_bsl_revc/ezdsp5535_v1/c55xx_csl/ccs_v4.0_examples/usb/CSL_USB_PollExample/csl_
    2984 000ae7 2249          MOV T0, AR1
    2985 000ae9 0409          BCC $C$L63,AR1 == #0 ; |369| 
         000aeb 12   
TMS320C55x Assembler PC v4.4.1 Sat Sep 29 23:08:33 2018

Tools Copyright (c) 1996-2012 Texas Instruments Incorporated
csl_usb_poll_example.asm                                             PAGE   70

    2986                                                      ; branchcc occurs ; |369| 
    2987                      .dwpsn  file "../c5535_bsl_revc/ezdsp5535_v1/c55xx_csl/ccs_v4.0_examples/usb/CSL_USB_PollExample/csl_
    2988 000aec EC31          AMOV #$C$FSL9, XAR3 ; |371| 
         000aee BE00 
         000af0 00B2+
    2989 000af2 EB00          MOV XAR3, dbl(*SP(#0))
         000af4 B5   
    2990              $C$DW$261       .dwtag  DW_TAG_TI_branch
    2991                      .dwattr $C$DW$261, DW_AT_low_pc(0x00)
    2992                      .dwattr $C$DW$261, DW_AT_name("_printf")
    2993                      .dwattr $C$DW$261, DW_AT_TI_call
    2994 000af5 6C00          CALL #_printf ; |371| 
         000af7 0000!
    2995                                                      ; call occurs [#_printf] ; |371| 
    2996                      .dwpsn  file "../c5535_bsl_revc/ezdsp5535_v1/c55xx_csl/ccs_v4.0_examples/usb/CSL_USB_PollExample/csl_
    2997 000af9 A408          MOV *SP(#4), T0 ; |372| 
    2998 000afb 0607          B $C$L106 ; |372| 
         000afd 41   
    2999                                                      ; branch occurs ; |372| 
    3000 000afe       $C$L63:    
    3001                      .dwpsn  file "../c5535_bsl_revc/ezdsp5535_v1/c55xx_csl/ccs_v4.0_examples/usb/CSL_USB_PollExample/csl_
    3002 000afe EC31          AMOV #_deviceDesc, XAR3 ; |375| 
         000b00 BE00 
         000b02 0184-
    3003 000b04 EB31          MOV XAR3, dbl(*(#_deviceDescPtr))
         000b06 B500 
         000b08 007A-
    3004                      .dwpsn  file "../c5535_bsl_revc/ezdsp5535_v1/c55xx_csl/ccs_v4.0_examples/usb/CSL_USB_PollExample/csl_
    3005 000b0a EC31          AMOV #_cfgDesc, XAR3 ; |376| 
         000b0c BE00 
         000b0e 018D-
    3006 000b10 EB31          MOV XAR3, dbl(*(#_cfgDescPtr))
         000b12 B500 
         000b14 007C-
    3007                      .dwpsn  file "../c5535_bsl_revc/ezdsp5535_v1/c55xx_csl/ccs_v4.0_examples/usb/CSL_USB_PollExample/csl_
    3008 000b16 EC31          AMOV #_strDesc, XAR3 ; |377| 
         000b18 BE00 
         000b1a 01B5-
    3009 000b1c EB31          MOV XAR3, dbl(*(#_strDescPtr))
         000b1e B500 
         000b20 007E-
    3010                      .dwpsn  file "../c5535_bsl_revc/ezdsp5535_v1/c55xx_csl/ccs_v4.0_examples/usb/CSL_USB_PollExample/csl_
    3011 000b22 E631          MOV #1, *(#_selfWakeupServiced) ; |378| 
         000b24 0100 
         000b26 0006-
    3012                      .dwpsn  file "../c5535_bsl_revc/ezdsp5535_v1/c55xx_csl/ccs_v4.0_examples/usb/CSL_USB_PollExample/csl_
