TMS320C55x Assembler PC v4.4.1 Sat Sep 29 23:09:38 2018

Tools Copyright (c) 1996-2012 Texas Instruments Incorporated
csl_i2c_dma_example.asm                                              PAGE    1

    3282              ; Temporary Registers Used: None
       1              ;*******************************************************************************
       2              ;* TMS320C55x C/C++ Codegen                                          PC v4.4.1 *
       3              ;* Date/Time created: Sat Sep 29 23:09:37 2018                                 *
       4              ;*******************************************************************************
       5                      .compiler_opts --hll_source=on --mem_model:code=flat --mem_model:data=large --object_format=coff --si
       6                      .mmregs
       7                      .cpl_on
       8                      .arms_on
       9                      .c54cm_off
      10                      .asg AR6, FP
      11                      .asg XAR6, XFP
      12                      .asg DPH, MDP
      13                      .model call=c55_std
      14                      .model mem=large
      15                      .noremark 5002  ; code respects overwrite rules
      16              ;*******************************************************************************
      17              ;* GLOBAL FILE PARAMETERS                                                      *
      18              ;*                                                                             *
      19              ;*   Architecture       : TMS320C55x                                           *
      20              ;*   Optimizing for     : Speed                                                *
      21              ;*   Memory             : Large Model (23-Bit Data Pointers)                   *
      22              ;*   Calls              : Normal Library ASM calls                             *
      23              ;*   Debug Info         : Standard TI Debug Information                        *
      24              ;*******************************************************************************
      25              
      26              $C$DW$CU        .dwtag  DW_TAG_compile_unit
      27                      .dwattr $C$DW$CU, DW_AT_name("../c5535_bsl_revc/ezdsp5535_v1/c55xx_csl/ccs_v4.0_examples/i2c/CSL_I2C_
      28                      .dwattr $C$DW$CU, DW_AT_producer("TMS320C55x C/C++ Codegen PC v4.4.1 Copyright (c) 1996-2012 Texas In
      29                      .dwattr $C$DW$CU, DW_AT_TI_version(0x01)
      30                      .dwattr $C$DW$CU, DW_AT_comp_dir("F:\eZdsp_DBG\tmp1\c55x-sim2\foo\Debug")
      31              ;******************************************************************************
      32              ;* CINIT RECORDS                                                              *
      33              ;******************************************************************************
      34 000000               .sect   ".cinit"
      35                      .align  1
      36 000000 0001          .field          1,16
      37 000001 0001-         .field          _PaSs_StAtE+0,24
         000002 1B00 
      38 000002 1B00          .field          0,8
      39 000003 0001          .field  1,16                    ; _PaSs_StAtE @ 0
      40              
      41 000004               .sect   ".cinit"
      42                      .align  1
      43 000004 0001          .field          1,16
      44 000005 0001-         .field          _PaSs+0,24
         000006 3C00 
      45 000006 3C00          .field          0,8
      46 000007 0000          .field  0,16                    ; _PaSs @ 0
      47              
      48              
      49              $C$DW$1 .dwtag  DW_TAG_subprogram, DW_AT_name("printf")
      50                      .dwattr $C$DW$1, DW_AT_TI_symbol_name("_printf")
      51                      .dwattr $C$DW$1, DW_AT_type(*$C$DW$T$10)
      52                      .dwattr $C$DW$1, DW_AT_declaration
TMS320C55x Assembler PC v4.4.1 Sat Sep 29 23:09:38 2018

Tools Copyright (c) 1996-2012 Texas Instruments Incorporated
csl_i2c_dma_example.asm                                              PAGE    2

      53                      .dwattr $C$DW$1, DW_AT_external
      54              $C$DW$2 .dwtag  DW_TAG_formal_parameter
      55                      .dwattr $C$DW$2, DW_AT_type(*$C$DW$T$118)
      56              $C$DW$3 .dwtag  DW_TAG_unspecified_parameters
      57                      .dwendtag $C$DW$1
      58              
      59              
      60              $C$DW$4 .dwtag  DW_TAG_subprogram, DW_AT_name("I2C_init")
      61                      .dwattr $C$DW$4, DW_AT_TI_symbol_name("_I2C_init")
      62                      .dwattr $C$DW$4, DW_AT_type(*$C$DW$T$86)
      63                      .dwattr $C$DW$4, DW_AT_declaration
      64                      .dwattr $C$DW$4, DW_AT_external
      65              $C$DW$5 .dwtag  DW_TAG_formal_parameter
      66                      .dwattr $C$DW$5, DW_AT_type(*$C$DW$T$19)
      67                      .dwendtag $C$DW$4
      68              
      69              
      70              $C$DW$6 .dwtag  DW_TAG_subprogram, DW_AT_name("I2C_config")
      71                      .dwattr $C$DW$6, DW_AT_TI_symbol_name("_I2C_config")
      72                      .dwattr $C$DW$6, DW_AT_type(*$C$DW$T$86)
      73                      .dwattr $C$DW$6, DW_AT_declaration
      74                      .dwattr $C$DW$6, DW_AT_external
      75              $C$DW$7 .dwtag  DW_TAG_formal_parameter
      76                      .dwattr $C$DW$7, DW_AT_type(*$C$DW$T$95)
      77                      .dwendtag $C$DW$6
      78              
      79              
      80              $C$DW$8 .dwtag  DW_TAG_subprogram, DW_AT_name("DMA_init")
      81                      .dwattr $C$DW$8, DW_AT_TI_symbol_name("_DMA_init")
      82                      .dwattr $C$DW$8, DW_AT_type(*$C$DW$T$86)
      83                      .dwattr $C$DW$8, DW_AT_declaration
      84                      .dwattr $C$DW$8, DW_AT_external
      85              
      86              $C$DW$9 .dwtag  DW_TAG_subprogram, DW_AT_name("DMA_open")
      87                      .dwattr $C$DW$9, DW_AT_TI_symbol_name("_DMA_open")
      88                      .dwattr $C$DW$9, DW_AT_type(*$C$DW$T$84)
      89                      .dwattr $C$DW$9, DW_AT_declaration
      90                      .dwattr $C$DW$9, DW_AT_external
      91              $C$DW$10        .dwtag  DW_TAG_formal_parameter
      92                      .dwattr $C$DW$10, DW_AT_type(*$C$DW$T$28)
      93              $C$DW$11        .dwtag  DW_TAG_formal_parameter
      94                      .dwattr $C$DW$11, DW_AT_type(*$C$DW$T$83)
      95              $C$DW$12        .dwtag  DW_TAG_formal_parameter
      96                      .dwattr $C$DW$12, DW_AT_type(*$C$DW$T$87)
      97                      .dwendtag $C$DW$9
      98              
      99              
     100              $C$DW$13        .dwtag  DW_TAG_subprogram, DW_AT_name("DMA_config")
     101                      .dwattr $C$DW$13, DW_AT_TI_symbol_name("_DMA_config")
     102                      .dwattr $C$DW$13, DW_AT_type(*$C$DW$T$86)
     103                      .dwattr $C$DW$13, DW_AT_declaration
     104                      .dwattr $C$DW$13, DW_AT_external
     105              $C$DW$14        .dwtag  DW_TAG_formal_parameter
     106                      .dwattr $C$DW$14, DW_AT_type(*$C$DW$T$84)
     107              $C$DW$15        .dwtag  DW_TAG_formal_parameter
TMS320C55x Assembler PC v4.4.1 Sat Sep 29 23:09:38 2018

Tools Copyright (c) 1996-2012 Texas Instruments Incorporated
csl_i2c_dma_example.asm                                              PAGE    3

     108                      .dwattr $C$DW$15, DW_AT_type(*$C$DW$T$93)
     109                      .dwendtag $C$DW$13
     110              
     111              
     112              $C$DW$16        .dwtag  DW_TAG_subprogram, DW_AT_name("DMA_start")
     113                      .dwattr $C$DW$16, DW_AT_TI_symbol_name("_DMA_start")
     114                      .dwattr $C$DW$16, DW_AT_type(*$C$DW$T$86)
     115                      .dwattr $C$DW$16, DW_AT_declaration
     116                      .dwattr $C$DW$16, DW_AT_external
     117              $C$DW$17        .dwtag  DW_TAG_formal_parameter
     118                      .dwattr $C$DW$17, DW_AT_type(*$C$DW$T$84)
     119                      .dwendtag $C$DW$16
     120              
     121              $C$DW$18        .dwtag  DW_TAG_variable, DW_AT_name("i2cHandle")
     122                      .dwattr $C$DW$18, DW_AT_TI_symbol_name("_i2cHandle")
     123                      .dwattr $C$DW$18, DW_AT_type(*$C$DW$T$98)
     124                      .dwattr $C$DW$18, DW_AT_declaration
     125                      .dwattr $C$DW$18, DW_AT_external
     126                      .global _gI2cWrBuf
     127 000000               .bss    _gI2cWrBuf,132,0,8
     128              $C$DW$19        .dwtag  DW_TAG_variable, DW_AT_name("gI2cWrBuf")
     129                      .dwattr $C$DW$19, DW_AT_TI_symbol_name("_gI2cWrBuf")
     130                      .dwattr $C$DW$19, DW_AT_location[DW_OP_addr _gI2cWrBuf]
     131                      .dwattr $C$DW$19, DW_AT_type(*$C$DW$T$121)
     132                      .dwattr $C$DW$19, DW_AT_external
     133                      .global _gI2cRdBuf
     134 000088               .bss    _gI2cRdBuf,128,0,8
     135              $C$DW$20        .dwtag  DW_TAG_variable, DW_AT_name("gI2cRdBuf")
     136                      .dwattr $C$DW$20, DW_AT_TI_symbol_name("_gI2cRdBuf")
     137                      .dwattr $C$DW$20, DW_AT_location[DW_OP_addr _gI2cRdBuf]
     138                      .dwattr $C$DW$20, DW_AT_type(*$C$DW$T$123)
     139                      .dwattr $C$DW$20, DW_AT_external
     140                      .global _i2cSetup
     141 000108               .bss    _i2cSetup,10,0,2
     142              $C$DW$21        .dwtag  DW_TAG_variable, DW_AT_name("i2cSetup")
     143                      .dwattr $C$DW$21, DW_AT_TI_symbol_name("_i2cSetup")
     144                      .dwattr $C$DW$21, DW_AT_location[DW_OP_addr _i2cSetup]
     145                      .dwattr $C$DW$21, DW_AT_type(*$C$DW$T$99)
     146                      .dwattr $C$DW$21, DW_AT_external
     147                      .global _i2cConfig
     148 000112               .bss    _i2cConfig,9,0,0
     149              $C$DW$22        .dwtag  DW_TAG_variable, DW_AT_name("i2cConfig")
     150                      .dwattr $C$DW$22, DW_AT_TI_symbol_name("_i2cConfig")
     151                      .dwattr $C$DW$22, DW_AT_location[DW_OP_addr _i2cConfig]
     152                      .dwattr $C$DW$22, DW_AT_type(*$C$DW$T$94)
     153                      .dwattr $C$DW$22, DW_AT_external
     154                      .global _dmaWrHandle
     155 000084               .bss    _dmaWrHandle,2,0,2
     156              $C$DW$23        .dwtag  DW_TAG_variable, DW_AT_name("dmaWrHandle")
     157                      .dwattr $C$DW$23, DW_AT_TI_symbol_name("_dmaWrHandle")
     158                      .dwattr $C$DW$23, DW_AT_location[DW_OP_addr _dmaWrHandle]
     159                      .dwattr $C$DW$23, DW_AT_type(*$C$DW$T$84)
     160                      .dwattr $C$DW$23, DW_AT_external
     161                      .global _dmaRdHandle
     162 000086               .bss    _dmaRdHandle,2,0,2
TMS320C55x Assembler PC v4.4.1 Sat Sep 29 23:09:38 2018

Tools Copyright (c) 1996-2012 Texas Instruments Incorporated
csl_i2c_dma_example.asm                                              PAGE    4

     163              $C$DW$24        .dwtag  DW_TAG_variable, DW_AT_name("dmaRdHandle")
     164                      .dwattr $C$DW$24, DW_AT_TI_symbol_name("_dmaRdHandle")
     165                      .dwattr $C$DW$24, DW_AT_location[DW_OP_addr _dmaRdHandle]
     166                      .dwattr $C$DW$24, DW_AT_type(*$C$DW$T$84)
     167                      .dwattr $C$DW$24, DW_AT_external
     168                      .global _dmaConfig
     169 00011c               .bss    _dmaConfig,14,0,2
     170              $C$DW$25        .dwtag  DW_TAG_variable, DW_AT_name("dmaConfig")
     171                      .dwattr $C$DW$25, DW_AT_TI_symbol_name("_dmaConfig")
     172                      .dwattr $C$DW$25, DW_AT_location[DW_OP_addr _dmaConfig]
     173                      .dwattr $C$DW$25, DW_AT_type(*$C$DW$T$92)
     174                      .dwattr $C$DW$25, DW_AT_external
     175                      .global _dmaWrChanObj
     176 00012a               .bss    _dmaWrChanObj,9,0,0
     177              $C$DW$26        .dwtag  DW_TAG_variable, DW_AT_name("dmaWrChanObj")
     178                      .dwattr $C$DW$26, DW_AT_TI_symbol_name("_dmaWrChanObj")
     179                      .dwattr $C$DW$26, DW_AT_location[DW_OP_addr _dmaWrChanObj]
     180                      .dwattr $C$DW$26, DW_AT_type(*$C$DW$T$82)
     181                      .dwattr $C$DW$26, DW_AT_external
     182                      .global _dmaRdChanObj
     183 000133               .bss    _dmaRdChanObj,9,0,0
     184              $C$DW$27        .dwtag  DW_TAG_variable, DW_AT_name("dmaRdChanObj")
     185                      .dwattr $C$DW$27, DW_AT_TI_symbol_name("_dmaRdChanObj")
     186                      .dwattr $C$DW$27, DW_AT_location[DW_OP_addr _dmaRdChanObj]
     187                      .dwattr $C$DW$27, DW_AT_type(*$C$DW$T$82)
     188                      .dwattr $C$DW$27, DW_AT_external
     189                      .global _PaSs_StAtE
     190 00011b               .bss    _PaSs_StAtE,1,0,0
     191              $C$DW$28        .dwtag  DW_TAG_variable, DW_AT_name("PaSs_StAtE")
     192                      .dwattr $C$DW$28, DW_AT_TI_symbol_name("_PaSs_StAtE")
     193                      .dwattr $C$DW$28, DW_AT_location[DW_OP_addr _PaSs_StAtE]
     194                      .dwattr $C$DW$28, DW_AT_type(*$C$DW$T$110)
     195                      .dwattr $C$DW$28, DW_AT_external
     196                      .global _PaSs
     197 00013c               .bss    _PaSs,1,0,0
     198              $C$DW$29        .dwtag  DW_TAG_variable, DW_AT_name("PaSs")
     199                      .dwattr $C$DW$29, DW_AT_TI_symbol_name("_PaSs")
     200                      .dwattr $C$DW$29, DW_AT_location[DW_OP_addr _PaSs]
     201                      .dwattr $C$DW$29, DW_AT_type(*$C$DW$T$110)
     202                      .dwattr $C$DW$29, DW_AT_external
     203              ;       F:\t\cc5p5\ccsv5\tools\compiler\c5500_4.4.1\bin\acp55.exe -@f:\\AppData\\Local\\Temp\\1129612 
     204 000000               .sect   ".text"
     205                      .align 4
     206              
     207              $C$DW$30        .dwtag  DW_TAG_subprogram, DW_AT_name("DMA_getStatus")
     208                      .dwattr $C$DW$30, DW_AT_low_pc(_DMA_getStatus)
     209                      .dwattr $C$DW$30, DW_AT_high_pc(0x00)
     210                      .dwattr $C$DW$30, DW_AT_TI_symbol_name("_DMA_getStatus")
     211                      .dwattr $C$DW$30, DW_AT_type(*$C$DW$T$113)
     212                      .dwattr $C$DW$30, DW_AT_TI_begin_file("F:/eZdsp_DBG/tmp1/c55x-sim2/foo/c5535_bsl_revc/ezdsp5535_v1/c5
     213                      .dwattr $C$DW$30, DW_AT_TI_begin_line(0x3f0)
     214                      .dwattr $C$DW$30, DW_AT_TI_begin_column(0x05)
     215                      .dwattr $C$DW$30, DW_AT_TI_max_frame_size(0x06)
     216                      .dwpsn  file "F:/eZdsp_DBG/tmp1/c55x-sim2/foo/c5535_bsl_revc/ezdsp5535_v1/c55xx_csl/inc/csl_dma.h",li
     217              
TMS320C55x Assembler PC v4.4.1 Sat Sep 29 23:09:38 2018

Tools Copyright (c) 1996-2012 Texas Instruments Incorporated
csl_i2c_dma_example.asm                                              PAGE    5

     218                      .dwfde $C$DW$CIE, _DMA_getStatus
     219              $C$DW$31        .dwtag  DW_TAG_formal_parameter, DW_AT_name("hDMA")
     220                      .dwattr $C$DW$31, DW_AT_TI_symbol_name("_hDMA")
     221                      .dwattr $C$DW$31, DW_AT_type(*$C$DW$T$84)
     222                      .dwattr $C$DW$31, DW_AT_location[DW_OP_reg17]
     223              ;*******************************************************************************
     224              ;* FUNCTION NAME: DMA_getStatus                                                *
     225              ;*                                                                             *
     226              ;*   Function Uses Regs : AC0,AC0,T0,AR0,XAR0,AR1,AR2,AR3,XAR3,SP,CARRY,TC1,   *
     227              ;*                        M40,SATA,SATD,RDM,FRCT,SMUL                          *
     228              ;*   Stack Frame        : Compact (No Frame Pointer, w/ debug)                 *
     229              ;*   Total Frame Size   : 6 words                                              *
     230              ;*                        (2 return address/alignment)                         *
     231              ;*                        (4 local values)                                     *
     232              ;*   Min System Stack   : 1 word                                               *
     233              ;*******************************************************************************
     234 000000       _DMA_getStatus:
     235                      .dwcfi  cfa_offset, 1
     236                      .dwcfi  save_reg_to_mem, 91, -1
     237 000000 4EFB          AADD #-5, SP
     238                      .dwcfi  cfa_offset, 6
     239              $C$DW$32        .dwtag  DW_TAG_variable, DW_AT_name("hDMA")
     240                      .dwattr $C$DW$32, DW_AT_TI_symbol_name("_hDMA")
     241                      .dwattr $C$DW$32, DW_AT_type(*$C$DW$T$84)
     242                      .dwattr $C$DW$32, DW_AT_location[DW_OP_bregx 0x24 0]
     243              $C$DW$33        .dwtag  DW_TAG_variable, DW_AT_name("status")
     244                      .dwattr $C$DW$33, DW_AT_TI_symbol_name("_status")
     245                      .dwattr $C$DW$33, DW_AT_type(*$C$DW$T$113)
     246                      .dwattr $C$DW$33, DW_AT_location[DW_OP_bregx 0x24 2]
     247              $C$DW$34        .dwtag  DW_TAG_variable, DW_AT_name("chanNum")
     248                      .dwattr $C$DW$34, DW_AT_TI_symbol_name("_chanNum")
     249                      .dwattr $C$DW$34, DW_AT_type(*$C$DW$T$19)
     250                      .dwattr $C$DW$34, DW_AT_location[DW_OP_bregx 0x24 3]
     251 000002 EB00          MOV XAR0, dbl(*SP(#0))
         000004 85   
     252                      .dwpsn  file "F:/eZdsp_DBG/tmp1/c55x-sim2/foo/c5535_bsl_revc/ezdsp5535_v1/c55xx_csl/inc/csl_dma.h",li
     253 000005 ED00          MOV dbl(*SP(#0)), XAR3
         000007 BF   
     254 000008 90B0          MOV XAR3, AC0
     255 00000a 6D00          BCC $C$L7,AC0 == #0 ; |1018| 
         00000c 0094 
     256                                                      ; branchcc occurs ; |1018| 
     257                      .dwpsn  file "F:/eZdsp_DBG/tmp1/c55x-sim2/foo/c5535_bsl_revc/ezdsp5535_v1/c55xx_csl/inc/csl_dma.h",li
     258 00000e A973          MOV *AR3(short(#1)), AR1 ; |1020| 
     259 000010 C906          MOV AR1, *SP(#3) ; |1020| 
     260                      .dwpsn  file "F:/eZdsp_DBG/tmp1/c55x-sim2/foo/c5535_bsl_revc/ezdsp5535_v1/c55xx_csl/inc/csl_dma.h",li
     261 000012 3C4A          MOV #4, AR2
     262 000014 1294          CMPU AR1 < AR2, TC1 ; |1022| 
         000016 A4   
     263 000017 0464          BCC $C$L6,TC1 ; |1022| 
         000019 69   
     264                                                      ; branchcc occurs ; |1022| 
     265 00001a       $C$L1:    
     266 00001a       $C$DW$L$_DMA_getStatus$3$B:
     267                      .dwpsn  file "F:/eZdsp_DBG/tmp1/c55x-sim2/foo/c5535_bsl_revc/ezdsp5535_v1/c55xx_csl/inc/csl_dma.h",li
TMS320C55x Assembler PC v4.4.1 Sat Sep 29 23:09:38 2018

Tools Copyright (c) 1996-2012 Texas Instruments Incorporated
csl_i2c_dma_example.asm                                              PAGE    6

     268 00001a F706          SUB #4, *SP(#3) ; |1024| 
         00001c FFFC 
     269                      .dwpsn  file "F:/eZdsp_DBG/tmp1/c55x-sim2/foo/c5535_bsl_revc/ezdsp5535_v1/c55xx_csl/inc/csl_dma.h",li
     270 00001e A906          MOV *SP(#3), AR1 ; |1022| 
     271 000020 1298          CMPU AR1 >= AR2, TC1 ; |1022| 
         000022 A4   
     272 000023 0464          BCC $C$L1,TC1 ; |1022| 
         000025 F4   
     273                                                      ; branchcc occurs ; |1022| 
     274 000026       $C$DW$L$_DMA_getStatus$3$E:
     275                      .dwpsn  file "F:/eZdsp_DBG/tmp1/c55x-sim2/foo/c5535_bsl_revc/ezdsp5535_v1/c55xx_csl/inc/csl_dma.h",li
     276 000026 0600          B $C$L6   ; |1027| 
         000028 5A   
     277                                                      ; branch occurs ; |1027| 
     278 000029       $C$L2:    
     279                      .dwpsn  file "F:/eZdsp_DBG/tmp1/c55x-sim2/foo/c5535_bsl_revc/ezdsp5535_v1/c55xx_csl/inc/csl_dma.h",li
     280 000029 ED00          MOV dbl(*SP(#0)), XAR3
         00002b BF   
     281 00002c AB61          MOV *AR3, AR3 ; |1030| 
     282 00002e A97B          MOV port(*AR3(short(#5))), AR1 ; |1030| 
         000030 99   
     283 000031 7D80          AND #0x8000, AR1, AC0 ; |1030| 
         000033 0009 
     284 000035 1005          SFTS AC0, #-15, AC0 ; |1030| 
         000037 31   
     285 000038 C004          MOV AC0, *SP(#2) ; |1030| 
     286                      .dwpsn  file "F:/eZdsp_DBG/tmp1/c55x-sim2/foo/c5535_bsl_revc/ezdsp5535_v1/c55xx_csl/inc/csl_dma.h",li
     287 00003a 0600          B $C$L8   ; |1031| 
         00003c 68   
     288                                                      ; branch occurs ; |1031| 
     289 00003d       $C$L3:    
     290                      .dwpsn  file "F:/eZdsp_DBG/tmp1/c55x-sim2/foo/c5535_bsl_revc/ezdsp5535_v1/c55xx_csl/inc/csl_dma.h",li
     291 00003d ED00          MOV dbl(*SP(#0)), XAR3
         00003f BF   
     292 000040 7600          MOV #37, T0 ; |1033| 
         000042 2548 
     293 000044 AB61          MOV *AR3, AR3 ; |1033| 
     294 000046 A96B          MOV port(*AR3(T0)), AR1 ; |1033| 
         000048 99   
     295 000049 7D80          AND #0x8000, AR1, AC0 ; |1033| 
         00004b 0009 
     296 00004d 1005          SFTS AC0, #-15, AC0 ; |1033| 
         00004f 31   
     297 000050 C004          MOV AC0, *SP(#2) ; |1033| 
     298                      .dwpsn  file "F:/eZdsp_DBG/tmp1/c55x-sim2/foo/c5535_bsl_revc/ezdsp5535_v1/c55xx_csl/inc/csl_dma.h",li
     299 000052 0600          B $C$L8   ; |1034| 
         000054 50   
     300                                                      ; branch occurs ; |1034| 
     301 000055       $C$L4:    
     302                      .dwpsn  file "F:/eZdsp_DBG/tmp1/c55x-sim2/foo/c5535_bsl_revc/ezdsp5535_v1/c55xx_csl/inc/csl_dma.h",li
     303 000055 ED00          MOV dbl(*SP(#0)), XAR3
         000057 BF   
     304 000058 7600          MOV #69, T0 ; |1036| 
         00005a 4548 
     305 00005c AB61          MOV *AR3, AR3 ; |1036| 
TMS320C55x Assembler PC v4.4.1 Sat Sep 29 23:09:38 2018

Tools Copyright (c) 1996-2012 Texas Instruments Incorporated
csl_i2c_dma_example.asm                                              PAGE    7

     306 00005e A96B          MOV port(*AR3(T0)), AR1 ; |1036| 
         000060 99   
     307 000061 7D80          AND #0x8000, AR1, AC0 ; |1036| 
         000063 0009 
     308 000065 1005          SFTS AC0, #-15, AC0 ; |1036| 
         000067 31   
     309 000068 C004          MOV AC0, *SP(#2) ; |1036| 
     310                      .dwpsn  file "F:/eZdsp_DBG/tmp1/c55x-sim2/foo/c5535_bsl_revc/ezdsp5535_v1/c55xx_csl/inc/csl_dma.h",li
     311 00006a 4A39          B $C$L8   ; |1037| 
     312                                                      ; branch occurs ; |1037| 
     313 00006c       $C$L5:    
     314                      .dwpsn  file "F:/eZdsp_DBG/tmp1/c55x-sim2/foo/c5535_bsl_revc/ezdsp5535_v1/c55xx_csl/inc/csl_dma.h",li
     315 00006c ED00          MOV dbl(*SP(#0)), XAR3
         00006e BF   
     316 00006f 7600          MOV #101, T0 ; |1039| 
         000071 6548 
     317 000073 AB61          MOV *AR3, AR3 ; |1039| 
     318 000075 A96B          MOV port(*AR3(T0)), AR1 ; |1039| 
         000077 99   
     319 000078 7D80          AND #0x8000, AR1, AC0 ; |1039| 
         00007a 0009 
     320 00007c 1005          SFTS AC0, #-15, AC0 ; |1039| 
         00007e 31   
     321 00007f C004          MOV AC0, *SP(#2) ; |1039| 
     322                      .dwpsn  file "F:/eZdsp_DBG/tmp1/c55x-sim2/foo/c5535_bsl_revc/ezdsp5535_v1/c55xx_csl/inc/csl_dma.h",li
     323 000081 4A22          B $C$L8   ; |1040| 
     324                                                      ; branch occurs ; |1040| 
     325 000083       $C$L6:    
     326                      .dwpsn  file "F:/eZdsp_DBG/tmp1/c55x-sim2/foo/c5535_bsl_revc/ezdsp5535_v1/c55xx_csl/inc/csl_dma.h",li
     327 000083 A906          MOV *SP(#3), AR1 ; |1027| 
     328 000085 0409          BCC $C$L2,AR1 == #0 ; |1027| 
         000087 A1   
     329                                                      ; branchcc occurs ; |1027| 
     330 000088 3C1A          MOV #1, AR2
     331 00008a 1290          CMP AR1 == AR2, TC1 ; |1027| 
         00008c A0   
     332 00008d 0464          BCC $C$L3,TC1 ; |1027| 
         00008f AD   
     333                                                      ; branchcc occurs ; |1027| 
     334 000090 3C2A          MOV #2, AR2
     335 000092 1290          CMP AR1 == AR2, TC1 ; |1027| 
         000094 A0   
     336 000095 0464          BCC $C$L4,TC1 ; |1027| 
         000097 BD   
     337                                                      ; branchcc occurs ; |1027| 
     338 000098 3C3A          MOV #3, AR2
     339 00009a 1290          CMP AR1 == AR2, TC1 ; |1027| 
         00009c A0   
     340 00009d 0464          BCC $C$L5,TC1 ; |1027| 
         00009f CC   
     341                                                      ; branchcc occurs ; |1027| 
     342 0000a0 4A03          B $C$L8   ; |1027| 
     343                                                      ; branch occurs ; |1027| 
     344 0000a2       $C$L7:    
     345                      .dwpsn  file "F:/eZdsp_DBG/tmp1/c55x-sim2/foo/c5535_bsl_revc/ezdsp5535_v1/c55xx_csl/inc/csl_dma.h",li
TMS320C55x Assembler PC v4.4.1 Sat Sep 29 23:09:38 2018

Tools Copyright (c) 1996-2012 Texas Instruments Incorporated
csl_i2c_dma_example.asm                                              PAGE    8

     346 0000a2 E604          MOV #-5, *SP(#2) ; |1045| 
         0000a4 FB   
     347 0000a5       $C$L8:    
     348                      .dwpsn  file "F:/eZdsp_DBG/tmp1/c55x-sim2/foo/c5535_bsl_revc/ezdsp5535_v1/c55xx_csl/inc/csl_dma.h",li
     349 0000a5 A404          MOV *SP(#2), T0 ; |1048| 
     350                      .dwpsn  file "F:/eZdsp_DBG/tmp1/c55x-sim2/foo/c5535_bsl_revc/ezdsp5535_v1/c55xx_csl/inc/csl_dma.h",li
     351 0000a7 4E05          AADD #5, SP
     352                      .dwcfi  cfa_offset, 1
     353              $C$DW$35        .dwtag  DW_TAG_TI_branch
     354                      .dwattr $C$DW$35, DW_AT_low_pc(0x00)
     355                      .dwattr $C$DW$35, DW_AT_TI_return
     356 0000a9 4804          RET
     357                                                      ; return occurs
     358              
     359              $C$DW$36        .dwtag  DW_TAG_TI_loop
     360                      .dwattr $C$DW$36, DW_AT_name("F:\eZdsp_DBG\tmp1\c55x-sim2\foo\Debug\csl_i2c_dma_example.asm:$C$L1:1:1
     361                      .dwattr $C$DW$36, DW_AT_TI_begin_file("F:/eZdsp_DBG/tmp1/c55x-sim2/foo/c5535_bsl_revc/ezdsp5535_v1/c5
     362                      .dwattr $C$DW$36, DW_AT_TI_begin_line(0x3fe)
     363                      .dwattr $C$DW$36, DW_AT_TI_end_line(0x401)
     364              $C$DW$37        .dwtag  DW_TAG_TI_loop_range
     365                      .dwattr $C$DW$37, DW_AT_low_pc($C$DW$L$_DMA_getStatus$3$B)
     366                      .dwattr $C$DW$37, DW_AT_high_pc($C$DW$L$_DMA_getStatus$3$E)
     367                      .dwendtag $C$DW$36
     368              
     369                      .dwattr $C$DW$30, DW_AT_TI_end_file("F:/eZdsp_DBG/tmp1/c55x-sim2/foo/c5535_bsl_revc/ezdsp5535_v1/c55x
     370                      .dwattr $C$DW$30, DW_AT_TI_end_line(0x419)
     371                      .dwattr $C$DW$30, DW_AT_TI_end_column(0x01)
     372                      .dwendentry
     373                      .dwendtag $C$DW$30
     374              
     375 0000ab               .sect   ".text"
     376                      .align 4
     377                      .global _main
     378              
     379              $C$DW$38        .dwtag  DW_TAG_subprogram, DW_AT_name("main")
     380                      .dwattr $C$DW$38, DW_AT_low_pc(_main)
     381                      .dwattr $C$DW$38, DW_AT_high_pc(0x00)
     382                      .dwattr $C$DW$38, DW_AT_TI_symbol_name("_main")
     383                      .dwattr $C$DW$38, DW_AT_external
     384                      .dwattr $C$DW$38, DW_AT_TI_begin_file("../c5535_bsl_revc/ezdsp5535_v1/c55xx_csl/ccs_v4.0_examples/i2c
     385                      .dwattr $C$DW$38, DW_AT_TI_begin_line(0xa7)
     386                      .dwattr $C$DW$38, DW_AT_TI_begin_column(0x06)
     387                      .dwattr $C$DW$38, DW_AT_TI_max_frame_size(0x04)
     388                      .dwpsn  file "../c5535_bsl_revc/ezdsp5535_v1/c55xx_csl/ccs_v4.0_examples/i2c/CSL_I2C_DmaExample/csl_i
     389              
     390                      .dwfde $C$DW$CIE, _main
     391              ;*******************************************************************************
     392              ;* FUNCTION NAME: main                                                         *
     393              ;*                                                                             *
     394              ;*   Function Uses Regs : T0,AR1,AR3,XAR3,SP,M40,SATA,SATD,RDM,FRCT,SMUL       *
     395              ;*   Stack Frame        : Compact (No Frame Pointer, w/ debug)                 *
     396              ;*   Total Frame Size   : 4 words                                              *
     397              ;*                        (1 return address/alignment)                         *
     398              ;*                        (2 function parameters)                              *
     399              ;*                        (1 local values)                                     *
TMS320C55x Assembler PC v4.4.1 Sat Sep 29 23:09:38 2018

Tools Copyright (c) 1996-2012 Texas Instruments Incorporated
csl_i2c_dma_example.asm                                              PAGE    9

     400              ;*   Min System Stack   : 1 word                                               *
     401              ;*******************************************************************************
     402 0000ac       _main:
     403                      .dwcfi  cfa_offset, 1
     404                      .dwcfi  save_reg_to_mem, 91, -1
     405 0000ac 4EFD          AADD #-3, SP
     406                      .dwcfi  cfa_offset, 4
     407              $C$DW$39        .dwtag  DW_TAG_variable, DW_AT_name("result")
     408                      .dwattr $C$DW$39, DW_AT_TI_symbol_name("_result")
     409                      .dwattr $C$DW$39, DW_AT_type(*$C$DW$T$86)
     410                      .dwattr $C$DW$39, DW_AT_location[DW_OP_bregx 0x24 2]
     411                      .dwpsn  file "../c5535_bsl_revc/ezdsp5535_v1/c55xx_csl/ccs_v4.0_examples/i2c/CSL_I2C_DmaExample/csl_i
     412 0000ae EC31          AMOV #$C$FSL1, XAR3 ; |171| 
         0000b0 BE00 
         0000b2 0000+
     413 0000b4 EB00          MOV XAR3, dbl(*SP(#0))
         0000b6 B5   
     414              $C$DW$40        .dwtag  DW_TAG_TI_branch
     415                      .dwattr $C$DW$40, DW_AT_low_pc(0x00)
     416                      .dwattr $C$DW$40, DW_AT_name("_printf")
     417                      .dwattr $C$DW$40, DW_AT_TI_call
     418 0000b7 6C00          CALL #_printf ; |171| 
         0000b9 0000!
     419                                                      ; call occurs [#_printf] ; |171| 
     420                      .dwpsn  file "../c5535_bsl_revc/ezdsp5535_v1/c55xx_csl/ccs_v4.0_examples/i2c/CSL_I2C_DmaExample/csl_i
     421              $C$DW$41        .dwtag  DW_TAG_TI_branch
     422                      .dwattr $C$DW$41, DW_AT_low_pc(0x00)
     423                      .dwattr $C$DW$41, DW_AT_name("_CSL_i2cDmaTest")
     424                      .dwattr $C$DW$41, DW_AT_TI_call
     425 0000bb 0800          CALL #_CSL_i2cDmaTest ; |173| 
         0000bd 36   
     426                                                      ; call occurs [#_CSL_i2cDmaTest] ; |173| 
     427 0000be C404          MOV T0, *SP(#2) ; |173| 
     428                      .dwpsn  file "../c5535_bsl_revc/ezdsp5535_v1/c55xx_csl/ccs_v4.0_examples/i2c/CSL_I2C_DmaExample/csl_i
     429 0000c0 2249          MOV T0, AR1
     430 0000c2 6799          BCC $C$L9,AR1 != #0 ; |175| 
     431                                                      ; branchcc occurs ; |175| 
     432                      .dwpsn  file "../c5535_bsl_revc/ezdsp5535_v1/c55xx_csl/ccs_v4.0_examples/i2c/CSL_I2C_DmaExample/csl_i
     433 0000c4 EC31          AMOV #$C$FSL2, XAR3 ; |177| 
         0000c6 BE00 
         0000c8 0016+
     434 0000ca EB00          MOV XAR3, dbl(*SP(#0))
         0000cc B5   
     435              $C$DW$42        .dwtag  DW_TAG_TI_branch
     436                      .dwattr $C$DW$42, DW_AT_low_pc(0x00)
     437                      .dwattr $C$DW$42, DW_AT_name("_printf")
     438                      .dwattr $C$DW$42, DW_AT_TI_call
     439 0000cd 6C00          CALL #_printf ; |177| 
         0000cf 0000!
     440                                                      ; call occurs [#_printf] ; |177| 
     441                      .dwpsn  file "../c5535_bsl_revc/ezdsp5535_v1/c55xx_csl/ccs_v4.0_examples/i2c/CSL_I2C_DmaExample/csl_i
     442 0000d1 4A13          B $C$L10  ; |178| 
     443                                                      ; branch occurs ; |178| 
     444 0000d3       $C$L9:    
     445                      .dwpsn  file "../c5535_bsl_revc/ezdsp5535_v1/c55xx_csl/ccs_v4.0_examples/i2c/CSL_I2C_DmaExample/csl_i
TMS320C55x Assembler PC v4.4.1 Sat Sep 29 23:09:38 2018

Tools Copyright (c) 1996-2012 Texas Instruments Incorporated
csl_i2c_dma_example.asm                                              PAGE   10

     446 0000d3 EC31          AMOV #$C$FSL3, XAR3 ; |181| 
         0000d5 BE00 
         0000d7 0034+
     447 0000d9 EB00          MOV XAR3, dbl(*SP(#0))
         0000db B5   
     448              $C$DW$43        .dwtag  DW_TAG_TI_branch
     449                      .dwattr $C$DW$43, DW_AT_low_pc(0x00)
     450                      .dwattr $C$DW$43, DW_AT_name("_printf")
     451                      .dwattr $C$DW$43, DW_AT_TI_call
     452 0000dc 6C00          CALL #_printf ; |181| 
         0000de 0000!
     453                                                      ; call occurs [#_printf] ; |181| 
     454                      .dwpsn  file "../c5535_bsl_revc/ezdsp5535_v1/c55xx_csl/ccs_v4.0_examples/i2c/CSL_I2C_DmaExample/csl_i
     455 0000e0 E631          MOV #0, *(#_PaSs_StAtE) ; |184| 
         0000e2 0000 
         0000e4 011B-
     456 0000e6       $C$L10:    
     457                      .dwpsn  file "../c5535_bsl_revc/ezdsp5535_v1/c55xx_csl/ccs_v4.0_examples/i2c/CSL_I2C_DmaExample/csl_i
     458 0000e6 A931          MOV *(#_PaSs_StAtE), AR1 ; |189| 
         0000e8 0001 
         0000ea 1B-  
     459 0000eb C931          MOV AR1, *(#_PaSs) ; |189| 
         0000ed 0001 
         0000ef 3C-  
     460                      .dwpsn  file "../c5535_bsl_revc/ezdsp5535_v1/c55xx_csl/ccs_v4.0_examples/i2c/CSL_I2C_DmaExample/csl_i
     461 0000f0 4E03          AADD #3, SP
     462                      .dwcfi  cfa_offset, 1
     463              $C$DW$44        .dwtag  DW_TAG_TI_branch
     464                      .dwattr $C$DW$44, DW_AT_low_pc(0x00)
     465                      .dwattr $C$DW$44, DW_AT_TI_return
     466 0000f2 4804          RET
     467                                                      ; return occurs
     468                      .dwattr $C$DW$38, DW_AT_TI_end_file("../c5535_bsl_revc/ezdsp5535_v1/c55xx_csl/ccs_v4.0_examples/i2c/C
     469                      .dwattr $C$DW$38, DW_AT_TI_end_line(0xc2)
     470                      .dwattr $C$DW$38, DW_AT_TI_end_column(0x01)
     471                      .dwendentry
     472                      .dwendtag $C$DW$38
     473              
     474 0000f4               .sect   ".text"
     475                      .align 4
     476                      .global _CSL_i2cDmaTest
     477              
     478              $C$DW$45        .dwtag  DW_TAG_subprogram, DW_AT_name("CSL_i2cDmaTest")
     479                      .dwattr $C$DW$45, DW_AT_low_pc(_CSL_i2cDmaTest)
     480                      .dwattr $C$DW$45, DW_AT_high_pc(0x00)
     481                      .dwattr $C$DW$45, DW_AT_TI_symbol_name("_CSL_i2cDmaTest")
     482                      .dwattr $C$DW$45, DW_AT_external
     483                      .dwattr $C$DW$45, DW_AT_type(*$C$DW$T$86)
     484                      .dwattr $C$DW$45, DW_AT_TI_begin_file("../c5535_bsl_revc/ezdsp5535_v1/c55xx_csl/ccs_v4.0_examples/i2c
     485                      .dwattr $C$DW$45, DW_AT_TI_begin_line(0xcc)
     486                      .dwattr $C$DW$45, DW_AT_TI_begin_column(0x0d)
     487                      .dwattr $C$DW$45, DW_AT_TI_max_frame_size(0x06)
     488                      .dwpsn  file "../c5535_bsl_revc/ezdsp5535_v1/c55xx_csl/ccs_v4.0_examples/i2c/CSL_I2C_DmaExample/csl_i
     489              
     490                      .dwfde $C$DW$CIE, _CSL_i2cDmaTest
TMS320C55x Assembler PC v4.4.1 Sat Sep 29 23:09:38 2018

Tools Copyright (c) 1996-2012 Texas Instruments Incorporated
csl_i2c_dma_example.asm                                              PAGE   11

     491              ;*******************************************************************************
     492              ;* FUNCTION NAME: CSL_i2cDmaTest                                               *
     493              ;*                                                                             *
     494              ;*   Function Uses Regs : AC0,AC0,AC1,AC1,T0,AR0,XAR0,AR1,AR2,AR3,XAR3,SP,     *
     495              ;*                        CARRY,TC1,M40,SATA,SATD,RDM,FRCT,SMUL                *
     496              ;*   Stack Frame        : Compact (No Frame Pointer, w/ debug)                 *
     497              ;*   Total Frame Size   : 6 words                                              *
     498              ;*                        (1 return address/alignment)                         *
     499              ;*                        (2 function parameters)                              *
     500              ;*                        (3 local values)                                     *
     501              ;*   Min System Stack   : 1 word                                               *
     502              ;*******************************************************************************
     503 0000f4       _CSL_i2cDmaTest:
     504                      .dwcfi  cfa_offset, 1
     505                      .dwcfi  save_reg_to_mem, 91, -1
     506 0000f4 4EFB          AADD #-5, SP
     507                      .dwcfi  cfa_offset, 6
     508              $C$DW$46        .dwtag  DW_TAG_variable, DW_AT_name("status")
     509                      .dwattr $C$DW$46, DW_AT_TI_symbol_name("_status")
     510                      .dwattr $C$DW$46, DW_AT_type(*$C$DW$T$86)
     511                      .dwattr $C$DW$46, DW_AT_location[DW_OP_bregx 0x24 2]
     512              $C$DW$47        .dwtag  DW_TAG_variable, DW_AT_name("result")
     513                      .dwattr $C$DW$47, DW_AT_TI_symbol_name("_result")
     514                      .dwattr $C$DW$47, DW_AT_type(*$C$DW$T$86)
     515                      .dwattr $C$DW$47, DW_AT_location[DW_OP_bregx 0x24 3]
     516              $C$DW$48        .dwtag  DW_TAG_variable, DW_AT_name("looper")
     517                      .dwattr $C$DW$48, DW_AT_TI_symbol_name("_looper")
     518                      .dwattr $C$DW$48, DW_AT_type(*$C$DW$T$20)
     519                      .dwattr $C$DW$48, DW_AT_location[DW_OP_bregx 0x24 4]
     520                      .dwpsn  file "../c5535_bsl_revc/ezdsp5535_v1/c55xx_csl/ccs_v4.0_examples/i2c/CSL_I2C_DmaExample/csl_i
     521 0000f6 E606          MOV #1, *SP(#3) ; |210| 
         0000f8 01   
     522                      .dwpsn  file "../c5535_bsl_revc/ezdsp5535_v1/c55xx_csl/ccs_v4.0_examples/i2c/CSL_I2C_DmaExample/csl_i
     523 0000f9 3C00          MOV #0, AC0 ; |213| 
     524 0000fb EB31          MOV AC0, dbl(*(#_gI2cWrBuf)) ; |213| 
         0000fd 0800 
         0000ff 0000-
     525                      .dwpsn  file "../c5535_bsl_revc/ezdsp5535_v1/c55xx_csl/ccs_v4.0_examples/i2c/CSL_I2C_DmaExample/csl_i
     526 000101 EB31          MOV AC0, dbl(*(#(_gI2cWrBuf+2))) ; |214| 
         000103 0800 
         000105 0002-
     527                      .dwpsn  file "../c5535_bsl_revc/ezdsp5535_v1/c55xx_csl/ccs_v4.0_examples/i2c/CSL_I2C_DmaExample/csl_i
     528 000107 E608          MOV #0, *SP(#4) ; |217| 
         000109 00   
     529 00010a 20            NOP
     530 00010b 20            NOP
     531                      .dwpsn  file "../c5535_bsl_revc/ezdsp5535_v1/c55xx_csl/ccs_v4.0_examples/i2c/CSL_I2C_DmaExample/csl_i
     532 00010c 7600          MOV #64, AR2 ; |217| 
         00010e 40A8 
     533 000110 A908          MOV *SP(#4), AR1 ; |217| 
     534 000112 1298          CMPU AR1 >= AR2, TC1 ; |217| 
         000114 A4   
     535 000115 0464          BCC $C$L12,TC1 ; |217| 
         000117 30   
     536                                                      ; branchcc occurs ; |217| 
TMS320C55x Assembler PC v4.4.1 Sat Sep 29 23:09:38 2018

Tools Copyright (c) 1996-2012 Texas Instruments Incorporated
csl_i2c_dma_example.asm                                              PAGE   12

     537 000118       $C$L11:    
     538 000118       $C$DW$L$_CSL_i2cDmaTest$2$B:
     539                      .dwpsn  file "../c5535_bsl_revc/ezdsp5535_v1/c55xx_csl/ccs_v4.0_examples/i2c/CSL_I2C_DmaExample/csl_i
     540 000118 A408          MOV *SP(#4), T0 ; |219| 
     541 00011a 4024          ADD #2, T0 ; |219| 
     542 00011c 5040          SFTL T0, #1 ; |219| 
     543 00011e EC31          AMOV #_gI2cWrBuf, XAR3 ; |219| 
         000120 BE00 
         000122 0000-
     544 000124 DF08          MOV uns(*SP(#4)), AC0 ; |219| 
         000126 05   
     545 000127 EB6B          MOV AC0, dbl(*AR3(T0)) ; |219| 
         000129 08   
     546                      .dwpsn  file "../c5535_bsl_revc/ezdsp5535_v1/c55xx_csl/ccs_v4.0_examples/i2c/CSL_I2C_DmaExample/csl_i
     547 00012a A408          MOV *SP(#4), T0 ; |220| 
     548 00012c 5040          SFTL T0, #1 ; |220| 
     549 00012e 3C00          MOV #0, AC0 ; |220| 
     550 000130 EC31          AMOV #_gI2cRdBuf, XAR3 ; |220| 
         000132 BE00 
         000134 0088-
     551 000136 EB6B          MOV AC0, dbl(*AR3(T0)) ; |220| 
         000138 08   
     552                      .dwpsn  file "../c5535_bsl_revc/ezdsp5535_v1/c55xx_csl/ccs_v4.0_examples/i2c/CSL_I2C_DmaExample/csl_i
     553 000139 F708          ADD #1, *SP(#4) ; |217| 
         00013b 0001 
     554 00013d 20            NOP
     555 00013e 20            NOP
     556 00013f 20            NOP
     557                      .dwpsn  file "../c5535_bsl_revc/ezdsp5535_v1/c55xx_csl/ccs_v4.0_examples/i2c/CSL_I2C_DmaExample/csl_i
     558 000140 A908          MOV *SP(#4), AR1 ; |217| 
     559 000142 1294          CMPU AR1 < AR2, TC1 ; |217| 
         000144 A4   
     560 000145 0464          BCC $C$L11,TC1 ; |217| 
         000147 D0   
     561                                                      ; branchcc occurs ; |217| 
     562 000148       $C$DW$L$_CSL_i2cDmaTest$2$E:
     563 000148       $C$L12:    
     564                      .dwpsn  file "../c5535_bsl_revc/ezdsp5535_v1/c55xx_csl/ccs_v4.0_examples/i2c/CSL_I2C_DmaExample/csl_i
     565              $C$DW$49        .dwtag  DW_TAG_TI_branch
     566                      .dwattr $C$DW$49, DW_AT_low_pc(0x00)
     567                      .dwattr $C$DW$49, DW_AT_name("_I2C_init")
     568                      .dwattr $C$DW$49, DW_AT_TI_call
     569              
     570 000148 6C00          CALL #_I2C_init ; |224| 
         00014a 0000!
     571 00014c 3D04  ||      MOV #0, T0
     572              
     573                                                      ; call occurs [#_I2C_init] ; |224| 
     574 00014e C404          MOV T0, *SP(#2) ; |224| 
     575                      .dwpsn  file "../c5535_bsl_revc/ezdsp5535_v1/c55xx_csl/ccs_v4.0_examples/i2c/CSL_I2C_DmaExample/csl_i
     576 000150 2249          MOV T0, AR1
     577 000152 0409          BCC $C$L13,AR1 == #0 ; |225| 
         000154 12   
     578                                                      ; branchcc occurs ; |225| 
     579                      .dwpsn  file "../c5535_bsl_revc/ezdsp5535_v1/c55xx_csl/ccs_v4.0_examples/i2c/CSL_I2C_DmaExample/csl_i
TMS320C55x Assembler PC v4.4.1 Sat Sep 29 23:09:38 2018

Tools Copyright (c) 1996-2012 Texas Instruments Incorporated
csl_i2c_dma_example.asm                                              PAGE   13

     580 000155 EC31          AMOV #$C$FSL4, XAR3 ; |227| 
         000157 BE00 
         000159 0052+
     581 00015b EB00          MOV XAR3, dbl(*SP(#0))
         00015d B5   
     582              $C$DW$50        .dwtag  DW_TAG_TI_branch
     583                      .dwattr $C$DW$50, DW_AT_low_pc(0x00)
     584                      .dwattr $C$DW$50, DW_AT_name("_printf")
     585                      .dwattr $C$DW$50, DW_AT_TI_call
     586 00015e 6C00          CALL #_printf ; |227| 
         000160 0000!
     587                                                      ; call occurs [#_printf] ; |227| 
     588                      .dwpsn  file "../c5535_bsl_revc/ezdsp5535_v1/c55xx_csl/ccs_v4.0_examples/i2c/CSL_I2C_DmaExample/csl_i
     589 000162 A406          MOV *SP(#3), T0 ; |228| 
     590 000164 0604          B $C$L42  ; |228| 
         000166 9E   
     591                                                      ; branch occurs ; |228| 
     592 000167       $C$L13:    
     593                      .dwpsn  file "../c5535_bsl_revc/ezdsp5535_v1/c55xx_csl/ccs_v4.0_examples/i2c/CSL_I2C_DmaExample/csl_i
     594              $C$DW$51        .dwtag  DW_TAG_TI_branch
     595                      .dwattr $C$DW$51, DW_AT_low_pc(0x00)
     596                      .dwattr $C$DW$51, DW_AT_name("_DMA_init")
     597                      .dwattr $C$DW$51, DW_AT_TI_call
     598 000167 6C00          CALL #_DMA_init ; |232| 
         000169 0000!
     599                                                      ; call occurs [#_DMA_init] ; |232| 
     600 00016b C404          MOV T0, *SP(#2) ; |232| 
     601                      .dwpsn  file "../c5535_bsl_revc/ezdsp5535_v1/c55xx_csl/ccs_v4.0_examples/i2c/CSL_I2C_DmaExample/csl_i
     602 00016d 2249          MOV T0, AR1
     603 00016f 0409          BCC $C$L14,AR1 == #0 ; |233| 
         000171 12   
     604                                                      ; branchcc occurs ; |233| 
     605                      .dwpsn  file "../c5535_bsl_revc/ezdsp5535_v1/c55xx_csl/ccs_v4.0_examples/i2c/CSL_I2C_DmaExample/csl_i
     606 000172 EC31          AMOV #$C$FSL5, XAR3 ; |235| 
         000174 BE00 
         000176 0066+
     607 000178 EB00          MOV XAR3, dbl(*SP(#0))
         00017a B5   
     608              $C$DW$52        .dwtag  DW_TAG_TI_branch
     609                      .dwattr $C$DW$52, DW_AT_low_pc(0x00)
     610                      .dwattr $C$DW$52, DW_AT_name("_printf")
     611                      .dwattr $C$DW$52, DW_AT_TI_call
     612 00017b 6C00          CALL #_printf ; |235| 
         00017d 0000!
     613                                                      ; call occurs [#_printf] ; |235| 
     614                      .dwpsn  file "../c5535_bsl_revc/ezdsp5535_v1/c55xx_csl/ccs_v4.0_examples/i2c/CSL_I2C_DmaExample/csl_i
     615 00017f A404          MOV *SP(#2), T0 ; |236| 
     616 000181 0604          B $C$L42  ; |236| 
         000183 81   
     617                                                      ; branch occurs ; |236| 
     618 000184       $C$L14:    
     619                      .dwpsn  file "../c5535_bsl_revc/ezdsp5535_v1/c55xx_csl/ccs_v4.0_examples/i2c/CSL_I2C_DmaExample/csl_i
     620 000184 E631          MOV #0, *(#_dmaConfig) ; |241| 
         000186 0000 
         000188 011C-
TMS320C55x Assembler PC v4.4.1 Sat Sep 29 23:09:38 2018

Tools Copyright (c) 1996-2012 Texas Instruments Incorporated
csl_i2c_dma_example.asm                                              PAGE   14

     621                      .dwpsn  file "../c5535_bsl_revc/ezdsp5535_v1/c55xx_csl/ccs_v4.0_examples/i2c/CSL_I2C_DmaExample/csl_i
     622 00018a E631          MOV #0, *(#(_dmaConfig+1)) ; |243| 
         00018c 0000 
         00018e 011D-
     623                      .dwpsn  file "../c5535_bsl_revc/ezdsp5535_v1/c55xx_csl/ccs_v4.0_examples/i2c/CSL_I2C_DmaExample/csl_i
     624 000190 E631          MOV #0, *(#(_dmaConfig+2)) ; |244| 
         000192 0000 
         000194 011E-
     625                      .dwpsn  file "../c5535_bsl_revc/ezdsp5535_v1/c55xx_csl/ccs_v4.0_examples/i2c/CSL_I2C_DmaExample/csl_i
     626 000196 E631          MOV #1, *(#(_dmaConfig+3)) ; |245| 
         000198 0100 
         00019a 011F-
     627                      .dwpsn  file "../c5535_bsl_revc/ezdsp5535_v1/c55xx_csl/ccs_v4.0_examples/i2c/CSL_I2C_DmaExample/csl_i
     628 00019c E631          MOV #1, *(#(_dmaConfig+4)) ; |246| 
         00019e 0100 
         0001a0 0120-
     629                      .dwpsn  file "../c5535_bsl_revc/ezdsp5535_v1/c55xx_csl/ccs_v4.0_examples/i2c/CSL_I2C_DmaExample/csl_i
     630 0001a2 E631          MOV #0, *(#(_dmaConfig+5)) ; |247| 
         0001a4 0000 
         0001a6 0121-
     631                      .dwpsn  file "../c5535_bsl_revc/ezdsp5535_v1/c55xx_csl/ccs_v4.0_examples/i2c/CSL_I2C_DmaExample/csl_i
     632 0001a8 E631          MOV #1, *(#(_dmaConfig+6)) ; |248| 
         0001aa 0100 
         0001ac 0122-
     633                      .dwpsn  file "../c5535_bsl_revc/ezdsp5535_v1/c55xx_csl/ccs_v4.0_examples/i2c/CSL_I2C_DmaExample/csl_i
     634 0001ae E631          MOV #0, *(#(_dmaConfig+7)) ; |249| 
         0001b0 0000 
         0001b2 0123-
     635                      .dwpsn  file "../c5535_bsl_revc/ezdsp5535_v1/c55xx_csl/ccs_v4.0_examples/i2c/CSL_I2C_DmaExample/csl_i
     636 0001b4 FB31          MOV #264, *(#(_dmaConfig+8)) ; |250| 
         0001b6 0108 
         0001b8 0001 
         0001ba 24-  
     637                      .dwpsn  file "../c5535_bsl_revc/ezdsp5535_v1/c55xx_csl/ccs_v4.0_examples/i2c/CSL_I2C_DmaExample/csl_i
     638 0001bb 7A00          MOV #(_gI2cWrBuf >> 16) << #16, AC0 ; |251| 
         0001bd 000A%
     639 0001bf 7E00          OR #(_gI2cWrBuf & 0xffff), AC0, AC0 ; |251| 
         0001c1 0000%
     640 0001c3 EB31          MOV AC0, dbl(*(#(_dmaConfig+10))) ; |251| 
         0001c5 0800 
         0001c7 0126-
     641                      .dwpsn  file "../c5535_bsl_revc/ezdsp5535_v1/c55xx_csl/ccs_v4.0_examples/i2c/CSL_I2C_DmaExample/csl_i
     642 0001c9 ED31          MOV dbl(*(#_i2cHandle)), XAR3
         0001cb BF00 
         0001cd 0000!
     643 0001cf DF61          MOV uns(*AR3), AC0 ; |252| 
         0001d1 05   
     644 0001d2 900B          MOV AC0, XAR3
     645 0001d4 1420          AADD #32, AR3 ; |252| 
         0001d6 B4   
     646 0001d7 90B0          MOV XAR3, AC0
     647 0001d9 EB31          MOV AC0, dbl(*(#(_dmaConfig+12))) ; |252| 
         0001db 0800 
         0001dd 0128-
     648                      .dwpsn  file "../c5535_bsl_revc/ezdsp5535_v1/c55xx_csl/ccs_v4.0_examples/i2c/CSL_I2C_DmaExample/csl_i
TMS320C55x Assembler PC v4.4.1 Sat Sep 29 23:09:38 2018

Tools Copyright (c) 1996-2012 Texas Instruments Incorporated
csl_i2c_dma_example.asm                                              PAGE   15

     649 0001df EC31          AMOV #_dmaWrChanObj, XAR0 ; |254| 
         0001e1 8E00 
         0001e3 012A-
     650              $C$DW$53        .dwtag  DW_TAG_TI_branch
     651                      .dwattr $C$DW$53, DW_AT_low_pc(0x00)
     652                      .dwattr $C$DW$53, DW_AT_name("_CSL_configDmaForI2c")
     653                      .dwattr $C$DW$53, DW_AT_TI_call
     654              
     655 0001e5 0804          CALL #_CSL_configDmaForI2c ; |254| 
         0001e7 22   
     656 0001e8 3D84  ||      MOV #8, T0
     657              
     658                                                      ; call occurs [#_CSL_configDmaForI2c] ; |254| 
     659 0001ea EB31          MOV XAR0, dbl(*(#_dmaWrHandle))
         0001ec 8500 
         0001ee 0084-
     660                      .dwpsn  file "../c5535_bsl_revc/ezdsp5535_v1/c55xx_csl/ccs_v4.0_examples/i2c/CSL_I2C_DmaExample/csl_i
     661 0001f0 ED31          MOV dbl(*(#_dmaWrHandle)), XAR3
         0001f2 BF00 
         0001f4 0084-
     662 0001f6 90B0          MOV XAR3, AC0
     663 0001f8 0410          BCC $C$L15,AC0 != #0 ; |255| 
         0001fa 12   
     664                                                      ; branchcc occurs ; |255| 
     665                      .dwpsn  file "../c5535_bsl_revc/ezdsp5535_v1/c55xx_csl/ccs_v4.0_examples/i2c/CSL_I2C_DmaExample/csl_i
     666 0001fb EC31          AMOV #$C$FSL6, XAR3 ; |257| 
         0001fd BE00 
         0001ff 0078+
     667 000201 EB00          MOV XAR3, dbl(*SP(#0))
         000203 B5   
     668              $C$DW$54        .dwtag  DW_TAG_TI_branch
     669                      .dwattr $C$DW$54, DW_AT_low_pc(0x00)
     670                      .dwattr $C$DW$54, DW_AT_name("_printf")
     671                      .dwattr $C$DW$54, DW_AT_TI_call
     672 000204 6C00          CALL #_printf ; |257| 
         000206 0000!
     673                                                      ; call occurs [#_printf] ; |257| 
     674                      .dwpsn  file "../c5535_bsl_revc/ezdsp5535_v1/c55xx_csl/ccs_v4.0_examples/i2c/CSL_I2C_DmaExample/csl_i
     675 000208 3C14          MOV #1, T0
     676 00020a 0603          B $C$L42  ; |258| 
         00020c F8   
     677                                                      ; branch occurs ; |258| 
     678 00020d       $C$L15:    
     679                      .dwpsn  file "../c5535_bsl_revc/ezdsp5535_v1/c55xx_csl/ccs_v4.0_examples/i2c/CSL_I2C_DmaExample/csl_i
     680 00020d E631          MOV #0, *(#_dmaConfig) ; |263| 
         00020f 0000 
         000211 011C-
     681                      .dwpsn  file "../c5535_bsl_revc/ezdsp5535_v1/c55xx_csl/ccs_v4.0_examples/i2c/CSL_I2C_DmaExample/csl_i
     682 000213 E631          MOV #0, *(#(_dmaConfig+1)) ; |265| 
         000215 0000 
         000217 011D-
     683                      .dwpsn  file "../c5535_bsl_revc/ezdsp5535_v1/c55xx_csl/ccs_v4.0_examples/i2c/CSL_I2C_DmaExample/csl_i
     684 000219 E631          MOV #0, *(#(_dmaConfig+2)) ; |266| 
         00021b 0000 
         00021d 011E-
TMS320C55x Assembler PC v4.4.1 Sat Sep 29 23:09:38 2018

Tools Copyright (c) 1996-2012 Texas Instruments Incorporated
csl_i2c_dma_example.asm                                              PAGE   16

     685                      .dwpsn  file "../c5535_bsl_revc/ezdsp5535_v1/c55xx_csl/ccs_v4.0_examples/i2c/CSL_I2C_DmaExample/csl_i
     686 00021f E631          MOV #1, *(#(_dmaConfig+3)) ; |267| 
         000221 0100 
         000223 011F-
     687                      .dwpsn  file "../c5535_bsl_revc/ezdsp5535_v1/c55xx_csl/ccs_v4.0_examples/i2c/CSL_I2C_DmaExample/csl_i
     688 000225 E631          MOV #2, *(#(_dmaConfig+4)) ; |268| 
         000227 0200 
         000229 0120-
     689                      .dwpsn  file "../c5535_bsl_revc/ezdsp5535_v1/c55xx_csl/ccs_v4.0_examples/i2c/CSL_I2C_DmaExample/csl_i
     690 00022b E631          MOV #0, *(#(_dmaConfig+5)) ; |269| 
         00022d 0000 
         00022f 0121-
     691                      .dwpsn  file "../c5535_bsl_revc/ezdsp5535_v1/c55xx_csl/ccs_v4.0_examples/i2c/CSL_I2C_DmaExample/csl_i
     692 000231 E631          MOV #0, *(#(_dmaConfig+6)) ; |270| 
         000233 0000 
         000235 0122-
     693                      .dwpsn  file "../c5535_bsl_revc/ezdsp5535_v1/c55xx_csl/ccs_v4.0_examples/i2c/CSL_I2C_DmaExample/csl_i
     694 000237 E631          MOV #0, *(#(_dmaConfig+7)) ; |271| 
         000239 0000 
         00023b 0123-
     695                      .dwpsn  file "../c5535_bsl_revc/ezdsp5535_v1/c55xx_csl/ccs_v4.0_examples/i2c/CSL_I2C_DmaExample/csl_i
     696 00023d FB31          MOV #256, *(#(_dmaConfig+8)) ; |272| 
         00023f 0100 
         000241 0001 
         000243 24-  
     697                      .dwpsn  file "../c5535_bsl_revc/ezdsp5535_v1/c55xx_csl/ccs_v4.0_examples/i2c/CSL_I2C_DmaExample/csl_i
     698 000244 ED31          MOV dbl(*(#_i2cHandle)), XAR3
         000246 BF00 
         000248 0000!
     699 00024a DF61          MOV uns(*AR3), AC0 ; |273| 
         00024c 05   
     700 00024d 900B          MOV AC0, XAR3
     701 00024f 1418          AADD #24, AR3 ; |273| 
         000251 B4   
     702 000252 90B0          MOV XAR3, AC0
     703 000254 EB31          MOV AC0, dbl(*(#(_dmaConfig+10))) ; |273| 
         000256 0800 
         000258 0126-
     704                      .dwpsn  file "../c5535_bsl_revc/ezdsp5535_v1/c55xx_csl/ccs_v4.0_examples/i2c/CSL_I2C_DmaExample/csl_i
     705 00025a 7A00          MOV #(_gI2cRdBuf >> 16) << #16, AC0 ; |274| 
         00025c 000A%
     706 00025e 7E00          OR #(_gI2cRdBuf & 0xffff), AC0, AC0 ; |274| 
         000260 0000%
     707 000262 EB31          MOV AC0, dbl(*(#(_dmaConfig+12))) ; |274| 
         000264 0800 
         000266 0128-
     708                      .dwpsn  file "../c5535_bsl_revc/ezdsp5535_v1/c55xx_csl/ccs_v4.0_examples/i2c/CSL_I2C_DmaExample/csl_i
     709 000268 EC31          AMOV #_dmaRdChanObj, XAR0 ; |276| 
         00026a 8E00 
         00026c 0133-
     710              $C$DW$55        .dwtag  DW_TAG_TI_branch
     711                      .dwattr $C$DW$55, DW_AT_low_pc(0x00)
     712                      .dwattr $C$DW$55, DW_AT_name("_CSL_configDmaForI2c")
     713                      .dwattr $C$DW$55, DW_AT_TI_call
     714              
TMS320C55x Assembler PC v4.4.1 Sat Sep 29 23:09:38 2018

Tools Copyright (c) 1996-2012 Texas Instruments Incorporated
csl_i2c_dma_example.asm                                              PAGE   17

     715 00026e 0803          CALL #_CSL_configDmaForI2c ; |276| 
         000270 99   
     716 000271 3D94  ||      MOV #9, T0
     717              
     718                                                      ; call occurs [#_CSL_configDmaForI2c] ; |276| 
     719 000273 EB31          MOV XAR0, dbl(*(#_dmaRdHandle))
         000275 8500 
         000277 0086-
     720                      .dwpsn  file "../c5535_bsl_revc/ezdsp5535_v1/c55xx_csl/ccs_v4.0_examples/i2c/CSL_I2C_DmaExample/csl_i
     721 000279 ED31          MOV dbl(*(#_dmaRdHandle)), XAR3
         00027b BF00 
         00027d 0086-
     722 00027f 90B0          MOV XAR3, AC0
     723 000281 0410          BCC $C$L16,AC0 != #0 ; |277| 
         000283 12   
     724                                                      ; branchcc occurs ; |277| 
     725                      .dwpsn  file "../c5535_bsl_revc/ezdsp5535_v1/c55xx_csl/ccs_v4.0_examples/i2c/CSL_I2C_DmaExample/csl_i
     726 000284 EC31          AMOV #$C$FSL7, XAR3 ; |279| 
         000286 BE00 
         000288 009C+
     727 00028a EB00          MOV XAR3, dbl(*SP(#0))
         00028c B5   
     728              $C$DW$56        .dwtag  DW_TAG_TI_branch
     729                      .dwattr $C$DW$56, DW_AT_low_pc(0x00)
     730                      .dwattr $C$DW$56, DW_AT_name("_printf")
     731                      .dwattr $C$DW$56, DW_AT_TI_call
     732 00028d 6C00          CALL #_printf ; |279| 
         00028f 0000!
     733                                                      ; call occurs [#_printf] ; |279| 
     734                      .dwpsn  file "../c5535_bsl_revc/ezdsp5535_v1/c55xx_csl/ccs_v4.0_examples/i2c/CSL_I2C_DmaExample/csl_i
     735 000291 3C14          MOV #1, T0
     736 000293 0603          B $C$L42  ; |280| 
         000295 6F   
     737                                                      ; branch occurs ; |280| 
     738 000296       $C$L16:    
     739                      .dwpsn  file "../c5535_bsl_revc/ezdsp5535_v1/c55xx_csl/ccs_v4.0_examples/i2c/CSL_I2C_DmaExample/csl_i
     740 000296 E631          MOV #47, *(#_i2cConfig) ; |284| 
         000298 2F00 
         00029a 0112-
     741                      .dwpsn  file "../c5535_bsl_revc/ezdsp5535_v1/c55xx_csl/ccs_v4.0_examples/i2c/CSL_I2C_DmaExample/csl_i
     742 00029c E631          MOV #0, *(#(_i2cConfig+1)) ; |285| 
         00029e 0000 
         0002a0 0113-
     743                      .dwpsn  file "../c5535_bsl_revc/ezdsp5535_v1/c55xx_csl/ccs_v4.0_examples/i2c/CSL_I2C_DmaExample/csl_i
     744 0002a2 FB31          MOV #620, *(#(_i2cConfig+2)) ; |286| 
         0002a4 026C 
         0002a6 0001 
         0002a8 14-  
     745                      .dwpsn  file "../c5535_bsl_revc/ezdsp5535_v1/c55xx_csl/ccs_v4.0_examples/i2c/CSL_I2C_DmaExample/csl_i
     746 0002a9 FB31          MOV #620, *(#(_i2cConfig+3)) ; |287| 
         0002ab 026C 
         0002ad 0001 
         0002af 15-  
     747                      .dwpsn  file "../c5535_bsl_revc/ezdsp5535_v1/c55xx_csl/ccs_v4.0_examples/i2c/CSL_I2C_DmaExample/csl_i
     748 0002b0 E631          MOV #66, *(#(_i2cConfig+4)) ; |288| 
TMS320C55x Assembler PC v4.4.1 Sat Sep 29 23:09:38 2018

Tools Copyright (c) 1996-2012 Texas Instruments Incorporated
csl_i2c_dma_example.asm                                              PAGE   18

         0002b2 4200 
         0002b4 0116-
     749                      .dwpsn  file "../c5535_bsl_revc/ezdsp5535_v1/c55xx_csl/ccs_v4.0_examples/i2c/CSL_I2C_DmaExample/csl_i
     750 0002b6 E631          MOV #80, *(#(_i2cConfig+5)) ; |289| 
         0002b8 5000 
         0002ba 0117-
     751                      .dwpsn  file "../c5535_bsl_revc/ezdsp5535_v1/c55xx_csl/ccs_v4.0_examples/i2c/CSL_I2C_DmaExample/csl_i
     752 0002bc FB31          MOV #3616, *(#(_i2cConfig+6)) ; |290| 
         0002be 0E20 
         0002c0 0001 
         0002c2 18-  
     753                      .dwpsn  file "../c5535_bsl_revc/ezdsp5535_v1/c55xx_csl/ccs_v4.0_examples/i2c/CSL_I2C_DmaExample/csl_i
     754 0002c3 E631          MOV #0, *(#(_i2cConfig+7)) ; |291| 
         0002c5 0000 
         0002c7 0119-
     755                      .dwpsn  file "../c5535_bsl_revc/ezdsp5535_v1/c55xx_csl/ccs_v4.0_examples/i2c/CSL_I2C_DmaExample/csl_i
     756 0002c9 E631          MOV #7, *(#(_i2cConfig+8)) ; |292| 
         0002cb 0700 
         0002cd 011A-
     757                      .dwpsn  file "../c5535_bsl_revc/ezdsp5535_v1/c55xx_csl/ccs_v4.0_examples/i2c/CSL_I2C_DmaExample/csl_i
     758 0002cf EC31          AMOV #_i2cConfig, XAR0 ; |294| 
         0002d1 8E00 
         0002d3 0112-
     759              $C$DW$57        .dwtag  DW_TAG_TI_branch
     760                      .dwattr $C$DW$57, DW_AT_low_pc(0x00)
     761                      .dwattr $C$DW$57, DW_AT_name("_I2C_config")
     762                      .dwattr $C$DW$57, DW_AT_TI_call
     763 0002d5 6C00          CALL #_I2C_config ; |294| 
         0002d7 0000!
     764                                                      ; call occurs [#_I2C_config] ; |294| 
     765 0002d9 C404          MOV T0, *SP(#2) ; |294| 
     766                      .dwpsn  file "../c5535_bsl_revc/ezdsp5535_v1/c55xx_csl/ccs_v4.0_examples/i2c/CSL_I2C_DmaExample/csl_i
     767 0002db 2249          MOV T0, AR1
     768 0002dd 0409          BCC $C$L17,AR1 == #0 ; |295| 
         0002df 12   
     769                                                      ; branchcc occurs ; |295| 
     770                      .dwpsn  file "../c5535_bsl_revc/ezdsp5535_v1/c55xx_csl/ccs_v4.0_examples/i2c/CSL_I2C_DmaExample/csl_i
     771 0002e0 EC31          AMOV #$C$FSL8, XAR3 ; |297| 
         0002e2 BE00 
         0002e4 00BE+
     772 0002e6 EB00          MOV XAR3, dbl(*SP(#0))
         0002e8 B5   
     773              $C$DW$58        .dwtag  DW_TAG_TI_branch
     774                      .dwattr $C$DW$58, DW_AT_low_pc(0x00)
     775                      .dwattr $C$DW$58, DW_AT_name("_printf")
     776                      .dwattr $C$DW$58, DW_AT_TI_call
     777 0002e9 6C00          CALL #_printf ; |297| 
         0002eb 0000!
     778                                                      ; call occurs [#_printf] ; |297| 
     779                      .dwpsn  file "../c5535_bsl_revc/ezdsp5535_v1/c55xx_csl/ccs_v4.0_examples/i2c/CSL_I2C_DmaExample/csl_i
     780 0002ed A406          MOV *SP(#3), T0 ; |298| 
     781 0002ef 0603          B $C$L42  ; |298| 
         0002f1 13   
     782                                                      ; branch occurs ; |298| 
     783 0002f2       $C$L17:    
TMS320C55x Assembler PC v4.4.1 Sat Sep 29 23:09:38 2018

Tools Copyright (c) 1996-2012 Texas Instruments Incorporated
csl_i2c_dma_example.asm                                              PAGE   19

     784                      .dwpsn  file "../c5535_bsl_revc/ezdsp5535_v1/c55xx_csl/ccs_v4.0_examples/i2c/CSL_I2C_DmaExample/csl_i
     785 0002f2 ED31          MOV dbl(*(#_dmaWrHandle)), XAR0
         0002f4 8F00 
         0002f6 0084-
     786              $C$DW$59        .dwtag  DW_TAG_TI_branch
     787                      .dwattr $C$DW$59, DW_AT_low_pc(0x00)
     788                      .dwattr $C$DW$59, DW_AT_name("_DMA_start")
     789                      .dwattr $C$DW$59, DW_AT_TI_call
     790 0002f8 6C00          CALL #_DMA_start ; |302| 
         0002fa 0000!
     791                                                      ; call occurs [#_DMA_start] ; |302| 
     792 0002fc C404          MOV T0, *SP(#2) ; |302| 
     793                      .dwpsn  file "../c5535_bsl_revc/ezdsp5535_v1/c55xx_csl/ccs_v4.0_examples/i2c/CSL_I2C_DmaExample/csl_i
     794 0002fe 2249          MOV T0, AR1
     795 000300 0409          BCC $C$L18,AR1 == #0 ; |303| 
         000302 12   
     796                                                      ; branchcc occurs ; |303| 
     797                      .dwpsn  file "../c5535_bsl_revc/ezdsp5535_v1/c55xx_csl/ccs_v4.0_examples/i2c/CSL_I2C_DmaExample/csl_i
     798 000303 EC31          AMOV #$C$FSL9, XAR3 ; |305| 
         000305 BE00 
         000307 00D4+
     799 000309 EB00          MOV XAR3, dbl(*SP(#0))
         00030b B5   
     800              $C$DW$60        .dwtag  DW_TAG_TI_branch
     801                      .dwattr $C$DW$60, DW_AT_low_pc(0x00)
     802                      .dwattr $C$DW$60, DW_AT_name("_printf")
     803                      .dwattr $C$DW$60, DW_AT_TI_call
     804 00030c 6C00          CALL #_printf ; |305| 
         00030e 0000!
     805                                                      ; call occurs [#_printf] ; |305| 
     806                      .dwpsn  file "../c5535_bsl_revc/ezdsp5535_v1/c55xx_csl/ccs_v4.0_examples/i2c/CSL_I2C_DmaExample/csl_i
     807 000310 A406          MOV *SP(#3), T0 ; |306| 
     808 000312 0602          B $C$L42  ; |306| 
         000314 F0   
     809                                                      ; branch occurs ; |306| 
     810 000315       $C$L18:    
     811                      .dwpsn  file "../c5535_bsl_revc/ezdsp5535_v1/c55xx_csl/ccs_v4.0_examples/i2c/CSL_I2C_DmaExample/csl_i
     812 000315 A951          MOV *port(#6692), AR1 ; |310| 
         000317 1A24 
     813 000319 EC1A          BCLR @#13, AR1 ; |310| 
         00031b 92   
     814 00031c EC1A          BSET @#13, AR1 ; |310| 
         00031e 90   
     815 00031f C951          MOV AR1, *port(#6692) ; |310| 
         000321 1A24 
     816                      .dwpsn  file "../c5535_bsl_revc/ezdsp5535_v1/c55xx_csl/ccs_v4.0_examples/i2c/CSL_I2C_DmaExample/csl_i
     817 000323 ED31          MOV dbl(*(#_dmaWrHandle)), XAR0
         000325 8F00 
         000327 0084-
     818              $C$DW$61        .dwtag  DW_TAG_TI_branch
     819                      .dwattr $C$DW$61, DW_AT_low_pc(0x00)
     820                      .dwattr $C$DW$61, DW_AT_name("_DMA_getStatus")
     821                      .dwattr $C$DW$61, DW_AT_TI_call
     822 000329 08FC          CALL #_DMA_getStatus ; |313| 
         00032b D4   
TMS320C55x Assembler PC v4.4.1 Sat Sep 29 23:09:38 2018

Tools Copyright (c) 1996-2012 Texas Instruments Incorporated
csl_i2c_dma_example.asm                                              PAGE   20

     823                                                      ; call occurs [#_DMA_getStatus] ; |313| 
     824 00032c 6604          BCC $C$L20,T0 == #0 ; |313| 
     825                                                      ; branchcc occurs ; |313| 
     826 00032e       $C$L19:    
     827 00032e       $C$DW$L$_CSL_i2cDmaTest$16$B:
     828 00032e ED31          MOV dbl(*(#_dmaWrHandle)), XAR0
         000330 8F00 
         000332 0084-
     829              $C$DW$62        .dwtag  DW_TAG_TI_branch
     830                      .dwattr $C$DW$62, DW_AT_low_pc(0x00)
     831                      .dwattr $C$DW$62, DW_AT_name("_DMA_getStatus")
     832                      .dwattr $C$DW$62, DW_AT_TI_call
     833 000334 08FC          CALL #_DMA_getStatus ; |313| 
         000336 C9   
     834                                                      ; call occurs [#_DMA_getStatus] ; |313| 
     835 000337 0414          BCC $C$L19,T0 != #0 ; |313| 
         000339 F4   
     836                                                      ; branchcc occurs ; |313| 
     837 00033a       $C$DW$L$_CSL_i2cDmaTest$16$E:
     838 00033a       $C$L20:    
     839                      .dwpsn  file "../c5535_bsl_revc/ezdsp5535_v1/c55xx_csl/ccs_v4.0_examples/i2c/CSL_I2C_DmaExample/csl_i
     840 00033a EC31          AMOV #$C$FSL10, XAR3 ; |315| 
         00033c BE00 
         00033e 00EC+
     841 000340 EB00          MOV XAR3, dbl(*SP(#0))
         000342 B5   
     842              $C$DW$63        .dwtag  DW_TAG_TI_branch
     843                      .dwattr $C$DW$63, DW_AT_low_pc(0x00)
     844                      .dwattr $C$DW$63, DW_AT_name("_printf")
     845                      .dwattr $C$DW$63, DW_AT_TI_call
     846 000343 6C00          CALL #_printf ; |315| 
         000345 0000!
     847                                                      ; call occurs [#_printf] ; |315| 
     848                      .dwpsn  file "../c5535_bsl_revc/ezdsp5535_v1/c55xx_csl/ccs_v4.0_examples/i2c/CSL_I2C_DmaExample/csl_i
     849 000347 E608          MOV #0, *SP(#4) ; |318| 
         000349 00   
     850 00034a 20            NOP
     851 00034b 20            NOP
     852                      .dwpsn  file "../c5535_bsl_revc/ezdsp5535_v1/c55xx_csl/ccs_v4.0_examples/i2c/CSL_I2C_DmaExample/csl_i
     853 00034c 76FF          MOV #65535, AR2 ; |318| 
         00034e FFA8 
     854 000350 A908          MOV *SP(#4), AR1 ; |318| 
     855 000352 1298          CMPU AR1 >= AR2, TC1 ; |318| 
         000354 A4   
     856 000355 67E4          BCC $C$L22,TC1 ; |318| 
     857                                                      ; branchcc occurs ; |318| 
     858 000357       $C$L21:    
     859 000357       $C$DW$L$_CSL_i2cDmaTest$18$B:
     860                      .dwpsn  file "../c5535_bsl_revc/ezdsp5535_v1/c55xx_csl/ccs_v4.0_examples/i2c/CSL_I2C_DmaExample/csl_i
     861 000357 F708          ADD #1, *SP(#4) ; |318| 
         000359 0001 
     862 00035b 20            NOP
     863 00035c 20            NOP
     864 00035d 20            NOP
     865                      .dwpsn  file "../c5535_bsl_revc/ezdsp5535_v1/c55xx_csl/ccs_v4.0_examples/i2c/CSL_I2C_DmaExample/csl_i
TMS320C55x Assembler PC v4.4.1 Sat Sep 29 23:09:38 2018

Tools Copyright (c) 1996-2012 Texas Instruments Incorporated
csl_i2c_dma_example.asm                                              PAGE   21

     866 00035e A908          MOV *SP(#4), AR1 ; |318| 
     867 000360 1294          CMPU AR1 < AR2, TC1 ; |318| 
         000362 A4   
     868 000363 0464          BCC $C$L21,TC1 ; |318| 
         000365 F1   
     869                                                      ; branchcc occurs ; |318| 
     870 000366       $C$DW$L$_CSL_i2cDmaTest$18$E:
     871 000366       $C$L22:    
     872                      .dwpsn  file "../c5535_bsl_revc/ezdsp5535_v1/c55xx_csl/ccs_v4.0_examples/i2c/CSL_I2C_DmaExample/csl_i
     873 000366 E608          MOV #0, *SP(#4) ; |319| 
         000368 00   
     874 000369 20            NOP
     875 00036a 20            NOP
     876 00036b 20            NOP
     877                      .dwpsn  file "../c5535_bsl_revc/ezdsp5535_v1/c55xx_csl/ccs_v4.0_examples/i2c/CSL_I2C_DmaExample/csl_i
     878 00036c A908          MOV *SP(#4), AR1 ; |319| 
     879 00036e 1298          CMPU AR1 >= AR2, TC1 ; |319| 
         000370 A4   
     880 000371 67E4          BCC $C$L24,TC1 ; |319| 
     881                                                      ; branchcc occurs ; |319| 
     882 000373       $C$L23:    
     883 000373       $C$DW$L$_CSL_i2cDmaTest$20$B:
     884                      .dwpsn  file "../c5535_bsl_revc/ezdsp5535_v1/c55xx_csl/ccs_v4.0_examples/i2c/CSL_I2C_DmaExample/csl_i
     885 000373 F708          ADD #1, *SP(#4) ; |319| 
         000375 0001 
     886 000377 20            NOP
     887 000378 20            NOP
     888 000379 20            NOP
     889                      .dwpsn  file "../c5535_bsl_revc/ezdsp5535_v1/c55xx_csl/ccs_v4.0_examples/i2c/CSL_I2C_DmaExample/csl_i
     890 00037a A908          MOV *SP(#4), AR1 ; |319| 
     891 00037c 1294          CMPU AR1 < AR2, TC1 ; |319| 
         00037e A4   
     892 00037f 0464          BCC $C$L23,TC1 ; |319| 
         000381 F1   
     893                                                      ; branchcc occurs ; |319| 
     894 000382       $C$DW$L$_CSL_i2cDmaTest$20$E:
     895 000382       $C$L24:    
     896                      .dwpsn  file "../c5535_bsl_revc/ezdsp5535_v1/c55xx_csl/ccs_v4.0_examples/i2c/CSL_I2C_DmaExample/csl_i
     897 000382 E631          MOV #0, *(#_dmaConfig) ; |324| 
         000384 0000 
         000386 011C-
     898                      .dwpsn  file "../c5535_bsl_revc/ezdsp5535_v1/c55xx_csl/ccs_v4.0_examples/i2c/CSL_I2C_DmaExample/csl_i
     899 000388 E631          MOV #0, *(#(_dmaConfig+1)) ; |326| 
         00038a 0000 
         00038c 011D-
     900                      .dwpsn  file "../c5535_bsl_revc/ezdsp5535_v1/c55xx_csl/ccs_v4.0_examples/i2c/CSL_I2C_DmaExample/csl_i
     901 00038e E631          MOV #0, *(#(_dmaConfig+2)) ; |327| 
         000390 0000 
         000392 011E-
     902                      .dwpsn  file "../c5535_bsl_revc/ezdsp5535_v1/c55xx_csl/ccs_v4.0_examples/i2c/CSL_I2C_DmaExample/csl_i
     903 000394 E631          MOV #1, *(#(_dmaConfig+3)) ; |328| 
         000396 0100 
         000398 011F-
     904                      .dwpsn  file "../c5535_bsl_revc/ezdsp5535_v1/c55xx_csl/ccs_v4.0_examples/i2c/CSL_I2C_DmaExample/csl_i
     905 00039a E631          MOV #1, *(#(_dmaConfig+4)) ; |329| 
TMS320C55x Assembler PC v4.4.1 Sat Sep 29 23:09:38 2018

Tools Copyright (c) 1996-2012 Texas Instruments Incorporated
csl_i2c_dma_example.asm                                              PAGE   22

         00039c 0100 
         00039e 0120-
     906                      .dwpsn  file "../c5535_bsl_revc/ezdsp5535_v1/c55xx_csl/ccs_v4.0_examples/i2c/CSL_I2C_DmaExample/csl_i
     907 0003a0 E631          MOV #0, *(#(_dmaConfig+5)) ; |330| 
         0003a2 0000 
         0003a4 0121-
     908                      .dwpsn  file "../c5535_bsl_revc/ezdsp5535_v1/c55xx_csl/ccs_v4.0_examples/i2c/CSL_I2C_DmaExample/csl_i
     909 0003a6 E631          MOV #1, *(#(_dmaConfig+6)) ; |331| 
         0003a8 0100 
         0003aa 0122-
     910                      .dwpsn  file "../c5535_bsl_revc/ezdsp5535_v1/c55xx_csl/ccs_v4.0_examples/i2c/CSL_I2C_DmaExample/csl_i
     911 0003ac E631          MOV #0, *(#(_dmaConfig+7)) ; |332| 
         0003ae 0000 
         0003b0 0123-
     912                      .dwpsn  file "../c5535_bsl_revc/ezdsp5535_v1/c55xx_csl/ccs_v4.0_examples/i2c/CSL_I2C_DmaExample/csl_i
     913 0003b2 E631          MOV #8, *(#(_dmaConfig+8)) ; |333| 
         0003b4 0800 
         0003b6 0124-
     914                      .dwpsn  file "../c5535_bsl_revc/ezdsp5535_v1/c55xx_csl/ccs_v4.0_examples/i2c/CSL_I2C_DmaExample/csl_i
     915 0003b8 7A00          MOV #(_gI2cWrBuf >> 16) << #16, AC0 ; |334| 
         0003ba 000A%
     916 0003bc 7E00          OR #(_gI2cWrBuf & 0xffff), AC0, AC0 ; |334| 
         0003be 0000%
     917 0003c0 EB31          MOV AC0, dbl(*(#(_dmaConfig+10))) ; |334| 
         0003c2 0800 
         0003c4 0126-
     918                      .dwpsn  file "../c5535_bsl_revc/ezdsp5535_v1/c55xx_csl/ccs_v4.0_examples/i2c/CSL_I2C_DmaExample/csl_i
     919 0003c6 ED31          MOV dbl(*(#_i2cHandle)), XAR3
         0003c8 BF00 
         0003ca 0000!
     920 0003cc DF61          MOV uns(*AR3), AC0 ; |335| 
         0003ce 05   
     921 0003cf 900B          MOV AC0, XAR3
     922 0003d1 1420          AADD #32, AR3 ; |335| 
         0003d3 B4   
     923 0003d4 90B0          MOV XAR3, AC0
     924 0003d6 EB31          MOV AC0, dbl(*(#(_dmaConfig+12))) ; |335| 
         0003d8 0800 
         0003da 0128-
     925                      .dwpsn  file "../c5535_bsl_revc/ezdsp5535_v1/c55xx_csl/ccs_v4.0_examples/i2c/CSL_I2C_DmaExample/csl_i
     926 0003dc EC31          AMOV #_dmaWrChanObj, XAR0 ; |337| 
         0003de 8E00 
         0003e0 012A-
     927              $C$DW$64        .dwtag  DW_TAG_TI_branch
     928                      .dwattr $C$DW$64, DW_AT_low_pc(0x00)
     929                      .dwattr $C$DW$64, DW_AT_name("_CSL_configDmaForI2c")
     930                      .dwattr $C$DW$64, DW_AT_TI_call
     931              
     932 0003e2 0802          CALL #_CSL_configDmaForI2c ; |337| 
         0003e4 25   
     933 0003e5 3D84  ||      MOV #8, T0
     934              
     935                                                      ; call occurs [#_CSL_configDmaForI2c] ; |337| 
     936 0003e7 EB31          MOV XAR0, dbl(*(#_dmaWrHandle))
         0003e9 8500 
TMS320C55x Assembler PC v4.4.1 Sat Sep 29 23:09:38 2018

Tools Copyright (c) 1996-2012 Texas Instruments Incorporated
csl_i2c_dma_example.asm                                              PAGE   23

         0003eb 0084-
     937                      .dwpsn  file "../c5535_bsl_revc/ezdsp5535_v1/c55xx_csl/ccs_v4.0_examples/i2c/CSL_I2C_DmaExample/csl_i
     938 0003ed ED31          MOV dbl(*(#_dmaWrHandle)), XAR3
         0003ef BF00 
         0003f1 0084-
     939 0003f3 90B0          MOV XAR3, AC0
     940 0003f5 0410          BCC $C$L25,AC0 != #0 ; |338| 
         0003f7 12   
     941                                                      ; branchcc occurs ; |338| 
     942                      .dwpsn  file "../c5535_bsl_revc/ezdsp5535_v1/c55xx_csl/ccs_v4.0_examples/i2c/CSL_I2C_DmaExample/csl_i
     943 0003f8 EC31          AMOV #$C$FSL6, XAR3 ; |340| 
         0003fa BE00 
         0003fc 0078+
     944 0003fe EB00          MOV XAR3, dbl(*SP(#0))
         000400 B5   
     945              $C$DW$65        .dwtag  DW_TAG_TI_branch
     946                      .dwattr $C$DW$65, DW_AT_low_pc(0x00)
     947                      .dwattr $C$DW$65, DW_AT_name("_printf")
     948                      .dwattr $C$DW$65, DW_AT_TI_call
     949 000401 6C00          CALL #_printf ; |340| 
         000403 0000!
     950                                                      ; call occurs [#_printf] ; |340| 
     951                      .dwpsn  file "../c5535_bsl_revc/ezdsp5535_v1/c55xx_csl/ccs_v4.0_examples/i2c/CSL_I2C_DmaExample/csl_i
     952 000405 3C14          MOV #1, T0
     953 000407 0601          B $C$L42  ; |341| 
         000409 FB   
     954                                                      ; branch occurs ; |341| 
     955 00040a       $C$L25:    
     956                      .dwpsn  file "../c5535_bsl_revc/ezdsp5535_v1/c55xx_csl/ccs_v4.0_examples/i2c/CSL_I2C_DmaExample/csl_i
     957 00040a E631          MOV #47, *(#_i2cConfig) ; |345| 
         00040c 2F00 
         00040e 0112-
     958                      .dwpsn  file "../c5535_bsl_revc/ezdsp5535_v1/c55xx_csl/ccs_v4.0_examples/i2c/CSL_I2C_DmaExample/csl_i
     959 000410 E631          MOV #0, *(#(_i2cConfig+1)) ; |346| 
         000412 0000 
         000414 0113-
     960                      .dwpsn  file "../c5535_bsl_revc/ezdsp5535_v1/c55xx_csl/ccs_v4.0_examples/i2c/CSL_I2C_DmaExample/csl_i
     961 000416 FB31          MOV #620, *(#(_i2cConfig+2)) ; |347| 
         000418 026C 
         00041a 0001 
         00041c 14-  
     962                      .dwpsn  file "../c5535_bsl_revc/ezdsp5535_v1/c55xx_csl/ccs_v4.0_examples/i2c/CSL_I2C_DmaExample/csl_i
     963 00041d FB31          MOV #620, *(#(_i2cConfig+3)) ; |348| 
         00041f 026C 
         000421 0001 
         000423 15-  
     964                      .dwpsn  file "../c5535_bsl_revc/ezdsp5535_v1/c55xx_csl/ccs_v4.0_examples/i2c/CSL_I2C_DmaExample/csl_i
     965 000424 E631          MOV #2, *(#(_i2cConfig+4)) ; |349| 
         000426 0200 
         000428 0116-
     966                      .dwpsn  file "../c5535_bsl_revc/ezdsp5535_v1/c55xx_csl/ccs_v4.0_examples/i2c/CSL_I2C_DmaExample/csl_i
     967 00042a E631          MOV #80, *(#(_i2cConfig+5)) ; |350| 
         00042c 5000 
         00042e 0117-
     968                      .dwpsn  file "../c5535_bsl_revc/ezdsp5535_v1/c55xx_csl/ccs_v4.0_examples/i2c/CSL_I2C_DmaExample/csl_i
TMS320C55x Assembler PC v4.4.1 Sat Sep 29 23:09:38 2018

Tools Copyright (c) 1996-2012 Texas Instruments Incorporated
csl_i2c_dma_example.asm                                              PAGE   24

     969 000430 FB31          MOV #3616, *(#(_i2cConfig+6)) ; |351| 
         000432 0E20 
         000434 0001 
         000436 18-  
     970                      .dwpsn  file "../c5535_bsl_revc/ezdsp5535_v1/c55xx_csl/ccs_v4.0_examples/i2c/CSL_I2C_DmaExample/csl_i
     971 000437 E631          MOV #0, *(#(_i2cConfig+7)) ; |352| 
         000439 0000 
         00043b 0119-
     972                      .dwpsn  file "../c5535_bsl_revc/ezdsp5535_v1/c55xx_csl/ccs_v4.0_examples/i2c/CSL_I2C_DmaExample/csl_i
     973 00043d E631          MOV #7, *(#(_i2cConfig+8)) ; |353| 
         00043f 0700 
         000441 011A-
     974                      .dwpsn  file "../c5535_bsl_revc/ezdsp5535_v1/c55xx_csl/ccs_v4.0_examples/i2c/CSL_I2C_DmaExample/csl_i
     975 000443 EC31          AMOV #_i2cConfig, XAR0 ; |355| 
         000445 8E00 
         000447 0112-
     976              $C$DW$66        .dwtag  DW_TAG_TI_branch
     977                      .dwattr $C$DW$66, DW_AT_low_pc(0x00)
     978                      .dwattr $C$DW$66, DW_AT_name("_I2C_config")
     979                      .dwattr $C$DW$66, DW_AT_TI_call
     980 000449 6C00          CALL #_I2C_config ; |355| 
         00044b 0000!
     981                                                      ; call occurs [#_I2C_config] ; |355| 
     982 00044d C404          MOV T0, *SP(#2) ; |355| 
     983                      .dwpsn  file "../c5535_bsl_revc/ezdsp5535_v1/c55xx_csl/ccs_v4.0_examples/i2c/CSL_I2C_DmaExample/csl_i
     984 00044f 2249          MOV T0, AR1
     985 000451 0409          BCC $C$L26,AR1 == #0 ; |356| 
         000453 12   
     986                                                      ; branchcc occurs ; |356| 
     987                      .dwpsn  file "../c5535_bsl_revc/ezdsp5535_v1/c55xx_csl/ccs_v4.0_examples/i2c/CSL_I2C_DmaExample/csl_i
     988 000454 EC31          AMOV #$C$FSL8, XAR3 ; |358| 
         000456 BE00 
         000458 00BE+
     989 00045a EB00          MOV XAR3, dbl(*SP(#0))
         00045c B5   
     990              $C$DW$67        .dwtag  DW_TAG_TI_branch
     991                      .dwattr $C$DW$67, DW_AT_low_pc(0x00)
     992                      .dwattr $C$DW$67, DW_AT_name("_printf")
     993                      .dwattr $C$DW$67, DW_AT_TI_call
     994 00045d 6C00          CALL #_printf ; |358| 
         00045f 0000!
     995                                                      ; call occurs [#_printf] ; |358| 
     996                      .dwpsn  file "../c5535_bsl_revc/ezdsp5535_v1/c55xx_csl/ccs_v4.0_examples/i2c/CSL_I2C_DmaExample/csl_i
     997 000461 A406          MOV *SP(#3), T0 ; |359| 
     998 000463 0601          B $C$L42  ; |359| 
         000465 9F   
     999                                                      ; branch occurs ; |359| 
    1000 000466       $C$L26:    
    1001                      .dwpsn  file "../c5535_bsl_revc/ezdsp5535_v1/c55xx_csl/ccs_v4.0_examples/i2c/CSL_I2C_DmaExample/csl_i
    1002 000466 ED31          MOV dbl(*(#_dmaWrHandle)), XAR0
         000468 8F00 
         00046a 0084-
    1003              $C$DW$68        .dwtag  DW_TAG_TI_branch
    1004                      .dwattr $C$DW$68, DW_AT_low_pc(0x00)
    1005                      .dwattr $C$DW$68, DW_AT_name("_DMA_start")
TMS320C55x Assembler PC v4.4.1 Sat Sep 29 23:09:38 2018

Tools Copyright (c) 1996-2012 Texas Instruments Incorporated
csl_i2c_dma_example.asm                                              PAGE   25

    1006                      .dwattr $C$DW$68, DW_AT_TI_call
    1007 00046c 6C00          CALL #_DMA_start ; |363| 
         00046e 0000!
    1008                                                      ; call occurs [#_DMA_start] ; |363| 
    1009 000470 C404          MOV T0, *SP(#2) ; |363| 
    1010                      .dwpsn  file "../c5535_bsl_revc/ezdsp5535_v1/c55xx_csl/ccs_v4.0_examples/i2c/CSL_I2C_DmaExample/csl_i
    1011 000472 2249          MOV T0, AR1
    1012 000474 0409          BCC $C$L27,AR1 == #0 ; |364| 
         000476 12   
    1013                                                      ; branchcc occurs ; |364| 
    1014                      .dwpsn  file "../c5535_bsl_revc/ezdsp5535_v1/c55xx_csl/ccs_v4.0_examples/i2c/CSL_I2C_DmaExample/csl_i
    1015 000477 EC31          AMOV #$C$FSL9, XAR3 ; |366| 
         000479 BE00 
         00047b 00D4+
    1016 00047d EB00          MOV XAR3, dbl(*SP(#0))
         00047f B5   
    1017              $C$DW$69        .dwtag  DW_TAG_TI_branch
    1018                      .dwattr $C$DW$69, DW_AT_low_pc(0x00)
    1019                      .dwattr $C$DW$69, DW_AT_name("_printf")
    1020                      .dwattr $C$DW$69, DW_AT_TI_call
    1021 000480 6C00          CALL #_printf ; |366| 
         000482 0000!
    1022                                                      ; call occurs [#_printf] ; |366| 
    1023                      .dwpsn  file "../c5535_bsl_revc/ezdsp5535_v1/c55xx_csl/ccs_v4.0_examples/i2c/CSL_I2C_DmaExample/csl_i
    1024 000484 A406          MOV *SP(#3), T0 ; |367| 
    1025 000486 0601          B $C$L42  ; |367| 
         000488 7C   
    1026                                                      ; branch occurs ; |367| 
    1027 000489       $C$L27:    
    1028                      .dwpsn  file "../c5535_bsl_revc/ezdsp5535_v1/c55xx_csl/ccs_v4.0_examples/i2c/CSL_I2C_DmaExample/csl_i
    1029 000489 A951          MOV *port(#6692), AR1 ; |371| 
         00048b 1A24 
    1030 00048d EC1A          BCLR @#13, AR1 ; |371| 
         00048f 92   
    1031 000490 EC1A          BSET @#13, AR1 ; |371| 
         000492 90   
    1032 000493 C951          MOV AR1, *port(#6692) ; |371| 
         000495 1A24 
    1033                      .dwpsn  file "../c5535_bsl_revc/ezdsp5535_v1/c55xx_csl/ccs_v4.0_examples/i2c/CSL_I2C_DmaExample/csl_i
    1034 000497 ED31          MOV dbl(*(#_dmaWrHandle)), XAR0
         000499 8F00 
         00049b 0084-
    1035              $C$DW$70        .dwtag  DW_TAG_TI_branch
    1036                      .dwattr $C$DW$70, DW_AT_low_pc(0x00)
    1037                      .dwattr $C$DW$70, DW_AT_name("_DMA_getStatus")
    1038                      .dwattr $C$DW$70, DW_AT_TI_call
    1039 00049d 08FB          CALL #_DMA_getStatus ; |374| 
         00049f 60   
    1040                                                      ; call occurs [#_DMA_getStatus] ; |374| 
    1041 0004a0 6604          BCC $C$L29,T0 == #0 ; |374| 
    1042                                                      ; branchcc occurs ; |374| 
    1043 0004a2       $C$L28:    
    1044 0004a2       $C$DW$L$_CSL_i2cDmaTest$28$B:
    1045 0004a2 ED31          MOV dbl(*(#_dmaWrHandle)), XAR0
         0004a4 8F00 
TMS320C55x Assembler PC v4.4.1 Sat Sep 29 23:09:38 2018

Tools Copyright (c) 1996-2012 Texas Instruments Incorporated
csl_i2c_dma_example.asm                                              PAGE   26

         0004a6 0084-
    1046              $C$DW$71        .dwtag  DW_TAG_TI_branch
    1047                      .dwattr $C$DW$71, DW_AT_low_pc(0x00)
    1048                      .dwattr $C$DW$71, DW_AT_name("_DMA_getStatus")
    1049                      .dwattr $C$DW$71, DW_AT_TI_call
    1050 0004a8 08FB          CALL #_DMA_getStatus ; |374| 
         0004aa 55   
    1051                                                      ; call occurs [#_DMA_getStatus] ; |374| 
    1052 0004ab 0414          BCC $C$L28,T0 != #0 ; |374| 
         0004ad F4   
    1053                                                      ; branchcc occurs ; |374| 
    1054 0004ae       $C$DW$L$_CSL_i2cDmaTest$28$E:
    1055 0004ae       $C$L29:    
    1056                      .dwpsn  file "../c5535_bsl_revc/ezdsp5535_v1/c55xx_csl/ccs_v4.0_examples/i2c/CSL_I2C_DmaExample/csl_i
    1057 0004ae E608          MOV #0, *SP(#4) ; |377| 
         0004b0 00   
    1058 0004b1 20            NOP
    1059 0004b2 20            NOP
    1060                      .dwpsn  file "../c5535_bsl_revc/ezdsp5535_v1/c55xx_csl/ccs_v4.0_examples/i2c/CSL_I2C_DmaExample/csl_i
    1061 0004b3 76FF          MOV #65535, AR2 ; |377| 
         0004b5 FFA8 
    1062 0004b7 A908          MOV *SP(#4), AR1 ; |377| 
    1063 0004b9 1298          CMPU AR1 >= AR2, TC1 ; |377| 
         0004bb A4   
    1064 0004bc 67E4          BCC $C$L31,TC1 ; |377| 
    1065                                                      ; branchcc occurs ; |377| 
    1066 0004be       $C$L30:    
    1067 0004be       $C$DW$L$_CSL_i2cDmaTest$30$B:
    1068                      .dwpsn  file "../c5535_bsl_revc/ezdsp5535_v1/c55xx_csl/ccs_v4.0_examples/i2c/CSL_I2C_DmaExample/csl_i
    1069 0004be F708          ADD #1, *SP(#4) ; |377| 
         0004c0 0001 
    1070 0004c2 20            NOP
    1071 0004c3 20            NOP
    1072 0004c4 20            NOP
    1073                      .dwpsn  file "../c5535_bsl_revc/ezdsp5535_v1/c55xx_csl/ccs_v4.0_examples/i2c/CSL_I2C_DmaExample/csl_i
    1074 0004c5 A908          MOV *SP(#4), AR1 ; |377| 
    1075 0004c7 1294          CMPU AR1 < AR2, TC1 ; |377| 
         0004c9 A4   
    1076 0004ca 0464          BCC $C$L30,TC1 ; |377| 
         0004cc F1   
    1077                                                      ; branchcc occurs ; |377| 
    1078 0004cd       $C$DW$L$_CSL_i2cDmaTest$30$E:
    1079 0004cd       $C$L31:    
    1080                      .dwpsn  file "../c5535_bsl_revc/ezdsp5535_v1/c55xx_csl/ccs_v4.0_examples/i2c/CSL_I2C_DmaExample/csl_i
    1081 0004cd E608          MOV #0, *SP(#4) ; |378| 
         0004cf 00   
    1082 0004d0 20            NOP
    1083 0004d1 20            NOP
    1084 0004d2 20            NOP
    1085                      .dwpsn  file "../c5535_bsl_revc/ezdsp5535_v1/c55xx_csl/ccs_v4.0_examples/i2c/CSL_I2C_DmaExample/csl_i
    1086 0004d3 A908          MOV *SP(#4), AR1 ; |378| 
    1087 0004d5 1298          CMPU AR1 >= AR2, TC1 ; |378| 
         0004d7 A4   
    1088 0004d8 67E4          BCC $C$L33,TC1 ; |378| 
    1089                                                      ; branchcc occurs ; |378| 
TMS320C55x Assembler PC v4.4.1 Sat Sep 29 23:09:38 2018

Tools Copyright (c) 1996-2012 Texas Instruments Incorporated
csl_i2c_dma_example.asm                                              PAGE   27

    1090 0004da       $C$L32:    
    1091 0004da       $C$DW$L$_CSL_i2cDmaTest$32$B:
    1092                      .dwpsn  file "../c5535_bsl_revc/ezdsp5535_v1/c55xx_csl/ccs_v4.0_examples/i2c/CSL_I2C_DmaExample/csl_i
    1093 0004da F708          ADD #1, *SP(#4) ; |378| 
         0004dc 0001 
    1094 0004de 20            NOP
    1095 0004df 20            NOP
    1096 0004e0 20            NOP
    1097                      .dwpsn  file "../c5535_bsl_revc/ezdsp5535_v1/c55xx_csl/ccs_v4.0_examples/i2c/CSL_I2C_DmaExample/csl_i
    1098 0004e1 A908          MOV *SP(#4), AR1 ; |378| 
    1099 0004e3 1294          CMPU AR1 < AR2, TC1 ; |378| 
         0004e5 A4   
    1100 0004e6 0464          BCC $C$L32,TC1 ; |378| 
         0004e8 F1   
    1101                                                      ; branchcc occurs ; |378| 
    1102 0004e9       $C$DW$L$_CSL_i2cDmaTest$32$E:
    1103 0004e9       $C$L33:    
    1104                      .dwpsn  file "../c5535_bsl_revc/ezdsp5535_v1/c55xx_csl/ccs_v4.0_examples/i2c/CSL_I2C_DmaExample/csl_i
    1105 0004e9 E631          MOV #47, *(#_i2cConfig) ; |381| 
         0004eb 2F00 
         0004ed 0112-
    1106                      .dwpsn  file "../c5535_bsl_revc/ezdsp5535_v1/c55xx_csl/ccs_v4.0_examples/i2c/CSL_I2C_DmaExample/csl_i
    1107 0004ef E631          MOV #0, *(#(_i2cConfig+1)) ; |382| 
         0004f1 0000 
         0004f3 0113-
    1108                      .dwpsn  file "../c5535_bsl_revc/ezdsp5535_v1/c55xx_csl/ccs_v4.0_examples/i2c/CSL_I2C_DmaExample/csl_i
    1109 0004f5 FB31          MOV #620, *(#(_i2cConfig+2)) ; |383| 
         0004f7 026C 
         0004f9 0001 
         0004fb 14-  
    1110                      .dwpsn  file "../c5535_bsl_revc/ezdsp5535_v1/c55xx_csl/ccs_v4.0_examples/i2c/CSL_I2C_DmaExample/csl_i
    1111 0004fc FB31          MOV #620, *(#(_i2cConfig+3)) ; |384| 
         0004fe 026C 
         000500 0001 
         000502 15-  
    1112                      .dwpsn  file "../c5535_bsl_revc/ezdsp5535_v1/c55xx_csl/ccs_v4.0_examples/i2c/CSL_I2C_DmaExample/csl_i
    1113 000503 E631          MOV #64, *(#(_i2cConfig+4)) ; |385| 
         000505 4000 
         000507 0116-
    1114                      .dwpsn  file "../c5535_bsl_revc/ezdsp5535_v1/c55xx_csl/ccs_v4.0_examples/i2c/CSL_I2C_DmaExample/csl_i
    1115 000509 E631          MOV #80, *(#(_i2cConfig+5)) ; |386| 
         00050b 5000 
         00050d 0117-
    1116                      .dwpsn  file "../c5535_bsl_revc/ezdsp5535_v1/c55xx_csl/ccs_v4.0_examples/i2c/CSL_I2C_DmaExample/csl_i
    1117 00050f FB31          MOV #3104, *(#(_i2cConfig+6)) ; |387| 
         000511 0C20 
         000513 0001 
         000515 18-  
    1118                      .dwpsn  file "../c5535_bsl_revc/ezdsp5535_v1/c55xx_csl/ccs_v4.0_examples/i2c/CSL_I2C_DmaExample/csl_i
    1119 000516 E631          MOV #0, *(#(_i2cConfig+7)) ; |388| 
         000518 0000 
         00051a 0119-
    1120                      .dwpsn  file "../c5535_bsl_revc/ezdsp5535_v1/c55xx_csl/ccs_v4.0_examples/i2c/CSL_I2C_DmaExample/csl_i
    1121 00051c E631          MOV #7, *(#(_i2cConfig+8)) ; |389| 
         00051e 0700 
TMS320C55x Assembler PC v4.4.1 Sat Sep 29 23:09:38 2018

Tools Copyright (c) 1996-2012 Texas Instruments Incorporated
csl_i2c_dma_example.asm                                              PAGE   28

         000520 011A-
    1122                      .dwpsn  file "../c5535_bsl_revc/ezdsp5535_v1/c55xx_csl/ccs_v4.0_examples/i2c/CSL_I2C_DmaExample/csl_i
    1123 000522 EC31          AMOV #_i2cConfig, XAR0 ; |391| 
         000524 8E00 
         000526 0112-
    1124              $C$DW$72        .dwtag  DW_TAG_TI_branch
    1125                      .dwattr $C$DW$72, DW_AT_low_pc(0x00)
    1126                      .dwattr $C$DW$72, DW_AT_name("_I2C_config")
    1127                      .dwattr $C$DW$72, DW_AT_TI_call
    1128 000528 6C00          CALL #_I2C_config ; |391| 
         00052a 0000!
    1129                                                      ; call occurs [#_I2C_config] ; |391| 
    1130 00052c C404          MOV T0, *SP(#2) ; |391| 
    1131                      .dwpsn  file "../c5535_bsl_revc/ezdsp5535_v1/c55xx_csl/ccs_v4.0_examples/i2c/CSL_I2C_DmaExample/csl_i
    1132 00052e 2249          MOV T0, AR1
    1133 000530 0409          BCC $C$L34,AR1 == #0 ; |392| 
         000532 12   
    1134                                                      ; branchcc occurs ; |392| 
    1135                      .dwpsn  file "../c5535_bsl_revc/ezdsp5535_v1/c55xx_csl/ccs_v4.0_examples/i2c/CSL_I2C_DmaExample/csl_i
    1136 000533 EC31          AMOV #$C$FSL8, XAR3 ; |394| 
         000535 BE00 
         000537 00BE+
    1137 000539 EB00          MOV XAR3, dbl(*SP(#0))
         00053b B5   
    1138              $C$DW$73        .dwtag  DW_TAG_TI_branch
    1139                      .dwattr $C$DW$73, DW_AT_low_pc(0x00)
    1140                      .dwattr $C$DW$73, DW_AT_name("_printf")
    1141                      .dwattr $C$DW$73, DW_AT_TI_call
    1142 00053c 6C00          CALL #_printf ; |394| 
         00053e 0000!
    1143                                                      ; call occurs [#_printf] ; |394| 
    1144                      .dwpsn  file "../c5535_bsl_revc/ezdsp5535_v1/c55xx_csl/ccs_v4.0_examples/i2c/CSL_I2C_DmaExample/csl_i
    1145 000540 A406          MOV *SP(#3), T0 ; |395| 
    1146 000542 0600          B $C$L42  ; |395| 
         000544 C0   
    1147                                                      ; branch occurs ; |395| 
    1148 000545       $C$L34:    
    1149                      .dwpsn  file "../c5535_bsl_revc/ezdsp5535_v1/c55xx_csl/ccs_v4.0_examples/i2c/CSL_I2C_DmaExample/csl_i
    1150 000545 A951          MOV *port(#6692), AR1 ; |399| 
         000547 1A24 
    1151 000549 EC1A          BCLR @#13, AR1 ; |399| 
         00054b 92   
    1152 00054c EC1A          BSET @#13, AR1 ; |399| 
         00054e 90   
    1153 00054f C951          MOV AR1, *port(#6692) ; |399| 
         000551 1A24 
    1154                      .dwpsn  file "../c5535_bsl_revc/ezdsp5535_v1/c55xx_csl/ccs_v4.0_examples/i2c/CSL_I2C_DmaExample/csl_i
    1155 000553 ED31          MOV dbl(*(#_dmaRdHandle)), XAR0
         000555 8F00 
         000557 0086-
    1156              $C$DW$74        .dwtag  DW_TAG_TI_branch
    1157                      .dwattr $C$DW$74, DW_AT_low_pc(0x00)
    1158                      .dwattr $C$DW$74, DW_AT_name("_DMA_start")
    1159                      .dwattr $C$DW$74, DW_AT_TI_call
    1160 000559 6C00          CALL #_DMA_start ; |402| 
TMS320C55x Assembler PC v4.4.1 Sat Sep 29 23:09:38 2018

Tools Copyright (c) 1996-2012 Texas Instruments Incorporated
csl_i2c_dma_example.asm                                              PAGE   29

         00055b 0000!
    1161                                                      ; call occurs [#_DMA_start] ; |402| 
    1162 00055d C404          MOV T0, *SP(#2) ; |402| 
    1163                      .dwpsn  file "../c5535_bsl_revc/ezdsp5535_v1/c55xx_csl/ccs_v4.0_examples/i2c/CSL_I2C_DmaExample/csl_i
    1164 00055f 2249          MOV T0, AR1
    1165 000561 0409          BCC $C$L35,AR1 == #0 ; |403| 
         000563 12   
    1166                                                      ; branchcc occurs ; |403| 
    1167                      .dwpsn  file "../c5535_bsl_revc/ezdsp5535_v1/c55xx_csl/ccs_v4.0_examples/i2c/CSL_I2C_DmaExample/csl_i
    1168 000564 EC31          AMOV #$C$FSL11, XAR3 ; |405| 
         000566 BE00 
         000568 010C+
    1169 00056a EB00          MOV XAR3, dbl(*SP(#0))
         00056c B5   
    1170              $C$DW$75        .dwtag  DW_TAG_TI_branch
    1171                      .dwattr $C$DW$75, DW_AT_low_pc(0x00)
    1172                      .dwattr $C$DW$75, DW_AT_name("_printf")
    1173                      .dwattr $C$DW$75, DW_AT_TI_call
    1174 00056d 6C00          CALL #_printf ; |405| 
         00056f 0000!
    1175                                                      ; call occurs [#_printf] ; |405| 
    1176                      .dwpsn  file "../c5535_bsl_revc/ezdsp5535_v1/c55xx_csl/ccs_v4.0_examples/i2c/CSL_I2C_DmaExample/csl_i
    1177 000571 A406          MOV *SP(#3), T0 ; |406| 
    1178 000573 0600          B $C$L42  ; |406| 
         000575 8F   
    1179                                                      ; branch occurs ; |406| 
    1180 000576       $C$L35:    
    1181                      .dwpsn  file "../c5535_bsl_revc/ezdsp5535_v1/c55xx_csl/ccs_v4.0_examples/i2c/CSL_I2C_DmaExample/csl_i
    1182 000576 ED31          MOV dbl(*(#_dmaRdHandle)), XAR0
         000578 8F00 
         00057a 0086-
    1183              $C$DW$76        .dwtag  DW_TAG_TI_branch
    1184                      .dwattr $C$DW$76, DW_AT_low_pc(0x00)
    1185                      .dwattr $C$DW$76, DW_AT_name("_DMA_getStatus")
    1186                      .dwattr $C$DW$76, DW_AT_TI_call
    1187 00057c 08FA          CALL #_DMA_getStatus ; |410| 
         00057e 81   
    1188                                                      ; call occurs [#_DMA_getStatus] ; |410| 
    1189 00057f 6604          BCC $C$L37,T0 == #0 ; |410| 
    1190                                                      ; branchcc occurs ; |410| 
    1191 000581       $C$L36:    
    1192 000581       $C$DW$L$_CSL_i2cDmaTest$38$B:
    1193 000581 ED31          MOV dbl(*(#_dmaRdHandle)), XAR0
         000583 8F00 
         000585 0086-
    1194              $C$DW$77        .dwtag  DW_TAG_TI_branch
    1195                      .dwattr $C$DW$77, DW_AT_low_pc(0x00)
    1196                      .dwattr $C$DW$77, DW_AT_name("_DMA_getStatus")
    1197                      .dwattr $C$DW$77, DW_AT_TI_call
    1198 000587 08FA          CALL #_DMA_getStatus ; |410| 
         000589 76   
    1199                                                      ; call occurs [#_DMA_getStatus] ; |410| 
    1200 00058a 0414          BCC $C$L36,T0 != #0 ; |410| 
         00058c F4   
    1201                                                      ; branchcc occurs ; |410| 
TMS320C55x Assembler PC v4.4.1 Sat Sep 29 23:09:38 2018

Tools Copyright (c) 1996-2012 Texas Instruments Incorporated
csl_i2c_dma_example.asm                                              PAGE   30

    1202 00058d       $C$DW$L$_CSL_i2cDmaTest$38$E:
    1203 00058d       $C$L37:    
    1204                      .dwpsn  file "../c5535_bsl_revc/ezdsp5535_v1/c55xx_csl/ccs_v4.0_examples/i2c/CSL_I2C_DmaExample/csl_i
    1205 00058d EC31          AMOV #$C$FSL12, XAR3 ; |412| 
         00058f BE00 
         000591 0124+
    1206 000593 EB00          MOV XAR3, dbl(*SP(#0))
         000595 B5   
    1207              $C$DW$78        .dwtag  DW_TAG_TI_branch
    1208                      .dwattr $C$DW$78, DW_AT_low_pc(0x00)
    1209                      .dwattr $C$DW$78, DW_AT_name("_printf")
    1210                      .dwattr $C$DW$78, DW_AT_TI_call
    1211 000596 6C00          CALL #_printf ; |412| 
         000598 0000!
    1212                                                      ; call occurs [#_printf] ; |412| 
    1213                      .dwpsn  file "../c5535_bsl_revc/ezdsp5535_v1/c55xx_csl/ccs_v4.0_examples/i2c/CSL_I2C_DmaExample/csl_i
    1214 00059a E608          MOV #0, *SP(#4) ; |415| 
         00059c 00   
    1215 00059d 20            NOP
    1216 00059e 20            NOP
    1217                      .dwpsn  file "../c5535_bsl_revc/ezdsp5535_v1/c55xx_csl/ccs_v4.0_examples/i2c/CSL_I2C_DmaExample/csl_i
    1218 00059f 7600          MOV #64, AR2 ; |415| 
         0005a1 40A8 
    1219 0005a3 A908          MOV *SP(#4), AR1 ; |415| 
    1220 0005a5 1298          CMPU AR1 >= AR2, TC1 ; |415| 
         0005a7 A4   
    1221 0005a8 0464          BCC $C$L40,TC1 ; |415| 
         0005aa 42   
    1222                                                      ; branchcc occurs ; |415| 
    1223 0005ab       $C$L38:    
    1224 0005ab       $C$DW$L$_CSL_i2cDmaTest$40$B:
    1225                      .dwpsn  file "../c5535_bsl_revc/ezdsp5535_v1/c55xx_csl/ccs_v4.0_examples/i2c/CSL_I2C_DmaExample/csl_i
    1226 0005ab A408          MOV *SP(#4), T0 ; |417| 
    1227 0005ad 5040          SFTL T0, #1 ; |417| 
    1228 0005af EC31          AMOV #_gI2cRdBuf, XAR3 ; |417| 
         0005b1 BE00 
         0005b3 0088-
    1229 0005b5 ED6B          MOV dbl(*AR3(T0)), AC0 ; |417| 
         0005b7 08   
    1230 0005b8 A408          MOV *SP(#4), T0 ; |417| 
    1231 0005ba 4024          ADD #2, T0 ; |417| 
    1232 0005bc 5040          SFTL T0, #1 ; |417| 
    1233 0005be EC31          AMOV #_gI2cWrBuf, XAR3 ; |417| 
         0005c0 BE00 
         0005c2 0000-
    1234 0005c4 ED6B          MOV dbl(*AR3(T0)), AC1 ; |417| 
         0005c6 18   
    1235 0005c7 1210          CMPU AC1 == AC0, TC1 ; |417| 
         0005c9 04   
    1236 0005ca 0464          BCC $C$L39,TC1 ; |417| 
         0005cc 11   
    1237                                                      ; branchcc occurs ; |417| 
    1238 0005cd       $C$DW$L$_CSL_i2cDmaTest$40$E:
    1239                      .dwpsn  file "../c5535_bsl_revc/ezdsp5535_v1/c55xx_csl/ccs_v4.0_examples/i2c/CSL_I2C_DmaExample/csl_i
    1240 0005cd EC31          AMOV #$C$FSL13, XAR3 ; |419| 
TMS320C55x Assembler PC v4.4.1 Sat Sep 29 23:09:38 2018

Tools Copyright (c) 1996-2012 Texas Instruments Incorporated
csl_i2c_dma_example.asm                                              PAGE   31

         0005cf BE00 
         0005d1 0146+
    1241 0005d3 EB00          MOV XAR3, dbl(*SP(#0))
         0005d5 B5   
    1242              $C$DW$79        .dwtag  DW_TAG_TI_branch
    1243                      .dwattr $C$DW$79, DW_AT_low_pc(0x00)
    1244                      .dwattr $C$DW$79, DW_AT_name("_printf")
    1245                      .dwattr $C$DW$79, DW_AT_TI_call
    1246 0005d6 6C00          CALL #_printf ; |419| 
         0005d8 0000!
    1247                                                      ; call occurs [#_printf] ; |419| 
    1248                      .dwpsn  file "../c5535_bsl_revc/ezdsp5535_v1/c55xx_csl/ccs_v4.0_examples/i2c/CSL_I2C_DmaExample/csl_i
    1249 0005da A406          MOV *SP(#3), T0 ; |420| 
    1250 0005dc 4A27          B $C$L42  ; |420| 
    1251                                                      ; branch occurs ; |420| 
    1252 0005de       $C$L39:    
    1253 0005de       $C$DW$L$_CSL_i2cDmaTest$42$B:
    1254                      .dwpsn  file "../c5535_bsl_revc/ezdsp5535_v1/c55xx_csl/ccs_v4.0_examples/i2c/CSL_I2C_DmaExample/csl_i
    1255 0005de F708          ADD #1, *SP(#4) ; |415| 
         0005e0 0001 
    1256 0005e2 20            NOP
    1257 0005e3 20            NOP
    1258 0005e4 20            NOP
    1259                      .dwpsn  file "../c5535_bsl_revc/ezdsp5535_v1/c55xx_csl/ccs_v4.0_examples/i2c/CSL_I2C_DmaExample/csl_i
    1260 0005e5 A908          MOV *SP(#4), AR1 ; |415| 
    1261 0005e7 1294          CMPU AR1 < AR2, TC1 ; |415| 
         0005e9 A4   
    1262 0005ea 0464          BCC $C$L38,TC1 ; |415| 
         0005ec BE   
    1263                                                      ; branchcc occurs ; |415| 
    1264 0005ed       $C$DW$L$_CSL_i2cDmaTest$42$E:
    1265 0005ed       $C$L40:    
    1266                      .dwpsn  file "../c5535_bsl_revc/ezdsp5535_v1/c55xx_csl/ccs_v4.0_examples/i2c/CSL_I2C_DmaExample/csl_i
    1267 0005ed F008          CMP *SP(#4) == #64, TC1 ; |424| 
         0005ef 0040 
    1268 0005f1 66F4          BCC $C$L41,!TC1 ; |424| 
    1269                                                      ; branchcc occurs ; |424| 
    1270                      .dwpsn  file "../c5535_bsl_revc/ezdsp5535_v1/c55xx_csl/ccs_v4.0_examples/i2c/CSL_I2C_DmaExample/csl_i
    1271 0005f3 EC31          AMOV #$C$FSL14, XAR3 ; |426| 
         0005f5 BE00 
         0005f7 016C+
    1272 0005f9 EB00          MOV XAR3, dbl(*SP(#0))
         0005fb B5   
    1273              $C$DW$80        .dwtag  DW_TAG_TI_branch
    1274                      .dwattr $C$DW$80, DW_AT_low_pc(0x00)
    1275                      .dwattr $C$DW$80, DW_AT_name("_printf")
    1276                      .dwattr $C$DW$80, DW_AT_TI_call
    1277 0005fc 6C00          CALL #_printf ; |426| 
         0005fe 0000!
    1278                                                      ; call occurs [#_printf] ; |426| 
    1279 000600       $C$L41:    
    1280                      .dwpsn  file "../c5535_bsl_revc/ezdsp5535_v1/c55xx_csl/ccs_v4.0_examples/i2c/CSL_I2C_DmaExample/csl_i
    1281 000600 E606          MOV #0, *SP(#3) ; |429| 
         000602 00   
    1282                      .dwpsn  file "../c5535_bsl_revc/ezdsp5535_v1/c55xx_csl/ccs_v4.0_examples/i2c/CSL_I2C_DmaExample/csl_i
TMS320C55x Assembler PC v4.4.1 Sat Sep 29 23:09:38 2018

Tools Copyright (c) 1996-2012 Texas Instruments Incorporated
csl_i2c_dma_example.asm                                              PAGE   32

    1283 000603 A406          MOV *SP(#3), T0 ; |430| 
    1284 000605       $C$L42:    
    1285                      .dwpsn  file "../c5535_bsl_revc/ezdsp5535_v1/c55xx_csl/ccs_v4.0_examples/i2c/CSL_I2C_DmaExample/csl_i
    1286 000605 4E05          AADD #5, SP
    1287                      .dwcfi  cfa_offset, 1
    1288              $C$DW$81        .dwtag  DW_TAG_TI_branch
    1289                      .dwattr $C$DW$81, DW_AT_low_pc(0x00)
    1290                      .dwattr $C$DW$81, DW_AT_TI_return
    1291 000607 4804          RET
    1292                                                      ; return occurs
    1293              
    1294              $C$DW$82        .dwtag  DW_TAG_TI_loop
    1295                      .dwattr $C$DW$82, DW_AT_name("F:\eZdsp_DBG\tmp1\c55x-sim2\foo\Debug\csl_i2c_dma_example.asm:$C$L38:1:
    1296                      .dwattr $C$DW$82, DW_AT_TI_begin_file("../c5535_bsl_revc/ezdsp5535_v1/c55xx_csl/ccs_v4.0_examples/i2c
    1297                      .dwattr $C$DW$82, DW_AT_TI_begin_line(0x19f)
    1298                      .dwattr $C$DW$82, DW_AT_TI_end_line(0x1a6)
    1299              $C$DW$83        .dwtag  DW_TAG_TI_loop_range
    1300                      .dwattr $C$DW$83, DW_AT_low_pc($C$DW$L$_CSL_i2cDmaTest$40$B)
    1301                      .dwattr $C$DW$83, DW_AT_high_pc($C$DW$L$_CSL_i2cDmaTest$40$E)
    1302              $C$DW$84        .dwtag  DW_TAG_TI_loop_range
    1303                      .dwattr $C$DW$84, DW_AT_low_pc($C$DW$L$_CSL_i2cDmaTest$42$B)
    1304                      .dwattr $C$DW$84, DW_AT_high_pc($C$DW$L$_CSL_i2cDmaTest$42$E)
    1305                      .dwendtag $C$DW$82
    1306              
    1307              
    1308              $C$DW$85        .dwtag  DW_TAG_TI_loop
    1309                      .dwattr $C$DW$85, DW_AT_name("F:\eZdsp_DBG\tmp1\c55x-sim2\foo\Debug\csl_i2c_dma_example.asm:$C$L36:1:
    1310                      .dwattr $C$DW$85, DW_AT_TI_begin_file("../c5535_bsl_revc/ezdsp5535_v1/c55xx_csl/ccs_v4.0_examples/i2c
    1311                      .dwattr $C$DW$85, DW_AT_TI_begin_line(0x19a)
    1312                      .dwattr $C$DW$85, DW_AT_TI_end_line(0x19a)
    1313              $C$DW$86        .dwtag  DW_TAG_TI_loop_range
    1314                      .dwattr $C$DW$86, DW_AT_low_pc($C$DW$L$_CSL_i2cDmaTest$38$B)
    1315                      .dwattr $C$DW$86, DW_AT_high_pc($C$DW$L$_CSL_i2cDmaTest$38$E)
    1316                      .dwendtag $C$DW$85
    1317              
    1318              
    1319              $C$DW$87        .dwtag  DW_TAG_TI_loop
    1320                      .dwattr $C$DW$87, DW_AT_name("F:\eZdsp_DBG\tmp1\c55x-sim2\foo\Debug\csl_i2c_dma_example.asm:$C$L32:1:
    1321                      .dwattr $C$DW$87, DW_AT_TI_begin_file("../c5535_bsl_revc/ezdsp5535_v1/c55xx_csl/ccs_v4.0_examples/i2c
    1322                      .dwattr $C$DW$87, DW_AT_TI_begin_line(0x17a)
    1323                      .dwattr $C$DW$87, DW_AT_TI_end_line(0x17a)
    1324              $C$DW$88        .dwtag  DW_TAG_TI_loop_range
    1325                      .dwattr $C$DW$88, DW_AT_low_pc($C$DW$L$_CSL_i2cDmaTest$32$B)
    1326                      .dwattr $C$DW$88, DW_AT_high_pc($C$DW$L$_CSL_i2cDmaTest$32$E)
    1327                      .dwendtag $C$DW$87
    1328              
    1329              
    1330              $C$DW$89        .dwtag  DW_TAG_TI_loop
    1331                      .dwattr $C$DW$89, DW_AT_name("F:\eZdsp_DBG\tmp1\c55x-sim2\foo\Debug\csl_i2c_dma_example.asm:$C$L30:1:
    1332                      .dwattr $C$DW$89, DW_AT_TI_begin_file("../c5535_bsl_revc/ezdsp5535_v1/c55xx_csl/ccs_v4.0_examples/i2c
    1333                      .dwattr $C$DW$89, DW_AT_TI_begin_line(0x179)
    1334                      .dwattr $C$DW$89, DW_AT_TI_end_line(0x179)
    1335              $C$DW$90        .dwtag  DW_TAG_TI_loop_range
    1336                      .dwattr $C$DW$90, DW_AT_low_pc($C$DW$L$_CSL_i2cDmaTest$30$B)
    1337                      .dwattr $C$DW$90, DW_AT_high_pc($C$DW$L$_CSL_i2cDmaTest$30$E)
TMS320C55x Assembler PC v4.4.1 Sat Sep 29 23:09:38 2018

Tools Copyright (c) 1996-2012 Texas Instruments Incorporated
csl_i2c_dma_example.asm                                              PAGE   33

    1338                      .dwendtag $C$DW$89
    1339              
    1340              
    1341              $C$DW$91        .dwtag  DW_TAG_TI_loop
    1342                      .dwattr $C$DW$91, DW_AT_name("F:\eZdsp_DBG\tmp1\c55x-sim2\foo\Debug\csl_i2c_dma_example.asm:$C$L28:1:
    1343                      .dwattr $C$DW$91, DW_AT_TI_begin_file("../c5535_bsl_revc/ezdsp5535_v1/c55xx_csl/ccs_v4.0_examples/i2c
    1344                      .dwattr $C$DW$91, DW_AT_TI_begin_line(0x176)
    1345                      .dwattr $C$DW$91, DW_AT_TI_end_line(0x176)
    1346              $C$DW$92        .dwtag  DW_TAG_TI_loop_range
    1347                      .dwattr $C$DW$92, DW_AT_low_pc($C$DW$L$_CSL_i2cDmaTest$28$B)
    1348                      .dwattr $C$DW$92, DW_AT_high_pc($C$DW$L$_CSL_i2cDmaTest$28$E)
    1349                      .dwendtag $C$DW$91
    1350              
    1351              
    1352              $C$DW$93        .dwtag  DW_TAG_TI_loop
    1353                      .dwattr $C$DW$93, DW_AT_name("F:\eZdsp_DBG\tmp1\c55x-sim2\foo\Debug\csl_i2c_dma_example.asm:$C$L23:1:
    1354                      .dwattr $C$DW$93, DW_AT_TI_begin_file("../c5535_bsl_revc/ezdsp5535_v1/c55xx_csl/ccs_v4.0_examples/i2c
    1355                      .dwattr $C$DW$93, DW_AT_TI_begin_line(0x13f)
    1356                      .dwattr $C$DW$93, DW_AT_TI_end_line(0x13f)
    1357              $C$DW$94        .dwtag  DW_TAG_TI_loop_range
    1358                      .dwattr $C$DW$94, DW_AT_low_pc($C$DW$L$_CSL_i2cDmaTest$20$B)
    1359                      .dwattr $C$DW$94, DW_AT_high_pc($C$DW$L$_CSL_i2cDmaTest$20$E)
    1360                      .dwendtag $C$DW$93
    1361              
    1362              
    1363              $C$DW$95        .dwtag  DW_TAG_TI_loop
    1364                      .dwattr $C$DW$95, DW_AT_name("F:\eZdsp_DBG\tmp1\c55x-sim2\foo\Debug\csl_i2c_dma_example.asm:$C$L21:1:
    1365                      .dwattr $C$DW$95, DW_AT_TI_begin_file("../c5535_bsl_revc/ezdsp5535_v1/c55xx_csl/ccs_v4.0_examples/i2c
    1366                      .dwattr $C$DW$95, DW_AT_TI_begin_line(0x13e)
    1367                      .dwattr $C$DW$95, DW_AT_TI_end_line(0x13e)
    1368              $C$DW$96        .dwtag  DW_TAG_TI_loop_range
    1369                      .dwattr $C$DW$96, DW_AT_low_pc($C$DW$L$_CSL_i2cDmaTest$18$B)
    1370                      .dwattr $C$DW$96, DW_AT_high_pc($C$DW$L$_CSL_i2cDmaTest$18$E)
    1371                      .dwendtag $C$DW$95
    1372              
    1373              
    1374              $C$DW$97        .dwtag  DW_TAG_TI_loop
    1375                      .dwattr $C$DW$97, DW_AT_name("F:\eZdsp_DBG\tmp1\c55x-sim2\foo\Debug\csl_i2c_dma_example.asm:$C$L19:1:
    1376                      .dwattr $C$DW$97, DW_AT_TI_begin_file("../c5535_bsl_revc/ezdsp5535_v1/c55xx_csl/ccs_v4.0_examples/i2c
    1377                      .dwattr $C$DW$97, DW_AT_TI_begin_line(0x139)
    1378                      .dwattr $C$DW$97, DW_AT_TI_end_line(0x139)
    1379              $C$DW$98        .dwtag  DW_TAG_TI_loop_range
    1380                      .dwattr $C$DW$98, DW_AT_low_pc($C$DW$L$_CSL_i2cDmaTest$16$B)
    1381                      .dwattr $C$DW$98, DW_AT_high_pc($C$DW$L$_CSL_i2cDmaTest$16$E)
    1382                      .dwendtag $C$DW$97
    1383              
    1384              
    1385              $C$DW$99        .dwtag  DW_TAG_TI_loop
    1386                      .dwattr $C$DW$99, DW_AT_name("F:\eZdsp_DBG\tmp1\c55x-sim2\foo\Debug\csl_i2c_dma_example.asm:$C$L11:1:
    1387                      .dwattr $C$DW$99, DW_AT_TI_begin_file("../c5535_bsl_revc/ezdsp5535_v1/c55xx_csl/ccs_v4.0_examples/i2c
    1388                      .dwattr $C$DW$99, DW_AT_TI_begin_line(0xd9)
    1389                      .dwattr $C$DW$99, DW_AT_TI_end_line(0xdd)
    1390              $C$DW$100       .dwtag  DW_TAG_TI_loop_range
    1391                      .dwattr $C$DW$100, DW_AT_low_pc($C$DW$L$_CSL_i2cDmaTest$2$B)
    1392                      .dwattr $C$DW$100, DW_AT_high_pc($C$DW$L$_CSL_i2cDmaTest$2$E)
TMS320C55x Assembler PC v4.4.1 Sat Sep 29 23:09:38 2018

Tools Copyright (c) 1996-2012 Texas Instruments Incorporated
csl_i2c_dma_example.asm                                              PAGE   34

    1393                      .dwendtag $C$DW$99
    1394              
    1395                      .dwattr $C$DW$45, DW_AT_TI_end_file("../c5535_bsl_revc/ezdsp5535_v1/c55xx_csl/ccs_v4.0_examples/i2c/C
    1396                      .dwattr $C$DW$45, DW_AT_TI_end_line(0x1af)
    1397                      .dwattr $C$DW$45, DW_AT_TI_end_column(0x01)
    1398                      .dwendentry
    1399                      .dwendtag $C$DW$45
    1400              
    1401 000609               .sect   ".text"
    1402                      .align 4
    1403                      .global _CSL_configDmaForI2c
    1404              
    1405              $C$DW$101       .dwtag  DW_TAG_subprogram, DW_AT_name("CSL_configDmaForI2c")
    1406                      .dwattr $C$DW$101, DW_AT_low_pc(_CSL_configDmaForI2c)
    1407                      .dwattr $C$DW$101, DW_AT_high_pc(0x00)
    1408                      .dwattr $C$DW$101, DW_AT_TI_symbol_name("_CSL_configDmaForI2c")
    1409                      .dwattr $C$DW$101, DW_AT_external
    1410                      .dwattr $C$DW$101, DW_AT_type(*$C$DW$T$84)
    1411                      .dwattr $C$DW$101, DW_AT_TI_begin_file("../c5535_bsl_revc/ezdsp5535_v1/c55xx_csl/ccs_v4.0_examples/i2
    1412                      .dwattr $C$DW$101, DW_AT_TI_begin_line(0x1b8)
    1413                      .dwattr $C$DW$101, DW_AT_TI_begin_column(0x10)
    1414                      .dwattr $C$DW$101, DW_AT_TI_max_frame_size(0x0a)
    1415                      .dwpsn  file "../c5535_bsl_revc/ezdsp5535_v1/c55xx_csl/ccs_v4.0_examples/i2c/CSL_I2C_DmaExample/csl_i
    1416              
    1417                      .dwfde $C$DW$CIE, _CSL_configDmaForI2c
    1418              $C$DW$102       .dwtag  DW_TAG_formal_parameter, DW_AT_name("dmaChanObj")
    1419                      .dwattr $C$DW$102, DW_AT_TI_symbol_name("_dmaChanObj")
    1420                      .dwattr $C$DW$102, DW_AT_type(*$C$DW$T$83)
    1421                      .dwattr $C$DW$102, DW_AT_location[DW_OP_reg17]
    1422              $C$DW$103       .dwtag  DW_TAG_formal_parameter, DW_AT_name("chanNum")
    1423                      .dwattr $C$DW$103, DW_AT_TI_symbol_name("_chanNum")
    1424                      .dwattr $C$DW$103, DW_AT_type(*$C$DW$T$28)
    1425                      .dwattr $C$DW$103, DW_AT_location[DW_OP_reg12]
    1426              ;*******************************************************************************
    1427              ;* FUNCTION NAME: CSL_configDmaForI2c                                          *
    1428              ;*                                                                             *
    1429              ;*   Function Uses Regs : AC0,AC0,T0,AR0,XAR0,AR1,XAR1,AR3,XAR3,SP,M40,SATA,   *
    1430              ;*                        SATD,RDM,FRCT,SMUL                                   *
    1431              ;*   Stack Frame        : Compact (No Frame Pointer, w/ debug)                 *
    1432              ;*   Total Frame Size   : 10 words                                             *
    1433              ;*                        (1 return address/alignment)                         *
    1434              ;*                        (2 function parameters)                              *
    1435              ;*                        (7 local values)                                     *
    1436              ;*   Min System Stack   : 1 word                                               *
    1437              ;*******************************************************************************
    1438 00060c       _CSL_configDmaForI2c:
    1439                      .dwcfi  cfa_offset, 1
    1440                      .dwcfi  save_reg_to_mem, 91, -1
    1441 00060c 4EF7          AADD #-9, SP
    1442                      .dwcfi  cfa_offset, 10
    1443              $C$DW$104       .dwtag  DW_TAG_variable, DW_AT_name("dmaChanObj")
    1444                      .dwattr $C$DW$104, DW_AT_TI_symbol_name("_dmaChanObj")
    1445                      .dwattr $C$DW$104, DW_AT_type(*$C$DW$T$83)
    1446                      .dwattr $C$DW$104, DW_AT_location[DW_OP_bregx 0x24 2]
    1447              $C$DW$105       .dwtag  DW_TAG_variable, DW_AT_name("chanNum")
TMS320C55x Assembler PC v4.4.1 Sat Sep 29 23:09:38 2018

Tools Copyright (c) 1996-2012 Texas Instruments Incorporated
csl_i2c_dma_example.asm                                              PAGE   35

    1448                      .dwattr $C$DW$105, DW_AT_TI_symbol_name("_chanNum")
    1449                      .dwattr $C$DW$105, DW_AT_type(*$C$DW$T$28)
    1450                      .dwattr $C$DW$105, DW_AT_location[DW_OP_bregx 0x24 4]
    1451              $C$DW$106       .dwtag  DW_TAG_variable, DW_AT_name("dmaHandle")
    1452                      .dwattr $C$DW$106, DW_AT_TI_symbol_name("_dmaHandle")
    1453                      .dwattr $C$DW$106, DW_AT_type(*$C$DW$T$84)
    1454                      .dwattr $C$DW$106, DW_AT_location[DW_OP_bregx 0x24 6]
    1455              $C$DW$107       .dwtag  DW_TAG_variable, DW_AT_name("status")
    1456                      .dwattr $C$DW$107, DW_AT_TI_symbol_name("_status")
    1457                      .dwattr $C$DW$107, DW_AT_type(*$C$DW$T$86)
    1458                      .dwattr $C$DW$107, DW_AT_location[DW_OP_bregx 0x24 8]
    1459 00060e C408          MOV T0, *SP(#4) ; |442| 
    1460 000610 EB04          MOV XAR0, dbl(*SP(#2))
         000612 85   
    1461                      .dwpsn  file "../c5535_bsl_revc/ezdsp5535_v1/c55xx_csl/ccs_v4.0_examples/i2c/CSL_I2C_DmaExample/csl_i
    1462 000613 3C00          MOV #0, AC0 ; |446| 
    1463 000615 EB0C          MOV AC0, dbl(*SP(#6))
         000617 08   
    1464                      .dwpsn  file "../c5535_bsl_revc/ezdsp5535_v1/c55xx_csl/ccs_v4.0_examples/i2c/CSL_I2C_DmaExample/csl_i
    1465 000618 EC10          AMAR *SP(#8), XAR1
         00061a 9E   
    1466 00061b A408          MOV *SP(#4), T0 ; |449| 
    1467 00061d ED04          MOV dbl(*SP(#2)), XAR0
         00061f 8F   
    1468              $C$DW$108       .dwtag  DW_TAG_TI_branch
    1469                      .dwattr $C$DW$108, DW_AT_low_pc(0x00)
    1470                      .dwattr $C$DW$108, DW_AT_name("_DMA_open")
    1471                      .dwattr $C$DW$108, DW_AT_TI_call
    1472 000620 6C00          CALL #_DMA_open ; |449| 
         000622 0000!
    1473                                                      ; call occurs [#_DMA_open] ; |449| 
    1474 000624 EB0C          MOV XAR0, dbl(*SP(#6))
         000626 85   
    1475                      .dwpsn  file "../c5535_bsl_revc/ezdsp5535_v1/c55xx_csl/ccs_v4.0_examples/i2c/CSL_I2C_DmaExample/csl_i
    1476 000627 ED0C          MOV dbl(*SP(#6)), XAR3
         000629 BF   
    1477 00062a 90B0          MOV XAR3, AC0
    1478 00062c 0410          BCC $C$L43,AC0 != #0 ; |450| 
         00062e 12   
    1479                                                      ; branchcc occurs ; |450| 
    1480                      .dwpsn  file "../c5535_bsl_revc/ezdsp5535_v1/c55xx_csl/ccs_v4.0_examples/i2c/CSL_I2C_DmaExample/csl_i
    1481 00062f EC31          AMOV #$C$FSL15, XAR3 ; |452| 
         000631 BE00 
         000633 0188+
    1482 000635 EB00          MOV XAR3, dbl(*SP(#0))
         000637 B5   
    1483              $C$DW$109       .dwtag  DW_TAG_TI_branch
    1484                      .dwattr $C$DW$109, DW_AT_low_pc(0x00)
    1485                      .dwattr $C$DW$109, DW_AT_name("_printf")
    1486                      .dwattr $C$DW$109, DW_AT_TI_call
    1487 000638 6C00          CALL #_printf ; |452| 
         00063a 0000!
    1488                                                      ; call occurs [#_printf] ; |452| 
    1489                      .dwpsn  file "../c5535_bsl_revc/ezdsp5535_v1/c55xx_csl/ccs_v4.0_examples/i2c/CSL_I2C_DmaExample/csl_i
    1490 00063c ED0C          MOV dbl(*SP(#6)), XAR0
TMS320C55x Assembler PC v4.4.1 Sat Sep 29 23:09:38 2018

Tools Copyright (c) 1996-2012 Texas Instruments Incorporated
csl_i2c_dma_example.asm                                              PAGE   36

         00063e 8F   
    1491 00063f 4A26          B $C$L45  ; |453| 
    1492                                                      ; branch occurs ; |453| 
    1493 000641       $C$L43:    
    1494                      .dwpsn  file "../c5535_bsl_revc/ezdsp5535_v1/c55xx_csl/ccs_v4.0_examples/i2c/CSL_I2C_DmaExample/csl_i
    1495 000641 EC31          AMOV #_dmaConfig, XAR1 ; |457| 
         000643 9E00 
         000645 011C-
    1496              $C$DW$110       .dwtag  DW_TAG_TI_branch
    1497                      .dwattr $C$DW$110, DW_AT_low_pc(0x00)
    1498                      .dwattr $C$DW$110, DW_AT_name("_DMA_config")
    1499                      .dwattr $C$DW$110, DW_AT_TI_call
    1500 000647 6C00          CALL #_DMA_config ; |457| 
         000649 0000!
    1501                                                      ; call occurs [#_DMA_config] ; |457| 
    1502 00064b C410          MOV T0, *SP(#8) ; |457| 
    1503                      .dwpsn  file "../c5535_bsl_revc/ezdsp5535_v1/c55xx_csl/ccs_v4.0_examples/i2c/CSL_I2C_DmaExample/csl_i
    1504 00064d 2249          MOV T0, AR1
    1505 00064f 0409          BCC $C$L44,AR1 == #0 ; |458| 
         000651 12   
    1506                                                      ; branchcc occurs ; |458| 
    1507                      .dwpsn  file "../c5535_bsl_revc/ezdsp5535_v1/c55xx_csl/ccs_v4.0_examples/i2c/CSL_I2C_DmaExample/csl_i
    1508 000652 EC31          AMOV #$C$FSL16, XAR3 ; |460| 
         000654 BE00 
         000656 019A+
    1509 000658 EB00          MOV XAR3, dbl(*SP(#0))
         00065a B5   
    1510              $C$DW$111       .dwtag  DW_TAG_TI_branch
    1511                      .dwattr $C$DW$111, DW_AT_low_pc(0x00)
    1512                      .dwattr $C$DW$111, DW_AT_name("_printf")
    1513                      .dwattr $C$DW$111, DW_AT_TI_call
    1514 00065b 6C00          CALL #_printf ; |460| 
         00065d 0000!
    1515                                                      ; call occurs [#_printf] ; |460| 
    1516                      .dwpsn  file "../c5535_bsl_revc/ezdsp5535_v1/c55xx_csl/ccs_v4.0_examples/i2c/CSL_I2C_DmaExample/csl_i
    1517 00065f 3C00          MOV #0, AC0 ; |461| 
    1518 000661 EB0C          MOV AC0, dbl(*SP(#6))
         000663 08   
    1519 000664       $C$L44:    
    1520                      .dwpsn  file "../c5535_bsl_revc/ezdsp5535_v1/c55xx_csl/ccs_v4.0_examples/i2c/CSL_I2C_DmaExample/csl_i
    1521 000664 ED0C          MOV dbl(*SP(#6)), XAR0
         000666 8F   
    1522 000667       $C$L45:    
    1523                      .dwpsn  file "../c5535_bsl_revc/ezdsp5535_v1/c55xx_csl/ccs_v4.0_examples/i2c/CSL_I2C_DmaExample/csl_i
    1524 000667 4E09          AADD #9, SP
    1525                      .dwcfi  cfa_offset, 1
    1526              $C$DW$112       .dwtag  DW_TAG_TI_branch
    1527                      .dwattr $C$DW$112, DW_AT_low_pc(0x00)
    1528                      .dwattr $C$DW$112, DW_AT_TI_return
    1529 000669 4804          RET
    1530                                                      ; return occurs
    1531                      .dwattr $C$DW$101, DW_AT_TI_end_file("../c5535_bsl_revc/ezdsp5535_v1/c55xx_csl/ccs_v4.0_examples/i2c/
    1532                      .dwattr $C$DW$101, DW_AT_TI_end_line(0x1d1)
    1533                      .dwattr $C$DW$101, DW_AT_TI_end_column(0x01)
    1534                      .dwendentry
TMS320C55x Assembler PC v4.4.1 Sat Sep 29 23:09:38 2018

Tools Copyright (c) 1996-2012 Texas Instruments Incorporated
csl_i2c_dma_example.asm                                              PAGE   37

    1535                      .dwendtag $C$DW$101
    1536              
    1537              ;*******************************************************************************
    1538              ;* FAR STRINGS                                                                 *
    1539              ;*******************************************************************************
    1540 000000               .sect   ".const:.string"
    1541                      .align  2
    1542 000000 0049  $C$FSL1:        .string "I2C DMA MODE TEST!",10,10,0
         000001 0032 
         000002 0043 
         000003 0020 
         000004 0044 
         000005 004D 
         000006 0041 
         000007 0020 
         000008 004D 
         000009 004F 
         00000a 0044 
         00000b 0045 
         00000c 0020 
         00000d 0054 
         00000e 0045 
         00000f 0053 
         000010 0054 
         000011 0021 
         000012 000A 
         000013 000A 
         000014 0000 
    1543                      .align  2
    1544 000016 000A  $C$FSL2:        .string 10,"I2C DMA MODE TEST PASSED!!",10,0
         000017 0049 
         000018 0032 
         000019 0043 
         00001a 0020 
         00001b 0044 
         00001c 004D 
         00001d 0041 
         00001e 0020 
         00001f 004D 
         000020 004F 
         000021 0044 
         000022 0045 
         000023 0020 
         000024 0054 
         000025 0045 
         000026 0053 
         000027 0054 
         000028 0020 
         000029 0050 
         00002a 0041 
         00002b 0053 
         00002c 0053 
         00002d 0045 
         00002e 0044 
         00002f 0021 
TMS320C55x Assembler PC v4.4.1 Sat Sep 29 23:09:38 2018

Tools Copyright (c) 1996-2012 Texas Instruments Incorporated
csl_i2c_dma_example.asm                                              PAGE   38

         000030 0021 
         000031 000A 
         000032 0000 
    1545                      .align  2
    1546 000034 000A  $C$FSL3:        .string 10,"I2C DMA MODE TEST FAILED!!",10,0
         000035 0049 
         000036 0032 
         000037 0043 
         000038 0020 
         000039 0044 
         00003a 004D 
         00003b 0041 
         00003c 0020 
         00003d 004D 
         00003e 004F 
         00003f 0044 
         000040 0045 
         000041 0020 
         000042 0054 
         000043 0045 
         000044 0053 
         000045 0054 
         000046 0020 
         000047 0046 
         000048 0041 
         000049 0049 
         00004a 004C 
         00004b 0045 
         00004c 0044 
         00004d 0021 
         00004e 0021 
         00004f 000A 
         000050 0000 
    1547                      .align  2
    1548 000052 0049  $C$FSL4:        .string "I2C Init Failed!!",10,0
         000053 0032 
         000054 0043 
         000055 0020 
         000056 0049 
         000057 006E 
         000058 0069 
         000059 0074 
         00005a 0020 
         00005b 0046 
         00005c 0061 
         00005d 0069 
         00005e 006C 
         00005f 0065 
         000060 0064 
         000061 0021 
         000062 0021 
         000063 000A 
         000064 0000 
    1549                      .align  2
    1550 000066 0044  $C$FSL5:        .string "DMA_init Failed!",10,0
TMS320C55x Assembler PC v4.4.1 Sat Sep 29 23:09:38 2018

Tools Copyright (c) 1996-2012 Texas Instruments Incorporated
csl_i2c_dma_example.asm                                              PAGE   39

         000067 004D 
         000068 0041 
         000069 005F 
         00006a 0069 
         00006b 006E 
         00006c 0069 
         00006d 0074 
         00006e 0020 
         00006f 0046 
         000070 0061 
         000071 0069 
         000072 006C 
         000073 0065 
         000074 0064 
         000075 0021 
         000076 000A 
         000077 0000 
    1551                      .align  2
    1552 000078 0044  $C$FSL6:        .string "DMA Config for I2C Write Failed!",10,"!",0
         000079 004D 
         00007a 0041 
         00007b 0020 
         00007c 0043 
         00007d 006F 
         00007e 006E 
         00007f 0066 
         000080 0069 
         000081 0067 
         000082 0020 
         000083 0066 
         000084 006F 
         000085 0072 
         000086 0020 
         000087 0049 
         000088 0032 
         000089 0043 
         00008a 0020 
         00008b 0057 
         00008c 0072 
         00008d 0069 
         00008e 0074 
         00008f 0065 
         000090 0020 
         000091 0046 
         000092 0061 
         000093 0069 
         000094 006C 
         000095 0065 
         000096 0064 
         000097 0021 
         000098 000A 
         000099 0021 
         00009a 0000 
    1553                      .align  2
    1554 00009c 0044  $C$FSL7:        .string "DMA Config for I2C Read Failed!",10,"!",0
TMS320C55x Assembler PC v4.4.1 Sat Sep 29 23:09:38 2018

Tools Copyright (c) 1996-2012 Texas Instruments Incorporated
csl_i2c_dma_example.asm                                              PAGE   40

         00009d 004D 
         00009e 0041 
         00009f 0020 
         0000a0 0043 
         0000a1 006F 
         0000a2 006E 
         0000a3 0066 
         0000a4 0069 
         0000a5 0067 
         0000a6 0020 
         0000a7 0066 
         0000a8 006F 
         0000a9 0072 
         0000aa 0020 
         0000ab 0049 
         0000ac 0032 
         0000ad 0043 
         0000ae 0020 
         0000af 0052 
         0000b0 0065 
         0000b1 0061 
         0000b2 0064 
         0000b3 0020 
         0000b4 0046 
         0000b5 0061 
         0000b6 0069 
         0000b7 006C 
         0000b8 0065 
         0000b9 0064 
         0000ba 0021 
         0000bb 000A 
         0000bc 0021 
         0000bd 0000 
    1555                      .align  2
    1556 0000be 0049  $C$FSL8:        .string "I2C Config Failed!!",10,0
         0000bf 0032 
         0000c0 0043 
         0000c1 0020 
         0000c2 0043 
         0000c3 006F 
         0000c4 006E 
         0000c5 0066 
         0000c6 0069 
         0000c7 0067 
         0000c8 0020 
         0000c9 0046 
         0000ca 0061 
         0000cb 0069 
         0000cc 006C 
         0000cd 0065 
         0000ce 0064 
         0000cf 0021 
         0000d0 0021 
         0000d1 000A 
         0000d2 0000 
TMS320C55x Assembler PC v4.4.1 Sat Sep 29 23:09:38 2018

Tools Copyright (c) 1996-2012 Texas Instruments Incorporated
csl_i2c_dma_example.asm                                              PAGE   41

    1557                      .align  2
    1558 0000d4 0049  $C$FSL9:        .string "I2C Dma Write Failed!!",10,0
         0000d5 0032 
         0000d6 0043 
         0000d7 0020 
         0000d8 0044 
         0000d9 006D 
         0000da 0061 
         0000db 0020 
         0000dc 0057 
         0000dd 0072 
         0000de 0069 
         0000df 0074 
         0000e0 0065 
         0000e1 0020 
         0000e2 0046 
         0000e3 0061 
         0000e4 0069 
         0000e5 006C 
         0000e6 0065 
         0000e7 0064 
         0000e8 0021 
         0000e9 0021 
         0000ea 000A 
         0000eb 0000 
    1559                      .align  2
    1560 0000ec 0044  $C$FSL10:       .string "DMA Data Write to I2C Complete",10,0
         0000ed 004D 
         0000ee 0041 
         0000ef 0020 
         0000f0 0044 
         0000f1 0061 
         0000f2 0074 
         0000f3 0061 
         0000f4 0020 
         0000f5 0057 
         0000f6 0072 
         0000f7 0069 
         0000f8 0074 
         0000f9 0065 
         0000fa 0020 
         0000fb 0074 
         0000fc 006F 
         0000fd 0020 
         0000fe 0049 
         0000ff 0032 
         000100 0043 
         000101 0020 
         000102 0043 
         000103 006F 
         000104 006D 
         000105 0070 
         000106 006C 
         000107 0065 
         000108 0074 
TMS320C55x Assembler PC v4.4.1 Sat Sep 29 23:09:38 2018

Tools Copyright (c) 1996-2012 Texas Instruments Incorporated
csl_i2c_dma_example.asm                                              PAGE   42

         000109 0065 
         00010a 000A 
         00010b 0000 
    1561                      .align  2
    1562 00010c 0049  $C$FSL11:       .string "I2C Dma Read Failed!!",10,0
         00010d 0032 
         00010e 0043 
         00010f 0020 
         000110 0044 
         000111 006D 
         000112 0061 
         000113 0020 
         000114 0052 
         000115 0065 
         000116 0061 
         000117 0064 
         000118 0020 
         000119 0046 
         00011a 0061 
         00011b 0069 
         00011c 006C 
         00011d 0065 
         00011e 0064 
         00011f 0021 
         000120 0021 
         000121 000A 
         000122 0000 
    1563                      .align  2
    1564 000124 0044  $C$FSL12:       .string "DMA Data Read from I2C Complete",10,0
         000125 004D 
         000126 0041 
         000127 0020 
         000128 0044 
         000129 0061 
         00012a 0074 
         00012b 0061 
         00012c 0020 
         00012d 0052 
         00012e 0065 
         00012f 0061 
         000130 0064 
         000131 0020 
         000132 0066 
         000133 0072 
         000134 006F 
         000135 006D 
         000136 0020 
         000137 0049 
         000138 0032 
         000139 0043 
         00013a 0020 
         00013b 0043 
         00013c 006F 
         00013d 006D 
         00013e 0070 
TMS320C55x Assembler PC v4.4.1 Sat Sep 29 23:09:38 2018

Tools Copyright (c) 1996-2012 Texas Instruments Incorporated
csl_i2c_dma_example.asm                                              PAGE   43

         00013f 006C 
         000140 0065 
         000141 0074 
         000142 0065 
         000143 000A 
         000144 0000 
    1565                      .align  2
    1566 000146 0052  $C$FSL13:       .string "Read Write Buffers Does not Match!!",10,0
         000147 0065 
         000148 0061 
         000149 0064 
         00014a 0020 
         00014b 0057 
         00014c 0072 
         00014d 0069 
         00014e 0074 
         00014f 0065 
         000150 0020 
         000151 0042 
         000152 0075 
         000153 0066 
         000154 0066 
         000155 0065 
         000156 0072 
         000157 0073 
         000158 0020 
         000159 0044 
         00015a 006F 
         00015b 0065 
         00015c 0073 
         00015d 0020 
         00015e 006E 
         00015f 006F 
         000160 0074 
         000161 0020 
         000162 004D 
         000163 0061 
         000164 0074 
         000165 0063 
         000166 0068 
         000167 0021 
         000168 0021 
         000169 000A 
         00016a 0000 
    1567                      .align  2
    1568 00016c 0052  $C$FSL14:       .string "Read Write Buffers Match!!",10,0
         00016d 0065 
         00016e 0061 
         00016f 0064 
         000170 0020 
         000171 0057 
         000172 0072 
         000173 0069 
         000174 0074 
         000175 0065 
TMS320C55x Assembler PC v4.4.1 Sat Sep 29 23:09:38 2018

Tools Copyright (c) 1996-2012 Texas Instruments Incorporated
csl_i2c_dma_example.asm                                              PAGE   44

         000176 0020 
         000177 0042 
         000178 0075 
         000179 0066 
         00017a 0066 
         00017b 0065 
         00017c 0072 
         00017d 0073 
         00017e 0020 
         00017f 004D 
         000180 0061 
         000181 0074 
         000182 0063 
         000183 0068 
         000184 0021 
         000185 0021 
         000186 000A 
         000187 0000 
    1569                      .align  2
    1570 000188 0044  $C$FSL15:       .string "DMA_open Failed!",10,0
         000189 004D 
         00018a 0041 
         00018b 005F 
         00018c 006F 
         00018d 0070 
         00018e 0065 
         00018f 006E 
         000190 0020 
         000191 0046 
         000192 0061 
         000193 0069 
         000194 006C 
         000195 0065 
         000196 0064 
         000197 0021 
         000198 000A 
         000199 0000 
    1571                      .align  2
    1572 00019a 0044  $C$FSL16:       .string "DMA_config Failed!",10,0
         00019b 004D 
         00019c 0041 
         00019d 005F 
         00019e 0063 
         00019f 006F 
         0001a0 006E 
         0001a1 0066 
         0001a2 0069 
         0001a3 0067 
         0001a4 0020 
         0001a5 0046 
         0001a6 0061 
         0001a7 0069 
         0001a8 006C 
         0001a9 0065 
         0001aa 0064 
TMS320C55x Assembler PC v4.4.1 Sat Sep 29 23:09:38 2018

Tools Copyright (c) 1996-2012 Texas Instruments Incorporated
csl_i2c_dma_example.asm                                              PAGE   45

         0001ab 0021 
         0001ac 000A 
         0001ad 0000 
    1573              ;******************************************************************************
    1574              ;* UNDEFINED EXTERNAL REFERENCES                                              *
    1575              ;******************************************************************************
    1576                      .global _printf
    1577                      .global _I2C_init
    1578                      .global _I2C_config
    1579                      .global _DMA_init
    1580                      .global _DMA_open
    1581                      .global _DMA_config
    1582                      .global _DMA_start
    1583                      .global _i2cHandle
    1584              
    1585              ;*******************************************************************************
    1586              ;* TYPE INFORMATION                                                            *
    1587              ;*******************************************************************************
    1588              
    1589              $C$DW$T$27      .dwtag  DW_TAG_enumeration_type
    1590                      .dwattr $C$DW$T$27, DW_AT_byte_size(0x01)
    1591              $C$DW$113       .dwtag  DW_TAG_enumerator, DW_AT_name("CSL_DMA_CHAN0"), DW_AT_const_value(0x00)
    1592              $C$DW$114       .dwtag  DW_TAG_enumerator, DW_AT_name("CSL_DMA_CHAN1"), DW_AT_const_value(0x01)
    1593              $C$DW$115       .dwtag  DW_TAG_enumerator, DW_AT_name("CSL_DMA_CHAN2"), DW_AT_const_value(0x02)
    1594              $C$DW$116       .dwtag  DW_TAG_enumerator, DW_AT_name("CSL_DMA_CHAN3"), DW_AT_const_value(0x03)
    1595              $C$DW$117       .dwtag  DW_TAG_enumerator, DW_AT_name("CSL_DMA_CHAN4"), DW_AT_const_value(0x04)
    1596              $C$DW$118       .dwtag  DW_TAG_enumerator, DW_AT_name("CSL_DMA_CHAN5"), DW_AT_const_value(0x05)
    1597              $C$DW$119       .dwtag  DW_TAG_enumerator, DW_AT_name("CSL_DMA_CHAN6"), DW_AT_const_value(0x06)
    1598              $C$DW$120       .dwtag  DW_TAG_enumerator, DW_AT_name("CSL_DMA_CHAN7"), DW_AT_const_value(0x07)
    1599              $C$DW$121       .dwtag  DW_TAG_enumerator, DW_AT_name("CSL_DMA_CHAN8"), DW_AT_const_value(0x08)
    1600              $C$DW$122       .dwtag  DW_TAG_enumerator, DW_AT_name("CSL_DMA_CHAN9"), DW_AT_const_value(0x09)
    1601              $C$DW$123       .dwtag  DW_TAG_enumerator, DW_AT_name("CSL_DMA_CHAN10"), DW_AT_const_value(0x0a)
    1602              $C$DW$124       .dwtag  DW_TAG_enumerator, DW_AT_name("CSL_DMA_CHAN11"), DW_AT_const_value(0x0b)
    1603              $C$DW$125       .dwtag  DW_TAG_enumerator, DW_AT_name("CSL_DMA_CHAN12"), DW_AT_const_value(0x0c)
    1604              $C$DW$126       .dwtag  DW_TAG_enumerator, DW_AT_name("CSL_DMA_CHAN13"), DW_AT_const_value(0x0d)
    1605              $C$DW$127       .dwtag  DW_TAG_enumerator, DW_AT_name("CSL_DMA_CHAN14"), DW_AT_const_value(0x0e)
    1606              $C$DW$128       .dwtag  DW_TAG_enumerator, DW_AT_name("CSL_DMA_CHAN15"), DW_AT_const_value(0x0f)
    1607              $C$DW$129       .dwtag  DW_TAG_enumerator, DW_AT_name("CSL_DMA_CHAN_INV"), DW_AT_const_value(0x10)
    1608                      .dwendtag $C$DW$T$27
    1609              
    1610              $C$DW$T$28      .dwtag  DW_TAG_typedef, DW_AT_name("CSL_DMAChanNum")
    1611                      .dwattr $C$DW$T$28, DW_AT_type(*$C$DW$T$27)
    1612                      .dwattr $C$DW$T$28, DW_AT_language(DW_LANG_C)
    1613              
    1614              $C$DW$T$29      .dwtag  DW_TAG_enumeration_type
    1615                      .dwattr $C$DW$T$29, DW_AT_byte_size(0x01)
    1616              $C$DW$130       .dwtag  DW_TAG_enumerator, DW_AT_name("CSL_DMA_ENGINE0"), DW_AT_const_value(0x00)
    1617              $C$DW$131       .dwtag  DW_TAG_enumerator, DW_AT_name("CSL_DMA_ENGINE1"), DW_AT_const_value(0x01)
    1618              $C$DW$132       .dwtag  DW_TAG_enumerator, DW_AT_name("CSL_DMA_ENGINE2"), DW_AT_const_value(0x02)
    1619              $C$DW$133       .dwtag  DW_TAG_enumerator, DW_AT_name("CSL_DMA_ENGINE3"), DW_AT_const_value(0x03)
    1620              $C$DW$134       .dwtag  DW_TAG_enumerator, DW_AT_name("CSL_DMA_ENGINEINV"), DW_AT_const_value(0x04)
    1621                      .dwendtag $C$DW$T$29
    1622              
    1623              $C$DW$T$30      .dwtag  DW_TAG_typedef, DW_AT_name("CSL_DMAEngineId")
    1624                      .dwattr $C$DW$T$30, DW_AT_type(*$C$DW$T$29)
TMS320C55x Assembler PC v4.4.1 Sat Sep 29 23:09:38 2018

Tools Copyright (c) 1996-2012 Texas Instruments Incorporated
csl_i2c_dma_example.asm                                              PAGE   46

    1625                      .dwattr $C$DW$T$30, DW_AT_language(DW_LANG_C)
    1626              
    1627              $C$DW$T$32      .dwtag  DW_TAG_enumeration_type
    1628                      .dwattr $C$DW$T$32, DW_AT_byte_size(0x01)
    1629              $C$DW$135       .dwtag  DW_TAG_enumerator, DW_AT_name("CSL_DMA_READ"), DW_AT_const_value(0x00)
    1630              $C$DW$136       .dwtag  DW_TAG_enumerator, DW_AT_name("CSL_DMA_WRITE"), DW_AT_const_value(0x01)
    1631                      .dwendtag $C$DW$T$32
    1632              
    1633              $C$DW$T$33      .dwtag  DW_TAG_typedef, DW_AT_name("CSL_DMAChanDir")
    1634                      .dwattr $C$DW$T$33, DW_AT_type(*$C$DW$T$32)
    1635                      .dwattr $C$DW$T$33, DW_AT_language(DW_LANG_C)
    1636              
    1637              $C$DW$T$34      .dwtag  DW_TAG_enumeration_type
    1638                      .dwattr $C$DW$T$34, DW_AT_byte_size(0x01)
    1639              $C$DW$137       .dwtag  DW_TAG_enumerator, DW_AT_name("CSL_DMA_SOFTWARE_TRIGGER"), DW_AT_const_value(0x00)
    1640              $C$DW$138       .dwtag  DW_TAG_enumerator, DW_AT_name("CSL_DMA_EVENT_TRIGGER"), DW_AT_const_value(0x01)
    1641                      .dwendtag $C$DW$T$34
    1642              
    1643              $C$DW$T$35      .dwtag  DW_TAG_typedef, DW_AT_name("CSL_DMATriggerType")
    1644                      .dwattr $C$DW$T$35, DW_AT_type(*$C$DW$T$34)
    1645                      .dwattr $C$DW$T$35, DW_AT_language(DW_LANG_C)
    1646              
    1647              $C$DW$T$36      .dwtag  DW_TAG_enumeration_type
    1648                      .dwattr $C$DW$T$36, DW_AT_byte_size(0x01)
    1649              $C$DW$139       .dwtag  DW_TAG_enumerator, DW_AT_name("CSL_DMA_TRANSFER_IO_MEMORY"), DW_AT_const_value(0x00)
    1650              $C$DW$140       .dwtag  DW_TAG_enumerator, DW_AT_name("CSL_DMA_TRANSFER_MEMORY"), DW_AT_const_value(0x01)
    1651                      .dwendtag $C$DW$T$36
    1652              
    1653              $C$DW$T$37      .dwtag  DW_TAG_typedef, DW_AT_name("CSL_DMATransferType")
    1654                      .dwattr $C$DW$T$37, DW_AT_type(*$C$DW$T$36)
    1655                      .dwattr $C$DW$T$37, DW_AT_language(DW_LANG_C)
    1656              
    1657              $C$DW$T$38      .dwtag  DW_TAG_enumeration_type
    1658                      .dwattr $C$DW$T$38, DW_AT_byte_size(0x01)
    1659              $C$DW$141       .dwtag  DW_TAG_enumerator, DW_AT_name("CSL_DMA_INTERRUPT_DISABLE"), DW_AT_const_value(0x00)
    1660              $C$DW$142       .dwtag  DW_TAG_enumerator, DW_AT_name("CSL_DMA_INTERRUPT_ENABLE"), DW_AT_const_value(0x01)
    1661                      .dwendtag $C$DW$T$38
    1662              
    1663              $C$DW$T$39      .dwtag  DW_TAG_typedef, DW_AT_name("CSL_DMAInterruptState")
    1664                      .dwattr $C$DW$T$39, DW_AT_type(*$C$DW$T$38)
    1665                      .dwattr $C$DW$T$39, DW_AT_language(DW_LANG_C)
    1666              
    1667              $C$DW$T$41      .dwtag  DW_TAG_enumeration_type
    1668                      .dwattr $C$DW$T$41, DW_AT_byte_size(0x01)
    1669              $C$DW$143       .dwtag  DW_TAG_enumerator, DW_AT_name("CSL_DMA_PING_PONG_DISABLE"), DW_AT_const_value(0x00)
    1670              $C$DW$144       .dwtag  DW_TAG_enumerator, DW_AT_name("CSL_DMA_PING_PONG_ENABLE"), DW_AT_const_value(0x01)
    1671                      .dwendtag $C$DW$T$41
    1672              
    1673              $C$DW$T$42      .dwtag  DW_TAG_typedef, DW_AT_name("CSL_DMAPingPongMode")
    1674                      .dwattr $C$DW$T$42, DW_AT_type(*$C$DW$T$41)
    1675                      .dwattr $C$DW$T$42, DW_AT_language(DW_LANG_C)
    1676              
    1677              $C$DW$T$43      .dwtag  DW_TAG_enumeration_type
    1678                      .dwattr $C$DW$T$43, DW_AT_byte_size(0x01)
    1679              $C$DW$145       .dwtag  DW_TAG_enumerator, DW_AT_name("CSL_DMA_AUTORELOAD_DISABLE"), DW_AT_const_value(0x00)
TMS320C55x Assembler PC v4.4.1 Sat Sep 29 23:09:38 2018

Tools Copyright (c) 1996-2012 Texas Instruments Incorporated
csl_i2c_dma_example.asm                                              PAGE   47

    1680              $C$DW$146       .dwtag  DW_TAG_enumerator, DW_AT_name("CSL_DMA_AUTORELOAD_ENABLE"), DW_AT_const_value(0x01)
    1681                      .dwendtag $C$DW$T$43
    1682              
    1683              $C$DW$T$44      .dwtag  DW_TAG_typedef, DW_AT_name("CSL_DMAAutoReloadMode")
    1684                      .dwattr $C$DW$T$44, DW_AT_type(*$C$DW$T$43)
    1685                      .dwattr $C$DW$T$44, DW_AT_language(DW_LANG_C)
    1686              
    1687              $C$DW$T$45      .dwtag  DW_TAG_enumeration_type
    1688                      .dwattr $C$DW$T$45, DW_AT_byte_size(0x01)
    1689              $C$DW$147       .dwtag  DW_TAG_enumerator, DW_AT_name("CSL_DMA_TXBURST_1WORD"), DW_AT_const_value(0x00)
    1690              $C$DW$148       .dwtag  DW_TAG_enumerator, DW_AT_name("CSL_DMA_TXBURST_2WORD"), DW_AT_const_value(0x01)
    1691              $C$DW$149       .dwtag  DW_TAG_enumerator, DW_AT_name("CSL_DMA_TXBURST_4WORD"), DW_AT_const_value(0x02)
    1692              $C$DW$150       .dwtag  DW_TAG_enumerator, DW_AT_name("CSL_DMA_TXBURST_8WORD"), DW_AT_const_value(0x03)
    1693              $C$DW$151       .dwtag  DW_TAG_enumerator, DW_AT_name("CSL_DMA_TXBURST_16WORD"), DW_AT_const_value(0x04)
    1694                      .dwendtag $C$DW$T$45
    1695              
    1696              $C$DW$T$46      .dwtag  DW_TAG_typedef, DW_AT_name("CSL_DMATxBurstLen")
    1697                      .dwattr $C$DW$T$46, DW_AT_type(*$C$DW$T$45)
    1698                      .dwattr $C$DW$T$46, DW_AT_language(DW_LANG_C)
    1699              
    1700              $C$DW$T$47      .dwtag  DW_TAG_enumeration_type
    1701                      .dwattr $C$DW$T$47, DW_AT_byte_size(0x01)
    1702              $C$DW$152       .dwtag  DW_TAG_enumerator, DW_AT_name("CSL_DMA_EVT_NONE"), DW_AT_const_value(0x00)
    1703              $C$DW$153       .dwtag  DW_TAG_enumerator, DW_AT_name("CSL_DMA_EVT_I2S0_TX"), DW_AT_const_value(0x01)
    1704              $C$DW$154       .dwtag  DW_TAG_enumerator, DW_AT_name("CSL_DMA_EVT_I2S0_RX"), DW_AT_const_value(0x02)
    1705              $C$DW$155       .dwtag  DW_TAG_enumerator, DW_AT_name("CSL_DMA_EVT_I2S1_TX"), DW_AT_const_value(0x01)
    1706              $C$DW$156       .dwtag  DW_TAG_enumerator, DW_AT_name("CSL_DMA_EVT_I2S1_RX"), DW_AT_const_value(0x02)
    1707              $C$DW$157       .dwtag  DW_TAG_enumerator, DW_AT_name("CSL_DMA_EVT_I2S2_TX"), DW_AT_const_value(0x01)
    1708              $C$DW$158       .dwtag  DW_TAG_enumerator, DW_AT_name("CSL_DMA_EVT_I2S2_RX"), DW_AT_const_value(0x02)
    1709              $C$DW$159       .dwtag  DW_TAG_enumerator, DW_AT_name("CSL_DMA_EVT_I2S3_TX"), DW_AT_const_value(0x04)
    1710              $C$DW$160       .dwtag  DW_TAG_enumerator, DW_AT_name("CSL_DMA_EVT_I2S3_RX"), DW_AT_const_value(0x05)
    1711              $C$DW$161       .dwtag  DW_TAG_enumerator, DW_AT_name("CSL_DMA_EVT_MMC_SD0_TX"), DW_AT_const_value(0x05)
    1712              $C$DW$162       .dwtag  DW_TAG_enumerator, DW_AT_name("CSL_DMA_EVT_MMC_SD0_RX"), DW_AT_const_value(0x06)
    1713              $C$DW$163       .dwtag  DW_TAG_enumerator, DW_AT_name("CSL_DMA_EVT_MMC_SD1_TX"), DW_AT_const_value(0x07)
    1714              $C$DW$164       .dwtag  DW_TAG_enumerator, DW_AT_name("CSL_DMA_EVT_MMC_SD1_RX"), DW_AT_const_value(0x08)
    1715              $C$DW$165       .dwtag  DW_TAG_enumerator, DW_AT_name("CSL_DMA_EVT_TIMER0"), DW_AT_const_value(0x0c)
    1716              $C$DW$166       .dwtag  DW_TAG_enumerator, DW_AT_name("CSL_DMA_EVT_TIMER1"), DW_AT_const_value(0x0d)
    1717              $C$DW$167       .dwtag  DW_TAG_enumerator, DW_AT_name("CSL_DMA_EVT_TIMER2"), DW_AT_const_value(0x0e)
    1718              $C$DW$168       .dwtag  DW_TAG_enumerator, DW_AT_name("CSL_DMA_EVT_UART_TX"), DW_AT_const_value(0x05)
    1719              $C$DW$169       .dwtag  DW_TAG_enumerator, DW_AT_name("CSL_DMA_EVT_UART_RX"), DW_AT_const_value(0x06)
    1720              $C$DW$170       .dwtag  DW_TAG_enumerator, DW_AT_name("CSL_DMA_EVT_I2C_TX"), DW_AT_const_value(0x01)
    1721              $C$DW$171       .dwtag  DW_TAG_enumerator, DW_AT_name("CSL_DMA_EVT_I2C_RX"), DW_AT_const_value(0x02)
    1722              $C$DW$172       .dwtag  DW_TAG_enumerator, DW_AT_name("CSL_DMA_EVT_SAR_AD"), DW_AT_const_value(0x03)
    1723              $C$DW$173       .dwtag  DW_TAG_enumerator, DW_AT_name("CSL_DMA_EVT_INVALID"), DW_AT_const_value(0x04)
    1724                      .dwendtag $C$DW$T$47
    1725              
    1726              $C$DW$T$48      .dwtag  DW_TAG_typedef, DW_AT_name("CSL_DMAEvtType")
    1727                      .dwattr $C$DW$T$48, DW_AT_type(*$C$DW$T$47)
    1728                      .dwattr $C$DW$T$48, DW_AT_language(DW_LANG_C)
    1729              
    1730              $C$DW$T$22      .dwtag  DW_TAG_structure_type
    1731                      .dwattr $C$DW$T$22, DW_AT_byte_size(0x66)
    1732              $C$DW$174       .dwtag  DW_TAG_member
    1733                      .dwattr $C$DW$174, DW_AT_type(*$C$DW$T$20)
    1734                      .dwattr $C$DW$174, DW_AT_name("DMACH0SSAL")
TMS320C55x Assembler PC v4.4.1 Sat Sep 29 23:09:38 2018

Tools Copyright (c) 1996-2012 Texas Instruments Incorporated
csl_i2c_dma_example.asm                                              PAGE   48

    1735                      .dwattr $C$DW$174, DW_AT_TI_symbol_name("_DMACH0SSAL")
    1736                      .dwattr $C$DW$174, DW_AT_data_member_location[DW_OP_plus_uconst 0x0]
    1737                      .dwattr $C$DW$174, DW_AT_accessibility(DW_ACCESS_public)
    1738              $C$DW$175       .dwtag  DW_TAG_member
    1739                      .dwattr $C$DW$175, DW_AT_type(*$C$DW$T$20)
    1740                      .dwattr $C$DW$175, DW_AT_name("DMACH0SSAU")
    1741                      .dwattr $C$DW$175, DW_AT_TI_symbol_name("_DMACH0SSAU")
    1742                      .dwattr $C$DW$175, DW_AT_data_member_location[DW_OP_plus_uconst 0x1]
    1743                      .dwattr $C$DW$175, DW_AT_accessibility(DW_ACCESS_public)
    1744              $C$DW$176       .dwtag  DW_TAG_member
    1745                      .dwattr $C$DW$176, DW_AT_type(*$C$DW$T$20)
    1746                      .dwattr $C$DW$176, DW_AT_name("DMACH0DSAL")
    1747                      .dwattr $C$DW$176, DW_AT_TI_symbol_name("_DMACH0DSAL")
    1748                      .dwattr $C$DW$176, DW_AT_data_member_location[DW_OP_plus_uconst 0x2]
    1749                      .dwattr $C$DW$176, DW_AT_accessibility(DW_ACCESS_public)
    1750              $C$DW$177       .dwtag  DW_TAG_member
    1751                      .dwattr $C$DW$177, DW_AT_type(*$C$DW$T$20)
    1752                      .dwattr $C$DW$177, DW_AT_name("DMACH0DSAU")
    1753                      .dwattr $C$DW$177, DW_AT_TI_symbol_name("_DMACH0DSAU")
    1754                      .dwattr $C$DW$177, DW_AT_data_member_location[DW_OP_plus_uconst 0x3]
    1755                      .dwattr $C$DW$177, DW_AT_accessibility(DW_ACCESS_public)
    1756              $C$DW$178       .dwtag  DW_TAG_member
    1757                      .dwattr $C$DW$178, DW_AT_type(*$C$DW$T$20)
    1758                      .dwattr $C$DW$178, DW_AT_name("DMACH0TCR1")
    1759                      .dwattr $C$DW$178, DW_AT_TI_symbol_name("_DMACH0TCR1")
    1760                      .dwattr $C$DW$178, DW_AT_data_member_location[DW_OP_plus_uconst 0x4]
    1761                      .dwattr $C$DW$178, DW_AT_accessibility(DW_ACCESS_public)
    1762              $C$DW$179       .dwtag  DW_TAG_member
    1763                      .dwattr $C$DW$179, DW_AT_type(*$C$DW$T$20)
    1764                      .dwattr $C$DW$179, DW_AT_name("DMACH0TCR2")
    1765                      .dwattr $C$DW$179, DW_AT_TI_symbol_name("_DMACH0TCR2")
    1766                      .dwattr $C$DW$179, DW_AT_data_member_location[DW_OP_plus_uconst 0x5]
    1767                      .dwattr $C$DW$179, DW_AT_accessibility(DW_ACCESS_public)
    1768              $C$DW$180       .dwtag  DW_TAG_member
    1769                      .dwattr $C$DW$180, DW_AT_type(*$C$DW$T$21)
    1770                      .dwattr $C$DW$180, DW_AT_name("RSVD0")
    1771                      .dwattr $C$DW$180, DW_AT_TI_symbol_name("_RSVD0")
    1772                      .dwattr $C$DW$180, DW_AT_data_member_location[DW_OP_plus_uconst 0x6]
    1773                      .dwattr $C$DW$180, DW_AT_accessibility(DW_ACCESS_public)
    1774              $C$DW$181       .dwtag  DW_TAG_member
    1775                      .dwattr $C$DW$181, DW_AT_type(*$C$DW$T$20)
    1776                      .dwattr $C$DW$181, DW_AT_name("DMACH1SSAL")
    1777                      .dwattr $C$DW$181, DW_AT_TI_symbol_name("_DMACH1SSAL")
    1778                      .dwattr $C$DW$181, DW_AT_data_member_location[DW_OP_plus_uconst 0x20]
    1779                      .dwattr $C$DW$181, DW_AT_accessibility(DW_ACCESS_public)
    1780              $C$DW$182       .dwtag  DW_TAG_member
    1781                      .dwattr $C$DW$182, DW_AT_type(*$C$DW$T$20)
    1782                      .dwattr $C$DW$182, DW_AT_name("DMACH1SSAU")
    1783                      .dwattr $C$DW$182, DW_AT_TI_symbol_name("_DMACH1SSAU")
    1784                      .dwattr $C$DW$182, DW_AT_data_member_location[DW_OP_plus_uconst 0x21]
    1785                      .dwattr $C$DW$182, DW_AT_accessibility(DW_ACCESS_public)
    1786              $C$DW$183       .dwtag  DW_TAG_member
    1787                      .dwattr $C$DW$183, DW_AT_type(*$C$DW$T$20)
    1788                      .dwattr $C$DW$183, DW_AT_name("DMACH1DSAL")
    1789                      .dwattr $C$DW$183, DW_AT_TI_symbol_name("_DMACH1DSAL")
TMS320C55x Assembler PC v4.4.1 Sat Sep 29 23:09:38 2018

Tools Copyright (c) 1996-2012 Texas Instruments Incorporated
csl_i2c_dma_example.asm                                              PAGE   49

    1790                      .dwattr $C$DW$183, DW_AT_data_member_location[DW_OP_plus_uconst 0x22]
    1791                      .dwattr $C$DW$183, DW_AT_accessibility(DW_ACCESS_public)
    1792              $C$DW$184       .dwtag  DW_TAG_member
    1793                      .dwattr $C$DW$184, DW_AT_type(*$C$DW$T$20)
    1794                      .dwattr $C$DW$184, DW_AT_name("DMACH1DSAU")
    1795                      .dwattr $C$DW$184, DW_AT_TI_symbol_name("_DMACH1DSAU")
    1796                      .dwattr $C$DW$184, DW_AT_data_member_location[DW_OP_plus_uconst 0x23]
    1797                      .dwattr $C$DW$184, DW_AT_accessibility(DW_ACCESS_public)
    1798              $C$DW$185       .dwtag  DW_TAG_member
    1799                      .dwattr $C$DW$185, DW_AT_type(*$C$DW$T$20)
    1800                      .dwattr $C$DW$185, DW_AT_name("DMACH1TCR1")
    1801                      .dwattr $C$DW$185, DW_AT_TI_symbol_name("_DMACH1TCR1")
    1802                      .dwattr $C$DW$185, DW_AT_data_member_location[DW_OP_plus_uconst 0x24]
    1803                      .dwattr $C$DW$185, DW_AT_accessibility(DW_ACCESS_public)
    1804              $C$DW$186       .dwtag  DW_TAG_member
    1805                      .dwattr $C$DW$186, DW_AT_type(*$C$DW$T$20)
    1806                      .dwattr $C$DW$186, DW_AT_name("DMACH1TCR2")
    1807                      .dwattr $C$DW$186, DW_AT_TI_symbol_name("_DMACH1TCR2")
    1808                      .dwattr $C$DW$186, DW_AT_data_member_location[DW_OP_plus_uconst 0x25]
    1809                      .dwattr $C$DW$186, DW_AT_accessibility(DW_ACCESS_public)
    1810              $C$DW$187       .dwtag  DW_TAG_member
    1811                      .dwattr $C$DW$187, DW_AT_type(*$C$DW$T$21)
    1812                      .dwattr $C$DW$187, DW_AT_name("RSVD1")
    1813                      .dwattr $C$DW$187, DW_AT_TI_symbol_name("_RSVD1")
    1814                      .dwattr $C$DW$187, DW_AT_data_member_location[DW_OP_plus_uconst 0x26]
    1815                      .dwattr $C$DW$187, DW_AT_accessibility(DW_ACCESS_public)
    1816              $C$DW$188       .dwtag  DW_TAG_member
    1817                      .dwattr $C$DW$188, DW_AT_type(*$C$DW$T$20)
    1818                      .dwattr $C$DW$188, DW_AT_name("DMACH2SSAL")
    1819                      .dwattr $C$DW$188, DW_AT_TI_symbol_name("_DMACH2SSAL")
    1820                      .dwattr $C$DW$188, DW_AT_data_member_location[DW_OP_plus_uconst 0x40]
    1821                      .dwattr $C$DW$188, DW_AT_accessibility(DW_ACCESS_public)
    1822              $C$DW$189       .dwtag  DW_TAG_member
    1823                      .dwattr $C$DW$189, DW_AT_type(*$C$DW$T$20)
    1824                      .dwattr $C$DW$189, DW_AT_name("DMACH2SSAU")
    1825                      .dwattr $C$DW$189, DW_AT_TI_symbol_name("_DMACH2SSAU")
    1826                      .dwattr $C$DW$189, DW_AT_data_member_location[DW_OP_plus_uconst 0x41]
    1827                      .dwattr $C$DW$189, DW_AT_accessibility(DW_ACCESS_public)
    1828              $C$DW$190       .dwtag  DW_TAG_member
    1829                      .dwattr $C$DW$190, DW_AT_type(*$C$DW$T$20)
    1830                      .dwattr $C$DW$190, DW_AT_name("DMACH2DSAL")
    1831                      .dwattr $C$DW$190, DW_AT_TI_symbol_name("_DMACH2DSAL")
    1832                      .dwattr $C$DW$190, DW_AT_data_member_location[DW_OP_plus_uconst 0x42]
    1833                      .dwattr $C$DW$190, DW_AT_accessibility(DW_ACCESS_public)
    1834              $C$DW$191       .dwtag  DW_TAG_member
    1835                      .dwattr $C$DW$191, DW_AT_type(*$C$DW$T$20)
    1836                      .dwattr $C$DW$191, DW_AT_name("DMACH2DSAU")
    1837                      .dwattr $C$DW$191, DW_AT_TI_symbol_name("_DMACH2DSAU")
    1838                      .dwattr $C$DW$191, DW_AT_data_member_location[DW_OP_plus_uconst 0x43]
    1839                      .dwattr $C$DW$191, DW_AT_accessibility(DW_ACCESS_public)
    1840              $C$DW$192       .dwtag  DW_TAG_member
    1841                      .dwattr $C$DW$192, DW_AT_type(*$C$DW$T$20)
    1842                      .dwattr $C$DW$192, DW_AT_name("DMACH2TCR1")
    1843                      .dwattr $C$DW$192, DW_AT_TI_symbol_name("_DMACH2TCR1")
    1844                      .dwattr $C$DW$192, DW_AT_data_member_location[DW_OP_plus_uconst 0x44]
TMS320C55x Assembler PC v4.4.1 Sat Sep 29 23:09:38 2018

Tools Copyright (c) 1996-2012 Texas Instruments Incorporated
csl_i2c_dma_example.asm                                              PAGE   50

    1845                      .dwattr $C$DW$192, DW_AT_accessibility(DW_ACCESS_public)
    1846              $C$DW$193       .dwtag  DW_TAG_member
    1847                      .dwattr $C$DW$193, DW_AT_type(*$C$DW$T$20)
    1848                      .dwattr $C$DW$193, DW_AT_name("DMACH2TCR2")
    1849                      .dwattr $C$DW$193, DW_AT_TI_symbol_name("_DMACH2TCR2")
    1850                      .dwattr $C$DW$193, DW_AT_data_member_location[DW_OP_plus_uconst 0x45]
    1851                      .dwattr $C$DW$193, DW_AT_accessibility(DW_ACCESS_public)
    1852              $C$DW$194       .dwtag  DW_TAG_member
    1853                      .dwattr $C$DW$194, DW_AT_type(*$C$DW$T$21)
    1854                      .dwattr $C$DW$194, DW_AT_name("RSVD2")
    1855                      .dwattr $C$DW$194, DW_AT_TI_symbol_name("_RSVD2")
    1856                      .dwattr $C$DW$194, DW_AT_data_member_location[DW_OP_plus_uconst 0x46]
    1857                      .dwattr $C$DW$194, DW_AT_accessibility(DW_ACCESS_public)
    1858              $C$DW$195       .dwtag  DW_TAG_member
    1859                      .dwattr $C$DW$195, DW_AT_type(*$C$DW$T$20)
    1860                      .dwattr $C$DW$195, DW_AT_name("DMACH3SSAL")
    1861                      .dwattr $C$DW$195, DW_AT_TI_symbol_name("_DMACH3SSAL")
    1862                      .dwattr $C$DW$195, DW_AT_data_member_location[DW_OP_plus_uconst 0x60]
    1863                      .dwattr $C$DW$195, DW_AT_accessibility(DW_ACCESS_public)
    1864              $C$DW$196       .dwtag  DW_TAG_member
    1865                      .dwattr $C$DW$196, DW_AT_type(*$C$DW$T$20)
    1866                      .dwattr $C$DW$196, DW_AT_name("DMACH3SSAU")
    1867                      .dwattr $C$DW$196, DW_AT_TI_symbol_name("_DMACH3SSAU")
    1868                      .dwattr $C$DW$196, DW_AT_data_member_location[DW_OP_plus_uconst 0x61]
    1869                      .dwattr $C$DW$196, DW_AT_accessibility(DW_ACCESS_public)
    1870              $C$DW$197       .dwtag  DW_TAG_member
    1871                      .dwattr $C$DW$197, DW_AT_type(*$C$DW$T$20)
    1872                      .dwattr $C$DW$197, DW_AT_name("DMACH3DSAL")
    1873                      .dwattr $C$DW$197, DW_AT_TI_symbol_name("_DMACH3DSAL")
    1874                      .dwattr $C$DW$197, DW_AT_data_member_location[DW_OP_plus_uconst 0x62]
    1875                      .dwattr $C$DW$197, DW_AT_accessibility(DW_ACCESS_public)
    1876              $C$DW$198       .dwtag  DW_TAG_member
    1877                      .dwattr $C$DW$198, DW_AT_type(*$C$DW$T$20)
    1878                      .dwattr $C$DW$198, DW_AT_name("DMACH3DSAU")
    1879                      .dwattr $C$DW$198, DW_AT_TI_symbol_name("_DMACH3DSAU")
    1880                      .dwattr $C$DW$198, DW_AT_data_member_location[DW_OP_plus_uconst 0x63]
    1881                      .dwattr $C$DW$198, DW_AT_accessibility(DW_ACCESS_public)
    1882              $C$DW$199       .dwtag  DW_TAG_member
    1883                      .dwattr $C$DW$199, DW_AT_type(*$C$DW$T$20)
    1884                      .dwattr $C$DW$199, DW_AT_name("DMACH3TCR1")
    1885                      .dwattr $C$DW$199, DW_AT_TI_symbol_name("_DMACH3TCR1")
    1886                      .dwattr $C$DW$199, DW_AT_data_member_location[DW_OP_plus_uconst 0x64]
    1887                      .dwattr $C$DW$199, DW_AT_accessibility(DW_ACCESS_public)
    1888              $C$DW$200       .dwtag  DW_TAG_member
    1889                      .dwattr $C$DW$200, DW_AT_type(*$C$DW$T$20)
    1890                      .dwattr $C$DW$200, DW_AT_name("DMACH3TCR2")
    1891                      .dwattr $C$DW$200, DW_AT_TI_symbol_name("_DMACH3TCR2")
    1892                      .dwattr $C$DW$200, DW_AT_data_member_location[DW_OP_plus_uconst 0x65]
    1893                      .dwattr $C$DW$200, DW_AT_accessibility(DW_ACCESS_public)
    1894                      .dwendtag $C$DW$T$22
    1895              
    1896              $C$DW$T$23      .dwtag  DW_TAG_typedef, DW_AT_name("CSL_DmaRegs")
    1897                      .dwattr $C$DW$T$23, DW_AT_type(*$C$DW$T$22)
    1898                      .dwattr $C$DW$T$23, DW_AT_language(DW_LANG_C)
    1899              $C$DW$201       .dwtag  DW_TAG_TI_far_type
TMS320C55x Assembler PC v4.4.1 Sat Sep 29 23:09:38 2018

Tools Copyright (c) 1996-2012 Texas Instruments Incorporated
csl_i2c_dma_example.asm                                              PAGE   51

    1900                      .dwattr $C$DW$201, DW_AT_type(*$C$DW$T$23)
    1901              $C$DW$202       .dwtag  DW_TAG_TI_ioport_type
    1902                      .dwattr $C$DW$202, DW_AT_type(*$C$DW$201)
    1903              $C$DW$T$24      .dwtag  DW_TAG_volatile_type
    1904                      .dwattr $C$DW$T$24, DW_AT_type(*$C$DW$202)
    1905              $C$DW$T$25      .dwtag  DW_TAG_pointer_type
    1906                      .dwattr $C$DW$T$25, DW_AT_type(*$C$DW$T$24)
    1907                      .dwattr $C$DW$T$25, DW_AT_address_class(0x10)
    1908              $C$DW$T$26      .dwtag  DW_TAG_typedef, DW_AT_name("CSL_DmaRegsOvly")
    1909                      .dwattr $C$DW$T$26, DW_AT_type(*$C$DW$T$25)
    1910                      .dwattr $C$DW$T$26, DW_AT_language(DW_LANG_C)
    1911              
    1912              $C$DW$T$40      .dwtag  DW_TAG_structure_type
    1913                      .dwattr $C$DW$T$40, DW_AT_byte_size(0x09)
    1914              $C$DW$203       .dwtag  DW_TAG_member
    1915                      .dwattr $C$DW$203, DW_AT_type(*$C$DW$T$26)
    1916                      .dwattr $C$DW$203, DW_AT_name("dmaRegs")
    1917                      .dwattr $C$DW$203, DW_AT_TI_symbol_name("_dmaRegs")
    1918                      .dwattr $C$DW$203, DW_AT_data_member_location[DW_OP_plus_uconst 0x0]
    1919                      .dwattr $C$DW$203, DW_AT_accessibility(DW_ACCESS_public)
    1920              $C$DW$204       .dwtag  DW_TAG_member
    1921                      .dwattr $C$DW$204, DW_AT_type(*$C$DW$T$28)
    1922                      .dwattr $C$DW$204, DW_AT_name("chanNum")
    1923                      .dwattr $C$DW$204, DW_AT_TI_symbol_name("_chanNum")
    1924                      .dwattr $C$DW$204, DW_AT_data_member_location[DW_OP_plus_uconst 0x1]
    1925                      .dwattr $C$DW$204, DW_AT_accessibility(DW_ACCESS_public)
    1926              $C$DW$205       .dwtag  DW_TAG_member
    1927                      .dwattr $C$DW$205, DW_AT_type(*$C$DW$T$30)
    1928                      .dwattr $C$DW$205, DW_AT_name("dmaInstNum")
    1929                      .dwattr $C$DW$205, DW_AT_TI_symbol_name("_dmaInstNum")
    1930                      .dwattr $C$DW$205, DW_AT_data_member_location[DW_OP_plus_uconst 0x2]
    1931                      .dwattr $C$DW$205, DW_AT_accessibility(DW_ACCESS_public)
    1932              $C$DW$206       .dwtag  DW_TAG_member
    1933                      .dwattr $C$DW$206, DW_AT_type(*$C$DW$T$31)
    1934                      .dwattr $C$DW$206, DW_AT_name("isChanFree")
    1935                      .dwattr $C$DW$206, DW_AT_TI_symbol_name("_isChanFree")
    1936                      .dwattr $C$DW$206, DW_AT_data_member_location[DW_OP_plus_uconst 0x3]
    1937                      .dwattr $C$DW$206, DW_AT_accessibility(DW_ACCESS_public)
    1938              $C$DW$207       .dwtag  DW_TAG_member
    1939                      .dwattr $C$DW$207, DW_AT_type(*$C$DW$T$33)
    1940                      .dwattr $C$DW$207, DW_AT_name("chanDir")
    1941                      .dwattr $C$DW$207, DW_AT_TI_symbol_name("_chanDir")
    1942                      .dwattr $C$DW$207, DW_AT_data_member_location[DW_OP_plus_uconst 0x4]
    1943                      .dwattr $C$DW$207, DW_AT_accessibility(DW_ACCESS_public)
    1944              $C$DW$208       .dwtag  DW_TAG_member
    1945                      .dwattr $C$DW$208, DW_AT_type(*$C$DW$T$35)
    1946                      .dwattr $C$DW$208, DW_AT_name("trigger")
    1947                      .dwattr $C$DW$208, DW_AT_TI_symbol_name("_trigger")
    1948                      .dwattr $C$DW$208, DW_AT_data_member_location[DW_OP_plus_uconst 0x5]
    1949                      .dwattr $C$DW$208, DW_AT_accessibility(DW_ACCESS_public)
    1950              $C$DW$209       .dwtag  DW_TAG_member
    1951                      .dwattr $C$DW$209, DW_AT_type(*$C$DW$T$37)
    1952                      .dwattr $C$DW$209, DW_AT_name("trfType")
    1953                      .dwattr $C$DW$209, DW_AT_TI_symbol_name("_trfType")
    1954                      .dwattr $C$DW$209, DW_AT_data_member_location[DW_OP_plus_uconst 0x6]
TMS320C55x Assembler PC v4.4.1 Sat Sep 29 23:09:38 2018

Tools Copyright (c) 1996-2012 Texas Instruments Incorporated
csl_i2c_dma_example.asm                                              PAGE   52

    1955                      .dwattr $C$DW$209, DW_AT_accessibility(DW_ACCESS_public)
    1956              $C$DW$210       .dwtag  DW_TAG_member
    1957                      .dwattr $C$DW$210, DW_AT_type(*$C$DW$T$39)
    1958                      .dwattr $C$DW$210, DW_AT_name("dmaInt")
    1959                      .dwattr $C$DW$210, DW_AT_TI_symbol_name("_dmaInt")
    1960                      .dwattr $C$DW$210, DW_AT_data_member_location[DW_OP_plus_uconst 0x7]
    1961                      .dwattr $C$DW$210, DW_AT_accessibility(DW_ACCESS_public)
    1962              $C$DW$211       .dwtag  DW_TAG_member
    1963                      .dwattr $C$DW$211, DW_AT_type(*$C$DW$T$31)
    1964                      .dwattr $C$DW$211, DW_AT_name("pingPongEnabled")
    1965                      .dwattr $C$DW$211, DW_AT_TI_symbol_name("_pingPongEnabled")
    1966                      .dwattr $C$DW$211, DW_AT_data_member_location[DW_OP_plus_uconst 0x8]
    1967                      .dwattr $C$DW$211, DW_AT_accessibility(DW_ACCESS_public)
    1968                      .dwendtag $C$DW$T$40
    1969              
    1970              $C$DW$T$82      .dwtag  DW_TAG_typedef, DW_AT_name("CSL_DMA_ChannelObj")
    1971                      .dwattr $C$DW$T$82, DW_AT_type(*$C$DW$T$40)
    1972                      .dwattr $C$DW$T$82, DW_AT_language(DW_LANG_C)
    1973              $C$DW$T$83      .dwtag  DW_TAG_pointer_type
    1974                      .dwattr $C$DW$T$83, DW_AT_type(*$C$DW$T$82)
    1975                      .dwattr $C$DW$T$83, DW_AT_address_class(0x17)
    1976              $C$DW$T$84      .dwtag  DW_TAG_typedef, DW_AT_name("CSL_DMA_Handle")
    1977                      .dwattr $C$DW$T$84, DW_AT_type(*$C$DW$T$83)
    1978                      .dwattr $C$DW$T$84, DW_AT_language(DW_LANG_C)
    1979              
    1980              $C$DW$T$50      .dwtag  DW_TAG_structure_type
    1981                      .dwattr $C$DW$T$50, DW_AT_byte_size(0x0e)
    1982              $C$DW$212       .dwtag  DW_TAG_member
    1983                      .dwattr $C$DW$212, DW_AT_type(*$C$DW$T$42)
    1984                      .dwattr $C$DW$212, DW_AT_name("pingPongMode")
    1985                      .dwattr $C$DW$212, DW_AT_TI_symbol_name("_pingPongMode")
    1986                      .dwattr $C$DW$212, DW_AT_data_member_location[DW_OP_plus_uconst 0x0]
    1987                      .dwattr $C$DW$212, DW_AT_accessibility(DW_ACCESS_public)
    1988              $C$DW$213       .dwtag  DW_TAG_member
    1989                      .dwattr $C$DW$213, DW_AT_type(*$C$DW$T$44)
    1990                      .dwattr $C$DW$213, DW_AT_name("autoMode")
    1991                      .dwattr $C$DW$213, DW_AT_TI_symbol_name("_autoMode")
    1992                      .dwattr $C$DW$213, DW_AT_data_member_location[DW_OP_plus_uconst 0x1]
    1993                      .dwattr $C$DW$213, DW_AT_accessibility(DW_ACCESS_public)
    1994              $C$DW$214       .dwtag  DW_TAG_member
    1995                      .dwattr $C$DW$214, DW_AT_type(*$C$DW$T$46)
    1996                      .dwattr $C$DW$214, DW_AT_name("burstLen")
    1997                      .dwattr $C$DW$214, DW_AT_TI_symbol_name("_burstLen")
    1998                      .dwattr $C$DW$214, DW_AT_data_member_location[DW_OP_plus_uconst 0x2]
    1999                      .dwattr $C$DW$214, DW_AT_accessibility(DW_ACCESS_public)
    2000              $C$DW$215       .dwtag  DW_TAG_member
    2001                      .dwattr $C$DW$215, DW_AT_type(*$C$DW$T$35)
    2002                      .dwattr $C$DW$215, DW_AT_name("trigger")
    2003                      .dwattr $C$DW$215, DW_AT_TI_symbol_name("_trigger")
    2004                      .dwattr $C$DW$215, DW_AT_data_member_location[DW_OP_plus_uconst 0x3]
    2005                      .dwattr $C$DW$215, DW_AT_accessibility(DW_ACCESS_public)
    2006              $C$DW$216       .dwtag  DW_TAG_member
    2007                      .dwattr $C$DW$216, DW_AT_type(*$C$DW$T$48)
    2008                      .dwattr $C$DW$216, DW_AT_name("dmaEvt")
    2009                      .dwattr $C$DW$216, DW_AT_TI_symbol_name("_dmaEvt")
TMS320C55x Assembler PC v4.4.1 Sat Sep 29 23:09:38 2018

Tools Copyright (c) 1996-2012 Texas Instruments Incorporated
csl_i2c_dma_example.asm                                              PAGE   53

    2010                      .dwattr $C$DW$216, DW_AT_data_member_location[DW_OP_plus_uconst 0x4]
    2011                      .dwattr $C$DW$216, DW_AT_accessibility(DW_ACCESS_public)
    2012              $C$DW$217       .dwtag  DW_TAG_member
    2013                      .dwattr $C$DW$217, DW_AT_type(*$C$DW$T$39)
    2014                      .dwattr $C$DW$217, DW_AT_name("dmaInt")
    2015                      .dwattr $C$DW$217, DW_AT_TI_symbol_name("_dmaInt")
    2016                      .dwattr $C$DW$217, DW_AT_data_member_location[DW_OP_plus_uconst 0x5]
    2017                      .dwattr $C$DW$217, DW_AT_accessibility(DW_ACCESS_public)
    2018              $C$DW$218       .dwtag  DW_TAG_member
    2019                      .dwattr $C$DW$218, DW_AT_type(*$C$DW$T$33)
    2020                      .dwattr $C$DW$218, DW_AT_name("chanDir")
    2021                      .dwattr $C$DW$218, DW_AT_TI_symbol_name("_chanDir")
    2022                      .dwattr $C$DW$218, DW_AT_data_member_location[DW_OP_plus_uconst 0x6]
    2023                      .dwattr $C$DW$218, DW_AT_accessibility(DW_ACCESS_public)
    2024              $C$DW$219       .dwtag  DW_TAG_member
    2025                      .dwattr $C$DW$219, DW_AT_type(*$C$DW$T$37)
    2026                      .dwattr $C$DW$219, DW_AT_name("trfType")
    2027                      .dwattr $C$DW$219, DW_AT_TI_symbol_name("_trfType")
    2028                      .dwattr $C$DW$219, DW_AT_data_member_location[DW_OP_plus_uconst 0x7]
    2029                      .dwattr $C$DW$219, DW_AT_accessibility(DW_ACCESS_public)
    2030              $C$DW$220       .dwtag  DW_TAG_member
    2031                      .dwattr $C$DW$220, DW_AT_type(*$C$DW$T$19)
    2032                      .dwattr $C$DW$220, DW_AT_name("dataLen")
    2033                      .dwattr $C$DW$220, DW_AT_TI_symbol_name("_dataLen")
    2034                      .dwattr $C$DW$220, DW_AT_data_member_location[DW_OP_plus_uconst 0x8]
    2035                      .dwattr $C$DW$220, DW_AT_accessibility(DW_ACCESS_public)
    2036              $C$DW$221       .dwtag  DW_TAG_member
    2037                      .dwattr $C$DW$221, DW_AT_type(*$C$DW$T$49)
    2038                      .dwattr $C$DW$221, DW_AT_name("srcAddr")
    2039                      .dwattr $C$DW$221, DW_AT_TI_symbol_name("_srcAddr")
    2040                      .dwattr $C$DW$221, DW_AT_data_member_location[DW_OP_plus_uconst 0xa]
    2041                      .dwattr $C$DW$221, DW_AT_accessibility(DW_ACCESS_public)
    2042              $C$DW$222       .dwtag  DW_TAG_member
    2043                      .dwattr $C$DW$222, DW_AT_type(*$C$DW$T$49)
    2044                      .dwattr $C$DW$222, DW_AT_name("destAddr")
    2045                      .dwattr $C$DW$222, DW_AT_TI_symbol_name("_destAddr")
    2046                      .dwattr $C$DW$222, DW_AT_data_member_location[DW_OP_plus_uconst 0xc]
    2047                      .dwattr $C$DW$222, DW_AT_accessibility(DW_ACCESS_public)
    2048                      .dwendtag $C$DW$T$50
    2049              
    2050              $C$DW$T$92      .dwtag  DW_TAG_typedef, DW_AT_name("CSL_DMA_Config")
    2051                      .dwattr $C$DW$T$92, DW_AT_type(*$C$DW$T$50)
    2052                      .dwattr $C$DW$T$92, DW_AT_language(DW_LANG_C)
    2053              $C$DW$T$93      .dwtag  DW_TAG_pointer_type
    2054                      .dwattr $C$DW$T$93, DW_AT_type(*$C$DW$T$92)
    2055                      .dwattr $C$DW$T$93, DW_AT_address_class(0x17)
    2056              
    2057              $C$DW$T$52      .dwtag  DW_TAG_structure_type
    2058                      .dwattr $C$DW$T$52, DW_AT_byte_size(0x39)
    2059              $C$DW$223       .dwtag  DW_TAG_member
    2060                      .dwattr $C$DW$223, DW_AT_type(*$C$DW$T$20)
    2061                      .dwattr $C$DW$223, DW_AT_name("ICOAR")
    2062                      .dwattr $C$DW$223, DW_AT_TI_symbol_name("_ICOAR")
    2063                      .dwattr $C$DW$223, DW_AT_data_member_location[DW_OP_plus_uconst 0x0]
    2064                      .dwattr $C$DW$223, DW_AT_accessibility(DW_ACCESS_public)
TMS320C55x Assembler PC v4.4.1 Sat Sep 29 23:09:38 2018

Tools Copyright (c) 1996-2012 Texas Instruments Incorporated
csl_i2c_dma_example.asm                                              PAGE   54

    2065              $C$DW$224       .dwtag  DW_TAG_member
    2066                      .dwattr $C$DW$224, DW_AT_type(*$C$DW$T$51)
    2067                      .dwattr $C$DW$224, DW_AT_name("RSVD0")
    2068                      .dwattr $C$DW$224, DW_AT_TI_symbol_name("_RSVD0")
    2069                      .dwattr $C$DW$224, DW_AT_data_member_location[DW_OP_plus_uconst 0x1]
    2070                      .dwattr $C$DW$224, DW_AT_accessibility(DW_ACCESS_public)
    2071              $C$DW$225       .dwtag  DW_TAG_member
    2072                      .dwattr $C$DW$225, DW_AT_type(*$C$DW$T$20)
    2073                      .dwattr $C$DW$225, DW_AT_name("ICIMR")
    2074                      .dwattr $C$DW$225, DW_AT_TI_symbol_name("_ICIMR")
    2075                      .dwattr $C$DW$225, DW_AT_data_member_location[DW_OP_plus_uconst 0x4]
    2076                      .dwattr $C$DW$225, DW_AT_accessibility(DW_ACCESS_public)
    2077              $C$DW$226       .dwtag  DW_TAG_member
    2078                      .dwattr $C$DW$226, DW_AT_type(*$C$DW$T$51)
    2079                      .dwattr $C$DW$226, DW_AT_name("RSVD1")
    2080                      .dwattr $C$DW$226, DW_AT_TI_symbol_name("_RSVD1")
    2081                      .dwattr $C$DW$226, DW_AT_data_member_location[DW_OP_plus_uconst 0x5]
    2082                      .dwattr $C$DW$226, DW_AT_accessibility(DW_ACCESS_public)
    2083              $C$DW$227       .dwtag  DW_TAG_member
    2084                      .dwattr $C$DW$227, DW_AT_type(*$C$DW$T$20)
    2085                      .dwattr $C$DW$227, DW_AT_name("ICSTR")
    2086                      .dwattr $C$DW$227, DW_AT_TI_symbol_name("_ICSTR")
    2087                      .dwattr $C$DW$227, DW_AT_data_member_location[DW_OP_plus_uconst 0x8]
    2088                      .dwattr $C$DW$227, DW_AT_accessibility(DW_ACCESS_public)
    2089              $C$DW$228       .dwtag  DW_TAG_member
    2090                      .dwattr $C$DW$228, DW_AT_type(*$C$DW$T$51)
    2091                      .dwattr $C$DW$228, DW_AT_name("RSVD2")
    2092                      .dwattr $C$DW$228, DW_AT_TI_symbol_name("_RSVD2")
    2093                      .dwattr $C$DW$228, DW_AT_data_member_location[DW_OP_plus_uconst 0x9]
    2094                      .dwattr $C$DW$228, DW_AT_accessibility(DW_ACCESS_public)
    2095              $C$DW$229       .dwtag  DW_TAG_member
    2096                      .dwattr $C$DW$229, DW_AT_type(*$C$DW$T$20)
    2097                      .dwattr $C$DW$229, DW_AT_name("ICCLKL")
    2098                      .dwattr $C$DW$229, DW_AT_TI_symbol_name("_ICCLKL")
    2099                      .dwattr $C$DW$229, DW_AT_data_member_location[DW_OP_plus_uconst 0xc]
    2100                      .dwattr $C$DW$229, DW_AT_accessibility(DW_ACCESS_public)
    2101              $C$DW$230       .dwtag  DW_TAG_member
    2102                      .dwattr $C$DW$230, DW_AT_type(*$C$DW$T$51)
    2103                      .dwattr $C$DW$230, DW_AT_name("RSVD3")
    2104                      .dwattr $C$DW$230, DW_AT_TI_symbol_name("_RSVD3")
    2105                      .dwattr $C$DW$230, DW_AT_data_member_location[DW_OP_plus_uconst 0xd]
    2106                      .dwattr $C$DW$230, DW_AT_accessibility(DW_ACCESS_public)
    2107              $C$DW$231       .dwtag  DW_TAG_member
    2108                      .dwattr $C$DW$231, DW_AT_type(*$C$DW$T$20)
    2109                      .dwattr $C$DW$231, DW_AT_name("ICCLKH")
    2110                      .dwattr $C$DW$231, DW_AT_TI_symbol_name("_ICCLKH")
    2111                      .dwattr $C$DW$231, DW_AT_data_member_location[DW_OP_plus_uconst 0x10]
    2112                      .dwattr $C$DW$231, DW_AT_accessibility(DW_ACCESS_public)
    2113              $C$DW$232       .dwtag  DW_TAG_member
    2114                      .dwattr $C$DW$232, DW_AT_type(*$C$DW$T$51)
    2115                      .dwattr $C$DW$232, DW_AT_name("RSVD4")
    2116                      .dwattr $C$DW$232, DW_AT_TI_symbol_name("_RSVD4")
    2117                      .dwattr $C$DW$232, DW_AT_data_member_location[DW_OP_plus_uconst 0x11]
    2118                      .dwattr $C$DW$232, DW_AT_accessibility(DW_ACCESS_public)
    2119              $C$DW$233       .dwtag  DW_TAG_member
TMS320C55x Assembler PC v4.4.1 Sat Sep 29 23:09:38 2018

Tools Copyright (c) 1996-2012 Texas Instruments Incorporated
csl_i2c_dma_example.asm                                              PAGE   55

    2120                      .dwattr $C$DW$233, DW_AT_type(*$C$DW$T$20)
    2121                      .dwattr $C$DW$233, DW_AT_name("ICCNT")
    2122                      .dwattr $C$DW$233, DW_AT_TI_symbol_name("_ICCNT")
    2123                      .dwattr $C$DW$233, DW_AT_data_member_location[DW_OP_plus_uconst 0x14]
    2124                      .dwattr $C$DW$233, DW_AT_accessibility(DW_ACCESS_public)
    2125              $C$DW$234       .dwtag  DW_TAG_member
    2126                      .dwattr $C$DW$234, DW_AT_type(*$C$DW$T$51)
    2127                      .dwattr $C$DW$234, DW_AT_name("RSVD5")
    2128                      .dwattr $C$DW$234, DW_AT_TI_symbol_name("_RSVD5")
    2129                      .dwattr $C$DW$234, DW_AT_data_member_location[DW_OP_plus_uconst 0x15]
    2130                      .dwattr $C$DW$234, DW_AT_accessibility(DW_ACCESS_public)
    2131              $C$DW$235       .dwtag  DW_TAG_member
    2132                      .dwattr $C$DW$235, DW_AT_type(*$C$DW$T$20)
    2133                      .dwattr $C$DW$235, DW_AT_name("ICDRR")
    2134                      .dwattr $C$DW$235, DW_AT_TI_symbol_name("_ICDRR")
    2135                      .dwattr $C$DW$235, DW_AT_data_member_location[DW_OP_plus_uconst 0x18]
    2136                      .dwattr $C$DW$235, DW_AT_accessibility(DW_ACCESS_public)
    2137              $C$DW$236       .dwtag  DW_TAG_member
    2138                      .dwattr $C$DW$236, DW_AT_type(*$C$DW$T$51)
    2139                      .dwattr $C$DW$236, DW_AT_name("RSVD6")
    2140                      .dwattr $C$DW$236, DW_AT_TI_symbol_name("_RSVD6")
    2141                      .dwattr $C$DW$236, DW_AT_data_member_location[DW_OP_plus_uconst 0x19]
    2142                      .dwattr $C$DW$236, DW_AT_accessibility(DW_ACCESS_public)
    2143              $C$DW$237       .dwtag  DW_TAG_member
    2144                      .dwattr $C$DW$237, DW_AT_type(*$C$DW$T$20)
    2145                      .dwattr $C$DW$237, DW_AT_name("ICSAR")
    2146                      .dwattr $C$DW$237, DW_AT_TI_symbol_name("_ICSAR")
    2147                      .dwattr $C$DW$237, DW_AT_data_member_location[DW_OP_plus_uconst 0x1c]
    2148                      .dwattr $C$DW$237, DW_AT_accessibility(DW_ACCESS_public)
    2149              $C$DW$238       .dwtag  DW_TAG_member
    2150                      .dwattr $C$DW$238, DW_AT_type(*$C$DW$T$51)
    2151                      .dwattr $C$DW$238, DW_AT_name("RSVD7")
    2152                      .dwattr $C$DW$238, DW_AT_TI_symbol_name("_RSVD7")
    2153                      .dwattr $C$DW$238, DW_AT_data_member_location[DW_OP_plus_uconst 0x1d]
    2154                      .dwattr $C$DW$238, DW_AT_accessibility(DW_ACCESS_public)
    2155              $C$DW$239       .dwtag  DW_TAG_member
    2156                      .dwattr $C$DW$239, DW_AT_type(*$C$DW$T$20)
    2157                      .dwattr $C$DW$239, DW_AT_name("ICDXR")
    2158                      .dwattr $C$DW$239, DW_AT_TI_symbol_name("_ICDXR")
    2159                      .dwattr $C$DW$239, DW_AT_data_member_location[DW_OP_plus_uconst 0x20]
    2160                      .dwattr $C$DW$239, DW_AT_accessibility(DW_ACCESS_public)
    2161              $C$DW$240       .dwtag  DW_TAG_member
    2162                      .dwattr $C$DW$240, DW_AT_type(*$C$DW$T$51)
    2163                      .dwattr $C$DW$240, DW_AT_name("RSVD8")
    2164                      .dwattr $C$DW$240, DW_AT_TI_symbol_name("_RSVD8")
    2165                      .dwattr $C$DW$240, DW_AT_data_member_location[DW_OP_plus_uconst 0x21]
    2166                      .dwattr $C$DW$240, DW_AT_accessibility(DW_ACCESS_public)
    2167              $C$DW$241       .dwtag  DW_TAG_member
    2168                      .dwattr $C$DW$241, DW_AT_type(*$C$DW$T$20)
    2169                      .dwattr $C$DW$241, DW_AT_name("ICMDR")
    2170                      .dwattr $C$DW$241, DW_AT_TI_symbol_name("_ICMDR")
    2171                      .dwattr $C$DW$241, DW_AT_data_member_location[DW_OP_plus_uconst 0x24]
    2172                      .dwattr $C$DW$241, DW_AT_accessibility(DW_ACCESS_public)
    2173              $C$DW$242       .dwtag  DW_TAG_member
    2174                      .dwattr $C$DW$242, DW_AT_type(*$C$DW$T$51)
TMS320C55x Assembler PC v4.4.1 Sat Sep 29 23:09:38 2018

Tools Copyright (c) 1996-2012 Texas Instruments Incorporated
csl_i2c_dma_example.asm                                              PAGE   56

    2175                      .dwattr $C$DW$242, DW_AT_name("RSVD9")
    2176                      .dwattr $C$DW$242, DW_AT_TI_symbol_name("_RSVD9")
    2177                      .dwattr $C$DW$242, DW_AT_data_member_location[DW_OP_plus_uconst 0x25]
    2178                      .dwattr $C$DW$242, DW_AT_accessibility(DW_ACCESS_public)
    2179              $C$DW$243       .dwtag  DW_TAG_member
    2180                      .dwattr $C$DW$243, DW_AT_type(*$C$DW$T$20)
    2181                      .dwattr $C$DW$243, DW_AT_name("ICIVR")
    2182                      .dwattr $C$DW$243, DW_AT_TI_symbol_name("_ICIVR")
    2183                      .dwattr $C$DW$243, DW_AT_data_member_location[DW_OP_plus_uconst 0x28]
    2184                      .dwattr $C$DW$243, DW_AT_accessibility(DW_ACCESS_public)
    2185              $C$DW$244       .dwtag  DW_TAG_member
    2186                      .dwattr $C$DW$244, DW_AT_type(*$C$DW$T$51)
    2187                      .dwattr $C$DW$244, DW_AT_name("RSVD10")
    2188                      .dwattr $C$DW$244, DW_AT_TI_symbol_name("_RSVD10")
    2189                      .dwattr $C$DW$244, DW_AT_data_member_location[DW_OP_plus_uconst 0x29]
    2190                      .dwattr $C$DW$244, DW_AT_accessibility(DW_ACCESS_public)
    2191              $C$DW$245       .dwtag  DW_TAG_member
    2192                      .dwattr $C$DW$245, DW_AT_type(*$C$DW$T$20)
    2193                      .dwattr $C$DW$245, DW_AT_name("ICEMDR")
    2194                      .dwattr $C$DW$245, DW_AT_TI_symbol_name("_ICEMDR")
    2195                      .dwattr $C$DW$245, DW_AT_data_member_location[DW_OP_plus_uconst 0x2c]
    2196                      .dwattr $C$DW$245, DW_AT_accessibility(DW_ACCESS_public)
    2197              $C$DW$246       .dwtag  DW_TAG_member
    2198                      .dwattr $C$DW$246, DW_AT_type(*$C$DW$T$51)
    2199                      .dwattr $C$DW$246, DW_AT_name("RSVD11")
    2200                      .dwattr $C$DW$246, DW_AT_TI_symbol_name("_RSVD11")
    2201                      .dwattr $C$DW$246, DW_AT_data_member_location[DW_OP_plus_uconst 0x2d]
    2202                      .dwattr $C$DW$246, DW_AT_accessibility(DW_ACCESS_public)
    2203              $C$DW$247       .dwtag  DW_TAG_member
    2204                      .dwattr $C$DW$247, DW_AT_type(*$C$DW$T$20)
    2205                      .dwattr $C$DW$247, DW_AT_name("ICPSC")
    2206                      .dwattr $C$DW$247, DW_AT_TI_symbol_name("_ICPSC")
    2207                      .dwattr $C$DW$247, DW_AT_data_member_location[DW_OP_plus_uconst 0x30]
    2208                      .dwattr $C$DW$247, DW_AT_accessibility(DW_ACCESS_public)
    2209              $C$DW$248       .dwtag  DW_TAG_member
    2210                      .dwattr $C$DW$248, DW_AT_type(*$C$DW$T$51)
    2211                      .dwattr $C$DW$248, DW_AT_name("RSVD12")
    2212                      .dwattr $C$DW$248, DW_AT_TI_symbol_name("_RSVD12")
    2213                      .dwattr $C$DW$248, DW_AT_data_member_location[DW_OP_plus_uconst 0x31]
    2214                      .dwattr $C$DW$248, DW_AT_accessibility(DW_ACCESS_public)
    2215              $C$DW$249       .dwtag  DW_TAG_member
    2216                      .dwattr $C$DW$249, DW_AT_type(*$C$DW$T$20)
    2217                      .dwattr $C$DW$249, DW_AT_name("ICPID1")
    2218                      .dwattr $C$DW$249, DW_AT_TI_symbol_name("_ICPID1")
    2219                      .dwattr $C$DW$249, DW_AT_data_member_location[DW_OP_plus_uconst 0x34]
    2220                      .dwattr $C$DW$249, DW_AT_accessibility(DW_ACCESS_public)
    2221              $C$DW$250       .dwtag  DW_TAG_member
    2222                      .dwattr $C$DW$250, DW_AT_type(*$C$DW$T$51)
    2223                      .dwattr $C$DW$250, DW_AT_name("RSVD13")
    2224                      .dwattr $C$DW$250, DW_AT_TI_symbol_name("_RSVD13")
    2225                      .dwattr $C$DW$250, DW_AT_data_member_location[DW_OP_plus_uconst 0x35]
    2226                      .dwattr $C$DW$250, DW_AT_accessibility(DW_ACCESS_public)
    2227              $C$DW$251       .dwtag  DW_TAG_member
    2228                      .dwattr $C$DW$251, DW_AT_type(*$C$DW$T$20)
    2229                      .dwattr $C$DW$251, DW_AT_name("ICPID2")
TMS320C55x Assembler PC v4.4.1 Sat Sep 29 23:09:38 2018

Tools Copyright (c) 1996-2012 Texas Instruments Incorporated
csl_i2c_dma_example.asm                                              PAGE   57

    2230                      .dwattr $C$DW$251, DW_AT_TI_symbol_name("_ICPID2")
    2231                      .dwattr $C$DW$251, DW_AT_data_member_location[DW_OP_plus_uconst 0x38]
    2232                      .dwattr $C$DW$251, DW_AT_accessibility(DW_ACCESS_public)
    2233                      .dwendtag $C$DW$T$52
    2234              
    2235              $C$DW$T$58      .dwtag  DW_TAG_typedef, DW_AT_name("CSL_I2cRegs")
    2236                      .dwattr $C$DW$T$58, DW_AT_type(*$C$DW$T$52)
    2237                      .dwattr $C$DW$T$58, DW_AT_language(DW_LANG_C)
    2238              $C$DW$252       .dwtag  DW_TAG_TI_far_type
    2239                      .dwattr $C$DW$252, DW_AT_type(*$C$DW$T$58)
    2240              $C$DW$253       .dwtag  DW_TAG_TI_ioport_type
    2241                      .dwattr $C$DW$253, DW_AT_type(*$C$DW$252)
    2242              $C$DW$T$59      .dwtag  DW_TAG_volatile_type
    2243                      .dwattr $C$DW$T$59, DW_AT_type(*$C$DW$253)
    2244              $C$DW$T$60      .dwtag  DW_TAG_pointer_type
    2245                      .dwattr $C$DW$T$60, DW_AT_type(*$C$DW$T$59)
    2246                      .dwattr $C$DW$T$60, DW_AT_address_class(0x10)
    2247              $C$DW$T$61      .dwtag  DW_TAG_typedef, DW_AT_name("CSL_I2cRegsOvly")
    2248                      .dwattr $C$DW$T$61, DW_AT_type(*$C$DW$T$60)
    2249                      .dwattr $C$DW$T$61, DW_AT_language(DW_LANG_C)
    2250              
    2251              $C$DW$T$56      .dwtag  DW_TAG_structure_type
    2252                      .dwattr $C$DW$T$56, DW_AT_byte_size(0x48)
    2253              $C$DW$254       .dwtag  DW_TAG_member
    2254                      .dwattr $C$DW$254, DW_AT_type(*$C$DW$T$20)
    2255                      .dwattr $C$DW$254, DW_AT_name("EBSR")
    2256                      .dwattr $C$DW$254, DW_AT_TI_symbol_name("_EBSR")
    2257                      .dwattr $C$DW$254, DW_AT_data_member_location[DW_OP_plus_uconst 0x0]
    2258                      .dwattr $C$DW$254, DW_AT_accessibility(DW_ACCESS_public)
    2259              $C$DW$255       .dwtag  DW_TAG_member
    2260                      .dwattr $C$DW$255, DW_AT_type(*$C$DW$T$20)
    2261                      .dwattr $C$DW$255, DW_AT_name("RSVD0")
    2262                      .dwattr $C$DW$255, DW_AT_TI_symbol_name("_RSVD0")
    2263                      .dwattr $C$DW$255, DW_AT_data_member_location[DW_OP_plus_uconst 0x1]
    2264                      .dwattr $C$DW$255, DW_AT_accessibility(DW_ACCESS_public)
    2265              $C$DW$256       .dwtag  DW_TAG_member
    2266                      .dwattr $C$DW$256, DW_AT_type(*$C$DW$T$20)
    2267                      .dwattr $C$DW$256, DW_AT_name("PCGCR1")
    2268                      .dwattr $C$DW$256, DW_AT_TI_symbol_name("_PCGCR1")
    2269                      .dwattr $C$DW$256, DW_AT_data_member_location[DW_OP_plus_uconst 0x2]
    2270                      .dwattr $C$DW$256, DW_AT_accessibility(DW_ACCESS_public)
    2271              $C$DW$257       .dwtag  DW_TAG_member
    2272                      .dwattr $C$DW$257, DW_AT_type(*$C$DW$T$20)
    2273                      .dwattr $C$DW$257, DW_AT_name("PCGCR2")
    2274                      .dwattr $C$DW$257, DW_AT_TI_symbol_name("_PCGCR2")
    2275                      .dwattr $C$DW$257, DW_AT_data_member_location[DW_OP_plus_uconst 0x3]
    2276                      .dwattr $C$DW$257, DW_AT_accessibility(DW_ACCESS_public)
    2277              $C$DW$258       .dwtag  DW_TAG_member
    2278                      .dwattr $C$DW$258, DW_AT_type(*$C$DW$T$20)
    2279                      .dwattr $C$DW$258, DW_AT_name("PSRCR")
    2280                      .dwattr $C$DW$258, DW_AT_TI_symbol_name("_PSRCR")
    2281                      .dwattr $C$DW$258, DW_AT_data_member_location[DW_OP_plus_uconst 0x4]
    2282                      .dwattr $C$DW$258, DW_AT_accessibility(DW_ACCESS_public)
    2283              $C$DW$259       .dwtag  DW_TAG_member
    2284                      .dwattr $C$DW$259, DW_AT_type(*$C$DW$T$20)
TMS320C55x Assembler PC v4.4.1 Sat Sep 29 23:09:38 2018

Tools Copyright (c) 1996-2012 Texas Instruments Incorporated
csl_i2c_dma_example.asm                                              PAGE   58

    2285                      .dwattr $C$DW$259, DW_AT_name("PRCR")
    2286                      .dwattr $C$DW$259, DW_AT_TI_symbol_name("_PRCR")
    2287                      .dwattr $C$DW$259, DW_AT_data_member_location[DW_OP_plus_uconst 0x5]
    2288                      .dwattr $C$DW$259, DW_AT_accessibility(DW_ACCESS_public)
    2289              $C$DW$260       .dwtag  DW_TAG_member
    2290                      .dwattr $C$DW$260, DW_AT_type(*$C$DW$T$53)
    2291                      .dwattr $C$DW$260, DW_AT_name("RSVD1")
    2292                      .dwattr $C$DW$260, DW_AT_TI_symbol_name("_RSVD1")
    2293                      .dwattr $C$DW$260, DW_AT_data_member_location[DW_OP_plus_uconst 0x6]
    2294                      .dwattr $C$DW$260, DW_AT_accessibility(DW_ACCESS_public)
    2295              $C$DW$261       .dwtag  DW_TAG_member
    2296                      .dwattr $C$DW$261, DW_AT_type(*$C$DW$T$20)
    2297                      .dwattr $C$DW$261, DW_AT_name("TIAFR")
    2298                      .dwattr $C$DW$261, DW_AT_TI_symbol_name("_TIAFR")
    2299                      .dwattr $C$DW$261, DW_AT_data_member_location[DW_OP_plus_uconst 0x14]
    2300                      .dwattr $C$DW$261, DW_AT_accessibility(DW_ACCESS_public)
    2301              $C$DW$262       .dwtag  DW_TAG_member
    2302                      .dwattr $C$DW$262, DW_AT_type(*$C$DW$T$20)
    2303                      .dwattr $C$DW$262, DW_AT_name("RSVD2")
    2304                      .dwattr $C$DW$262, DW_AT_TI_symbol_name("_RSVD2")
    2305                      .dwattr $C$DW$262, DW_AT_data_member_location[DW_OP_plus_uconst 0x15]
    2306                      .dwattr $C$DW$262, DW_AT_accessibility(DW_ACCESS_public)
    2307              $C$DW$263       .dwtag  DW_TAG_member
    2308                      .dwattr $C$DW$263, DW_AT_type(*$C$DW$T$20)
    2309                      .dwattr $C$DW$263, DW_AT_name("ODSCR")
    2310                      .dwattr $C$DW$263, DW_AT_TI_symbol_name("_ODSCR")
    2311                      .dwattr $C$DW$263, DW_AT_data_member_location[DW_OP_plus_uconst 0x16]
    2312                      .dwattr $C$DW$263, DW_AT_accessibility(DW_ACCESS_public)
    2313              $C$DW$264       .dwtag  DW_TAG_member
    2314                      .dwattr $C$DW$264, DW_AT_type(*$C$DW$T$20)
    2315                      .dwattr $C$DW$264, DW_AT_name("PDINHIBR1")
    2316                      .dwattr $C$DW$264, DW_AT_TI_symbol_name("_PDINHIBR1")
    2317                      .dwattr $C$DW$264, DW_AT_data_member_location[DW_OP_plus_uconst 0x17]
    2318                      .dwattr $C$DW$264, DW_AT_accessibility(DW_ACCESS_public)
    2319              $C$DW$265       .dwtag  DW_TAG_member
    2320                      .dwattr $C$DW$265, DW_AT_type(*$C$DW$T$20)
    2321                      .dwattr $C$DW$265, DW_AT_name("PDINHIBR2")
    2322                      .dwattr $C$DW$265, DW_AT_TI_symbol_name("_PDINHIBR2")
    2323                      .dwattr $C$DW$265, DW_AT_data_member_location[DW_OP_plus_uconst 0x18]
    2324                      .dwattr $C$DW$265, DW_AT_accessibility(DW_ACCESS_public)
    2325              $C$DW$266       .dwtag  DW_TAG_member
    2326                      .dwattr $C$DW$266, DW_AT_type(*$C$DW$T$20)
    2327                      .dwattr $C$DW$266, DW_AT_name("PDINHIBR3")
    2328                      .dwattr $C$DW$266, DW_AT_TI_symbol_name("_PDINHIBR3")
    2329                      .dwattr $C$DW$266, DW_AT_data_member_location[DW_OP_plus_uconst 0x19]
    2330                      .dwattr $C$DW$266, DW_AT_accessibility(DW_ACCESS_public)
    2331              $C$DW$267       .dwtag  DW_TAG_member
    2332                      .dwattr $C$DW$267, DW_AT_type(*$C$DW$T$20)
    2333                      .dwattr $C$DW$267, DW_AT_name("DMA0CESR1")
    2334                      .dwattr $C$DW$267, DW_AT_TI_symbol_name("_DMA0CESR1")
    2335                      .dwattr $C$DW$267, DW_AT_data_member_location[DW_OP_plus_uconst 0x1a]
    2336                      .dwattr $C$DW$267, DW_AT_accessibility(DW_ACCESS_public)
    2337              $C$DW$268       .dwtag  DW_TAG_member
    2338                      .dwattr $C$DW$268, DW_AT_type(*$C$DW$T$20)
    2339                      .dwattr $C$DW$268, DW_AT_name("DMA0CESR2")
TMS320C55x Assembler PC v4.4.1 Sat Sep 29 23:09:38 2018

Tools Copyright (c) 1996-2012 Texas Instruments Incorporated
csl_i2c_dma_example.asm                                              PAGE   59

    2340                      .dwattr $C$DW$268, DW_AT_TI_symbol_name("_DMA0CESR2")
    2341                      .dwattr $C$DW$268, DW_AT_data_member_location[DW_OP_plus_uconst 0x1b]
    2342                      .dwattr $C$DW$268, DW_AT_accessibility(DW_ACCESS_public)
    2343              $C$DW$269       .dwtag  DW_TAG_member
    2344                      .dwattr $C$DW$269, DW_AT_type(*$C$DW$T$20)
    2345                      .dwattr $C$DW$269, DW_AT_name("DMA1CESR1")
    2346                      .dwattr $C$DW$269, DW_AT_TI_symbol_name("_DMA1CESR1")
    2347                      .dwattr $C$DW$269, DW_AT_data_member_location[DW_OP_plus_uconst 0x1c]
    2348                      .dwattr $C$DW$269, DW_AT_accessibility(DW_ACCESS_public)
    2349              $C$DW$270       .dwtag  DW_TAG_member
    2350                      .dwattr $C$DW$270, DW_AT_type(*$C$DW$T$20)
    2351                      .dwattr $C$DW$270, DW_AT_name("DMA1CESR2")
    2352                      .dwattr $C$DW$270, DW_AT_TI_symbol_name("_DMA1CESR2")
    2353                      .dwattr $C$DW$270, DW_AT_data_member_location[DW_OP_plus_uconst 0x1d]
    2354                      .dwattr $C$DW$270, DW_AT_accessibility(DW_ACCESS_public)
    2355              $C$DW$271       .dwtag  DW_TAG_member
    2356                      .dwattr $C$DW$271, DW_AT_type(*$C$DW$T$20)
    2357                      .dwattr $C$DW$271, DW_AT_name("SDRAMCCR")
    2358                      .dwattr $C$DW$271, DW_AT_TI_symbol_name("_SDRAMCCR")
    2359                      .dwattr $C$DW$271, DW_AT_data_member_location[DW_OP_plus_uconst 0x1e]
    2360                      .dwattr $C$DW$271, DW_AT_accessibility(DW_ACCESS_public)
    2361              $C$DW$272       .dwtag  DW_TAG_member
    2362                      .dwattr $C$DW$272, DW_AT_type(*$C$DW$T$20)
    2363                      .dwattr $C$DW$272, DW_AT_name("CCR2")
    2364                      .dwattr $C$DW$272, DW_AT_TI_symbol_name("_CCR2")
    2365                      .dwattr $C$DW$272, DW_AT_data_member_location[DW_OP_plus_uconst 0x1f]
    2366                      .dwattr $C$DW$272, DW_AT_accessibility(DW_ACCESS_public)
    2367              $C$DW$273       .dwtag  DW_TAG_member
    2368                      .dwattr $C$DW$273, DW_AT_type(*$C$DW$T$20)
    2369                      .dwattr $C$DW$273, DW_AT_name("CGCR1")
    2370                      .dwattr $C$DW$273, DW_AT_TI_symbol_name("_CGCR1")
    2371                      .dwattr $C$DW$273, DW_AT_data_member_location[DW_OP_plus_uconst 0x20]
    2372                      .dwattr $C$DW$273, DW_AT_accessibility(DW_ACCESS_public)
    2373              $C$DW$274       .dwtag  DW_TAG_member
    2374                      .dwattr $C$DW$274, DW_AT_type(*$C$DW$T$20)
    2375                      .dwattr $C$DW$274, DW_AT_name("CGICR")
    2376                      .dwattr $C$DW$274, DW_AT_TI_symbol_name("_CGICR")
    2377                      .dwattr $C$DW$274, DW_AT_data_member_location[DW_OP_plus_uconst 0x21]
    2378                      .dwattr $C$DW$274, DW_AT_accessibility(DW_ACCESS_public)
    2379              $C$DW$275       .dwtag  DW_TAG_member
    2380                      .dwattr $C$DW$275, DW_AT_type(*$C$DW$T$20)
    2381                      .dwattr $C$DW$275, DW_AT_name("CGCR2")
    2382                      .dwattr $C$DW$275, DW_AT_TI_symbol_name("_CGCR2")
    2383                      .dwattr $C$DW$275, DW_AT_data_member_location[DW_OP_plus_uconst 0x22]
    2384                      .dwattr $C$DW$275, DW_AT_accessibility(DW_ACCESS_public)
    2385              $C$DW$276       .dwtag  DW_TAG_member
    2386                      .dwattr $C$DW$276, DW_AT_type(*$C$DW$T$20)
    2387                      .dwattr $C$DW$276, DW_AT_name("CGOCR")
    2388                      .dwattr $C$DW$276, DW_AT_TI_symbol_name("_CGOCR")
    2389                      .dwattr $C$DW$276, DW_AT_data_member_location[DW_OP_plus_uconst 0x23]
    2390                      .dwattr $C$DW$276, DW_AT_accessibility(DW_ACCESS_public)
    2391              $C$DW$277       .dwtag  DW_TAG_member
    2392                      .dwattr $C$DW$277, DW_AT_type(*$C$DW$T$20)
    2393                      .dwattr $C$DW$277, DW_AT_name("CCSSR")
    2394                      .dwattr $C$DW$277, DW_AT_TI_symbol_name("_CCSSR")
TMS320C55x Assembler PC v4.4.1 Sat Sep 29 23:09:38 2018

Tools Copyright (c) 1996-2012 Texas Instruments Incorporated
csl_i2c_dma_example.asm                                              PAGE   60

    2395                      .dwattr $C$DW$277, DW_AT_data_member_location[DW_OP_plus_uconst 0x24]
    2396                      .dwattr $C$DW$277, DW_AT_accessibility(DW_ACCESS_public)
    2397              $C$DW$278       .dwtag  DW_TAG_member
    2398                      .dwattr $C$DW$278, DW_AT_type(*$C$DW$T$20)
    2399                      .dwattr $C$DW$278, DW_AT_name("RSVD3")
    2400                      .dwattr $C$DW$278, DW_AT_TI_symbol_name("_RSVD3")
    2401                      .dwattr $C$DW$278, DW_AT_data_member_location[DW_OP_plus_uconst 0x25]
    2402                      .dwattr $C$DW$278, DW_AT_accessibility(DW_ACCESS_public)
    2403              $C$DW$279       .dwtag  DW_TAG_member
    2404                      .dwattr $C$DW$279, DW_AT_type(*$C$DW$T$20)
    2405                      .dwattr $C$DW$279, DW_AT_name("ECDR")
    2406                      .dwattr $C$DW$279, DW_AT_TI_symbol_name("_ECDR")
    2407                      .dwattr $C$DW$279, DW_AT_data_member_location[DW_OP_plus_uconst 0x26]
    2408                      .dwattr $C$DW$279, DW_AT_accessibility(DW_ACCESS_public)
    2409              $C$DW$280       .dwtag  DW_TAG_member
    2410                      .dwattr $C$DW$280, DW_AT_type(*$C$DW$T$20)
    2411                      .dwattr $C$DW$280, DW_AT_name("RSVD4")
    2412                      .dwattr $C$DW$280, DW_AT_TI_symbol_name("_RSVD4")
    2413                      .dwattr $C$DW$280, DW_AT_data_member_location[DW_OP_plus_uconst 0x27]
    2414                      .dwattr $C$DW$280, DW_AT_accessibility(DW_ACCESS_public)
    2415              $C$DW$281       .dwtag  DW_TAG_member
    2416                      .dwattr $C$DW$281, DW_AT_type(*$C$DW$T$20)
    2417                      .dwattr $C$DW$281, DW_AT_name("RAMSLPMDCNTLR1")
    2418                      .dwattr $C$DW$281, DW_AT_TI_symbol_name("_RAMSLPMDCNTLR1")
    2419                      .dwattr $C$DW$281, DW_AT_data_member_location[DW_OP_plus_uconst 0x28]
    2420                      .dwattr $C$DW$281, DW_AT_accessibility(DW_ACCESS_public)
    2421              $C$DW$282       .dwtag  DW_TAG_member
    2422                      .dwattr $C$DW$282, DW_AT_type(*$C$DW$T$20)
    2423                      .dwattr $C$DW$282, DW_AT_name("RSVD5")
    2424                      .dwattr $C$DW$282, DW_AT_TI_symbol_name("_RSVD5")
    2425                      .dwattr $C$DW$282, DW_AT_data_member_location[DW_OP_plus_uconst 0x29]
    2426                      .dwattr $C$DW$282, DW_AT_accessibility(DW_ACCESS_public)
    2427              $C$DW$283       .dwtag  DW_TAG_member
    2428                      .dwattr $C$DW$283, DW_AT_type(*$C$DW$T$20)
    2429                      .dwattr $C$DW$283, DW_AT_name("RAMSLPMDCNTLR2")
    2430                      .dwattr $C$DW$283, DW_AT_TI_symbol_name("_RAMSLPMDCNTLR2")
    2431                      .dwattr $C$DW$283, DW_AT_data_member_location[DW_OP_plus_uconst 0x2a]
    2432                      .dwattr $C$DW$283, DW_AT_accessibility(DW_ACCESS_public)
    2433              $C$DW$284       .dwtag  DW_TAG_member
    2434                      .dwattr $C$DW$284, DW_AT_type(*$C$DW$T$20)
    2435                      .dwattr $C$DW$284, DW_AT_name("RAMSLPMDCNTLR3")
    2436                      .dwattr $C$DW$284, DW_AT_TI_symbol_name("_RAMSLPMDCNTLR3")
    2437                      .dwattr $C$DW$284, DW_AT_data_member_location[DW_OP_plus_uconst 0x2b]
    2438                      .dwattr $C$DW$284, DW_AT_accessibility(DW_ACCESS_public)
    2439              $C$DW$285       .dwtag  DW_TAG_member
    2440                      .dwattr $C$DW$285, DW_AT_type(*$C$DW$T$20)
    2441                      .dwattr $C$DW$285, DW_AT_name("RAMSLPMDCNTLR4")
    2442                      .dwattr $C$DW$285, DW_AT_TI_symbol_name("_RAMSLPMDCNTLR4")
    2443                      .dwattr $C$DW$285, DW_AT_data_member_location[DW_OP_plus_uconst 0x2c]
    2444                      .dwattr $C$DW$285, DW_AT_accessibility(DW_ACCESS_public)
    2445              $C$DW$286       .dwtag  DW_TAG_member
    2446                      .dwattr $C$DW$286, DW_AT_type(*$C$DW$T$20)
    2447                      .dwattr $C$DW$286, DW_AT_name("RAMSLPMDCNTLR5")
    2448                      .dwattr $C$DW$286, DW_AT_TI_symbol_name("_RAMSLPMDCNTLR5")
    2449                      .dwattr $C$DW$286, DW_AT_data_member_location[DW_OP_plus_uconst 0x2d]
TMS320C55x Assembler PC v4.4.1 Sat Sep 29 23:09:38 2018

Tools Copyright (c) 1996-2012 Texas Instruments Incorporated
csl_i2c_dma_example.asm                                              PAGE   61

    2450                      .dwattr $C$DW$286, DW_AT_accessibility(DW_ACCESS_public)
    2451              $C$DW$287       .dwtag  DW_TAG_member
    2452                      .dwattr $C$DW$287, DW_AT_type(*$C$DW$T$54)
    2453                      .dwattr $C$DW$287, DW_AT_name("RSVD6")
    2454                      .dwattr $C$DW$287, DW_AT_TI_symbol_name("_RSVD6")
    2455                      .dwattr $C$DW$287, DW_AT_data_member_location[DW_OP_plus_uconst 0x2e]
    2456                      .dwattr $C$DW$287, DW_AT_accessibility(DW_ACCESS_public)
    2457              $C$DW$288       .dwtag  DW_TAG_member
    2458                      .dwattr $C$DW$288, DW_AT_type(*$C$DW$T$20)
    2459                      .dwattr $C$DW$288, DW_AT_name("DMAIFR")
    2460                      .dwattr $C$DW$288, DW_AT_TI_symbol_name("_DMAIFR")
    2461                      .dwattr $C$DW$288, DW_AT_data_member_location[DW_OP_plus_uconst 0x30]
    2462                      .dwattr $C$DW$288, DW_AT_accessibility(DW_ACCESS_public)
    2463              $C$DW$289       .dwtag  DW_TAG_member
    2464                      .dwattr $C$DW$289, DW_AT_type(*$C$DW$T$20)
    2465                      .dwattr $C$DW$289, DW_AT_name("DMAIER")
    2466                      .dwattr $C$DW$289, DW_AT_TI_symbol_name("_DMAIER")
    2467                      .dwattr $C$DW$289, DW_AT_data_member_location[DW_OP_plus_uconst 0x31]
    2468                      .dwattr $C$DW$289, DW_AT_accessibility(DW_ACCESS_public)
    2469              $C$DW$290       .dwtag  DW_TAG_member
    2470                      .dwattr $C$DW$290, DW_AT_type(*$C$DW$T$20)
    2471                      .dwattr $C$DW$290, DW_AT_name("USBSCR")
    2472                      .dwattr $C$DW$290, DW_AT_TI_symbol_name("_USBSCR")
    2473                      .dwattr $C$DW$290, DW_AT_data_member_location[DW_OP_plus_uconst 0x32]
    2474                      .dwattr $C$DW$290, DW_AT_accessibility(DW_ACCESS_public)
    2475              $C$DW$291       .dwtag  DW_TAG_member
    2476                      .dwattr $C$DW$291, DW_AT_type(*$C$DW$T$20)
    2477                      .dwattr $C$DW$291, DW_AT_name("ESCR")
    2478                      .dwattr $C$DW$291, DW_AT_TI_symbol_name("_ESCR")
    2479                      .dwattr $C$DW$291, DW_AT_data_member_location[DW_OP_plus_uconst 0x33]
    2480                      .dwattr $C$DW$291, DW_AT_accessibility(DW_ACCESS_public)
    2481              $C$DW$292       .dwtag  DW_TAG_member
    2482                      .dwattr $C$DW$292, DW_AT_type(*$C$DW$T$54)
    2483                      .dwattr $C$DW$292, DW_AT_name("RSVD7")
    2484                      .dwattr $C$DW$292, DW_AT_TI_symbol_name("_RSVD7")
    2485                      .dwattr $C$DW$292, DW_AT_data_member_location[DW_OP_plus_uconst 0x34]
    2486                      .dwattr $C$DW$292, DW_AT_accessibility(DW_ACCESS_public)
    2487              $C$DW$293       .dwtag  DW_TAG_member
    2488                      .dwattr $C$DW$293, DW_AT_type(*$C$DW$T$20)
    2489                      .dwattr $C$DW$293, DW_AT_name("DMA2CESR1")
    2490                      .dwattr $C$DW$293, DW_AT_TI_symbol_name("_DMA2CESR1")
    2491                      .dwattr $C$DW$293, DW_AT_data_member_location[DW_OP_plus_uconst 0x36]
    2492                      .dwattr $C$DW$293, DW_AT_accessibility(DW_ACCESS_public)
    2493              $C$DW$294       .dwtag  DW_TAG_member
    2494                      .dwattr $C$DW$294, DW_AT_type(*$C$DW$T$20)
    2495                      .dwattr $C$DW$294, DW_AT_name("DMA2CESR2")
    2496                      .dwattr $C$DW$294, DW_AT_TI_symbol_name("_DMA2CESR2")
    2497                      .dwattr $C$DW$294, DW_AT_data_member_location[DW_OP_plus_uconst 0x37]
    2498                      .dwattr $C$DW$294, DW_AT_accessibility(DW_ACCESS_public)
    2499              $C$DW$295       .dwtag  DW_TAG_member
    2500                      .dwattr $C$DW$295, DW_AT_type(*$C$DW$T$20)
    2501                      .dwattr $C$DW$295, DW_AT_name("DMA3CESR1")
    2502                      .dwattr $C$DW$295, DW_AT_TI_symbol_name("_DMA3CESR1")
    2503                      .dwattr $C$DW$295, DW_AT_data_member_location[DW_OP_plus_uconst 0x38]
    2504                      .dwattr $C$DW$295, DW_AT_accessibility(DW_ACCESS_public)
TMS320C55x Assembler PC v4.4.1 Sat Sep 29 23:09:38 2018

Tools Copyright (c) 1996-2012 Texas Instruments Incorporated
csl_i2c_dma_example.asm                                              PAGE   62

    2505              $C$DW$296       .dwtag  DW_TAG_member
    2506                      .dwattr $C$DW$296, DW_AT_type(*$C$DW$T$20)
    2507                      .dwattr $C$DW$296, DW_AT_name("DMA3CESR2")
    2508                      .dwattr $C$DW$296, DW_AT_TI_symbol_name("_DMA3CESR2")
    2509                      .dwattr $C$DW$296, DW_AT_data_member_location[DW_OP_plus_uconst 0x39]
    2510                      .dwattr $C$DW$296, DW_AT_accessibility(DW_ACCESS_public)
    2511              $C$DW$297       .dwtag  DW_TAG_member
    2512                      .dwattr $C$DW$297, DW_AT_type(*$C$DW$T$20)
    2513                      .dwattr $C$DW$297, DW_AT_name("CLKSTOP")
    2514                      .dwattr $C$DW$297, DW_AT_TI_symbol_name("_CLKSTOP")
    2515                      .dwattr $C$DW$297, DW_AT_data_member_location[DW_OP_plus_uconst 0x3a]
    2516                      .dwattr $C$DW$297, DW_AT_accessibility(DW_ACCESS_public)
    2517              $C$DW$298       .dwtag  DW_TAG_member
    2518                      .dwattr $C$DW$298, DW_AT_type(*$C$DW$T$55)
    2519                      .dwattr $C$DW$298, DW_AT_name("RSVD8")
    2520                      .dwattr $C$DW$298, DW_AT_TI_symbol_name("_RSVD8")
    2521                      .dwattr $C$DW$298, DW_AT_data_member_location[DW_OP_plus_uconst 0x3b]
    2522                      .dwattr $C$DW$298, DW_AT_accessibility(DW_ACCESS_public)
    2523              $C$DW$299       .dwtag  DW_TAG_member
    2524                      .dwattr $C$DW$299, DW_AT_type(*$C$DW$T$20)
    2525                      .dwattr $C$DW$299, DW_AT_name("DIEIDR0")
    2526                      .dwattr $C$DW$299, DW_AT_TI_symbol_name("_DIEIDR0")
    2527                      .dwattr $C$DW$299, DW_AT_data_member_location[DW_OP_plus_uconst 0x40]
    2528                      .dwattr $C$DW$299, DW_AT_accessibility(DW_ACCESS_public)
    2529              $C$DW$300       .dwtag  DW_TAG_member
    2530                      .dwattr $C$DW$300, DW_AT_type(*$C$DW$T$20)
    2531                      .dwattr $C$DW$300, DW_AT_name("DIEIDR1")
    2532                      .dwattr $C$DW$300, DW_AT_TI_symbol_name("_DIEIDR1")
    2533                      .dwattr $C$DW$300, DW_AT_data_member_location[DW_OP_plus_uconst 0x41]
    2534                      .dwattr $C$DW$300, DW_AT_accessibility(DW_ACCESS_public)
    2535              $C$DW$301       .dwtag  DW_TAG_member
    2536                      .dwattr $C$DW$301, DW_AT_type(*$C$DW$T$20)
    2537                      .dwattr $C$DW$301, DW_AT_name("DIEIDR2")
    2538                      .dwattr $C$DW$301, DW_AT_TI_symbol_name("_DIEIDR2")
    2539                      .dwattr $C$DW$301, DW_AT_data_member_location[DW_OP_plus_uconst 0x42]
    2540                      .dwattr $C$DW$301, DW_AT_accessibility(DW_ACCESS_public)
    2541              $C$DW$302       .dwtag  DW_TAG_member
    2542                      .dwattr $C$DW$302, DW_AT_type(*$C$DW$T$20)
    2543                      .dwattr $C$DW$302, DW_AT_name("DIEIDR3")
    2544                      .dwattr $C$DW$302, DW_AT_TI_symbol_name("_DIEIDR3")
    2545                      .dwattr $C$DW$302, DW_AT_data_member_location[DW_OP_plus_uconst 0x43]
    2546                      .dwattr $C$DW$302, DW_AT_accessibility(DW_ACCESS_public)
    2547              $C$DW$303       .dwtag  DW_TAG_member
    2548                      .dwattr $C$DW$303, DW_AT_type(*$C$DW$T$20)
    2549                      .dwattr $C$DW$303, DW_AT_name("DIEIDR4")
    2550                      .dwattr $C$DW$303, DW_AT_TI_symbol_name("_DIEIDR4")
    2551                      .dwattr $C$DW$303, DW_AT_data_member_location[DW_OP_plus_uconst 0x44]
    2552                      .dwattr $C$DW$303, DW_AT_accessibility(DW_ACCESS_public)
    2553              $C$DW$304       .dwtag  DW_TAG_member
    2554                      .dwattr $C$DW$304, DW_AT_type(*$C$DW$T$20)
    2555                      .dwattr $C$DW$304, DW_AT_name("DIEIDR5")
    2556                      .dwattr $C$DW$304, DW_AT_TI_symbol_name("_DIEIDR5")
    2557                      .dwattr $C$DW$304, DW_AT_data_member_location[DW_OP_plus_uconst 0x45]
    2558                      .dwattr $C$DW$304, DW_AT_accessibility(DW_ACCESS_public)
    2559              $C$DW$305       .dwtag  DW_TAG_member
TMS320C55x Assembler PC v4.4.1 Sat Sep 29 23:09:38 2018

Tools Copyright (c) 1996-2012 Texas Instruments Incorporated
csl_i2c_dma_example.asm                                              PAGE   63

    2560                      .dwattr $C$DW$305, DW_AT_type(*$C$DW$T$20)
    2561                      .dwattr $C$DW$305, DW_AT_name("DIEIDR6")
    2562                      .dwattr $C$DW$305, DW_AT_TI_symbol_name("_DIEIDR6")
    2563                      .dwattr $C$DW$305, DW_AT_data_member_location[DW_OP_plus_uconst 0x46]
    2564                      .dwattr $C$DW$305, DW_AT_accessibility(DW_ACCESS_public)
    2565              $C$DW$306       .dwtag  DW_TAG_member
    2566                      .dwattr $C$DW$306, DW_AT_type(*$C$DW$T$20)
    2567                      .dwattr $C$DW$306, DW_AT_name("DIEIDR7")
    2568                      .dwattr $C$DW$306, DW_AT_TI_symbol_name("_DIEIDR7")
    2569                      .dwattr $C$DW$306, DW_AT_data_member_location[DW_OP_plus_uconst 0x47]
    2570                      .dwattr $C$DW$306, DW_AT_accessibility(DW_ACCESS_public)
    2571                      .dwendtag $C$DW$T$56
    2572              
    2573              $C$DW$T$62      .dwtag  DW_TAG_typedef, DW_AT_name("CSL_SysRegs")
    2574                      .dwattr $C$DW$T$62, DW_AT_type(*$C$DW$T$56)
    2575                      .dwattr $C$DW$T$62, DW_AT_language(DW_LANG_C)
    2576              $C$DW$307       .dwtag  DW_TAG_TI_far_type
    2577                      .dwattr $C$DW$307, DW_AT_type(*$C$DW$T$62)
    2578              $C$DW$308       .dwtag  DW_TAG_TI_ioport_type
    2579                      .dwattr $C$DW$308, DW_AT_type(*$C$DW$307)
    2580              $C$DW$T$63      .dwtag  DW_TAG_volatile_type
    2581                      .dwattr $C$DW$T$63, DW_AT_type(*$C$DW$308)
    2582              $C$DW$T$64      .dwtag  DW_TAG_pointer_type
    2583                      .dwattr $C$DW$T$64, DW_AT_type(*$C$DW$T$63)
    2584                      .dwattr $C$DW$T$64, DW_AT_address_class(0x10)
    2585              $C$DW$T$65      .dwtag  DW_TAG_typedef, DW_AT_name("CSL_SysRegsOvly")
    2586                      .dwattr $C$DW$T$65, DW_AT_type(*$C$DW$T$64)
    2587                      .dwattr $C$DW$T$65, DW_AT_language(DW_LANG_C)
    2588              
    2589              $C$DW$T$71      .dwtag  DW_TAG_enumeration_type
    2590                      .dwattr $C$DW$T$71, DW_AT_name("CSL_I2cAddrMode")
    2591                      .dwattr $C$DW$T$71, DW_AT_byte_size(0x01)
    2592              $C$DW$309       .dwtag  DW_TAG_enumerator, DW_AT_name("CSL_I2C_ADDR_7BIT"), DW_AT_const_value(0x00)
    2593              $C$DW$310       .dwtag  DW_TAG_enumerator, DW_AT_name("CSL_I2C_ADDR_10BIT"), DW_AT_const_value(0x01)
    2594                      .dwendtag $C$DW$T$71
    2595              
    2596              $C$DW$T$72      .dwtag  DW_TAG_typedef, DW_AT_name("CSL_I2cAddrMode")
    2597                      .dwattr $C$DW$T$72, DW_AT_type(*$C$DW$T$71)
    2598                      .dwattr $C$DW$T$72, DW_AT_language(DW_LANG_C)
    2599              
    2600              $C$DW$T$73      .dwtag  DW_TAG_enumeration_type
    2601                      .dwattr $C$DW$T$73, DW_AT_name("CSL_I2cBitCount")
    2602                      .dwattr $C$DW$T$73, DW_AT_byte_size(0x01)
    2603              $C$DW$311       .dwtag  DW_TAG_enumerator, DW_AT_name("CSL_I2C_BC_8BITS"), DW_AT_const_value(0x00)
    2604              $C$DW$312       .dwtag  DW_TAG_enumerator, DW_AT_name("CSL_I2C_BC_RSVD"), DW_AT_const_value(0x01)
    2605              $C$DW$313       .dwtag  DW_TAG_enumerator, DW_AT_name("CSL_I2C_BC_2BITS"), DW_AT_const_value(0x02)
    2606              $C$DW$314       .dwtag  DW_TAG_enumerator, DW_AT_name("CSL_I2C_BC_3BITS"), DW_AT_const_value(0x03)
    2607              $C$DW$315       .dwtag  DW_TAG_enumerator, DW_AT_name("CSL_I2C_BC_4BITS"), DW_AT_const_value(0x04)
    2608              $C$DW$316       .dwtag  DW_TAG_enumerator, DW_AT_name("CSL_I2C_BC_5BITS"), DW_AT_const_value(0x05)
    2609              $C$DW$317       .dwtag  DW_TAG_enumerator, DW_AT_name("CSL_I2C_BC_6BITS"), DW_AT_const_value(0x06)
    2610              $C$DW$318       .dwtag  DW_TAG_enumerator, DW_AT_name("CSL_I2C_BC_7BITS"), DW_AT_const_value(0x07)
    2611                      .dwendtag $C$DW$T$73
    2612              
    2613              $C$DW$T$74      .dwtag  DW_TAG_typedef, DW_AT_name("CSL_I2cBitCount")
    2614                      .dwattr $C$DW$T$74, DW_AT_type(*$C$DW$T$73)
TMS320C55x Assembler PC v4.4.1 Sat Sep 29 23:09:38 2018

Tools Copyright (c) 1996-2012 Texas Instruments Incorporated
csl_i2c_dma_example.asm                                              PAGE   64

    2615                      .dwattr $C$DW$T$74, DW_AT_language(DW_LANG_C)
    2616              
    2617              $C$DW$T$57      .dwtag  DW_TAG_structure_type
    2618                      .dwattr $C$DW$T$57, DW_AT_name("CSL_I2cConfig")
    2619                      .dwattr $C$DW$T$57, DW_AT_byte_size(0x09)
    2620              $C$DW$319       .dwtag  DW_TAG_member
    2621                      .dwattr $C$DW$319, DW_AT_type(*$C$DW$T$19)
    2622                      .dwattr $C$DW$319, DW_AT_name("icoar")
    2623                      .dwattr $C$DW$319, DW_AT_TI_symbol_name("_icoar")
    2624                      .dwattr $C$DW$319, DW_AT_data_member_location[DW_OP_plus_uconst 0x0]
    2625                      .dwattr $C$DW$319, DW_AT_accessibility(DW_ACCESS_public)
    2626              $C$DW$320       .dwtag  DW_TAG_member
    2627                      .dwattr $C$DW$320, DW_AT_type(*$C$DW$T$19)
    2628                      .dwattr $C$DW$320, DW_AT_name("icimr")
    2629                      .dwattr $C$DW$320, DW_AT_TI_symbol_name("_icimr")
    2630                      .dwattr $C$DW$320, DW_AT_data_member_location[DW_OP_plus_uconst 0x1]
    2631                      .dwattr $C$DW$320, DW_AT_accessibility(DW_ACCESS_public)
    2632              $C$DW$321       .dwtag  DW_TAG_member
    2633                      .dwattr $C$DW$321, DW_AT_type(*$C$DW$T$19)
    2634                      .dwattr $C$DW$321, DW_AT_name("icclkl")
    2635                      .dwattr $C$DW$321, DW_AT_TI_symbol_name("_icclkl")
    2636                      .dwattr $C$DW$321, DW_AT_data_member_location[DW_OP_plus_uconst 0x2]
    2637                      .dwattr $C$DW$321, DW_AT_accessibility(DW_ACCESS_public)
    2638              $C$DW$322       .dwtag  DW_TAG_member
    2639                      .dwattr $C$DW$322, DW_AT_type(*$C$DW$T$19)
    2640                      .dwattr $C$DW$322, DW_AT_name("icclkh")
    2641                      .dwattr $C$DW$322, DW_AT_TI_symbol_name("_icclkh")
    2642                      .dwattr $C$DW$322, DW_AT_data_member_location[DW_OP_plus_uconst 0x3]
    2643                      .dwattr $C$DW$322, DW_AT_accessibility(DW_ACCESS_public)
    2644              $C$DW$323       .dwtag  DW_TAG_member
    2645                      .dwattr $C$DW$323, DW_AT_type(*$C$DW$T$19)
    2646                      .dwattr $C$DW$323, DW_AT_name("iccnt")
    2647                      .dwattr $C$DW$323, DW_AT_TI_symbol_name("_iccnt")
    2648                      .dwattr $C$DW$323, DW_AT_data_member_location[DW_OP_plus_uconst 0x4]
    2649                      .dwattr $C$DW$323, DW_AT_accessibility(DW_ACCESS_public)
    2650              $C$DW$324       .dwtag  DW_TAG_member
    2651                      .dwattr $C$DW$324, DW_AT_type(*$C$DW$T$19)
    2652                      .dwattr $C$DW$324, DW_AT_name("icsar")
    2653                      .dwattr $C$DW$324, DW_AT_TI_symbol_name("_icsar")
    2654                      .dwattr $C$DW$324, DW_AT_data_member_location[DW_OP_plus_uconst 0x5]
    2655                      .dwattr $C$DW$324, DW_AT_accessibility(DW_ACCESS_public)
    2656              $C$DW$325       .dwtag  DW_TAG_member
    2657                      .dwattr $C$DW$325, DW_AT_type(*$C$DW$T$19)
    2658                      .dwattr $C$DW$325, DW_AT_name("icmdr")
    2659                      .dwattr $C$DW$325, DW_AT_TI_symbol_name("_icmdr")
    2660                      .dwattr $C$DW$325, DW_AT_data_member_location[DW_OP_plus_uconst 0x6]
    2661                      .dwattr $C$DW$325, DW_AT_accessibility(DW_ACCESS_public)
    2662              $C$DW$326       .dwtag  DW_TAG_member
    2663                      .dwattr $C$DW$326, DW_AT_type(*$C$DW$T$19)
    2664                      .dwattr $C$DW$326, DW_AT_name("icemdr")
    2665                      .dwattr $C$DW$326, DW_AT_TI_symbol_name("_icemdr")
    2666                      .dwattr $C$DW$326, DW_AT_data_member_location[DW_OP_plus_uconst 0x7]
    2667                      .dwattr $C$DW$326, DW_AT_accessibility(DW_ACCESS_public)
    2668              $C$DW$327       .dwtag  DW_TAG_member
    2669                      .dwattr $C$DW$327, DW_AT_type(*$C$DW$T$19)
TMS320C55x Assembler PC v4.4.1 Sat Sep 29 23:09:38 2018

Tools Copyright (c) 1996-2012 Texas Instruments Incorporated
csl_i2c_dma_example.asm                                              PAGE   65

    2670                      .dwattr $C$DW$327, DW_AT_name("icpsc")
    2671                      .dwattr $C$DW$327, DW_AT_TI_symbol_name("_icpsc")
    2672                      .dwattr $C$DW$327, DW_AT_data_member_location[DW_OP_plus_uconst 0x8]
    2673                      .dwattr $C$DW$327, DW_AT_accessibility(DW_ACCESS_public)
    2674                      .dwendtag $C$DW$T$57
    2675              
    2676              $C$DW$T$94      .dwtag  DW_TAG_typedef, DW_AT_name("CSL_I2cConfig")
    2677                      .dwattr $C$DW$T$94, DW_AT_type(*$C$DW$T$57)
    2678                      .dwattr $C$DW$T$94, DW_AT_language(DW_LANG_C)
    2679              $C$DW$T$95      .dwtag  DW_TAG_pointer_type
    2680                      .dwattr $C$DW$T$95, DW_AT_type(*$C$DW$T$94)
    2681                      .dwattr $C$DW$T$95, DW_AT_address_class(0x17)
    2682              
    2683              $C$DW$T$77      .dwtag  DW_TAG_enumeration_type
    2684                      .dwattr $C$DW$T$77, DW_AT_name("CSL_I2cFreeMode")
    2685                      .dwattr $C$DW$T$77, DW_AT_byte_size(0x01)
    2686              $C$DW$328       .dwtag  DW_TAG_enumerator, DW_AT_name("CSL_I2C_FREEMODE_DISABLE"), DW_AT_const_value(0x00)
    2687              $C$DW$329       .dwtag  DW_TAG_enumerator, DW_AT_name("CSL_I2C_FREEMODE_ENABLE"), DW_AT_const_value(0x01)
    2688                      .dwendtag $C$DW$T$77
    2689              
    2690              $C$DW$T$78      .dwtag  DW_TAG_typedef, DW_AT_name("CSL_I2cFreeMode")
    2691                      .dwattr $C$DW$T$78, DW_AT_type(*$C$DW$T$77)
    2692                      .dwattr $C$DW$T$78, DW_AT_language(DW_LANG_C)
    2693              
    2694              $C$DW$T$75      .dwtag  DW_TAG_enumeration_type
    2695                      .dwattr $C$DW$T$75, DW_AT_name("CSL_I2cLoopback")
    2696                      .dwattr $C$DW$T$75, DW_AT_byte_size(0x01)
    2697              $C$DW$330       .dwtag  DW_TAG_enumerator, DW_AT_name("CSL_I2C_LOOPBACK_DISABLE"), DW_AT_const_value(0x00)
    2698              $C$DW$331       .dwtag  DW_TAG_enumerator, DW_AT_name("CSL_I2C_LOOPBACK_ENABLE"), DW_AT_const_value(0x01)
    2699                      .dwendtag $C$DW$T$75
    2700              
    2701              $C$DW$T$76      .dwtag  DW_TAG_typedef, DW_AT_name("CSL_I2cLoopback")
    2702                      .dwattr $C$DW$T$76, DW_AT_type(*$C$DW$T$75)
    2703                      .dwattr $C$DW$T$76, DW_AT_language(DW_LANG_C)
    2704              
    2705              $C$DW$T$70      .dwtag  DW_TAG_structure_type
    2706                      .dwattr $C$DW$T$70, DW_AT_name("CSL_I2cObj")
    2707                      .dwattr $C$DW$T$70, DW_AT_byte_size(0x10)
    2708              $C$DW$332       .dwtag  DW_TAG_member
    2709                      .dwattr $C$DW$332, DW_AT_type(*$C$DW$T$61)
    2710                      .dwattr $C$DW$332, DW_AT_name("i2cRegs")
    2711                      .dwattr $C$DW$332, DW_AT_TI_symbol_name("_i2cRegs")
    2712                      .dwattr $C$DW$332, DW_AT_data_member_location[DW_OP_plus_uconst 0x0]
    2713                      .dwattr $C$DW$332, DW_AT_accessibility(DW_ACCESS_public)
    2714              $C$DW$333       .dwtag  DW_TAG_member
    2715                      .dwattr $C$DW$333, DW_AT_type(*$C$DW$T$65)
    2716                      .dwattr $C$DW$333, DW_AT_name("sysCtrlRegs")
    2717                      .dwattr $C$DW$333, DW_AT_TI_symbol_name("_sysCtrlRegs")
    2718                      .dwattr $C$DW$333, DW_AT_data_member_location[DW_OP_plus_uconst 0x1]
    2719                      .dwattr $C$DW$333, DW_AT_accessibility(DW_ACCESS_public)
    2720              $C$DW$334       .dwtag  DW_TAG_member
    2721                      .dwattr $C$DW$334, DW_AT_type(*$C$DW$T$69)
    2722                      .dwattr $C$DW$334, DW_AT_name("I2C_isrDispatchTable")
    2723                      .dwattr $C$DW$334, DW_AT_TI_symbol_name("_I2C_isrDispatchTable")
    2724                      .dwattr $C$DW$334, DW_AT_data_member_location[DW_OP_plus_uconst 0x2]
TMS320C55x Assembler PC v4.4.1 Sat Sep 29 23:09:38 2018

Tools Copyright (c) 1996-2012 Texas Instruments Incorporated
csl_i2c_dma_example.asm                                              PAGE   66

    2725                      .dwattr $C$DW$334, DW_AT_accessibility(DW_ACCESS_public)
    2726                      .dwendtag $C$DW$T$70
    2727              
    2728              $C$DW$T$96      .dwtag  DW_TAG_typedef, DW_AT_name("CSL_I2cObj")
    2729                      .dwattr $C$DW$T$96, DW_AT_type(*$C$DW$T$70)
    2730                      .dwattr $C$DW$T$96, DW_AT_language(DW_LANG_C)
    2731              $C$DW$T$97      .dwtag  DW_TAG_pointer_type
    2732                      .dwattr $C$DW$T$97, DW_AT_type(*$C$DW$T$96)
    2733                      .dwattr $C$DW$T$97, DW_AT_address_class(0x17)
    2734              $C$DW$T$98      .dwtag  DW_TAG_typedef, DW_AT_name("pI2cHandle")
    2735                      .dwattr $C$DW$T$98, DW_AT_type(*$C$DW$T$97)
    2736                      .dwattr $C$DW$T$98, DW_AT_language(DW_LANG_C)
    2737              
    2738              $C$DW$T$79      .dwtag  DW_TAG_enumeration_type
    2739                      .dwattr $C$DW$T$79, DW_AT_name("CSL_I2cRepeatMode")
    2740                      .dwattr $C$DW$T$79, DW_AT_byte_size(0x01)
    2741              $C$DW$335       .dwtag  DW_TAG_enumerator, DW_AT_name("CSL_I2C_REPEATMODE_DISABLE"), DW_AT_const_value(0x00)
    2742              $C$DW$336       .dwtag  DW_TAG_enumerator, DW_AT_name("CSL_I2C_REPEATMODE_ENABLE"), DW_AT_const_value(0x01)
    2743                      .dwendtag $C$DW$T$79
    2744              
    2745              $C$DW$T$80      .dwtag  DW_TAG_typedef, DW_AT_name("CSL_I2cRepeatMode")
    2746                      .dwattr $C$DW$T$80, DW_AT_type(*$C$DW$T$79)
    2747                      .dwattr $C$DW$T$80, DW_AT_language(DW_LANG_C)
    2748              
    2749              $C$DW$T$81      .dwtag  DW_TAG_structure_type
    2750                      .dwattr $C$DW$T$81, DW_AT_name("CSL_I2cSetup")
    2751                      .dwattr $C$DW$T$81, DW_AT_byte_size(0x0a)
    2752              $C$DW$337       .dwtag  DW_TAG_member
    2753                      .dwattr $C$DW$337, DW_AT_type(*$C$DW$T$72)
    2754                      .dwattr $C$DW$337, DW_AT_name("addrMode")
    2755                      .dwattr $C$DW$337, DW_AT_TI_symbol_name("_addrMode")
    2756                      .dwattr $C$DW$337, DW_AT_data_member_location[DW_OP_plus_uconst 0x0]
    2757                      .dwattr $C$DW$337, DW_AT_accessibility(DW_ACCESS_public)
    2758              $C$DW$338       .dwtag  DW_TAG_member
    2759                      .dwattr $C$DW$338, DW_AT_type(*$C$DW$T$74)
    2760                      .dwattr $C$DW$338, DW_AT_name("bitCount")
    2761                      .dwattr $C$DW$338, DW_AT_TI_symbol_name("_bitCount")
    2762                      .dwattr $C$DW$338, DW_AT_data_member_location[DW_OP_plus_uconst 0x1]
    2763                      .dwattr $C$DW$338, DW_AT_accessibility(DW_ACCESS_public)
    2764              $C$DW$339       .dwtag  DW_TAG_member
    2765                      .dwattr $C$DW$339, DW_AT_type(*$C$DW$T$76)
    2766                      .dwattr $C$DW$339, DW_AT_name("loopBack")
    2767                      .dwattr $C$DW$339, DW_AT_TI_symbol_name("_loopBack")
    2768                      .dwattr $C$DW$339, DW_AT_data_member_location[DW_OP_plus_uconst 0x2]
    2769                      .dwattr $C$DW$339, DW_AT_accessibility(DW_ACCESS_public)
    2770              $C$DW$340       .dwtag  DW_TAG_member
    2771                      .dwattr $C$DW$340, DW_AT_type(*$C$DW$T$78)
    2772                      .dwattr $C$DW$340, DW_AT_name("freeMode")
    2773                      .dwattr $C$DW$340, DW_AT_TI_symbol_name("_freeMode")
    2774                      .dwattr $C$DW$340, DW_AT_data_member_location[DW_OP_plus_uconst 0x3]
    2775                      .dwattr $C$DW$340, DW_AT_accessibility(DW_ACCESS_public)
    2776              $C$DW$341       .dwtag  DW_TAG_member
    2777                      .dwattr $C$DW$341, DW_AT_type(*$C$DW$T$80)
    2778                      .dwattr $C$DW$341, DW_AT_name("repeatMode")
    2779                      .dwattr $C$DW$341, DW_AT_TI_symbol_name("_repeatMode")
TMS320C55x Assembler PC v4.4.1 Sat Sep 29 23:09:38 2018

Tools Copyright (c) 1996-2012 Texas Instruments Incorporated
csl_i2c_dma_example.asm                                              PAGE   67

    2780                      .dwattr $C$DW$341, DW_AT_data_member_location[DW_OP_plus_uconst 0x4]
    2781                      .dwattr $C$DW$341, DW_AT_accessibility(DW_ACCESS_public)
    2782              $C$DW$342       .dwtag  DW_TAG_member
    2783                      .dwattr $C$DW$342, DW_AT_type(*$C$DW$T$19)
    2784                      .dwattr $C$DW$342, DW_AT_name("ownAddr")
    2785                      .dwattr $C$DW$342, DW_AT_TI_symbol_name("_ownAddr")
    2786                      .dwattr $C$DW$342, DW_AT_data_member_location[DW_OP_plus_uconst 0x5]
    2787                      .dwattr $C$DW$342, DW_AT_accessibility(DW_ACCESS_public)
    2788              $C$DW$343       .dwtag  DW_TAG_member
    2789                      .dwattr $C$DW$343, DW_AT_type(*$C$DW$T$49)
    2790                      .dwattr $C$DW$343, DW_AT_name("sysInputClk")
    2791                      .dwattr $C$DW$343, DW_AT_TI_symbol_name("_sysInputClk")
    2792                      .dwattr $C$DW$343, DW_AT_data_member_location[DW_OP_plus_uconst 0x6]
    2793                      .dwattr $C$DW$343, DW_AT_accessibility(DW_ACCESS_public)
    2794              $C$DW$344       .dwtag  DW_TAG_member
    2795                      .dwattr $C$DW$344, DW_AT_type(*$C$DW$T$49)
    2796                      .dwattr $C$DW$344, DW_AT_name("i2cBusFreq")
    2797                      .dwattr $C$DW$344, DW_AT_TI_symbol_name("_i2cBusFreq")
    2798                      .dwattr $C$DW$344, DW_AT_data_member_location[DW_OP_plus_uconst 0x8]
    2799                      .dwattr $C$DW$344, DW_AT_accessibility(DW_ACCESS_public)
    2800                      .dwendtag $C$DW$T$81
    2801              
    2802              $C$DW$T$99      .dwtag  DW_TAG_typedef, DW_AT_name("CSL_I2cSetup")
    2803                      .dwattr $C$DW$T$99, DW_AT_type(*$C$DW$T$81)
    2804                      .dwattr $C$DW$T$99, DW_AT_language(DW_LANG_C)
    2805              
    2806              $C$DW$T$66      .dwtag  DW_TAG_subroutine_type
    2807                      .dwattr $C$DW$T$66, DW_AT_language(DW_LANG_C)
    2808              $C$DW$T$67      .dwtag  DW_TAG_pointer_type
    2809                      .dwattr $C$DW$T$67, DW_AT_type(*$C$DW$T$66)
    2810                      .dwattr $C$DW$T$67, DW_AT_address_class(0x20)
    2811              $C$DW$T$68      .dwtag  DW_TAG_typedef, DW_AT_name("CSL_I2C_EVENT_ISR")
    2812                      .dwattr $C$DW$T$68, DW_AT_type(*$C$DW$T$67)
    2813                      .dwattr $C$DW$T$68, DW_AT_language(DW_LANG_C)
    2814              
    2815              $C$DW$T$69      .dwtag  DW_TAG_array_type
    2816                      .dwattr $C$DW$T$69, DW_AT_type(*$C$DW$T$68)
    2817                      .dwattr $C$DW$T$69, DW_AT_language(DW_LANG_C)
    2818                      .dwattr $C$DW$T$69, DW_AT_byte_size(0x0e)
    2819              $C$DW$345       .dwtag  DW_TAG_subrange_type
    2820                      .dwattr $C$DW$345, DW_AT_upper_bound(0x06)
    2821                      .dwendtag $C$DW$T$69
    2822              
    2823              $C$DW$T$4       .dwtag  DW_TAG_base_type
    2824                      .dwattr $C$DW$T$4, DW_AT_encoding(DW_ATE_boolean)
    2825                      .dwattr $C$DW$T$4, DW_AT_name("bool")
    2826                      .dwattr $C$DW$T$4, DW_AT_byte_size(0x01)
    2827              $C$DW$T$5       .dwtag  DW_TAG_base_type
    2828                      .dwattr $C$DW$T$5, DW_AT_encoding(DW_ATE_signed_char)
    2829                      .dwattr $C$DW$T$5, DW_AT_name("signed char")
    2830                      .dwattr $C$DW$T$5, DW_AT_byte_size(0x01)
    2831              $C$DW$T$6       .dwtag  DW_TAG_base_type
    2832                      .dwattr $C$DW$T$6, DW_AT_encoding(DW_ATE_unsigned_char)
    2833                      .dwattr $C$DW$T$6, DW_AT_name("unsigned char")
    2834                      .dwattr $C$DW$T$6, DW_AT_byte_size(0x01)
TMS320C55x Assembler PC v4.4.1 Sat Sep 29 23:09:38 2018

Tools Copyright (c) 1996-2012 Texas Instruments Incorporated
csl_i2c_dma_example.asm                                              PAGE   68

    2835              $C$DW$T$7       .dwtag  DW_TAG_base_type
    2836                      .dwattr $C$DW$T$7, DW_AT_encoding(DW_ATE_signed_char)
    2837                      .dwattr $C$DW$T$7, DW_AT_name("wchar_t")
    2838                      .dwattr $C$DW$T$7, DW_AT_byte_size(0x01)
    2839              $C$DW$T$8       .dwtag  DW_TAG_base_type
    2840                      .dwattr $C$DW$T$8, DW_AT_encoding(DW_ATE_signed)
    2841                      .dwattr $C$DW$T$8, DW_AT_name("short")
    2842                      .dwattr $C$DW$T$8, DW_AT_byte_size(0x01)
    2843              $C$DW$T$85      .dwtag  DW_TAG_typedef, DW_AT_name("Int16")
    2844                      .dwattr $C$DW$T$85, DW_AT_type(*$C$DW$T$8)
    2845                      .dwattr $C$DW$T$85, DW_AT_language(DW_LANG_C)
    2846              $C$DW$T$86      .dwtag  DW_TAG_typedef, DW_AT_name("CSL_Status")
    2847                      .dwattr $C$DW$T$86, DW_AT_type(*$C$DW$T$85)
    2848                      .dwattr $C$DW$T$86, DW_AT_language(DW_LANG_C)
    2849              $C$DW$T$87      .dwtag  DW_TAG_pointer_type
    2850                      .dwattr $C$DW$T$87, DW_AT_type(*$C$DW$T$86)
    2851                      .dwattr $C$DW$T$87, DW_AT_address_class(0x17)
    2852              $C$DW$346       .dwtag  DW_TAG_TI_far_type
    2853                      .dwattr $C$DW$346, DW_AT_type(*$C$DW$T$85)
    2854              $C$DW$T$110     .dwtag  DW_TAG_volatile_type
    2855                      .dwattr $C$DW$T$110, DW_AT_type(*$C$DW$346)
    2856              $C$DW$T$9       .dwtag  DW_TAG_base_type
    2857                      .dwattr $C$DW$T$9, DW_AT_encoding(DW_ATE_unsigned)
    2858                      .dwattr $C$DW$T$9, DW_AT_name("unsigned short")
    2859                      .dwattr $C$DW$T$9, DW_AT_byte_size(0x01)
    2860              $C$DW$T$19      .dwtag  DW_TAG_typedef, DW_AT_name("Uint16")
    2861                      .dwattr $C$DW$T$19, DW_AT_type(*$C$DW$T$9)
    2862                      .dwattr $C$DW$T$19, DW_AT_language(DW_LANG_C)
    2863              $C$DW$347       .dwtag  DW_TAG_TI_far_type
    2864                      .dwattr $C$DW$347, DW_AT_type(*$C$DW$T$19)
    2865              $C$DW$T$20      .dwtag  DW_TAG_volatile_type
    2866                      .dwattr $C$DW$T$20, DW_AT_type(*$C$DW$347)
    2867              
    2868              $C$DW$T$21      .dwtag  DW_TAG_array_type
    2869                      .dwattr $C$DW$T$21, DW_AT_type(*$C$DW$T$20)
    2870                      .dwattr $C$DW$T$21, DW_AT_language(DW_LANG_C)
    2871                      .dwattr $C$DW$T$21, DW_AT_byte_size(0x1a)
    2872              $C$DW$348       .dwtag  DW_TAG_subrange_type
    2873                      .dwattr $C$DW$348, DW_AT_upper_bound(0x19)
    2874                      .dwendtag $C$DW$T$21
    2875              
    2876              
    2877              $C$DW$T$51      .dwtag  DW_TAG_array_type
    2878                      .dwattr $C$DW$T$51, DW_AT_type(*$C$DW$T$20)
    2879                      .dwattr $C$DW$T$51, DW_AT_language(DW_LANG_C)
    2880                      .dwattr $C$DW$T$51, DW_AT_byte_size(0x03)
    2881              $C$DW$349       .dwtag  DW_TAG_subrange_type
    2882                      .dwattr $C$DW$349, DW_AT_upper_bound(0x02)
    2883                      .dwendtag $C$DW$T$51
    2884              
    2885              
