TMS320C55x Assembler PC v4.4.1 Sat Sep 29 23:09:02 2018

Tools Copyright (c) 1996-2012 Texas Instruments Incorporated
csl_mmcsd_SdCardExample.asm                                          PAGE    1

    4340              ; Temporary Registers Used: None
       1              ;*******************************************************************************
       2              ;* TMS320C55x C/C++ Codegen                                          PC v4.4.1 *
       3              ;* Date/Time created: Sat Sep 29 23:09:02 2018                                 *
       4              ;*******************************************************************************
       5                      .compiler_opts --hll_source=on --mem_model:code=flat --mem_model:data=large --object_format=coff --si
       6                      .mmregs
       7                      .cpl_on
       8                      .arms_on
       9                      .c54cm_off
      10                      .asg AR6, FP
      11                      .asg XAR6, XFP
      12                      .asg DPH, MDP
      13                      .model call=c55_std
      14                      .model mem=large
      15                      .noremark 5002  ; code respects overwrite rules
      16              ;*******************************************************************************
      17              ;* GLOBAL FILE PARAMETERS                                                      *
      18              ;*                                                                             *
      19              ;*   Architecture       : TMS320C55x                                           *
      20              ;*   Optimizing for     : Speed                                                *
      21              ;*   Memory             : Large Model (23-Bit Data Pointers)                   *
      22              ;*   Calls              : Normal Library ASM calls                             *
      23              ;*   Debug Info         : Standard TI Debug Information                        *
      24              ;*******************************************************************************
      25              
      26              $C$DW$CU        .dwtag  DW_TAG_compile_unit
      27                      .dwattr $C$DW$CU, DW_AT_name("../c5535_bsl_revc/ezdsp5535_v1/c55xx_csl/ccs_v4.0_examples/mmc_sd/CSL_M
      28                      .dwattr $C$DW$CU, DW_AT_producer("TMS320C55x C/C++ Codegen PC v4.4.1 Copyright (c) 1996-2012 Texas In
      29                      .dwattr $C$DW$CU, DW_AT_TI_version(0x01)
      30                      .dwattr $C$DW$CU, DW_AT_comp_dir("F:\eZdsp_DBG\tmp1\c55x-sim2\foo\Debug")
      31              ;******************************************************************************
      32              ;* CINIT RECORDS                                                              *
      33              ;******************************************************************************
      34 000000               .sect   ".cinit"
      35                      .align  1
      36 000000 0001          .field          1,16
      37 000001 0002-         .field          _PaSs_StAtE+0,24
         000002 9200 
      38 000002 9200          .field          0,8
      39 000003 0001          .field  1,16                    ; _PaSs_StAtE @ 0
      40              
      41 000004               .sect   ".cinit"
      42                      .align  1
      43 000004 0001          .field          1,16
      44 000005 0002-         .field          _PaSs+0,24
         000006 9300 
      45 000006 9300          .field          0,8
      46 000007 0000          .field  0,16                    ; _PaSs @ 0
      47              
      48              
      49              $C$DW$1 .dwtag  DW_TAG_subprogram, DW_AT_name("MMC_init")
      50                      .dwattr $C$DW$1, DW_AT_TI_symbol_name("_MMC_init")
      51                      .dwattr $C$DW$1, DW_AT_type(*$C$DW$T$108)
      52                      .dwattr $C$DW$1, DW_AT_declaration
TMS320C55x Assembler PC v4.4.1 Sat Sep 29 23:09:02 2018

Tools Copyright (c) 1996-2012 Texas Instruments Incorporated
csl_mmcsd_SdCardExample.asm                                          PAGE    2

      53                      .dwattr $C$DW$1, DW_AT_external
      54              
      55              $C$DW$2 .dwtag  DW_TAG_subprogram, DW_AT_name("MMC_open")
      56                      .dwattr $C$DW$2, DW_AT_TI_symbol_name("_MMC_open")
      57                      .dwattr $C$DW$2, DW_AT_type(*$C$DW$T$106)
      58                      .dwattr $C$DW$2, DW_AT_declaration
      59                      .dwattr $C$DW$2, DW_AT_external
      60              $C$DW$3 .dwtag  DW_TAG_formal_parameter
      61                      .dwattr $C$DW$3, DW_AT_type(*$C$DW$T$105)
      62              $C$DW$4 .dwtag  DW_TAG_formal_parameter
      63                      .dwattr $C$DW$4, DW_AT_type(*$C$DW$T$103)
      64              $C$DW$5 .dwtag  DW_TAG_formal_parameter
      65                      .dwattr $C$DW$5, DW_AT_type(*$C$DW$T$86)
      66              $C$DW$6 .dwtag  DW_TAG_formal_parameter
      67                      .dwattr $C$DW$6, DW_AT_type(*$C$DW$T$109)
      68                      .dwendtag $C$DW$2
      69              
      70              
      71              $C$DW$7 .dwtag  DW_TAG_subprogram, DW_AT_name("MMC_close")
      72                      .dwattr $C$DW$7, DW_AT_TI_symbol_name("_MMC_close")
      73                      .dwattr $C$DW$7, DW_AT_type(*$C$DW$T$108)
      74                      .dwattr $C$DW$7, DW_AT_declaration
      75                      .dwattr $C$DW$7, DW_AT_external
      76              $C$DW$8 .dwtag  DW_TAG_formal_parameter
      77                      .dwattr $C$DW$8, DW_AT_type(*$C$DW$T$106)
      78                      .dwendtag $C$DW$7
      79              
      80              
      81              $C$DW$9 .dwtag  DW_TAG_subprogram, DW_AT_name("MMC_setCardType")
      82                      .dwattr $C$DW$9, DW_AT_TI_symbol_name("_MMC_setCardType")
      83                      .dwattr $C$DW$9, DW_AT_type(*$C$DW$T$108)
      84                      .dwattr $C$DW$9, DW_AT_declaration
      85                      .dwattr $C$DW$9, DW_AT_external
      86              $C$DW$10        .dwtag  DW_TAG_formal_parameter
      87                      .dwattr $C$DW$10, DW_AT_type(*$C$DW$T$82)
      88              $C$DW$11        .dwtag  DW_TAG_formal_parameter
      89                      .dwattr $C$DW$11, DW_AT_type(*$C$DW$T$33)
      90                      .dwendtag $C$DW$9
      91              
      92              
      93              $C$DW$12        .dwtag  DW_TAG_subprogram, DW_AT_name("MMC_setCardPtr")
      94                      .dwattr $C$DW$12, DW_AT_TI_symbol_name("_MMC_setCardPtr")
      95                      .dwattr $C$DW$12, DW_AT_type(*$C$DW$T$108)
      96                      .dwattr $C$DW$12, DW_AT_declaration
      97                      .dwattr $C$DW$12, DW_AT_external
      98              $C$DW$13        .dwtag  DW_TAG_formal_parameter
      99                      .dwattr $C$DW$13, DW_AT_type(*$C$DW$T$106)
     100              $C$DW$14        .dwtag  DW_TAG_formal_parameter
     101                      .dwattr $C$DW$14, DW_AT_type(*$C$DW$T$82)
     102                      .dwendtag $C$DW$12
     103              
     104              
     105              $C$DW$15        .dwtag  DW_TAG_subprogram, DW_AT_name("MMC_getNumberOfCards")
     106                      .dwattr $C$DW$15, DW_AT_TI_symbol_name("_MMC_getNumberOfCards")
     107                      .dwattr $C$DW$15, DW_AT_type(*$C$DW$T$108)
TMS320C55x Assembler PC v4.4.1 Sat Sep 29 23:09:02 2018

Tools Copyright (c) 1996-2012 Texas Instruments Incorporated
csl_mmcsd_SdCardExample.asm                                          PAGE    3

     108                      .dwattr $C$DW$15, DW_AT_declaration
     109                      .dwattr $C$DW$15, DW_AT_external
     110              $C$DW$16        .dwtag  DW_TAG_formal_parameter
     111                      .dwattr $C$DW$16, DW_AT_type(*$C$DW$T$106)
     112              $C$DW$17        .dwtag  DW_TAG_formal_parameter
     113                      .dwattr $C$DW$17, DW_AT_type(*$C$DW$T$124)
     114                      .dwendtag $C$DW$15
     115              
     116              
     117              $C$DW$18        .dwtag  DW_TAG_subprogram, DW_AT_name("MMC_clearResponse")
     118                      .dwattr $C$DW$18, DW_AT_TI_symbol_name("_MMC_clearResponse")
     119                      .dwattr $C$DW$18, DW_AT_type(*$C$DW$T$108)
     120                      .dwattr $C$DW$18, DW_AT_declaration
     121                      .dwattr $C$DW$18, DW_AT_external
     122              $C$DW$19        .dwtag  DW_TAG_formal_parameter
     123                      .dwattr $C$DW$19, DW_AT_type(*$C$DW$T$106)
     124                      .dwendtag $C$DW$18
     125              
     126              
     127              $C$DW$20        .dwtag  DW_TAG_subprogram, DW_AT_name("MMC_sendCmd")
     128                      .dwattr $C$DW$20, DW_AT_TI_symbol_name("_MMC_sendCmd")
     129                      .dwattr $C$DW$20, DW_AT_type(*$C$DW$T$108)
     130                      .dwattr $C$DW$20, DW_AT_declaration
     131                      .dwattr $C$DW$20, DW_AT_external
     132              $C$DW$21        .dwtag  DW_TAG_formal_parameter
     133                      .dwattr $C$DW$21, DW_AT_type(*$C$DW$T$106)
     134              $C$DW$22        .dwtag  DW_TAG_formal_parameter
     135                      .dwattr $C$DW$22, DW_AT_type(*$C$DW$T$28)
     136              $C$DW$23        .dwtag  DW_TAG_formal_parameter
     137                      .dwattr $C$DW$23, DW_AT_type(*$C$DW$T$28)
     138              $C$DW$24        .dwtag  DW_TAG_formal_parameter
     139                      .dwattr $C$DW$24, DW_AT_type(*$C$DW$T$19)
     140                      .dwendtag $C$DW$20
     141              
     142              
     143              $C$DW$25        .dwtag  DW_TAG_subprogram, DW_AT_name("MMC_sendGoIdle")
     144                      .dwattr $C$DW$25, DW_AT_TI_symbol_name("_MMC_sendGoIdle")
     145                      .dwattr $C$DW$25, DW_AT_type(*$C$DW$T$108)
     146                      .dwattr $C$DW$25, DW_AT_declaration
     147                      .dwattr $C$DW$25, DW_AT_external
     148              $C$DW$26        .dwtag  DW_TAG_formal_parameter
     149                      .dwattr $C$DW$26, DW_AT_type(*$C$DW$T$106)
     150                      .dwendtag $C$DW$25
     151              
     152              
     153              $C$DW$27        .dwtag  DW_TAG_subprogram, DW_AT_name("MMC_deselectCard")
     154                      .dwattr $C$DW$27, DW_AT_TI_symbol_name("_MMC_deselectCard")
     155                      .dwattr $C$DW$27, DW_AT_type(*$C$DW$T$108)
     156                      .dwattr $C$DW$27, DW_AT_declaration
     157                      .dwattr $C$DW$27, DW_AT_external
     158              $C$DW$28        .dwtag  DW_TAG_formal_parameter
     159                      .dwattr $C$DW$28, DW_AT_type(*$C$DW$T$106)
     160              $C$DW$29        .dwtag  DW_TAG_formal_parameter
     161                      .dwattr $C$DW$29, DW_AT_type(*$C$DW$T$82)
     162                      .dwendtag $C$DW$27
TMS320C55x Assembler PC v4.4.1 Sat Sep 29 23:09:02 2018

Tools Copyright (c) 1996-2012 Texas Instruments Incorporated
csl_mmcsd_SdCardExample.asm                                          PAGE    4

     163              
     164              
     165              $C$DW$30        .dwtag  DW_TAG_subprogram, DW_AT_name("MMC_selectCard")
     166                      .dwattr $C$DW$30, DW_AT_TI_symbol_name("_MMC_selectCard")
     167                      .dwattr $C$DW$30, DW_AT_type(*$C$DW$T$108)
     168                      .dwattr $C$DW$30, DW_AT_declaration
     169                      .dwattr $C$DW$30, DW_AT_external
     170              $C$DW$31        .dwtag  DW_TAG_formal_parameter
     171                      .dwattr $C$DW$31, DW_AT_type(*$C$DW$T$106)
     172              $C$DW$32        .dwtag  DW_TAG_formal_parameter
     173                      .dwattr $C$DW$32, DW_AT_type(*$C$DW$T$82)
     174                      .dwendtag $C$DW$30
     175              
     176              
     177              $C$DW$33        .dwtag  DW_TAG_subprogram, DW_AT_name("MMC_sendOpCond")
     178                      .dwattr $C$DW$33, DW_AT_TI_symbol_name("_MMC_sendOpCond")
     179                      .dwattr $C$DW$33, DW_AT_type(*$C$DW$T$108)
     180                      .dwattr $C$DW$33, DW_AT_declaration
     181                      .dwattr $C$DW$33, DW_AT_external
     182              $C$DW$34        .dwtag  DW_TAG_formal_parameter
     183                      .dwattr $C$DW$34, DW_AT_type(*$C$DW$T$106)
     184              $C$DW$35        .dwtag  DW_TAG_formal_parameter
     185                      .dwattr $C$DW$35, DW_AT_type(*$C$DW$T$19)
     186                      .dwendtag $C$DW$33
     187              
     188              
     189              $C$DW$36        .dwtag  DW_TAG_subprogram, DW_AT_name("SD_sendRca")
     190                      .dwattr $C$DW$36, DW_AT_TI_symbol_name("_SD_sendRca")
     191                      .dwattr $C$DW$36, DW_AT_type(*$C$DW$T$108)
     192                      .dwattr $C$DW$36, DW_AT_declaration
     193                      .dwattr $C$DW$36, DW_AT_external
     194              $C$DW$37        .dwtag  DW_TAG_formal_parameter
     195                      .dwattr $C$DW$37, DW_AT_type(*$C$DW$T$106)
     196              $C$DW$38        .dwtag  DW_TAG_formal_parameter
     197                      .dwattr $C$DW$38, DW_AT_type(*$C$DW$T$82)
     198              $C$DW$39        .dwtag  DW_TAG_formal_parameter
     199                      .dwattr $C$DW$39, DW_AT_type(*$C$DW$T$124)
     200                      .dwendtag $C$DW$36
     201              
     202              
     203              $C$DW$40        .dwtag  DW_TAG_subprogram, DW_AT_name("SD_sendAllCID")
     204                      .dwattr $C$DW$40, DW_AT_TI_symbol_name("_SD_sendAllCID")
     205                      .dwattr $C$DW$40, DW_AT_type(*$C$DW$T$108)
     206                      .dwattr $C$DW$40, DW_AT_declaration
     207                      .dwattr $C$DW$40, DW_AT_external
     208              $C$DW$41        .dwtag  DW_TAG_formal_parameter
     209                      .dwattr $C$DW$41, DW_AT_type(*$C$DW$T$106)
     210              $C$DW$42        .dwtag  DW_TAG_formal_parameter
     211                      .dwattr $C$DW$42, DW_AT_type(*$C$DW$T$35)
     212                      .dwendtag $C$DW$40
     213              
     214              
     215              $C$DW$43        .dwtag  DW_TAG_subprogram, DW_AT_name("SD_getCardCsd")
     216                      .dwattr $C$DW$43, DW_AT_TI_symbol_name("_SD_getCardCsd")
     217                      .dwattr $C$DW$43, DW_AT_type(*$C$DW$T$108)
TMS320C55x Assembler PC v4.4.1 Sat Sep 29 23:09:02 2018

Tools Copyright (c) 1996-2012 Texas Instruments Incorporated
csl_mmcsd_SdCardExample.asm                                          PAGE    5

     218                      .dwattr $C$DW$43, DW_AT_declaration
     219                      .dwattr $C$DW$43, DW_AT_external
     220              $C$DW$44        .dwtag  DW_TAG_formal_parameter
     221                      .dwattr $C$DW$44, DW_AT_type(*$C$DW$T$106)
     222              $C$DW$45        .dwtag  DW_TAG_formal_parameter
     223                      .dwattr $C$DW$45, DW_AT_type(*$C$DW$T$37)
     224                      .dwendtag $C$DW$43
     225              
     226              
     227              $C$DW$46        .dwtag  DW_TAG_subprogram, DW_AT_name("MMC_read")
     228                      .dwattr $C$DW$46, DW_AT_TI_symbol_name("_MMC_read")
     229                      .dwattr $C$DW$46, DW_AT_type(*$C$DW$T$108)
     230                      .dwattr $C$DW$46, DW_AT_declaration
     231                      .dwattr $C$DW$46, DW_AT_external
     232              $C$DW$47        .dwtag  DW_TAG_formal_parameter
     233                      .dwattr $C$DW$47, DW_AT_type(*$C$DW$T$106)
     234              $C$DW$48        .dwtag  DW_TAG_formal_parameter
     235                      .dwattr $C$DW$48, DW_AT_type(*$C$DW$T$28)
     236              $C$DW$49        .dwtag  DW_TAG_formal_parameter
     237                      .dwattr $C$DW$49, DW_AT_type(*$C$DW$T$19)
     238              $C$DW$50        .dwtag  DW_TAG_formal_parameter
     239                      .dwattr $C$DW$50, DW_AT_type(*$C$DW$T$124)
     240                      .dwendtag $C$DW$46
     241              
     242              
     243              $C$DW$51        .dwtag  DW_TAG_subprogram, DW_AT_name("MMC_write")
     244                      .dwattr $C$DW$51, DW_AT_TI_symbol_name("_MMC_write")
     245                      .dwattr $C$DW$51, DW_AT_type(*$C$DW$T$108)
     246                      .dwattr $C$DW$51, DW_AT_declaration
     247                      .dwattr $C$DW$51, DW_AT_external
     248              $C$DW$52        .dwtag  DW_TAG_formal_parameter
     249                      .dwattr $C$DW$52, DW_AT_type(*$C$DW$T$106)
     250              $C$DW$53        .dwtag  DW_TAG_formal_parameter
     251                      .dwattr $C$DW$53, DW_AT_type(*$C$DW$T$28)
     252              $C$DW$54        .dwtag  DW_TAG_formal_parameter
     253                      .dwattr $C$DW$54, DW_AT_type(*$C$DW$T$19)
     254              $C$DW$55        .dwtag  DW_TAG_formal_parameter
     255                      .dwattr $C$DW$55, DW_AT_type(*$C$DW$T$124)
     256                      .dwendtag $C$DW$51
     257              
     258              
     259              $C$DW$56        .dwtag  DW_TAG_subprogram, DW_AT_name("MMC_setEndianMode")
     260                      .dwattr $C$DW$56, DW_AT_TI_symbol_name("_MMC_setEndianMode")
     261                      .dwattr $C$DW$56, DW_AT_type(*$C$DW$T$108)
     262                      .dwattr $C$DW$56, DW_AT_declaration
     263                      .dwattr $C$DW$56, DW_AT_external
     264              $C$DW$57        .dwtag  DW_TAG_formal_parameter
     265                      .dwattr $C$DW$57, DW_AT_type(*$C$DW$T$106)
     266              $C$DW$58        .dwtag  DW_TAG_formal_parameter
     267                      .dwattr $C$DW$58, DW_AT_type(*$C$DW$T$97)
     268              $C$DW$59        .dwtag  DW_TAG_formal_parameter
     269                      .dwattr $C$DW$59, DW_AT_type(*$C$DW$T$97)
     270                      .dwendtag $C$DW$56
     271              
     272              
TMS320C55x Assembler PC v4.4.1 Sat Sep 29 23:09:02 2018

Tools Copyright (c) 1996-2012 Texas Instruments Incorporated
csl_mmcsd_SdCardExample.asm                                          PAGE    6

     273              $C$DW$60        .dwtag  DW_TAG_subprogram, DW_AT_name("MMC_setBlockLength")
     274                      .dwattr $C$DW$60, DW_AT_TI_symbol_name("_MMC_setBlockLength")
     275                      .dwattr $C$DW$60, DW_AT_type(*$C$DW$T$108)
     276                      .dwattr $C$DW$60, DW_AT_declaration
     277                      .dwattr $C$DW$60, DW_AT_external
     278              $C$DW$61        .dwtag  DW_TAG_formal_parameter
     279                      .dwattr $C$DW$61, DW_AT_type(*$C$DW$T$106)
     280              $C$DW$62        .dwtag  DW_TAG_formal_parameter
     281                      .dwattr $C$DW$62, DW_AT_type(*$C$DW$T$28)
     282                      .dwendtag $C$DW$60
     283              
     284              
     285              $C$DW$63        .dwtag  DW_TAG_subprogram, DW_AT_name("SD_setBusWidth")
     286                      .dwattr $C$DW$63, DW_AT_TI_symbol_name("_SD_setBusWidth")
     287                      .dwattr $C$DW$63, DW_AT_type(*$C$DW$T$108)
     288                      .dwattr $C$DW$63, DW_AT_declaration
     289                      .dwattr $C$DW$63, DW_AT_external
     290              $C$DW$64        .dwtag  DW_TAG_formal_parameter
     291                      .dwattr $C$DW$64, DW_AT_type(*$C$DW$T$106)
     292              $C$DW$65        .dwtag  DW_TAG_formal_parameter
     293                      .dwattr $C$DW$65, DW_AT_type(*$C$DW$T$26)
     294                      .dwendtag $C$DW$63
     295              
     296              
     297              $C$DW$66        .dwtag  DW_TAG_subprogram, DW_AT_name("MMC_getCardStatus")
     298                      .dwattr $C$DW$66, DW_AT_TI_symbol_name("_MMC_getCardStatus")
     299                      .dwattr $C$DW$66, DW_AT_type(*$C$DW$T$108)
     300                      .dwattr $C$DW$66, DW_AT_declaration
     301                      .dwattr $C$DW$66, DW_AT_external
     302              $C$DW$67        .dwtag  DW_TAG_formal_parameter
     303                      .dwattr $C$DW$67, DW_AT_type(*$C$DW$T$106)
     304              $C$DW$68        .dwtag  DW_TAG_formal_parameter
     305                      .dwattr $C$DW$68, DW_AT_type(*$C$DW$T$145)
     306                      .dwendtag $C$DW$66
     307              
     308              
     309              $C$DW$69        .dwtag  DW_TAG_subprogram, DW_AT_name("SD_configurePullup")
     310                      .dwattr $C$DW$69, DW_AT_TI_symbol_name("_SD_configurePullup")
     311                      .dwattr $C$DW$69, DW_AT_type(*$C$DW$T$108)
     312                      .dwattr $C$DW$69, DW_AT_declaration
     313                      .dwattr $C$DW$69, DW_AT_external
     314              $C$DW$70        .dwtag  DW_TAG_formal_parameter
     315                      .dwattr $C$DW$70, DW_AT_type(*$C$DW$T$106)
     316              $C$DW$71        .dwtag  DW_TAG_formal_parameter
     317                      .dwattr $C$DW$71, DW_AT_type(*$C$DW$T$40)
     318                      .dwendtag $C$DW$69
     319              
     320              
     321              $C$DW$72        .dwtag  DW_TAG_subprogram, DW_AT_name("printf")
     322                      .dwattr $C$DW$72, DW_AT_TI_symbol_name("_printf")
     323                      .dwattr $C$DW$72, DW_AT_type(*$C$DW$T$10)
     324                      .dwattr $C$DW$72, DW_AT_declaration
     325                      .dwattr $C$DW$72, DW_AT_external
     326              $C$DW$73        .dwtag  DW_TAG_formal_parameter
     327                      .dwattr $C$DW$73, DW_AT_type(*$C$DW$T$157)
TMS320C55x Assembler PC v4.4.1 Sat Sep 29 23:09:02 2018

Tools Copyright (c) 1996-2012 Texas Instruments Incorporated
csl_mmcsd_SdCardExample.asm                                          PAGE    7

     328              $C$DW$74        .dwtag  DW_TAG_unspecified_parameters
     329                      .dwendtag $C$DW$72
     330              
     331                      .global _pMmcsdContObj
     332 000000               .bss    _pMmcsdContObj,64,0,2
     333              $C$DW$75        .dwtag  DW_TAG_variable, DW_AT_name("pMmcsdContObj")
     334                      .dwattr $C$DW$75, DW_AT_TI_symbol_name("_pMmcsdContObj")
     335                      .dwattr $C$DW$75, DW_AT_location[DW_OP_addr _pMmcsdContObj]
     336                      .dwattr $C$DW$75, DW_AT_type(*$C$DW$T$104)
     337                      .dwattr $C$DW$75, DW_AT_external
     338                      .global _mmcsdHandle
     339 000040               .bss    _mmcsdHandle,2,0,2
     340              $C$DW$76        .dwtag  DW_TAG_variable, DW_AT_name("mmcsdHandle")
     341                      .dwattr $C$DW$76, DW_AT_TI_symbol_name("_mmcsdHandle")
     342                      .dwattr $C$DW$76, DW_AT_location[DW_OP_addr _mmcsdHandle]
     343                      .dwattr $C$DW$76, DW_AT_type(*$C$DW$T$106)
     344                      .dwattr $C$DW$76, DW_AT_external
     345                      .global _mmcCardObj
     346 000042               .bss    _mmcCardObj,30,0,2
     347              $C$DW$77        .dwtag  DW_TAG_variable, DW_AT_name("mmcCardObj")
     348                      .dwattr $C$DW$77, DW_AT_TI_symbol_name("_mmcCardObj")
     349                      .dwattr $C$DW$77, DW_AT_location[DW_OP_addr _mmcCardObj]
     350                      .dwattr $C$DW$77, DW_AT_type(*$C$DW$T$81)
     351                      .dwattr $C$DW$77, DW_AT_external
     352                      .global _sdCardIdObj
     353 000060               .bss    _sdCardIdObj,16,0,2
     354              $C$DW$78        .dwtag  DW_TAG_variable, DW_AT_name("sdCardIdObj")
     355                      .dwattr $C$DW$78, DW_AT_TI_symbol_name("_sdCardIdObj")
     356                      .dwattr $C$DW$78, DW_AT_location[DW_OP_addr _sdCardIdObj]
     357                      .dwattr $C$DW$78, DW_AT_type(*$C$DW$T$34)
     358                      .dwattr $C$DW$78, DW_AT_external
     359                      .global _sdCardCsdObj
     360 000070               .bss    _sdCardCsdObj,34,0,0
     361              $C$DW$79        .dwtag  DW_TAG_variable, DW_AT_name("sdCardCsdObj")
     362                      .dwattr $C$DW$79, DW_AT_TI_symbol_name("_sdCardCsdObj")
     363                      .dwattr $C$DW$79, DW_AT_location[DW_OP_addr _sdCardCsdObj]
     364                      .dwattr $C$DW$79, DW_AT_type(*$C$DW$T$36)
     365                      .dwattr $C$DW$79, DW_AT_external
     366                      .global _pReadBuff
     367 000092               .bss    _pReadBuff,256,0,0
     368              $C$DW$80        .dwtag  DW_TAG_variable, DW_AT_name("pReadBuff")
     369                      .dwattr $C$DW$80, DW_AT_TI_symbol_name("_pReadBuff")
     370                      .dwattr $C$DW$80, DW_AT_location[DW_OP_addr _pReadBuff]
     371                      .dwattr $C$DW$80, DW_AT_type(*$C$DW$T$154)
     372                      .dwattr $C$DW$80, DW_AT_external
     373                      .global _pWritedBuff
     374 000192               .bss    _pWritedBuff,256,0,0
     375              $C$DW$81        .dwtag  DW_TAG_variable, DW_AT_name("pWritedBuff")
     376                      .dwattr $C$DW$81, DW_AT_TI_symbol_name("_pWritedBuff")
     377                      .dwattr $C$DW$81, DW_AT_location[DW_OP_addr _pWritedBuff]
     378                      .dwattr $C$DW$81, DW_AT_type(*$C$DW$T$154)
     379                      .dwattr $C$DW$81, DW_AT_external
     380                      .global _PaSs_StAtE
     381 000292               .bss    _PaSs_StAtE,1,0,0
     382              $C$DW$82        .dwtag  DW_TAG_variable, DW_AT_name("PaSs_StAtE")
TMS320C55x Assembler PC v4.4.1 Sat Sep 29 23:09:02 2018

Tools Copyright (c) 1996-2012 Texas Instruments Incorporated
csl_mmcsd_SdCardExample.asm                                          PAGE    8

     383                      .dwattr $C$DW$82, DW_AT_TI_symbol_name("_PaSs_StAtE")
     384                      .dwattr $C$DW$82, DW_AT_location[DW_OP_addr _PaSs_StAtE]
     385                      .dwattr $C$DW$82, DW_AT_type(*$C$DW$T$150)
     386                      .dwattr $C$DW$82, DW_AT_external
     387                      .global _PaSs
     388 000293               .bss    _PaSs,1,0,0
     389              $C$DW$83        .dwtag  DW_TAG_variable, DW_AT_name("PaSs")
     390                      .dwattr $C$DW$83, DW_AT_TI_symbol_name("_PaSs")
     391                      .dwattr $C$DW$83, DW_AT_location[DW_OP_addr _PaSs]
     392                      .dwattr $C$DW$83, DW_AT_type(*$C$DW$T$150)
     393                      .dwattr $C$DW$83, DW_AT_external
     394              ;       F:\t\cc5p5\ccsv5\tools\compiler\c5500_4.4.1\bin\acp55.exe -@f:\\AppData\\Local\\Temp\\2719212 
     395 000000               .sect   ".text"
     396                      .align 4
     397                      .global _main
     398              
     399              $C$DW$84        .dwtag  DW_TAG_subprogram, DW_AT_name("main")
     400                      .dwattr $C$DW$84, DW_AT_low_pc(_main)
     401                      .dwattr $C$DW$84, DW_AT_high_pc(0x00)
     402                      .dwattr $C$DW$84, DW_AT_TI_symbol_name("_main")
     403                      .dwattr $C$DW$84, DW_AT_external
     404                      .dwattr $C$DW$84, DW_AT_TI_begin_file("../c5535_bsl_revc/ezdsp5535_v1/c55xx_csl/ccs_v4.0_examples/mmc
     405                      .dwattr $C$DW$84, DW_AT_TI_begin_line(0xcc)
     406                      .dwattr $C$DW$84, DW_AT_TI_begin_column(0x06)
     407                      .dwattr $C$DW$84, DW_AT_TI_max_frame_size(0x04)
     408                      .dwpsn  file "../c5535_bsl_revc/ezdsp5535_v1/c55xx_csl/ccs_v4.0_examples/mmc_sd/CSL_MMCSD_SdCardExamp
     409              
     410                      .dwfde $C$DW$CIE, _main
     411              ;*******************************************************************************
     412              ;* FUNCTION NAME: main                                                         *
     413              ;*                                                                             *
     414              ;*   Function Uses Regs : T0,AR1,AR3,XAR3,SP,M40,SATA,SATD,RDM,FRCT,SMUL       *
     415              ;*   Stack Frame        : Compact (No Frame Pointer, w/ debug)                 *
     416              ;*   Total Frame Size   : 4 words                                              *
     417              ;*                        (1 return address/alignment)                         *
     418              ;*                        (2 function parameters)                              *
     419              ;*                        (1 local values)                                     *
     420              ;*   Min System Stack   : 1 word                                               *
     421              ;*******************************************************************************
     422 000000       _main:
     423                      .dwcfi  cfa_offset, 1
     424                      .dwcfi  save_reg_to_mem, 91, -1
     425 000000 4EFD          AADD #-3, SP
     426                      .dwcfi  cfa_offset, 4
     427              $C$DW$85        .dwtag  DW_TAG_variable, DW_AT_name("status")
     428                      .dwattr $C$DW$85, DW_AT_TI_symbol_name("_status")
     429                      .dwattr $C$DW$85, DW_AT_type(*$C$DW$T$108)
     430                      .dwattr $C$DW$85, DW_AT_location[DW_OP_bregx 0x24 2]
     431                      .dwpsn  file "../c5535_bsl_revc/ezdsp5535_v1/c55xx_csl/ccs_v4.0_examples/mmc_sd/CSL_MMCSD_SdCardExamp
     432 000002 EC31          AMOV #$C$FSL1, XAR3 ; |208| 
         000004 BE00 
         000006 0000+
     433 000008 EB00          MOV XAR3, dbl(*SP(#0))
         00000a B5   
     434              $C$DW$86        .dwtag  DW_TAG_TI_branch
TMS320C55x Assembler PC v4.4.1 Sat Sep 29 23:09:02 2018

Tools Copyright (c) 1996-2012 Texas Instruments Incorporated
csl_mmcsd_SdCardExample.asm                                          PAGE    9

     435                      .dwattr $C$DW$86, DW_AT_low_pc(0x00)
     436                      .dwattr $C$DW$86, DW_AT_name("_printf")
     437                      .dwattr $C$DW$86, DW_AT_TI_call
     438 00000b 6C00          CALL #_printf ; |208| 
         00000d 0000!
     439                                                      ; call occurs [#_printf] ; |208| 
     440                      .dwpsn  file "../c5535_bsl_revc/ezdsp5535_v1/c55xx_csl/ccs_v4.0_examples/mmc_sd/CSL_MMCSD_SdCardExamp
     441              $C$DW$87        .dwtag  DW_TAG_TI_branch
     442                      .dwattr $C$DW$87, DW_AT_low_pc(0x00)
     443                      .dwattr $C$DW$87, DW_AT_name("_CSL_sdCardPollTest")
     444                      .dwattr $C$DW$87, DW_AT_TI_call
     445 00000f 0800          CALL #_CSL_sdCardPollTest ; |210| 
         000011 3A   
     446                                                      ; call occurs [#_CSL_sdCardPollTest] ; |210| 
     447 000012 C404          MOV T0, *SP(#2) ; |210| 
     448                      .dwpsn  file "../c5535_bsl_revc/ezdsp5535_v1/c55xx_csl/ccs_v4.0_examples/mmc_sd/CSL_MMCSD_SdCardExamp
     449 000014 2249          MOV T0, AR1
     450 000016 0409          BCC $C$L1,AR1 == #0 ; |211| 
         000018 15   
     451                                                      ; branchcc occurs ; |211| 
     452                      .dwpsn  file "../c5535_bsl_revc/ezdsp5535_v1/c55xx_csl/ccs_v4.0_examples/mmc_sd/CSL_MMCSD_SdCardExamp
     453 000019 EC31          AMOV #$C$FSL2, XAR3 ; |213| 
         00001b BE00 
         00001d 0026+
     454 00001f EB00          MOV XAR3, dbl(*SP(#0))
         000021 B5   
     455              $C$DW$88        .dwtag  DW_TAG_TI_branch
     456                      .dwattr $C$DW$88, DW_AT_low_pc(0x00)
     457                      .dwattr $C$DW$88, DW_AT_name("_printf")
     458                      .dwattr $C$DW$88, DW_AT_TI_call
     459 000022 6C00          CALL #_printf ; |213| 
         000024 0000!
     460                                                      ; call occurs [#_printf] ; |213| 
     461                      .dwpsn  file "../c5535_bsl_revc/ezdsp5535_v1/c55xx_csl/ccs_v4.0_examples/mmc_sd/CSL_MMCSD_SdCardExamp
     462 000026 E631          MOV #0, *(#_PaSs_StAtE) ; |216| 
         000028 0000 
         00002a 0292-
     463                      .dwpsn  file "../c5535_bsl_revc/ezdsp5535_v1/c55xx_csl/ccs_v4.0_examples/mmc_sd/CSL_MMCSD_SdCardExamp
     464 00002c 4A0D          B $C$L2   ; |218| 
     465                                                      ; branch occurs ; |218| 
     466 00002e       $C$L1:    
     467                      .dwpsn  file "../c5535_bsl_revc/ezdsp5535_v1/c55xx_csl/ccs_v4.0_examples/mmc_sd/CSL_MMCSD_SdCardExamp
     468 00002e EC31          AMOV #$C$FSL3, XAR3 ; |221| 
         000030 BE00 
         000032 0054+
     469 000034 EB00          MOV XAR3, dbl(*SP(#0))
         000036 B5   
     470              $C$DW$89        .dwtag  DW_TAG_TI_branch
     471                      .dwattr $C$DW$89, DW_AT_low_pc(0x00)
     472                      .dwattr $C$DW$89, DW_AT_name("_printf")
     473                      .dwattr $C$DW$89, DW_AT_TI_call
     474 000037 6C00          CALL #_printf ; |221| 
         000039 0000!
     475                                                      ; call occurs [#_printf] ; |221| 
     476 00003b       $C$L2:    
TMS320C55x Assembler PC v4.4.1 Sat Sep 29 23:09:02 2018

Tools Copyright (c) 1996-2012 Texas Instruments Incorporated
csl_mmcsd_SdCardExample.asm                                          PAGE   10

     477                      .dwpsn  file "../c5535_bsl_revc/ezdsp5535_v1/c55xx_csl/ccs_v4.0_examples/mmc_sd/CSL_MMCSD_SdCardExamp
     478 00003b A931          MOV *(#_PaSs_StAtE), AR1 ; |225| 
         00003d 0002 
         00003f 92-  
     479 000040 C931          MOV AR1, *(#_PaSs) ; |225| 
         000042 0002 
         000044 93-  
     480                      .dwpsn  file "../c5535_bsl_revc/ezdsp5535_v1/c55xx_csl/ccs_v4.0_examples/mmc_sd/CSL_MMCSD_SdCardExamp
     481 000045 4E03          AADD #3, SP
     482                      .dwcfi  cfa_offset, 1
     483              $C$DW$90        .dwtag  DW_TAG_TI_branch
     484                      .dwattr $C$DW$90, DW_AT_low_pc(0x00)
     485                      .dwattr $C$DW$90, DW_AT_TI_return
     486 000047 4804          RET
     487                                                      ; return occurs
     488                      .dwattr $C$DW$84, DW_AT_TI_end_file("../c5535_bsl_revc/ezdsp5535_v1/c55xx_csl/ccs_v4.0_examples/mmc_s
     489                      .dwattr $C$DW$84, DW_AT_TI_end_line(0xe6)
     490                      .dwattr $C$DW$84, DW_AT_TI_end_column(0x01)
     491                      .dwendentry
     492                      .dwendtag $C$DW$84
     493              
     494 000049               .sect   ".text"
     495                      .align 4
     496                      .global _CSL_sdCardPollTest
     497              
     498              $C$DW$91        .dwtag  DW_TAG_subprogram, DW_AT_name("CSL_sdCardPollTest")
     499                      .dwattr $C$DW$91, DW_AT_low_pc(_CSL_sdCardPollTest)
     500                      .dwattr $C$DW$91, DW_AT_high_pc(0x00)
     501                      .dwattr $C$DW$91, DW_AT_TI_symbol_name("_CSL_sdCardPollTest")
     502                      .dwattr $C$DW$91, DW_AT_external
     503                      .dwattr $C$DW$91, DW_AT_type(*$C$DW$T$108)
     504                      .dwattr $C$DW$91, DW_AT_TI_begin_file("../c5535_bsl_revc/ezdsp5535_v1/c55xx_csl/ccs_v4.0_examples/mmc
     505                      .dwattr $C$DW$91, DW_AT_TI_begin_line(0xf3)
     506                      .dwattr $C$DW$91, DW_AT_TI_begin_column(0x0c)
     507                      .dwattr $C$DW$91, DW_AT_TI_max_frame_size(0x10)
     508                      .dwpsn  file "../c5535_bsl_revc/ezdsp5535_v1/c55xx_csl/ccs_v4.0_examples/mmc_sd/CSL_MMCSD_SdCardExamp
     509              
     510                      .dwfde $C$DW$CIE, _CSL_sdCardPollTest
     511              ;*******************************************************************************
     512              ;* FUNCTION NAME: CSL_sdCardPollTest                                           *
     513              ;*                                                                             *
     514              ;*   Function Uses Regs : AC0,AC0,AC1,AC1,T0,T1,AR0,XAR0,AR1,XAR1,AR2,XAR2,AR3,*
     515              ;*                        XAR3,SP,CARRY,TC1,M40,SATA,SATD,RDM,FRCT,SMUL        *
     516              ;*   Stack Frame        : Compact (No Frame Pointer, w/ debug)                 *
     517              ;*   Total Frame Size   : 16 words                                             *
     518              ;*                        (2 return address/alignment)                         *
     519              ;*                        (3 function parameters)                              *
     520              ;*                        (11 local values)                                    *
     521              ;*   Min System Stack   : 1 word                                               *
     522              ;*******************************************************************************
     523 00004c       _CSL_sdCardPollTest:
     524                      .dwcfi  cfa_offset, 1
     525                      .dwcfi  save_reg_to_mem, 91, -1
     526 00004c 4EF1          AADD #-15, SP
     527                      .dwcfi  cfa_offset, 16
TMS320C55x Assembler PC v4.4.1 Sat Sep 29 23:09:02 2018

Tools Copyright (c) 1996-2012 Texas Instruments Incorporated
csl_mmcsd_SdCardExample.asm                                          PAGE   11

     528              $C$DW$92        .dwtag  DW_TAG_variable, DW_AT_name("mmcStatus")
     529                      .dwattr $C$DW$92, DW_AT_TI_symbol_name("_mmcStatus")
     530                      .dwattr $C$DW$92, DW_AT_type(*$C$DW$T$108)
     531                      .dwattr $C$DW$92, DW_AT_location[DW_OP_bregx 0x24 3]
     532              $C$DW$93        .dwtag  DW_TAG_variable, DW_AT_name("count")
     533                      .dwattr $C$DW$93, DW_AT_TI_symbol_name("_count")
     534                      .dwattr $C$DW$93, DW_AT_type(*$C$DW$T$19)
     535                      .dwattr $C$DW$93, DW_AT_location[DW_OP_bregx 0x24 4]
     536              $C$DW$94        .dwtag  DW_TAG_variable, DW_AT_name("actCard")
     537                      .dwattr $C$DW$94, DW_AT_TI_symbol_name("_actCard")
     538                      .dwattr $C$DW$94, DW_AT_type(*$C$DW$T$19)
     539                      .dwattr $C$DW$94, DW_AT_location[DW_OP_bregx 0x24 5]
     540              $C$DW$95        .dwtag  DW_TAG_variable, DW_AT_name("sectCount")
     541                      .dwattr $C$DW$95, DW_AT_TI_symbol_name("_sectCount")
     542                      .dwattr $C$DW$95, DW_AT_type(*$C$DW$T$28)
     543                      .dwattr $C$DW$95, DW_AT_location[DW_OP_bregx 0x24 6]
     544              $C$DW$96        .dwtag  DW_TAG_variable, DW_AT_name("cardAddr")
     545                      .dwattr $C$DW$96, DW_AT_TI_symbol_name("_cardAddr")
     546                      .dwattr $C$DW$96, DW_AT_type(*$C$DW$T$28)
     547                      .dwattr $C$DW$96, DW_AT_location[DW_OP_bregx 0x24 8]
     548              $C$DW$97        .dwtag  DW_TAG_variable, DW_AT_name("clockDiv")
     549                      .dwattr $C$DW$97, DW_AT_TI_symbol_name("_clockDiv")
     550                      .dwattr $C$DW$97, DW_AT_type(*$C$DW$T$19)
     551                      .dwattr $C$DW$97, DW_AT_location[DW_OP_bregx 0x24 10]
     552              $C$DW$98        .dwtag  DW_TAG_variable, DW_AT_name("rca")
     553                      .dwattr $C$DW$98, DW_AT_TI_symbol_name("_rca")
     554                      .dwattr $C$DW$98, DW_AT_type(*$C$DW$T$19)
     555                      .dwattr $C$DW$98, DW_AT_location[DW_OP_bregx 0x24 11]
     556              $C$DW$99        .dwtag  DW_TAG_variable, DW_AT_name("cardStatus")
     557                      .dwattr $C$DW$99, DW_AT_TI_symbol_name("_cardStatus")
     558                      .dwattr $C$DW$99, DW_AT_type(*$C$DW$T$28)
     559                      .dwattr $C$DW$99, DW_AT_location[DW_OP_bregx 0x24 12]
     560                      .dwpsn  file "../c5535_bsl_revc/ezdsp5535_v1/c55xx_csl/ccs_v4.0_examples/mmc_sd/CSL_MMCSD_SdCardExamp
     561 00004e 3C00          MOV #0, AC0 ; |254| 
     562 000050 EB0C          MOV AC0, dbl(*SP(#6)) ; |254| 
         000052 08   
     563                      .dwpsn  file "../c5535_bsl_revc/ezdsp5535_v1/c55xx_csl/ccs_v4.0_examples/mmc_sd/CSL_MMCSD_SdCardExamp
     564 000053 E608          MOV #0, *SP(#4) ; |257| 
         000055 00   
     565                      .dwpsn  file "../c5535_bsl_revc/ezdsp5535_v1/c55xx_csl/ccs_v4.0_examples/mmc_sd/CSL_MMCSD_SdCardExamp
     566 000056 7601          MOV #256, AR2 ; |257| 
         000058 00A8 
     567 00005a A908          MOV *SP(#4), AR1 ; |257| 
     568 00005c 1298          CMPU AR1 >= AR2, TC1 ; |257| 
         00005e A4   
     569 00005f 0464          BCC $C$L4,TC1 ; |257| 
         000061 23   
     570                                                      ; branchcc occurs ; |257| 
     571 000062       $C$L3:    
     572 000062       $C$DW$L$_CSL_sdCardPollTest$2$B:
     573                      .dwpsn  file "../c5535_bsl_revc/ezdsp5535_v1/c55xx_csl/ccs_v4.0_examples/mmc_sd/CSL_MMCSD_SdCardExamp
     574 000062 A408          MOV *SP(#4), T0 ; |259| 
     575 000064 EC31          AMOV #_pReadBuff, XAR3 ; |259| 
         000066 BE00 
         000068 0092-
TMS320C55x Assembler PC v4.4.1 Sat Sep 29 23:09:02 2018

Tools Copyright (c) 1996-2012 Texas Instruments Incorporated
csl_mmcsd_SdCardExample.asm                                          PAGE   12

     576 00006a E66B          MOV #0, *AR3(T0) ; |259| 
         00006c 00   
     577                      .dwpsn  file "../c5535_bsl_revc/ezdsp5535_v1/c55xx_csl/ccs_v4.0_examples/mmc_sd/CSL_MMCSD_SdCardExamp
     578 00006d A408          MOV *SP(#4), T0 ; |260| 
     579 00006f A908          MOV *SP(#4), AR1 ; |260| 
     580 000071 EC31          AMOV #_pWritedBuff, XAR3 ; |260| 
         000073 BE00 
         000075 0192-
     581 000077 C96B          MOV AR1, *AR3(T0) ; |260| 
     582                      .dwpsn  file "../c5535_bsl_revc/ezdsp5535_v1/c55xx_csl/ccs_v4.0_examples/mmc_sd/CSL_MMCSD_SdCardExamp
     583 000079 F708          ADD #1, *SP(#4) ; |257| 
         00007b 0001 
     584                      .dwpsn  file "../c5535_bsl_revc/ezdsp5535_v1/c55xx_csl/ccs_v4.0_examples/mmc_sd/CSL_MMCSD_SdCardExamp
     585 00007d A908          MOV *SP(#4), AR1 ; |257| 
     586 00007f 1294          CMPU AR1 < AR2, TC1 ; |257| 
         000081 A4   
     587 000082 0464          BCC $C$L3,TC1 ; |257| 
         000084 DD   
     588                                                      ; branchcc occurs ; |257| 
     589 000085       $C$DW$L$_CSL_sdCardPollTest$2$E:
     590 000085       $C$L4:    
     591                      .dwpsn  file "../c5535_bsl_revc/ezdsp5535_v1/c55xx_csl/ccs_v4.0_examples/mmc_sd/CSL_MMCSD_SdCardExamp
     592              $C$DW$100       .dwtag  DW_TAG_TI_branch
     593                      .dwattr $C$DW$100, DW_AT_low_pc(0x00)
     594                      .dwattr $C$DW$100, DW_AT_name("_computeClkRate")
     595                      .dwattr $C$DW$100, DW_AT_TI_call
     596 000085 0804          CALL #_computeClkRate ; |264| 
         000087 D4   
     597                                                      ; call occurs [#_computeClkRate] ; |264| 
     598 000088 C414          MOV T0, *SP(#10) ; |264| 
     599                      .dwpsn  file "../c5535_bsl_revc/ezdsp5535_v1/c55xx_csl/ccs_v4.0_examples/mmc_sd/CSL_MMCSD_SdCardExamp
     600              $C$DW$101       .dwtag  DW_TAG_TI_branch
     601                      .dwattr $C$DW$101, DW_AT_low_pc(0x00)
     602                      .dwattr $C$DW$101, DW_AT_name("_MMC_init")
     603                      .dwattr $C$DW$101, DW_AT_TI_call
     604 00008a 6C00          CALL #_MMC_init ; |267| 
         00008c 0000!
     605                                                      ; call occurs [#_MMC_init] ; |267| 
     606 00008e C406          MOV T0, *SP(#3) ; |267| 
     607                      .dwpsn  file "../c5535_bsl_revc/ezdsp5535_v1/c55xx_csl/ccs_v4.0_examples/mmc_sd/CSL_MMCSD_SdCardExamp
     608 000090 2249          MOV T0, AR1
     609 000092 0409          BCC $C$L5,AR1 == #0 ; |268| 
         000094 12   
     610                                                      ; branchcc occurs ; |268| 
     611                      .dwpsn  file "../c5535_bsl_revc/ezdsp5535_v1/c55xx_csl/ccs_v4.0_examples/mmc_sd/CSL_MMCSD_SdCardExamp
     612 000095 EC31          AMOV #$C$FSL4, XAR3 ; |270| 
         000097 BE00 
         000099 0082+
     613 00009b EB00          MOV XAR3, dbl(*SP(#0))
         00009d B5   
     614              $C$DW$102       .dwtag  DW_TAG_TI_branch
     615                      .dwattr $C$DW$102, DW_AT_low_pc(0x00)
     616                      .dwattr $C$DW$102, DW_AT_name("_printf")
     617                      .dwattr $C$DW$102, DW_AT_TI_call
     618 00009e 6C00          CALL #_printf ; |270| 
TMS320C55x Assembler PC v4.4.1 Sat Sep 29 23:09:02 2018

Tools Copyright (c) 1996-2012 Texas Instruments Incorporated
csl_mmcsd_SdCardExample.asm                                          PAGE   13

         0000a0 0000!
     619                                                      ; call occurs [#_printf] ; |270| 
     620                      .dwpsn  file "../c5535_bsl_revc/ezdsp5535_v1/c55xx_csl/ccs_v4.0_examples/mmc_sd/CSL_MMCSD_SdCardExamp
     621 0000a2 A406          MOV *SP(#3), T0 ; |271| 
     622 0000a4 0604          B $C$L37  ; |271| 
         0000a6 B0   
     623                                                      ; branch occurs ; |271| 
     624 0000a7       $C$L5:    
     625                      .dwpsn  file "../c5535_bsl_revc/ezdsp5535_v1/c55xx_csl/ccs_v4.0_examples/mmc_sd/CSL_MMCSD_SdCardExamp
     626 0000a7 EC31          AMOV #_pMmcsdContObj, XAR0 ; |278| 
         0000a9 8E00 
         0000ab 0000-
     627              
     628 0000b0 3D04          MOV #0, T0
     629 0000ad EC06  ||      AMAR *SP(#3), XAR1
         0000af 9E   
     630              
     631              $C$DW$103       .dwtag  DW_TAG_TI_branch
     632                      .dwattr $C$DW$103, DW_AT_low_pc(0x00)
     633                      .dwattr $C$DW$103, DW_AT_name("_MMC_open")
     634                      .dwattr $C$DW$103, DW_AT_TI_call
     635              
     636 0000b2 6C00          CALL #_MMC_open ; |278| 
         0000b4 0000!
     637 0000b6 3D05  ||      MOV #0, T1
     638              
     639                                                      ; call occurs [#_MMC_open] ; |278| 
     640 0000b8 EB31          MOV XAR0, dbl(*(#_mmcsdHandle))
         0000ba 8500 
         0000bc 0040-
     641                      .dwpsn  file "../c5535_bsl_revc/ezdsp5535_v1/c55xx_csl/ccs_v4.0_examples/mmc_sd/CSL_MMCSD_SdCardExamp
     642 0000be A906          MOV *SP(#3), AR1 ; |280| 
     643 0000c0 0409          BCC $C$L6,AR1 == #0 ; |280| 
         0000c2 12   
     644                                                      ; branchcc occurs ; |280| 
     645                      .dwpsn  file "../c5535_bsl_revc/ezdsp5535_v1/c55xx_csl/ccs_v4.0_examples/mmc_sd/CSL_MMCSD_SdCardExamp
     646 0000c3 EC31          AMOV #$C$FSL5, XAR3 ; |282| 
         0000c5 BE00 
         0000c7 0098+
     647 0000c9 EB00          MOV XAR3, dbl(*SP(#0))
         0000cb B5   
     648              $C$DW$104       .dwtag  DW_TAG_TI_branch
     649                      .dwattr $C$DW$104, DW_AT_low_pc(0x00)
     650                      .dwattr $C$DW$104, DW_AT_name("_printf")
     651                      .dwattr $C$DW$104, DW_AT_TI_call
     652 0000cc 6C00          CALL #_printf ; |282| 
         0000ce 0000!
     653                                                      ; call occurs [#_printf] ; |282| 
     654                      .dwpsn  file "../c5535_bsl_revc/ezdsp5535_v1/c55xx_csl/ccs_v4.0_examples/mmc_sd/CSL_MMCSD_SdCardExamp
     655 0000d0 A406          MOV *SP(#3), T0 ; |283| 
     656 0000d2 0604          B $C$L37  ; |283| 
         0000d4 82   
     657                                                      ; branch occurs ; |283| 
     658 0000d5       $C$L6:    
     659                      .dwpsn  file "../c5535_bsl_revc/ezdsp5535_v1/c55xx_csl/ccs_v4.0_examples/mmc_sd/CSL_MMCSD_SdCardExamp
TMS320C55x Assembler PC v4.4.1 Sat Sep 29 23:09:02 2018

Tools Copyright (c) 1996-2012 Texas Instruments Incorporated
csl_mmcsd_SdCardExample.asm                                          PAGE   14

     660 0000d5 EC31          AMOV #$C$FSL6, XAR3 ; |287| 
         0000d7 BE00 
         0000d9 00AE+
     661 0000db EB00          MOV XAR3, dbl(*SP(#0))
         0000dd B5   
     662              $C$DW$105       .dwtag  DW_TAG_TI_branch
     663                      .dwattr $C$DW$105, DW_AT_low_pc(0x00)
     664                      .dwattr $C$DW$105, DW_AT_name("_printf")
     665                      .dwattr $C$DW$105, DW_AT_TI_call
     666 0000de 6C00          CALL #_printf ; |287| 
         0000e0 0000!
     667                                                      ; call occurs [#_printf] ; |287| 
     668                      .dwpsn  file "../c5535_bsl_revc/ezdsp5535_v1/c55xx_csl/ccs_v4.0_examples/mmc_sd/CSL_MMCSD_SdCardExamp
     669 0000e2 ED31          MOV dbl(*(#_mmcsdHandle)), XAR0
         0000e4 8F00 
         0000e6 0040-
     670              $C$DW$106       .dwtag  DW_TAG_TI_branch
     671                      .dwattr $C$DW$106, DW_AT_low_pc(0x00)
     672                      .dwattr $C$DW$106, DW_AT_name("_MMC_sendGoIdle")
     673                      .dwattr $C$DW$106, DW_AT_TI_call
     674 0000e8 6C00          CALL #_MMC_sendGoIdle ; |291| 
         0000ea 0000!
     675                                                      ; call occurs [#_MMC_sendGoIdle] ; |291| 
     676 0000ec C406          MOV T0, *SP(#3) ; |291| 
     677                      .dwpsn  file "../c5535_bsl_revc/ezdsp5535_v1/c55xx_csl/ccs_v4.0_examples/mmc_sd/CSL_MMCSD_SdCardExamp
     678 0000ee 2249          MOV T0, AR1
     679 0000f0 0409          BCC $C$L7,AR1 == #0 ; |292| 
         0000f2 12   
     680                                                      ; branchcc occurs ; |292| 
     681                      .dwpsn  file "../c5535_bsl_revc/ezdsp5535_v1/c55xx_csl/ccs_v4.0_examples/mmc_sd/CSL_MMCSD_SdCardExamp
     682 0000f3 EC31          AMOV #$C$FSL7, XAR3 ; |294| 
         0000f5 BE00 
         0000f7 00C8+
     683 0000f9 EB00          MOV XAR3, dbl(*SP(#0))
         0000fb B5   
     684              $C$DW$107       .dwtag  DW_TAG_TI_branch
     685                      .dwattr $C$DW$107, DW_AT_low_pc(0x00)
     686                      .dwattr $C$DW$107, DW_AT_name("_printf")
     687                      .dwattr $C$DW$107, DW_AT_TI_call
     688 0000fc 6C00          CALL #_printf ; |294| 
         0000fe 0000!
     689                                                      ; call occurs [#_printf] ; |294| 
     690                      .dwpsn  file "../c5535_bsl_revc/ezdsp5535_v1/c55xx_csl/ccs_v4.0_examples/mmc_sd/CSL_MMCSD_SdCardExamp
     691 000100 A406          MOV *SP(#3), T0 ; |295| 
     692 000102 0604          B $C$L37  ; |295| 
         000104 52   
     693                                                      ; branch occurs ; |295| 
     694 000105       $C$L7:    
     695                      .dwpsn  file "../c5535_bsl_revc/ezdsp5535_v1/c55xx_csl/ccs_v4.0_examples/mmc_sd/CSL_MMCSD_SdCardExamp
     696 000105 ED31          MOV dbl(*(#_mmcsdHandle)), XAR0
         000107 8F00 
         000109 0040-
     697 00010b EC31          AMOV #_mmcCardObj, XAR1 ; |299| 
         00010d 9E00 
         00010f 0042-
TMS320C55x Assembler PC v4.4.1 Sat Sep 29 23:09:02 2018

Tools Copyright (c) 1996-2012 Texas Instruments Incorporated
csl_mmcsd_SdCardExample.asm                                          PAGE   15

     698              $C$DW$108       .dwtag  DW_TAG_TI_branch
     699                      .dwattr $C$DW$108, DW_AT_low_pc(0x00)
     700                      .dwattr $C$DW$108, DW_AT_name("_MMC_selectCard")
     701                      .dwattr $C$DW$108, DW_AT_TI_call
     702 000111 6C00          CALL #_MMC_selectCard ; |299| 
         000113 0000!
     703                                                      ; call occurs [#_MMC_selectCard] ; |299| 
     704 000115 C406          MOV T0, *SP(#3) ; |299| 
     705                      .dwpsn  file "../c5535_bsl_revc/ezdsp5535_v1/c55xx_csl/ccs_v4.0_examples/mmc_sd/CSL_MMCSD_SdCardExamp
     706 000117 F006          CMP *SP(#3) == #-5, TC1 ; |300| 
         000119 FFFB 
     707 00011b 63E4          BCC $C$L8,TC1 ; |300| 
     708                                                      ; branchcc occurs ; |300| 
     709 00011d F006          CMP *SP(#3) == #-6, TC1 ; |300| 
         00011f FFFA 
     710 000121 0474          BCC $C$L9,!TC1 ; |300| 
         000123 12   
     711                                                      ; branchcc occurs ; |300| 
     712 000124       $C$L8:    
     713                      .dwpsn  file "../c5535_bsl_revc/ezdsp5535_v1/c55xx_csl/ccs_v4.0_examples/mmc_sd/CSL_MMCSD_SdCardExamp
     714 000124 EC31          AMOV #$C$FSL8, XAR3 ; |303| 
         000126 BE00 
         000128 00E4+
     715 00012a EB00          MOV XAR3, dbl(*SP(#0))
         00012c B5   
     716              $C$DW$109       .dwtag  DW_TAG_TI_branch
     717                      .dwattr $C$DW$109, DW_AT_low_pc(0x00)
     718                      .dwattr $C$DW$109, DW_AT_name("_printf")
     719                      .dwattr $C$DW$109, DW_AT_TI_call
     720 00012d 6C00          CALL #_printf ; |303| 
         00012f 0000!
     721                                                      ; call occurs [#_printf] ; |303| 
     722                      .dwpsn  file "../c5535_bsl_revc/ezdsp5535_v1/c55xx_csl/ccs_v4.0_examples/mmc_sd/CSL_MMCSD_SdCardExamp
     723 000131 A406          MOV *SP(#3), T0 ; |304| 
     724 000133 0604          B $C$L37  ; |304| 
         000135 21   
     725                                                      ; branch occurs ; |304| 
     726 000136       $C$L9:    
     727                      .dwpsn  file "../c5535_bsl_revc/ezdsp5535_v1/c55xx_csl/ccs_v4.0_examples/mmc_sd/CSL_MMCSD_SdCardExamp
     728 000136 F031          CMP *(#(_mmcCardObj+18)) == #1, TC1 ; |308| 
         000138 0001 
         00013a 0000 
         00013c 54-  
     729 00013d 0474          BCC $C$L11,!TC1 ; |308| 
         00013f 67   
     730                                                      ; branchcc occurs ; |308| 
     731                      .dwpsn  file "../c5535_bsl_revc/ezdsp5535_v1/c55xx_csl/ccs_v4.0_examples/mmc_sd/CSL_MMCSD_SdCardExamp
     732 000140 EC31          AMOV #$C$FSL9, XAR3 ; |310| 
         000142 BE00 
         000144 0100+
     733 000146 EB00          MOV XAR3, dbl(*SP(#0))
         000148 B5   
     734              $C$DW$110       .dwtag  DW_TAG_TI_branch
     735                      .dwattr $C$DW$110, DW_AT_low_pc(0x00)
     736                      .dwattr $C$DW$110, DW_AT_name("_printf")
TMS320C55x Assembler PC v4.4.1 Sat Sep 29 23:09:02 2018

Tools Copyright (c) 1996-2012 Texas Instruments Incorporated
csl_mmcsd_SdCardExample.asm                                          PAGE   16

     737                      .dwattr $C$DW$110, DW_AT_TI_call
     738 000149 6C00          CALL #_printf ; |310| 
         00014b 0000!
     739                                                      ; call occurs [#_printf] ; |310| 
     740                      .dwpsn  file "../c5535_bsl_revc/ezdsp5535_v1/c55xx_csl/ccs_v4.0_examples/mmc_sd/CSL_MMCSD_SdCardExamp
     741 00014d ED31          MOV dbl(*(#_mmcsdHandle)), XAR3
         00014f BF00 
         000151 0040-
     742 000153 ED75          MOV dbl(*AR3(short(#2))), XAR3
         000155 BF   
     743 000156 F06D          CMP *AR3(#26) == #1, TC1 ; |313| 
         000158 0001 
         00015a 001A 
     744 00015c 0474          BCC $C$L10,!TC1 ; |313| 
         00015e 23   
     745                                                      ; branchcc occurs ; |313| 
     746                      .dwpsn  file "../c5535_bsl_revc/ezdsp5535_v1/c55xx_csl/ccs_v4.0_examples/mmc_sd/CSL_MMCSD_SdCardExamp
     747 00015f EC31          AMOV #$C$FSL10, XAR3 ; |315| 
         000161 BE00 
         000163 0114+
     748 000165 EB00          MOV XAR3, dbl(*SP(#0))
         000167 B5   
     749              $C$DW$111       .dwtag  DW_TAG_TI_branch
     750                      .dwattr $C$DW$111, DW_AT_low_pc(0x00)
     751                      .dwattr $C$DW$111, DW_AT_name("_printf")
     752                      .dwattr $C$DW$111, DW_AT_TI_call
     753 000168 6C00          CALL #_printf ; |315| 
         00016a 0000!
     754                                                      ; call occurs [#_printf] ; |315| 
     755                      .dwpsn  file "../c5535_bsl_revc/ezdsp5535_v1/c55xx_csl/ccs_v4.0_examples/mmc_sd/CSL_MMCSD_SdCardExamp
     756 00016c EC31          AMOV #$C$FSL11, XAR3 ; |316| 
         00016e BE00 
         000170 0134+
     757 000172 EB00          MOV XAR3, dbl(*SP(#0))
         000174 B5   
     758              $C$DW$112       .dwtag  DW_TAG_TI_branch
     759                      .dwattr $C$DW$112, DW_AT_low_pc(0x00)
     760                      .dwattr $C$DW$112, DW_AT_name("_printf")
     761                      .dwattr $C$DW$112, DW_AT_TI_call
     762 000175 6C00          CALL #_printf ; |316| 
         000177 0000!
     763                                                      ; call occurs [#_printf] ; |316| 
     764                      .dwpsn  file "../c5535_bsl_revc/ezdsp5535_v1/c55xx_csl/ccs_v4.0_examples/mmc_sd/CSL_MMCSD_SdCardExamp
     765 000179 ED0C          MOV dbl(*SP(#6)), AC0 ; |320| 
         00017b 08   
     766 00017c EB10          MOV AC0, dbl(*SP(#8)) ; |320| 
         00017e 08   
     767                      .dwpsn  file "../c5535_bsl_revc/ezdsp5535_v1/c55xx_csl/ccs_v4.0_examples/mmc_sd/CSL_MMCSD_SdCardExamp
     768 00017f 0600          B $C$L14  ; |321| 
         000181 5A   
     769                                                      ; branch occurs ; |321| 
     770 000182       $C$L10:    
     771                      .dwpsn  file "../c5535_bsl_revc/ezdsp5535_v1/c55xx_csl/ccs_v4.0_examples/mmc_sd/CSL_MMCSD_SdCardExamp
     772 000182 EC31          AMOV #$C$FSL12, XAR3 ; |324| 
         000184 BE00 
TMS320C55x Assembler PC v4.4.1 Sat Sep 29 23:09:02 2018

Tools Copyright (c) 1996-2012 Texas Instruments Incorporated
csl_mmcsd_SdCardExample.asm                                          PAGE   17

         000186 015E+
     773 000188 EB00          MOV XAR3, dbl(*SP(#0))
         00018a B5   
     774              $C$DW$113       .dwtag  DW_TAG_TI_branch
     775                      .dwattr $C$DW$113, DW_AT_low_pc(0x00)
     776                      .dwattr $C$DW$113, DW_AT_name("_printf")
     777                      .dwattr $C$DW$113, DW_AT_TI_call
     778 00018b 6C00          CALL #_printf ; |324| 
         00018d 0000!
     779                                                      ; call occurs [#_printf] ; |324| 
     780                      .dwpsn  file "../c5535_bsl_revc/ezdsp5535_v1/c55xx_csl/ccs_v4.0_examples/mmc_sd/CSL_MMCSD_SdCardExamp
     781 00018f EC31          AMOV #$C$FSL13, XAR3 ; |325| 
         000191 BE00 
         000193 0182+
     782 000195 EB00          MOV XAR3, dbl(*SP(#0))
         000197 B5   
     783              $C$DW$114       .dwtag  DW_TAG_TI_branch
     784                      .dwattr $C$DW$114, DW_AT_low_pc(0x00)
     785                      .dwattr $C$DW$114, DW_AT_name("_printf")
     786                      .dwattr $C$DW$114, DW_AT_TI_call
     787 000198 6C00          CALL #_printf ; |325| 
         00019a 0000!
     788                                                      ; call occurs [#_printf] ; |325| 
     789                      .dwpsn  file "../c5535_bsl_revc/ezdsp5535_v1/c55xx_csl/ccs_v4.0_examples/mmc_sd/CSL_MMCSD_SdCardExamp
     790 00019c ED0C          MOV dbl(*SP(#6)), AC0 ; |330| 
         00019e 08   
     791 00019f 1007          SFTL AC0, #9, AC0 ; |330| 
         0001a1 09   
     792 0001a2 EB10          MOV AC0, dbl(*SP(#8)) ; |330| 
         0001a4 08   
     793                      .dwpsn  file "../c5535_bsl_revc/ezdsp5535_v1/c55xx_csl/ccs_v4.0_examples/mmc_sd/CSL_MMCSD_SdCardExamp
     794 0001a5 4A35          B $C$L14  ; |332| 
     795                                                      ; branch occurs ; |332| 
     796 0001a7       $C$L11:    
     797                      .dwpsn  file "../c5535_bsl_revc/ezdsp5535_v1/c55xx_csl/ccs_v4.0_examples/mmc_sd/CSL_MMCSD_SdCardExamp
     798 0001a7 A931          MOV *(#(_mmcCardObj+18)), AR1 ; |336| 
         0001a9 0000 
         0001ab 54-  
     799 0001ac 6799          BCC $C$L12,AR1 != #0 ; |336| 
     800                                                      ; branchcc occurs ; |336| 
     801                      .dwpsn  file "../c5535_bsl_revc/ezdsp5535_v1/c55xx_csl/ccs_v4.0_examples/mmc_sd/CSL_MMCSD_SdCardExamp
     802 0001ae EC31          AMOV #$C$FSL14, XAR3 ; |338| 
         0001b0 BE00 
         0001b2 01AC+
     803 0001b4 EB00          MOV XAR3, dbl(*SP(#0))
         0001b6 B5   
     804              $C$DW$115       .dwtag  DW_TAG_TI_branch
     805                      .dwattr $C$DW$115, DW_AT_low_pc(0x00)
     806                      .dwattr $C$DW$115, DW_AT_name("_printf")
     807                      .dwattr $C$DW$115, DW_AT_TI_call
     808 0001b7 6C00          CALL #_printf ; |338| 
         0001b9 0000!
     809                                                      ; call occurs [#_printf] ; |338| 
     810                      .dwpsn  file "../c5535_bsl_revc/ezdsp5535_v1/c55xx_csl/ccs_v4.0_examples/mmc_sd/CSL_MMCSD_SdCardExamp
     811 0001bb 4A0D          B $C$L13  ; |339| 
TMS320C55x Assembler PC v4.4.1 Sat Sep 29 23:09:02 2018

Tools Copyright (c) 1996-2012 Texas Instruments Incorporated
csl_mmcsd_SdCardExample.asm                                          PAGE   18

     812                                                      ; branch occurs ; |339| 
     813 0001bd       $C$L12:    
     814                      .dwpsn  file "../c5535_bsl_revc/ezdsp5535_v1/c55xx_csl/ccs_v4.0_examples/mmc_sd/CSL_MMCSD_SdCardExamp
     815 0001bd EC31          AMOV #$C$FSL15, XAR3 ; |342| 
         0001bf BE00 
         0001c1 01C0+
     816 0001c3 EB00          MOV XAR3, dbl(*SP(#0))
         0001c5 B5   
     817              $C$DW$116       .dwtag  DW_TAG_TI_branch
     818                      .dwattr $C$DW$116, DW_AT_low_pc(0x00)
     819                      .dwattr $C$DW$116, DW_AT_name("_printf")
     820                      .dwattr $C$DW$116, DW_AT_TI_call
     821 0001c6 6C00          CALL #_printf ; |342| 
         0001c8 0000!
     822                                                      ; call occurs [#_printf] ; |342| 
     823 0001ca       $C$L13:    
     824                      .dwpsn  file "../c5535_bsl_revc/ezdsp5535_v1/c55xx_csl/ccs_v4.0_examples/mmc_sd/CSL_MMCSD_SdCardExamp
     825 0001ca EC31          AMOV #$C$FSL16, XAR3 ; |345| 
         0001cc BE00 
         0001ce 01DA+
     826 0001d0 EB00          MOV XAR3, dbl(*SP(#0))
         0001d2 B5   
     827              $C$DW$117       .dwtag  DW_TAG_TI_branch
     828                      .dwattr $C$DW$117, DW_AT_low_pc(0x00)
     829                      .dwattr $C$DW$117, DW_AT_name("_printf")
     830                      .dwattr $C$DW$117, DW_AT_TI_call
     831 0001d3 6C00          CALL #_printf ; |345| 
         0001d5 0000!
     832                                                      ; call occurs [#_printf] ; |345| 
     833                      .dwpsn  file "../c5535_bsl_revc/ezdsp5535_v1/c55xx_csl/ccs_v4.0_examples/mmc_sd/CSL_MMCSD_SdCardExamp
     834 0001d7 3E14          MOV #-1, T0
     835 0001d9 0603          B $C$L37  ; |346| 
         0001db 7B   
     836                                                      ; branch occurs ; |346| 
     837 0001dc       $C$L14:    
     838                      .dwpsn  file "../c5535_bsl_revc/ezdsp5535_v1/c55xx_csl/ccs_v4.0_examples/mmc_sd/CSL_MMCSD_SdCardExamp
     839 0001dc ED31          MOV dbl(*(#_mmcsdHandle)), XAR0
         0001de 8F00 
         0001e0 0040-
     840 0001e2 7600          MOV #70, T0 ; |350| 
         0001e4 4648 
     841              $C$DW$118       .dwtag  DW_TAG_TI_branch
     842                      .dwattr $C$DW$118, DW_AT_low_pc(0x00)
     843                      .dwattr $C$DW$118, DW_AT_name("_MMC_sendOpCond")
     844                      .dwattr $C$DW$118, DW_AT_TI_call
     845 0001e6 6C00          CALL #_MMC_sendOpCond ; |350| 
         0001e8 0000!
     846                                                      ; call occurs [#_MMC_sendOpCond] ; |350| 
     847 0001ea C406          MOV T0, *SP(#3) ; |350| 
     848                      .dwpsn  file "../c5535_bsl_revc/ezdsp5535_v1/c55xx_csl/ccs_v4.0_examples/mmc_sd/CSL_MMCSD_SdCardExamp
     849 0001ec 2249          MOV T0, AR1
     850 0001ee 0409          BCC $C$L15,AR1 == #0 ; |351| 
         0001f0 12   
     851                                                      ; branchcc occurs ; |351| 
     852                      .dwpsn  file "../c5535_bsl_revc/ezdsp5535_v1/c55xx_csl/ccs_v4.0_examples/mmc_sd/CSL_MMCSD_SdCardExamp
TMS320C55x Assembler PC v4.4.1 Sat Sep 29 23:09:02 2018

Tools Copyright (c) 1996-2012 Texas Instruments Incorporated
csl_mmcsd_SdCardExample.asm                                          PAGE   19

     853 0001f1 EC31          AMOV #$C$FSL17, XAR3 ; |353| 
         0001f3 BE00 
         0001f5 01F4+
     854 0001f7 EB00          MOV XAR3, dbl(*SP(#0))
         0001f9 B5   
     855              $C$DW$119       .dwtag  DW_TAG_TI_branch
     856                      .dwattr $C$DW$119, DW_AT_low_pc(0x00)
     857                      .dwattr $C$DW$119, DW_AT_name("_printf")
     858                      .dwattr $C$DW$119, DW_AT_TI_call
     859 0001fa 6C00          CALL #_printf ; |353| 
         0001fc 0000!
     860                                                      ; call occurs [#_printf] ; |353| 
     861                      .dwpsn  file "../c5535_bsl_revc/ezdsp5535_v1/c55xx_csl/ccs_v4.0_examples/mmc_sd/CSL_MMCSD_SdCardExamp
     862 0001fe A406          MOV *SP(#3), T0 ; |354| 
     863 000200 0603          B $C$L37  ; |354| 
         000202 54   
     864                                                      ; branch occurs ; |354| 
     865 000203       $C$L15:    
     866                      .dwpsn  file "../c5535_bsl_revc/ezdsp5535_v1/c55xx_csl/ccs_v4.0_examples/mmc_sd/CSL_MMCSD_SdCardExamp
     867 000203 ED31          MOV dbl(*(#_mmcsdHandle)), XAR0
         000205 8F00 
         000207 0040-
     868 000209 EC31          AMOV #_sdCardIdObj, XAR1 ; |358| 
         00020b 9E00 
         00020d 0060-
     869              $C$DW$120       .dwtag  DW_TAG_TI_branch
     870                      .dwattr $C$DW$120, DW_AT_low_pc(0x00)
     871                      .dwattr $C$DW$120, DW_AT_name("_SD_sendAllCID")
     872                      .dwattr $C$DW$120, DW_AT_TI_call
     873 00020f 6C00          CALL #_SD_sendAllCID ; |358| 
         000211 0000!
     874                                                      ; call occurs [#_SD_sendAllCID] ; |358| 
     875 000213 C406          MOV T0, *SP(#3) ; |358| 
     876                      .dwpsn  file "../c5535_bsl_revc/ezdsp5535_v1/c55xx_csl/ccs_v4.0_examples/mmc_sd/CSL_MMCSD_SdCardExamp
     877 000215 2249          MOV T0, AR1
     878 000217 0409          BCC $C$L16,AR1 == #0 ; |359| 
         000219 12   
     879                                                      ; branchcc occurs ; |359| 
     880                      .dwpsn  file "../c5535_bsl_revc/ezdsp5535_v1/c55xx_csl/ccs_v4.0_examples/mmc_sd/CSL_MMCSD_SdCardExamp
     881 00021a EC31          AMOV #$C$FSL18, XAR3 ; |361| 
         00021c BE00 
         00021e 0210+
     882 000220 EB00          MOV XAR3, dbl(*SP(#0))
         000222 B5   
     883              $C$DW$121       .dwtag  DW_TAG_TI_branch
     884                      .dwattr $C$DW$121, DW_AT_low_pc(0x00)
     885                      .dwattr $C$DW$121, DW_AT_name("_printf")
     886                      .dwattr $C$DW$121, DW_AT_TI_call
     887 000223 6C00          CALL #_printf ; |361| 
         000225 0000!
     888                                                      ; call occurs [#_printf] ; |361| 
     889                      .dwpsn  file "../c5535_bsl_revc/ezdsp5535_v1/c55xx_csl/ccs_v4.0_examples/mmc_sd/CSL_MMCSD_SdCardExamp
     890 000227 A406          MOV *SP(#3), T0 ; |362| 
     891 000229 0603          B $C$L37  ; |362| 
         00022b 2B   
TMS320C55x Assembler PC v4.4.1 Sat Sep 29 23:09:02 2018

Tools Copyright (c) 1996-2012 Texas Instruments Incorporated
csl_mmcsd_SdCardExample.asm                                          PAGE   20

     892                                                      ; branch occurs ; |362| 
     893 00022c       $C$L16:    
     894                      .dwpsn  file "../c5535_bsl_revc/ezdsp5535_v1/c55xx_csl/ccs_v4.0_examples/mmc_sd/CSL_MMCSD_SdCardExamp
     895 00022c EC16          AMAR *SP(#11), XAR2
         00022e AE   
     896 00022f ED31          MOV dbl(*(#_mmcsdHandle)), XAR0
         000231 8F00 
         000233 0040-
     897 000235 EC31          AMOV #_mmcCardObj, XAR1 ; |366| 
         000237 9E00 
         000239 0042-
     898              $C$DW$122       .dwtag  DW_TAG_TI_branch
     899                      .dwattr $C$DW$122, DW_AT_low_pc(0x00)
     900                      .dwattr $C$DW$122, DW_AT_name("_SD_sendRca")
     901                      .dwattr $C$DW$122, DW_AT_TI_call
     902 00023b 6C00          CALL #_SD_sendRca ; |366| 
         00023d 0000!
     903                                                      ; call occurs [#_SD_sendRca] ; |366| 
     904 00023f C406          MOV T0, *SP(#3) ; |366| 
     905                      .dwpsn  file "../c5535_bsl_revc/ezdsp5535_v1/c55xx_csl/ccs_v4.0_examples/mmc_sd/CSL_MMCSD_SdCardExamp
     906 000241 2249          MOV T0, AR1
     907 000243 0409          BCC $C$L17,AR1 == #0 ; |367| 
         000245 12   
     908                                                      ; branchcc occurs ; |367| 
     909                      .dwpsn  file "../c5535_bsl_revc/ezdsp5535_v1/c55xx_csl/ccs_v4.0_examples/mmc_sd/CSL_MMCSD_SdCardExamp
     910 000246 EC31          AMOV #$C$FSL19, XAR3 ; |369| 
         000248 BE00 
         00024a 022C+
     911 00024c EB00          MOV XAR3, dbl(*SP(#0))
         00024e B5   
     912              $C$DW$123       .dwtag  DW_TAG_TI_branch
     913                      .dwattr $C$DW$123, DW_AT_low_pc(0x00)
     914                      .dwattr $C$DW$123, DW_AT_name("_printf")
     915                      .dwattr $C$DW$123, DW_AT_TI_call
     916 00024f 6C00          CALL #_printf ; |369| 
         000251 0000!
     917                                                      ; call occurs [#_printf] ; |369| 
     918                      .dwpsn  file "../c5535_bsl_revc/ezdsp5535_v1/c55xx_csl/ccs_v4.0_examples/mmc_sd/CSL_MMCSD_SdCardExamp
     919 000253 A406          MOV *SP(#3), T0 ; |370| 
     920 000255 0602          B $C$L37  ; |370| 
         000257 FF   
     921                                                      ; branch occurs ; |370| 
     922 000258       $C$L17:    
     923                      .dwpsn  file "../c5535_bsl_revc/ezdsp5535_v1/c55xx_csl/ccs_v4.0_examples/mmc_sd/CSL_MMCSD_SdCardExamp
     924 000258 ED31          MOV dbl(*(#_mmcsdHandle)), XAR0
         00025a 8F00 
         00025c 0040-
     925 00025e EC31          AMOV #_sdCardCsdObj, XAR1 ; |374| 
         000260 9E00 
         000262 0070-
     926              $C$DW$124       .dwtag  DW_TAG_TI_branch
     927                      .dwattr $C$DW$124, DW_AT_low_pc(0x00)
     928                      .dwattr $C$DW$124, DW_AT_name("_SD_getCardCsd")
     929                      .dwattr $C$DW$124, DW_AT_TI_call
     930 000264 6C00          CALL #_SD_getCardCsd ; |374| 
TMS320C55x Assembler PC v4.4.1 Sat Sep 29 23:09:02 2018

Tools Copyright (c) 1996-2012 Texas Instruments Incorporated
csl_mmcsd_SdCardExample.asm                                          PAGE   21

         000266 0000!
     931                                                      ; call occurs [#_SD_getCardCsd] ; |374| 
     932 000268 C406          MOV T0, *SP(#3) ; |374| 
     933                      .dwpsn  file "../c5535_bsl_revc/ezdsp5535_v1/c55xx_csl/ccs_v4.0_examples/mmc_sd/CSL_MMCSD_SdCardExamp
     934 00026a 2249          MOV T0, AR1
     935 00026c 0409          BCC $C$L18,AR1 == #0 ; |375| 
         00026e 12   
     936                                                      ; branchcc occurs ; |375| 
     937                      .dwpsn  file "../c5535_bsl_revc/ezdsp5535_v1/c55xx_csl/ccs_v4.0_examples/mmc_sd/CSL_MMCSD_SdCardExamp
     938 00026f EC31          AMOV #$C$FSL20, XAR3 ; |377| 
         000271 BE00 
         000273 0244+
     939 000275 EB00          MOV XAR3, dbl(*SP(#0))
         000277 B5   
     940              $C$DW$125       .dwtag  DW_TAG_TI_branch
     941                      .dwattr $C$DW$125, DW_AT_low_pc(0x00)
     942                      .dwattr $C$DW$125, DW_AT_name("_printf")
     943                      .dwattr $C$DW$125, DW_AT_TI_call
     944 000278 6C00          CALL #_printf ; |377| 
         00027a 0000!
     945                                                      ; call occurs [#_printf] ; |377| 
     946                      .dwpsn  file "../c5535_bsl_revc/ezdsp5535_v1/c55xx_csl/ccs_v4.0_examples/mmc_sd/CSL_MMCSD_SdCardExamp
     947 00027c A406          MOV *SP(#3), T0 ; |378| 
     948 00027e 0602          B $C$L37  ; |378| 
         000280 D6   
     949                                                      ; branch occurs ; |378| 
     950 000281       $C$L18:    
     951                      .dwpsn  file "../c5535_bsl_revc/ezdsp5535_v1/c55xx_csl/ccs_v4.0_examples/mmc_sd/CSL_MMCSD_SdCardExamp
     952 000281 ED31          MOV dbl(*(#_mmcsdHandle)), XAR0
         000283 8F00 
         000285 0040-
     953              $C$DW$126       .dwtag  DW_TAG_TI_branch
     954                      .dwattr $C$DW$126, DW_AT_low_pc(0x00)
     955                      .dwattr $C$DW$126, DW_AT_name("_SD_setBusWidth")
     956                      .dwattr $C$DW$126, DW_AT_TI_call
     957              
     958 000287 6C00          CALL #_SD_setBusWidth ; |382| 
         000289 0000!
     959 00028b 3D14  ||      MOV #1, T0
     960              
     961                                                      ; call occurs [#_SD_setBusWidth] ; |382| 
     962 00028d C406          MOV T0, *SP(#3) ; |382| 
     963                      .dwpsn  file "../c5535_bsl_revc/ezdsp5535_v1/c55xx_csl/ccs_v4.0_examples/mmc_sd/CSL_MMCSD_SdCardExamp
     964 00028f 2249          MOV T0, AR1
     965 000291 0409          BCC $C$L19,AR1 == #0 ; |383| 
         000293 12   
     966                                                      ; branchcc occurs ; |383| 
     967                      .dwpsn  file "../c5535_bsl_revc/ezdsp5535_v1/c55xx_csl/ccs_v4.0_examples/mmc_sd/CSL_MMCSD_SdCardExamp
     968 000294 EC31          AMOV #$C$FSL21, XAR3 ; |385| 
         000296 BE00 
         000298 0260+
     969 00029a EB00          MOV XAR3, dbl(*SP(#0))
         00029c B5   
     970              $C$DW$127       .dwtag  DW_TAG_TI_branch
     971                      .dwattr $C$DW$127, DW_AT_low_pc(0x00)
TMS320C55x Assembler PC v4.4.1 Sat Sep 29 23:09:02 2018

Tools Copyright (c) 1996-2012 Texas Instruments Incorporated
csl_mmcsd_SdCardExample.asm                                          PAGE   22

     972                      .dwattr $C$DW$127, DW_AT_name("_printf")
     973                      .dwattr $C$DW$127, DW_AT_TI_call
     974 00029d 6C00          CALL #_printf ; |385| 
         00029f 0000!
     975                                                      ; call occurs [#_printf] ; |385| 
     976                      .dwpsn  file "../c5535_bsl_revc/ezdsp5535_v1/c55xx_csl/ccs_v4.0_examples/mmc_sd/CSL_MMCSD_SdCardExamp
     977 0002a1 A406          MOV *SP(#3), T0 ; |386| 
     978 0002a3 0602          B $C$L37  ; |386| 
         0002a5 B1   
     979                                                      ; branch occurs ; |386| 
     980 0002a6       $C$L19:    
     981                      .dwpsn  file "../c5535_bsl_revc/ezdsp5535_v1/c55xx_csl/ccs_v4.0_examples/mmc_sd/CSL_MMCSD_SdCardExamp
     982 0002a6 ED31          MOV dbl(*(#_mmcsdHandle)), XAR0
         0002a8 8F00 
         0002aa 0040-
     983              $C$DW$128       .dwtag  DW_TAG_TI_branch
     984                      .dwattr $C$DW$128, DW_AT_low_pc(0x00)
     985                      .dwattr $C$DW$128, DW_AT_name("_SD_configurePullup")
     986                      .dwattr $C$DW$128, DW_AT_TI_call
     987              
     988 0002ac 6C00          CALL #_SD_configurePullup ; |390| 
         0002ae 0000!
     989 0002b0 3D04  ||      MOV #0, T0
     990              
     991                                                      ; call occurs [#_SD_configurePullup] ; |390| 
     992 0002b2 C406          MOV T0, *SP(#3) ; |390| 
     993                      .dwpsn  file "../c5535_bsl_revc/ezdsp5535_v1/c55xx_csl/ccs_v4.0_examples/mmc_sd/CSL_MMCSD_SdCardExamp
     994 0002b4 2249          MOV T0, AR1
     995 0002b6 0409          BCC $C$L20,AR1 == #0 ; |391| 
         0002b8 12   
     996                                                      ; branchcc occurs ; |391| 
     997                      .dwpsn  file "../c5535_bsl_revc/ezdsp5535_v1/c55xx_csl/ccs_v4.0_examples/mmc_sd/CSL_MMCSD_SdCardExamp
     998 0002b9 EC31          AMOV #$C$FSL22, XAR3 ; |393| 
         0002bb BE00 
         0002bd 027C+
     999 0002bf EB00          MOV XAR3, dbl(*SP(#0))
         0002c1 B5   
    1000              $C$DW$129       .dwtag  DW_TAG_TI_branch
    1001                      .dwattr $C$DW$129, DW_AT_low_pc(0x00)
    1002                      .dwattr $C$DW$129, DW_AT_name("_printf")
    1003                      .dwattr $C$DW$129, DW_AT_TI_call
    1004 0002c2 6C00          CALL #_printf ; |393| 
         0002c4 0000!
    1005                                                      ; call occurs [#_printf] ; |393| 
    1006                      .dwpsn  file "../c5535_bsl_revc/ezdsp5535_v1/c55xx_csl/ccs_v4.0_examples/mmc_sd/CSL_MMCSD_SdCardExamp
    1007 0002c6 A406          MOV *SP(#3), T0 ; |394| 
    1008 0002c8 0602          B $C$L37  ; |394| 
         0002ca 8C   
    1009                                                      ; branch occurs ; |394| 
    1010 0002cb       $C$L20:    
    1011                      .dwpsn  file "../c5535_bsl_revc/ezdsp5535_v1/c55xx_csl/ccs_v4.0_examples/mmc_sd/CSL_MMCSD_SdCardExamp
    1012 0002cb A431          MOV *(#(_mmcCardObj+18)), T0 ; |398| 
         0002cd 0000 
         0002cf 54-  
    1013 0002d0 EC31          AMOV #_mmcCardObj, XAR0 ; |398| 
TMS320C55x Assembler PC v4.4.1 Sat Sep 29 23:09:02 2018

Tools Copyright (c) 1996-2012 Texas Instruments Incorporated
csl_mmcsd_SdCardExample.asm                                          PAGE   23

         0002d2 8E00 
         0002d4 0042-
    1014              $C$DW$130       .dwtag  DW_TAG_TI_branch
    1015                      .dwattr $C$DW$130, DW_AT_low_pc(0x00)
    1016                      .dwattr $C$DW$130, DW_AT_name("_MMC_setCardType")
    1017                      .dwattr $C$DW$130, DW_AT_TI_call
    1018 0002d6 6C00          CALL #_MMC_setCardType ; |398| 
         0002d8 0000!
    1019                                                      ; call occurs [#_MMC_setCardType] ; |398| 
    1020 0002da C406          MOV T0, *SP(#3) ; |398| 
    1021                      .dwpsn  file "../c5535_bsl_revc/ezdsp5535_v1/c55xx_csl/ccs_v4.0_examples/mmc_sd/CSL_MMCSD_SdCardExamp
    1022 0002dc 2249          MOV T0, AR1
    1023 0002de 0409          BCC $C$L21,AR1 == #0 ; |399| 
         0002e0 12   
    1024                                                      ; branchcc occurs ; |399| 
    1025                      .dwpsn  file "../c5535_bsl_revc/ezdsp5535_v1/c55xx_csl/ccs_v4.0_examples/mmc_sd/CSL_MMCSD_SdCardExamp
    1026 0002e1 EC31          AMOV #$C$FSL23, XAR3 ; |401| 
         0002e3 BE00 
         0002e5 029C+
    1027 0002e7 EB00          MOV XAR3, dbl(*SP(#0))
         0002e9 B5   
    1028              $C$DW$131       .dwtag  DW_TAG_TI_branch
    1029                      .dwattr $C$DW$131, DW_AT_low_pc(0x00)
    1030                      .dwattr $C$DW$131, DW_AT_name("_printf")
    1031                      .dwattr $C$DW$131, DW_AT_TI_call
    1032 0002ea 6C00          CALL #_printf ; |401| 
         0002ec 0000!
    1033                                                      ; call occurs [#_printf] ; |401| 
    1034                      .dwpsn  file "../c5535_bsl_revc/ezdsp5535_v1/c55xx_csl/ccs_v4.0_examples/mmc_sd/CSL_MMCSD_SdCardExamp
    1035 0002ee A406          MOV *SP(#3), T0 ; |402| 
    1036 0002f0 0602          B $C$L37  ; |402| 
         0002f2 64   
    1037                                                      ; branch occurs ; |402| 
    1038 0002f3       $C$L21:    
    1039                      .dwpsn  file "../c5535_bsl_revc/ezdsp5535_v1/c55xx_csl/ccs_v4.0_examples/mmc_sd/CSL_MMCSD_SdCardExamp
    1040 0002f3 ED31          MOV dbl(*(#_mmcsdHandle)), XAR0
         0002f5 8F00 
         0002f7 0040-
    1041 0002f9 EC31          AMOV #_mmcCardObj, XAR1 ; |406| 
         0002fb 9E00 
         0002fd 0042-
    1042              $C$DW$132       .dwtag  DW_TAG_TI_branch
    1043                      .dwattr $C$DW$132, DW_AT_low_pc(0x00)
    1044                      .dwattr $C$DW$132, DW_AT_name("_MMC_setCardPtr")
    1045                      .dwattr $C$DW$132, DW_AT_TI_call
    1046 0002ff 6C00          CALL #_MMC_setCardPtr ; |406| 
         000301 0000!
    1047                                                      ; call occurs [#_MMC_setCardPtr] ; |406| 
    1048 000303 C406          MOV T0, *SP(#3) ; |406| 
    1049                      .dwpsn  file "../c5535_bsl_revc/ezdsp5535_v1/c55xx_csl/ccs_v4.0_examples/mmc_sd/CSL_MMCSD_SdCardExamp
    1050 000305 2249          MOV T0, AR1
    1051 000307 0409          BCC $C$L22,AR1 == #0 ; |407| 
         000309 12   
    1052                                                      ; branchcc occurs ; |407| 
    1053                      .dwpsn  file "../c5535_bsl_revc/ezdsp5535_v1/c55xx_csl/ccs_v4.0_examples/mmc_sd/CSL_MMCSD_SdCardExamp
TMS320C55x Assembler PC v4.4.1 Sat Sep 29 23:09:02 2018

Tools Copyright (c) 1996-2012 Texas Instruments Incorporated
csl_mmcsd_SdCardExample.asm                                          PAGE   24

    1054 00030a EC31          AMOV #$C$FSL24, XAR3 ; |409| 
         00030c BE00 
         00030e 02BA+
    1055 000310 EB00          MOV XAR3, dbl(*SP(#0))
         000312 B5   
    1056              $C$DW$133       .dwtag  DW_TAG_TI_branch
    1057                      .dwattr $C$DW$133, DW_AT_low_pc(0x00)
    1058                      .dwattr $C$DW$133, DW_AT_name("_printf")
    1059                      .dwattr $C$DW$133, DW_AT_TI_call
    1060 000313 6C00          CALL #_printf ; |409| 
         000315 0000!
    1061                                                      ; call occurs [#_printf] ; |409| 
    1062                      .dwpsn  file "../c5535_bsl_revc/ezdsp5535_v1/c55xx_csl/ccs_v4.0_examples/mmc_sd/CSL_MMCSD_SdCardExamp
    1063 000317 A406          MOV *SP(#3), T0 ; |410| 
    1064 000319 0602          B $C$L37  ; |410| 
         00031b 3B   
    1065                                                      ; branch occurs ; |410| 
    1066 00031c       $C$L22:    
    1067                      .dwpsn  file "../c5535_bsl_revc/ezdsp5535_v1/c55xx_csl/ccs_v4.0_examples/mmc_sd/CSL_MMCSD_SdCardExamp
    1068 00031c EC0A          AMAR *SP(#5), XAR1
         00031e 9E   
    1069 00031f ED31          MOV dbl(*(#_mmcsdHandle)), XAR0
         000321 8F00 
         000323 0040-
    1070              $C$DW$134       .dwtag  DW_TAG_TI_branch
    1071                      .dwattr $C$DW$134, DW_AT_low_pc(0x00)
    1072                      .dwattr $C$DW$134, DW_AT_name("_MMC_getNumberOfCards")
    1073                      .dwattr $C$DW$134, DW_AT_TI_call
    1074 000325 6C00          CALL #_MMC_getNumberOfCards ; |414| 
         000327 0000!
    1075                                                      ; call occurs [#_MMC_getNumberOfCards] ; |414| 
    1076 000329 C406          MOV T0, *SP(#3) ; |414| 
    1077                      .dwpsn  file "../c5535_bsl_revc/ezdsp5535_v1/c55xx_csl/ccs_v4.0_examples/mmc_sd/CSL_MMCSD_SdCardExamp
    1078 00032b 2249          MOV T0, AR1
    1079 00032d 0409          BCC $C$L23,AR1 == #0 ; |415| 
         00032f 12   
    1080                                                      ; branchcc occurs ; |415| 
    1081                      .dwpsn  file "../c5535_bsl_revc/ezdsp5535_v1/c55xx_csl/ccs_v4.0_examples/mmc_sd/CSL_MMCSD_SdCardExamp
    1082 000330 EC31          AMOV #$C$FSL25, XAR3 ; |417| 
         000332 BE00 
         000334 02D6+
    1083 000336 EB00          MOV XAR3, dbl(*SP(#0))
         000338 B5   
    1084              $C$DW$135       .dwtag  DW_TAG_TI_branch
    1085                      .dwattr $C$DW$135, DW_AT_low_pc(0x00)
    1086                      .dwattr $C$DW$135, DW_AT_name("_printf")
    1087                      .dwattr $C$DW$135, DW_AT_TI_call
    1088 000339 6C00          CALL #_printf ; |417| 
         00033b 0000!
    1089                                                      ; call occurs [#_printf] ; |417| 
    1090                      .dwpsn  file "../c5535_bsl_revc/ezdsp5535_v1/c55xx_csl/ccs_v4.0_examples/mmc_sd/CSL_MMCSD_SdCardExamp
    1091 00033d A406          MOV *SP(#3), T0 ; |418| 
    1092 00033f 0602          B $C$L37  ; |418| 
         000341 15   
    1093                                                      ; branch occurs ; |418| 
TMS320C55x Assembler PC v4.4.1 Sat Sep 29 23:09:02 2018

Tools Copyright (c) 1996-2012 Texas Instruments Incorporated
csl_mmcsd_SdCardExample.asm                                          PAGE   25

    1094 000342       $C$L23:    
    1095                      .dwpsn  file "../c5535_bsl_revc/ezdsp5535_v1/c55xx_csl/ccs_v4.0_examples/mmc_sd/CSL_MMCSD_SdCardExamp
    1096 000342 A414          MOV *SP(#10), T0 ; |422| 
    1097 000344 ED31          MOV dbl(*(#_mmcsdHandle)), XAR0
         000346 8F00 
         000348 0040-
    1098              $C$DW$136       .dwtag  DW_TAG_TI_branch
    1099                      .dwattr $C$DW$136, DW_AT_low_pc(0x00)
    1100                      .dwattr $C$DW$136, DW_AT_name("_MMC_sendOpCond")
    1101                      .dwattr $C$DW$136, DW_AT_TI_call
    1102 00034a 6C00          CALL #_MMC_sendOpCond ; |422| 
         00034c 0000!
    1103                                                      ; call occurs [#_MMC_sendOpCond] ; |422| 
    1104 00034e C406          MOV T0, *SP(#3) ; |422| 
    1105                      .dwpsn  file "../c5535_bsl_revc/ezdsp5535_v1/c55xx_csl/ccs_v4.0_examples/mmc_sd/CSL_MMCSD_SdCardExamp
    1106 000350 2249          MOV T0, AR1
    1107 000352 0409          BCC $C$L24,AR1 == #0 ; |423| 
         000354 12   
    1108                                                      ; branchcc occurs ; |423| 
    1109                      .dwpsn  file "../c5535_bsl_revc/ezdsp5535_v1/c55xx_csl/ccs_v4.0_examples/mmc_sd/CSL_MMCSD_SdCardExamp
    1110 000355 EC31          AMOV #$C$FSL17, XAR3 ; |425| 
         000357 BE00 
         000359 01F4+
    1111 00035b EB00          MOV XAR3, dbl(*SP(#0))
         00035d B5   
    1112              $C$DW$137       .dwtag  DW_TAG_TI_branch
    1113                      .dwattr $C$DW$137, DW_AT_low_pc(0x00)
    1114                      .dwattr $C$DW$137, DW_AT_name("_printf")
    1115                      .dwattr $C$DW$137, DW_AT_TI_call
    1116 00035e 6C00          CALL #_printf ; |425| 
         000360 0000!
    1117                                                      ; call occurs [#_printf] ; |425| 
    1118                      .dwpsn  file "../c5535_bsl_revc/ezdsp5535_v1/c55xx_csl/ccs_v4.0_examples/mmc_sd/CSL_MMCSD_SdCardExamp
    1119 000362 A406          MOV *SP(#3), T0 ; |426| 
    1120 000364 0601          B $C$L37  ; |426| 
         000366 F0   
    1121                                                      ; branch occurs ; |426| 
    1122 000367       $C$L24:    
    1123                      .dwpsn  file "../c5535_bsl_revc/ezdsp5535_v1/c55xx_csl/ccs_v4.0_examples/mmc_sd/CSL_MMCSD_SdCardExamp
    1124 000367 ED31          MOV dbl(*(#_mmcsdHandle)), XAR0
         000369 8F00 
         00036b 0040-
    1125 00036d 3C04          MOV #0, T0
    1126              $C$DW$138       .dwtag  DW_TAG_TI_branch
    1127                      .dwattr $C$DW$138, DW_AT_low_pc(0x00)
    1128                      .dwattr $C$DW$138, DW_AT_name("_MMC_setEndianMode")
    1129                      .dwattr $C$DW$138, DW_AT_TI_call
    1130              
    1131 00036f 6C00          CALL #_MMC_setEndianMode ; |430| 
         000371 0000!
    1132 000373 3D05  ||      MOV #0, T1
    1133              
    1134                                                      ; call occurs [#_MMC_setEndianMode] ; |430| 
    1135 000375 C406          MOV T0, *SP(#3) ; |430| 
    1136                      .dwpsn  file "../c5535_bsl_revc/ezdsp5535_v1/c55xx_csl/ccs_v4.0_examples/mmc_sd/CSL_MMCSD_SdCardExamp
TMS320C55x Assembler PC v4.4.1 Sat Sep 29 23:09:02 2018

Tools Copyright (c) 1996-2012 Texas Instruments Incorporated
csl_mmcsd_SdCardExample.asm                                          PAGE   26

    1137 000377 2249          MOV T0, AR1
    1138 000379 0409          BCC $C$L25,AR1 == #0 ; |432| 
         00037b 12   
    1139                                                      ; branchcc occurs ; |432| 
    1140                      .dwpsn  file "../c5535_bsl_revc/ezdsp5535_v1/c55xx_csl/ccs_v4.0_examples/mmc_sd/CSL_MMCSD_SdCardExamp
    1141 00037c EC31          AMOV #$C$FSL26, XAR3 ; |434| 
         00037e BE00 
         000380 02F8+
    1142 000382 EB00          MOV XAR3, dbl(*SP(#0))
         000384 B5   
    1143              $C$DW$139       .dwtag  DW_TAG_TI_branch
    1144                      .dwattr $C$DW$139, DW_AT_low_pc(0x00)
    1145                      .dwattr $C$DW$139, DW_AT_name("_printf")
    1146                      .dwattr $C$DW$139, DW_AT_TI_call
    1147 000385 6C00          CALL #_printf ; |434| 
         000387 0000!
    1148                                                      ; call occurs [#_printf] ; |434| 
    1149                      .dwpsn  file "../c5535_bsl_revc/ezdsp5535_v1/c55xx_csl/ccs_v4.0_examples/mmc_sd/CSL_MMCSD_SdCardExamp
    1150 000389 A406          MOV *SP(#3), T0 ; |435| 
    1151 00038b 0601          B $C$L37  ; |435| 
         00038d C9   
    1152                                                      ; branch occurs ; |435| 
    1153 00038e       $C$L25:    
    1154                      .dwpsn  file "../c5535_bsl_revc/ezdsp5535_v1/c55xx_csl/ccs_v4.0_examples/mmc_sd/CSL_MMCSD_SdCardExamp
    1155 00038e ED31          MOV dbl(*(#_mmcsdHandle)), XAR0
         000390 8F00 
         000392 0040-
    1156 000394 7602          MOV #512, AC0 ; |442| 
         000396 0008 
    1157              $C$DW$140       .dwtag  DW_TAG_TI_branch
    1158                      .dwattr $C$DW$140, DW_AT_low_pc(0x00)
    1159                      .dwattr $C$DW$140, DW_AT_name("_MMC_setBlockLength")
    1160                      .dwattr $C$DW$140, DW_AT_TI_call
    1161 000398 6C00          CALL #_MMC_setBlockLength ; |442| 
         00039a 0000!
    1162                                                      ; call occurs [#_MMC_setBlockLength] ; |442| 
    1163 00039c C406          MOV T0, *SP(#3) ; |442| 
    1164                      .dwpsn  file "../c5535_bsl_revc/ezdsp5535_v1/c55xx_csl/ccs_v4.0_examples/mmc_sd/CSL_MMCSD_SdCardExamp
    1165 00039e 2249          MOV T0, AR1
    1166 0003a0 0409          BCC $C$L26,AR1 == #0 ; |443| 
         0003a2 12   
    1167                                                      ; branchcc occurs ; |443| 
    1168                      .dwpsn  file "../c5535_bsl_revc/ezdsp5535_v1/c55xx_csl/ccs_v4.0_examples/mmc_sd/CSL_MMCSD_SdCardExamp
    1169 0003a3 EC31          AMOV #$C$FSL27, XAR3 ; |445| 
         0003a5 BE00 
         0003a7 0318+
    1170 0003a9 EB00          MOV XAR3, dbl(*SP(#0))
         0003ab B5   
    1171              $C$DW$141       .dwtag  DW_TAG_TI_branch
    1172                      .dwattr $C$DW$141, DW_AT_low_pc(0x00)
    1173                      .dwattr $C$DW$141, DW_AT_name("_printf")
    1174                      .dwattr $C$DW$141, DW_AT_TI_call
    1175 0003ac 6C00          CALL #_printf ; |445| 
         0003ae 0000!
    1176                                                      ; call occurs [#_printf] ; |445| 
TMS320C55x Assembler PC v4.4.1 Sat Sep 29 23:09:02 2018

Tools Copyright (c) 1996-2012 Texas Instruments Incorporated
csl_mmcsd_SdCardExample.asm                                          PAGE   27

    1177                      .dwpsn  file "../c5535_bsl_revc/ezdsp5535_v1/c55xx_csl/ccs_v4.0_examples/mmc_sd/CSL_MMCSD_SdCardExamp
    1178 0003b0 A406          MOV *SP(#3), T0 ; |446| 
    1179 0003b2 0601          B $C$L37  ; |446| 
         0003b4 A2   
    1180                                                      ; branch occurs ; |446| 
    1181 0003b5       $C$L26:    
    1182                      .dwpsn  file "../c5535_bsl_revc/ezdsp5535_v1/c55xx_csl/ccs_v4.0_examples/mmc_sd/CSL_MMCSD_SdCardExamp
    1183 0003b5 ED10          MOV dbl(*SP(#8)), AC0 ; |450| 
         0003b7 08   
    1184 0003b8 ED31          MOV dbl(*(#_mmcsdHandle)), XAR0
         0003ba 8F00 
         0003bc 0040-
    1185 0003be EC31          AMOV #_pWritedBuff, XAR1 ; |450| 
         0003c0 9E00 
         0003c2 0192-
    1186 0003c4 7602          MOV #512, T0 ; |450| 
         0003c6 0048 
    1187              $C$DW$142       .dwtag  DW_TAG_TI_branch
    1188                      .dwattr $C$DW$142, DW_AT_low_pc(0x00)
    1189                      .dwattr $C$DW$142, DW_AT_name("_MMC_write")
    1190                      .dwattr $C$DW$142, DW_AT_TI_call
    1191 0003c8 6C00          CALL #_MMC_write ; |450| 
         0003ca 0000!
    1192                                                      ; call occurs [#_MMC_write] ; |450| 
    1193 0003cc C406          MOV T0, *SP(#3) ; |450| 
    1194                      .dwpsn  file "../c5535_bsl_revc/ezdsp5535_v1/c55xx_csl/ccs_v4.0_examples/mmc_sd/CSL_MMCSD_SdCardExamp
    1195 0003ce 2249          MOV T0, AR1
    1196 0003d0 0409          BCC $C$L27,AR1 == #0 ; |451| 
         0003d2 12   
    1197                                                      ; branchcc occurs ; |451| 
    1198                      .dwpsn  file "../c5535_bsl_revc/ezdsp5535_v1/c55xx_csl/ccs_v4.0_examples/mmc_sd/CSL_MMCSD_SdCardExamp
    1199 0003d3 EC31          AMOV #$C$FSL28, XAR3 ; |453| 
         0003d5 BE00 
         0003d7 0338+
    1200 0003d9 EB00          MOV XAR3, dbl(*SP(#0))
         0003db B5   
    1201              $C$DW$143       .dwtag  DW_TAG_TI_branch
    1202                      .dwattr $C$DW$143, DW_AT_low_pc(0x00)
    1203                      .dwattr $C$DW$143, DW_AT_name("_printf")
    1204                      .dwattr $C$DW$143, DW_AT_TI_call
    1205 0003dc 6C00          CALL #_printf ; |453| 
         0003de 0000!
    1206                                                      ; call occurs [#_printf] ; |453| 
    1207                      .dwpsn  file "../c5535_bsl_revc/ezdsp5535_v1/c55xx_csl/ccs_v4.0_examples/mmc_sd/CSL_MMCSD_SdCardExamp
    1208 0003e0 A406          MOV *SP(#3), T0 ; |454| 
    1209 0003e2 0601          B $C$L37  ; |454| 
         0003e4 72   
    1210                                                      ; branch occurs ; |454| 
    1211 0003e5       $C$L27:    
    1212                      .dwpsn  file "../c5535_bsl_revc/ezdsp5535_v1/c55xx_csl/ccs_v4.0_examples/mmc_sd/CSL_MMCSD_SdCardExamp
    1213 0003e5 EC31          AMOV #$C$FSL29, XAR3 ; |458| 
         0003e7 BE00 
         0003e9 0350+
    1214 0003eb EB00          MOV XAR3, dbl(*SP(#0))
         0003ed B5   
TMS320C55x Assembler PC v4.4.1 Sat Sep 29 23:09:02 2018

Tools Copyright (c) 1996-2012 Texas Instruments Incorporated
csl_mmcsd_SdCardExample.asm                                          PAGE   28

    1215              $C$DW$144       .dwtag  DW_TAG_TI_branch
    1216                      .dwattr $C$DW$144, DW_AT_low_pc(0x00)
    1217                      .dwattr $C$DW$144, DW_AT_name("_printf")
    1218                      .dwattr $C$DW$144, DW_AT_TI_call
    1219 0003ee 6C00          CALL #_printf ; |458| 
         0003f0 0000!
    1220                                                      ; call occurs [#_printf] ; |458| 
    1221                      .dwpsn  file "../c5535_bsl_revc/ezdsp5535_v1/c55xx_csl/ccs_v4.0_examples/mmc_sd/CSL_MMCSD_SdCardExamp
    1222 0003f2 7602          MOV #512, T0 ; |462| 
         0003f4 0048 
    1223 0003f6 EC31          AMOV #_pReadBuff, XAR1 ; |462| 
         0003f8 9E00 
         0003fa 0092-
    1224 0003fc ED31          MOV dbl(*(#_mmcsdHandle)), XAR0
         0003fe 8F00 
         000400 0040-
    1225 000402 ED10          MOV dbl(*SP(#8)), AC0 ; |462| 
         000404 08   
    1226              $C$DW$145       .dwtag  DW_TAG_TI_branch
    1227                      .dwattr $C$DW$145, DW_AT_low_pc(0x00)
    1228                      .dwattr $C$DW$145, DW_AT_name("_MMC_read")
    1229                      .dwattr $C$DW$145, DW_AT_TI_call
    1230 000405 6C00          CALL #_MMC_read ; |462| 
         000407 0000!
    1231                                                      ; call occurs [#_MMC_read] ; |462| 
    1232 000409 C406          MOV T0, *SP(#3) ; |462| 
    1233                      .dwpsn  file "../c5535_bsl_revc/ezdsp5535_v1/c55xx_csl/ccs_v4.0_examples/mmc_sd/CSL_MMCSD_SdCardExamp
    1234 00040b 2249          MOV T0, AR1
    1235 00040d 0409          BCC $C$L28,AR1 == #0 ; |463| 
         00040f 12   
    1236                                                      ; branchcc occurs ; |463| 
    1237                      .dwpsn  file "../c5535_bsl_revc/ezdsp5535_v1/c55xx_csl/ccs_v4.0_examples/mmc_sd/CSL_MMCSD_SdCardExamp
    1238 000410 EC31          AMOV #$C$FSL30, XAR3 ; |465| 
         000412 BE00 
         000414 036C+
    1239 000416 EB00          MOV XAR3, dbl(*SP(#0))
         000418 B5   
    1240              $C$DW$146       .dwtag  DW_TAG_TI_branch
    1241                      .dwattr $C$DW$146, DW_AT_low_pc(0x00)
    1242                      .dwattr $C$DW$146, DW_AT_name("_printf")
    1243                      .dwattr $C$DW$146, DW_AT_TI_call
    1244 000419 6C00          CALL #_printf ; |465| 
         00041b 0000!
    1245                                                      ; call occurs [#_printf] ; |465| 
    1246                      .dwpsn  file "../c5535_bsl_revc/ezdsp5535_v1/c55xx_csl/ccs_v4.0_examples/mmc_sd/CSL_MMCSD_SdCardExamp
    1247 00041d A406          MOV *SP(#3), T0 ; |466| 
    1248 00041f 0601          B $C$L37  ; |466| 
         000421 35   
    1249                                                      ; branch occurs ; |466| 
    1250 000422       $C$L28:    
    1251                      .dwpsn  file "../c5535_bsl_revc/ezdsp5535_v1/c55xx_csl/ccs_v4.0_examples/mmc_sd/CSL_MMCSD_SdCardExamp
    1252 000422 EC31          AMOV #$C$FSL31, XAR3 ; |470| 
         000424 BE00 
         000426 0382+
    1253 000428 EB00          MOV XAR3, dbl(*SP(#0))
TMS320C55x Assembler PC v4.4.1 Sat Sep 29 23:09:02 2018

Tools Copyright (c) 1996-2012 Texas Instruments Incorporated
csl_mmcsd_SdCardExample.asm                                          PAGE   29

         00042a B5   
    1254              $C$DW$147       .dwtag  DW_TAG_TI_branch
    1255                      .dwattr $C$DW$147, DW_AT_low_pc(0x00)
    1256                      .dwattr $C$DW$147, DW_AT_name("_printf")
    1257                      .dwattr $C$DW$147, DW_AT_TI_call
    1258 00042b 6C00          CALL #_printf ; |470| 
         00042d 0000!
    1259                                                      ; call occurs [#_printf] ; |470| 
    1260                      .dwpsn  file "../c5535_bsl_revc/ezdsp5535_v1/c55xx_csl/ccs_v4.0_examples/mmc_sd/CSL_MMCSD_SdCardExamp
    1261 00042f EC18          AMAR *SP(#12), XAR1
         000431 9E   
    1262 000432 ED31          MOV dbl(*(#_mmcsdHandle)), XAR0
         000434 8F00 
         000436 0040-
    1263              $C$DW$148       .dwtag  DW_TAG_TI_branch
    1264                      .dwattr $C$DW$148, DW_AT_low_pc(0x00)
    1265                      .dwattr $C$DW$148, DW_AT_name("_MMC_getCardStatus")
    1266                      .dwattr $C$DW$148, DW_AT_TI_call
    1267 000438 6C00          CALL #_MMC_getCardStatus ; |474| 
         00043a 0000!
    1268                                                      ; call occurs [#_MMC_getCardStatus] ; |474| 
    1269 00043c C406          MOV T0, *SP(#3) ; |474| 
    1270                      .dwpsn  file "../c5535_bsl_revc/ezdsp5535_v1/c55xx_csl/ccs_v4.0_examples/mmc_sd/CSL_MMCSD_SdCardExamp
    1271 00043e 2249          MOV T0, AR1
    1272 000440 0409          BCC $C$L29,AR1 == #0 ; |475| 
         000442 12   
    1273                                                      ; branchcc occurs ; |475| 
    1274                      .dwpsn  file "../c5535_bsl_revc/ezdsp5535_v1/c55xx_csl/ccs_v4.0_examples/mmc_sd/CSL_MMCSD_SdCardExamp
    1275 000443 EC31          AMOV #$C$FSL32, XAR3 ; |477| 
         000445 BE00 
         000447 039C+
    1276 000449 EB00          MOV XAR3, dbl(*SP(#0))
         00044b B5   
    1277              $C$DW$149       .dwtag  DW_TAG_TI_branch
    1278                      .dwattr $C$DW$149, DW_AT_low_pc(0x00)
    1279                      .dwattr $C$DW$149, DW_AT_name("_printf")
    1280                      .dwattr $C$DW$149, DW_AT_TI_call
    1281 00044c 6C00          CALL #_printf ; |477| 
         00044e 0000!
    1282                                                      ; call occurs [#_printf] ; |477| 
    1283                      .dwpsn  file "../c5535_bsl_revc/ezdsp5535_v1/c55xx_csl/ccs_v4.0_examples/mmc_sd/CSL_MMCSD_SdCardExamp
    1284 000450 A406          MOV *SP(#3), T0 ; |478| 
    1285 000452 0601          B $C$L37  ; |478| 
         000454 02   
    1286                                                      ; branch occurs ; |478| 
    1287 000455       $C$L29:    
    1288                      .dwpsn  file "../c5535_bsl_revc/ezdsp5535_v1/c55xx_csl/ccs_v4.0_examples/mmc_sd/CSL_MMCSD_SdCardExamp
    1289 000455 ED31          MOV dbl(*(#_mmcsdHandle)), XAR0
         000457 8F00 
         000459 0040-
    1290 00045b EC31          AMOV #_mmcCardObj, XAR1 ; |482| 
         00045d 9E00 
         00045f 0042-
    1291              $C$DW$150       .dwtag  DW_TAG_TI_branch
    1292                      .dwattr $C$DW$150, DW_AT_low_pc(0x00)
TMS320C55x Assembler PC v4.4.1 Sat Sep 29 23:09:02 2018

Tools Copyright (c) 1996-2012 Texas Instruments Incorporated
csl_mmcsd_SdCardExample.asm                                          PAGE   30

    1293                      .dwattr $C$DW$150, DW_AT_name("_MMC_deselectCard")
    1294                      .dwattr $C$DW$150, DW_AT_TI_call
    1295 000461 6C00          CALL #_MMC_deselectCard ; |482| 
         000463 0000!
    1296                                                      ; call occurs [#_MMC_deselectCard] ; |482| 
    1297 000465 C406          MOV T0, *SP(#3) ; |482| 
    1298                      .dwpsn  file "../c5535_bsl_revc/ezdsp5535_v1/c55xx_csl/ccs_v4.0_examples/mmc_sd/CSL_MMCSD_SdCardExamp
    1299 000467 2249          MOV T0, AR1
    1300 000469 0409          BCC $C$L30,AR1 == #0 ; |483| 
         00046b 12   
    1301                                                      ; branchcc occurs ; |483| 
    1302                      .dwpsn  file "../c5535_bsl_revc/ezdsp5535_v1/c55xx_csl/ccs_v4.0_examples/mmc_sd/CSL_MMCSD_SdCardExamp
    1303 00046c EC31          AMOV #$C$FSL33, XAR3 ; |485| 
         00046e BE00 
         000470 03BC+
    1304 000472 EB00          MOV XAR3, dbl(*SP(#0))
         000474 B5   
    1305              $C$DW$151       .dwtag  DW_TAG_TI_branch
    1306                      .dwattr $C$DW$151, DW_AT_low_pc(0x00)
    1307                      .dwattr $C$DW$151, DW_AT_name("_printf")
    1308                      .dwattr $C$DW$151, DW_AT_TI_call
    1309 000475 6C00          CALL #_printf ; |485| 
         000477 0000!
    1310                                                      ; call occurs [#_printf] ; |485| 
    1311                      .dwpsn  file "../c5535_bsl_revc/ezdsp5535_v1/c55xx_csl/ccs_v4.0_examples/mmc_sd/CSL_MMCSD_SdCardExamp
    1312 000479 A406          MOV *SP(#3), T0 ; |486| 
    1313 00047b 0600          B $C$L37  ; |486| 
         00047d D9   
    1314                                                      ; branch occurs ; |486| 
    1315 00047e       $C$L30:    
    1316                      .dwpsn  file "../c5535_bsl_revc/ezdsp5535_v1/c55xx_csl/ccs_v4.0_examples/mmc_sd/CSL_MMCSD_SdCardExamp
    1317 00047e ED31          MOV dbl(*(#_mmcsdHandle)), XAR0
         000480 8F00 
         000482 0040-
    1318              $C$DW$152       .dwtag  DW_TAG_TI_branch
    1319                      .dwattr $C$DW$152, DW_AT_low_pc(0x00)
    1320                      .dwattr $C$DW$152, DW_AT_name("_MMC_clearResponse")
    1321                      .dwattr $C$DW$152, DW_AT_TI_call
    1322 000484 6C00          CALL #_MMC_clearResponse ; |490| 
         000486 0000!
    1323                                                      ; call occurs [#_MMC_clearResponse] ; |490| 
    1324 000488 C406          MOV T0, *SP(#3) ; |490| 
    1325                      .dwpsn  file "../c5535_bsl_revc/ezdsp5535_v1/c55xx_csl/ccs_v4.0_examples/mmc_sd/CSL_MMCSD_SdCardExamp
    1326 00048a 2249          MOV T0, AR1
    1327 00048c 0409          BCC $C$L31,AR1 == #0 ; |491| 
         00048e 12   
    1328                                                      ; branchcc occurs ; |491| 
    1329                      .dwpsn  file "../c5535_bsl_revc/ezdsp5535_v1/c55xx_csl/ccs_v4.0_examples/mmc_sd/CSL_MMCSD_SdCardExamp
    1330 00048f EC31          AMOV #$C$FSL34, XAR3 ; |493| 
         000491 BE00 
         000493 03DA+
    1331 000495 EB00          MOV XAR3, dbl(*SP(#0))
         000497 B5   
    1332              $C$DW$153       .dwtag  DW_TAG_TI_branch
    1333                      .dwattr $C$DW$153, DW_AT_low_pc(0x00)
TMS320C55x Assembler PC v4.4.1 Sat Sep 29 23:09:02 2018

Tools Copyright (c) 1996-2012 Texas Instruments Incorporated
csl_mmcsd_SdCardExample.asm                                          PAGE   31

    1334                      .dwattr $C$DW$153, DW_AT_name("_printf")
    1335                      .dwattr $C$DW$153, DW_AT_TI_call
    1336 000498 6C00          CALL #_printf ; |493| 
         00049a 0000!
    1337                                                      ; call occurs [#_printf] ; |493| 
    1338                      .dwpsn  file "../c5535_bsl_revc/ezdsp5535_v1/c55xx_csl/ccs_v4.0_examples/mmc_sd/CSL_MMCSD_SdCardExamp
    1339 00049c A406          MOV *SP(#3), T0 ; |494| 
    1340 00049e 0600          B $C$L37  ; |494| 
         0004a0 B6   
    1341                                                      ; branch occurs ; |494| 
    1342 0004a1       $C$L31:    
    1343                      .dwpsn  file "../c5535_bsl_revc/ezdsp5535_v1/c55xx_csl/ccs_v4.0_examples/mmc_sd/CSL_MMCSD_SdCardExamp
    1344 0004a1 ED31          MOV dbl(*(#_mmcsdHandle)), XAR0
         0004a3 8F00 
         0004a5 0040-
    1345              
    1346 0004ab 3D00          MOV #0, AC0 ; |498| 
    1347 0004a7 76FF  ||      MOV #65535, T0 ; |498| 
         0004a9 FF48 
    1348              
    1349              $C$DW$154       .dwtag  DW_TAG_TI_branch
    1350                      .dwattr $C$DW$154, DW_AT_low_pc(0x00)
    1351                      .dwattr $C$DW$154, DW_AT_name("_MMC_sendCmd")
    1352                      .dwattr $C$DW$154, DW_AT_TI_call
    1353              
    1354 0004ad 6C00          CALL #_MMC_sendCmd ; |498| 
         0004af 0000!
    1355 0004b1 3D01  ||      MOV #0, AC1 ; |498| 
    1356              
    1357                                                      ; call occurs [#_MMC_sendCmd] ; |498| 
    1358 0004b3 C406          MOV T0, *SP(#3) ; |498| 
    1359                      .dwpsn  file "../c5535_bsl_revc/ezdsp5535_v1/c55xx_csl/ccs_v4.0_examples/mmc_sd/CSL_MMCSD_SdCardExamp
    1360 0004b5 2249          MOV T0, AR1
    1361 0004b7 0409          BCC $C$L32,AR1 == #0 ; |499| 
         0004b9 12   
    1362                                                      ; branchcc occurs ; |499| 
    1363                      .dwpsn  file "../c5535_bsl_revc/ezdsp5535_v1/c55xx_csl/ccs_v4.0_examples/mmc_sd/CSL_MMCSD_SdCardExamp
    1364 0004ba EC31          AMOV #$C$FSL35, XAR3 ; |501| 
         0004bc BE00 
         0004be 03FA+
    1365 0004c0 EB00          MOV XAR3, dbl(*SP(#0))
         0004c2 B5   
    1366              $C$DW$155       .dwtag  DW_TAG_TI_branch
    1367                      .dwattr $C$DW$155, DW_AT_low_pc(0x00)
    1368                      .dwattr $C$DW$155, DW_AT_name("_printf")
    1369                      .dwattr $C$DW$155, DW_AT_TI_call
    1370 0004c3 6C00          CALL #_printf ; |501| 
         0004c5 0000!
    1371                                                      ; call occurs [#_printf] ; |501| 
    1372                      .dwpsn  file "../c5535_bsl_revc/ezdsp5535_v1/c55xx_csl/ccs_v4.0_examples/mmc_sd/CSL_MMCSD_SdCardExamp
    1373 0004c7 A406          MOV *SP(#3), T0 ; |502| 
    1374 0004c9 0600          B $C$L37  ; |502| 
         0004cb 8B   
    1375                                                      ; branch occurs ; |502| 
    1376 0004cc       $C$L32:    
TMS320C55x Assembler PC v4.4.1 Sat Sep 29 23:09:02 2018

Tools Copyright (c) 1996-2012 Texas Instruments Incorporated
csl_mmcsd_SdCardExample.asm                                          PAGE   32

    1377                      .dwpsn  file "../c5535_bsl_revc/ezdsp5535_v1/c55xx_csl/ccs_v4.0_examples/mmc_sd/CSL_MMCSD_SdCardExamp
    1378 0004cc ED31          MOV dbl(*(#_mmcsdHandle)), XAR0
         0004ce 8F00 
         0004d0 0040-
    1379              $C$DW$156       .dwtag  DW_TAG_TI_branch
    1380                      .dwattr $C$DW$156, DW_AT_low_pc(0x00)
    1381                      .dwattr $C$DW$156, DW_AT_name("_MMC_close")
    1382                      .dwattr $C$DW$156, DW_AT_TI_call
    1383 0004d2 6C00          CALL #_MMC_close ; |506| 
         0004d4 0000!
    1384                                                      ; call occurs [#_MMC_close] ; |506| 
    1385 0004d6 C406          MOV T0, *SP(#3) ; |506| 
    1386                      .dwpsn  file "../c5535_bsl_revc/ezdsp5535_v1/c55xx_csl/ccs_v4.0_examples/mmc_sd/CSL_MMCSD_SdCardExamp
    1387 0004d8 2249          MOV T0, AR1
    1388 0004da 0409          BCC $C$L33,AR1 == #0 ; |507| 
         0004dc 12   
    1389                                                      ; branchcc occurs ; |507| 
    1390                      .dwpsn  file "../c5535_bsl_revc/ezdsp5535_v1/c55xx_csl/ccs_v4.0_examples/mmc_sd/CSL_MMCSD_SdCardExamp
    1391 0004dd EC31          AMOV #$C$FSL36, XAR3 ; |509| 
         0004df BE00 
         0004e1 0414+
    1392 0004e3 EB00          MOV XAR3, dbl(*SP(#0))
         0004e5 B5   
    1393              $C$DW$157       .dwtag  DW_TAG_TI_branch
    1394                      .dwattr $C$DW$157, DW_AT_low_pc(0x00)
    1395                      .dwattr $C$DW$157, DW_AT_name("_printf")
    1396                      .dwattr $C$DW$157, DW_AT_TI_call
    1397 0004e6 6C00          CALL #_printf ; |509| 
         0004e8 0000!
    1398                                                      ; call occurs [#_printf] ; |509| 
    1399                      .dwpsn  file "../c5535_bsl_revc/ezdsp5535_v1/c55xx_csl/ccs_v4.0_examples/mmc_sd/CSL_MMCSD_SdCardExamp
    1400 0004ea A406          MOV *SP(#3), T0 ; |510| 
    1401 0004ec 0600          B $C$L37  ; |510| 
         0004ee 68   
    1402                                                      ; branch occurs ; |510| 
    1403 0004ef       $C$L33:    
    1404                      .dwpsn  file "../c5535_bsl_revc/ezdsp5535_v1/c55xx_csl/ccs_v4.0_examples/mmc_sd/CSL_MMCSD_SdCardExamp
    1405 0004ef EC31          AMOV #$C$FSL37, XAR3 ; |514| 
         0004f1 BE00 
         0004f3 042C+
    1406 0004f5 EB00          MOV XAR3, dbl(*SP(#0))
         0004f7 B5   
    1407              $C$DW$158       .dwtag  DW_TAG_TI_branch
    1408                      .dwattr $C$DW$158, DW_AT_low_pc(0x00)
    1409                      .dwattr $C$DW$158, DW_AT_name("_printf")
    1410                      .dwattr $C$DW$158, DW_AT_TI_call
    1411 0004f8 6C00          CALL #_printf ; |514| 
         0004fa 0000!
    1412                                                      ; call occurs [#_printf] ; |514| 
    1413                      .dwpsn  file "../c5535_bsl_revc/ezdsp5535_v1/c55xx_csl/ccs_v4.0_examples/mmc_sd/CSL_MMCSD_SdCardExamp
    1414 0004fc E608          MOV #0, *SP(#4) ; |518| 
         0004fe 00   
    1415                      .dwpsn  file "../c5535_bsl_revc/ezdsp5535_v1/c55xx_csl/ccs_v4.0_examples/mmc_sd/CSL_MMCSD_SdCardExamp
    1416 0004ff 7601          MOV #256, AR2 ; |518| 
         000501 00A8 
TMS320C55x Assembler PC v4.4.1 Sat Sep 29 23:09:02 2018

Tools Copyright (c) 1996-2012 Texas Instruments Incorporated
csl_mmcsd_SdCardExample.asm                                          PAGE   33

    1417 000503 A908          MOV *SP(#4), AR1 ; |518| 
    1418 000505 1298          CMPU AR1 >= AR2, TC1 ; |518| 
         000507 A4   
    1419 000508 0464          BCC $C$L36,TC1 ; |518| 
         00050a 3D   
    1420                                                      ; branchcc occurs ; |518| 
    1421 00050b       $C$L34:    
    1422 00050b       $C$DW$L$_CSL_sdCardPollTest$63$B:
    1423                      .dwpsn  file "../c5535_bsl_revc/ezdsp5535_v1/c55xx_csl/ccs_v4.0_examples/mmc_sd/CSL_MMCSD_SdCardExamp
    1424 00050b A408          MOV *SP(#4), T0 ; |520| 
    1425 00050d EC31          AMOV #_pWritedBuff, XAR3 ; |520| 
         00050f BE00 
         000511 0192-
    1426 000513 A96B          MOV *AR3(T0), AR1 ; |520| 
    1427 000515 EC31          AMOV #_pReadBuff, XAR3 ; |520| 
         000517 BE00 
         000519 0092-
    1428 00051b AA6B          MOV *AR3(T0), AR2 ; |520| 
    1429 00051d 12A0          CMPU AR2 == AR1, TC1 ; |520| 
         00051f 94   
    1430 000520 0464          BCC $C$L35,TC1 ; |520| 
         000522 15   
    1431                                                      ; branchcc occurs ; |520| 
    1432 000523       $C$DW$L$_CSL_sdCardPollTest$63$E:
    1433                      .dwpsn  file "../c5535_bsl_revc/ezdsp5535_v1/c55xx_csl/ccs_v4.0_examples/mmc_sd/CSL_MMCSD_SdCardExamp
    1434 000523 EC31          AMOV #$C$FSL38, XAR3 ; |522| 
         000525 BE00 
         000527 0448+
    1435 000529 EB00          MOV XAR3, dbl(*SP(#0))
         00052b B5   
    1436 00052c A908          MOV *SP(#4), AR1 ; |522| 
    1437 00052e C904          MOV AR1, *SP(#2) ; |522| 
    1438              $C$DW$159       .dwtag  DW_TAG_TI_branch
    1439                      .dwattr $C$DW$159, DW_AT_low_pc(0x00)
    1440                      .dwattr $C$DW$159, DW_AT_name("_printf")
    1441                      .dwattr $C$DW$159, DW_AT_TI_call
    1442 000530 6C00          CALL #_printf ; |522| 
         000532 0000!
    1443                                                      ; call occurs [#_printf] ; |522| 
    1444                      .dwpsn  file "../c5535_bsl_revc/ezdsp5535_v1/c55xx_csl/ccs_v4.0_examples/mmc_sd/CSL_MMCSD_SdCardExamp
    1445 000534 3E14          MOV #-1, T0
    1446 000536 4A1F          B $C$L37  ; |523| 
    1447                                                      ; branch occurs ; |523| 
    1448 000538       $C$L35:    
    1449 000538       $C$DW$L$_CSL_sdCardPollTest$65$B:
    1450                      .dwpsn  file "../c5535_bsl_revc/ezdsp5535_v1/c55xx_csl/ccs_v4.0_examples/mmc_sd/CSL_MMCSD_SdCardExamp
    1451 000538 F708          ADD #1, *SP(#4) ; |518| 
         00053a 0001 
    1452                      .dwpsn  file "../c5535_bsl_revc/ezdsp5535_v1/c55xx_csl/ccs_v4.0_examples/mmc_sd/CSL_MMCSD_SdCardExamp
    1453 00053c 7601          MOV #256, AR2 ; |518| 
         00053e 00A8 
    1454 000540 A908          MOV *SP(#4), AR1 ; |518| 
    1455 000542 1294          CMPU AR1 < AR2, TC1 ; |518| 
         000544 A4   
    1456 000545 0464          BCC $C$L34,TC1 ; |518| 
TMS320C55x Assembler PC v4.4.1 Sat Sep 29 23:09:02 2018

Tools Copyright (c) 1996-2012 Texas Instruments Incorporated
csl_mmcsd_SdCardExample.asm                                          PAGE   34

         000547 C3   
    1457                                                      ; branchcc occurs ; |518| 
    1458 000548       $C$DW$L$_CSL_sdCardPollTest$65$E:
    1459 000548       $C$L36:    
    1460                      .dwpsn  file "../c5535_bsl_revc/ezdsp5535_v1/c55xx_csl/ccs_v4.0_examples/mmc_sd/CSL_MMCSD_SdCardExamp
    1461 000548 EC31          AMOV #$C$FSL39, XAR3 ; |527| 
         00054a BE00 
         00054c 046E+
    1462 00054e EB00          MOV XAR3, dbl(*SP(#0))
         000550 B5   
    1463              $C$DW$160       .dwtag  DW_TAG_TI_branch
    1464                      .dwattr $C$DW$160, DW_AT_low_pc(0x00)
    1465                      .dwattr $C$DW$160, DW_AT_name("_printf")
    1466                      .dwattr $C$DW$160, DW_AT_TI_call
    1467 000551 6C00          CALL #_printf ; |527| 
         000553 0000!
    1468                                                      ; call occurs [#_printf] ; |527| 
    1469                      .dwpsn  file "../c5535_bsl_revc/ezdsp5535_v1/c55xx_csl/ccs_v4.0_examples/mmc_sd/CSL_MMCSD_SdCardExamp
    1470 000555 3C04          MOV #0, T0
    1471 000557       $C$L37:    
    1472                      .dwpsn  file "../c5535_bsl_revc/ezdsp5535_v1/c55xx_csl/ccs_v4.0_examples/mmc_sd/CSL_MMCSD_SdCardExamp
    1473 000557 4E0F          AADD #15, SP
    1474                      .dwcfi  cfa_offset, 1
    1475              $C$DW$161       .dwtag  DW_TAG_TI_branch
    1476                      .dwattr $C$DW$161, DW_AT_low_pc(0x00)
    1477                      .dwattr $C$DW$161, DW_AT_TI_return
    1478 000559 4804          RET
    1479                                                      ; return occurs
    1480              
    1481              $C$DW$162       .dwtag  DW_TAG_TI_loop
    1482                      .dwattr $C$DW$162, DW_AT_name("F:\eZdsp_DBG\tmp1\c55x-sim2\foo\Debug\csl_mmcsd_SdCardExample.asm:$C$L
    1483                      .dwattr $C$DW$162, DW_AT_TI_begin_file("../c5535_bsl_revc/ezdsp5535_v1/c55xx_csl/ccs_v4.0_examples/mm
    1484                      .dwattr $C$DW$162, DW_AT_TI_begin_line(0x206)
    1485                      .dwattr $C$DW$162, DW_AT_TI_end_line(0x20d)
    1486              $C$DW$163       .dwtag  DW_TAG_TI_loop_range
    1487                      .dwattr $C$DW$163, DW_AT_low_pc($C$DW$L$_CSL_sdCardPollTest$63$B)
    1488                      .dwattr $C$DW$163, DW_AT_high_pc($C$DW$L$_CSL_sdCardPollTest$63$E)
    1489              $C$DW$164       .dwtag  DW_TAG_TI_loop_range
    1490                      .dwattr $C$DW$164, DW_AT_low_pc($C$DW$L$_CSL_sdCardPollTest$65$B)
    1491                      .dwattr $C$DW$164, DW_AT_high_pc($C$DW$L$_CSL_sdCardPollTest$65$E)
    1492                      .dwendtag $C$DW$162
    1493              
    1494              
    1495              $C$DW$165       .dwtag  DW_TAG_TI_loop
    1496                      .dwattr $C$DW$165, DW_AT_name("F:\eZdsp_DBG\tmp1\c55x-sim2\foo\Debug\csl_mmcsd_SdCardExample.asm:$C$L
    1497                      .dwattr $C$DW$165, DW_AT_TI_begin_file("../c5535_bsl_revc/ezdsp5535_v1/c55xx_csl/ccs_v4.0_examples/mm
    1498                      .dwattr $C$DW$165, DW_AT_TI_begin_line(0x101)
    1499                      .dwattr $C$DW$165, DW_AT_TI_end_line(0x105)
    1500              $C$DW$166       .dwtag  DW_TAG_TI_loop_range
    1501                      .dwattr $C$DW$166, DW_AT_low_pc($C$DW$L$_CSL_sdCardPollTest$2$B)
    1502                      .dwattr $C$DW$166, DW_AT_high_pc($C$DW$L$_CSL_sdCardPollTest$2$E)
    1503                      .dwendtag $C$DW$165
    1504              
    1505                      .dwattr $C$DW$91, DW_AT_TI_end_file("../c5535_bsl_revc/ezdsp5535_v1/c55xx_csl/ccs_v4.0_examples/mmc_s
    1506                      .dwattr $C$DW$91, DW_AT_TI_end_line(0x212)
TMS320C55x Assembler PC v4.4.1 Sat Sep 29 23:09:02 2018

Tools Copyright (c) 1996-2012 Texas Instruments Incorporated
csl_mmcsd_SdCardExample.asm                                          PAGE   35

    1507                      .dwattr $C$DW$91, DW_AT_TI_end_column(0x01)
    1508                      .dwendentry
    1509                      .dwendtag $C$DW$91
    1510              
    1511 00055b               .sect   ".text"
    1512                      .align 4
    1513                      .global _computeClkRate
    1514              
    1515              $C$DW$167       .dwtag  DW_TAG_subprogram, DW_AT_name("computeClkRate")
    1516                      .dwattr $C$DW$167, DW_AT_low_pc(_computeClkRate)
    1517                      .dwattr $C$DW$167, DW_AT_high_pc(0x00)
    1518                      .dwattr $C$DW$167, DW_AT_TI_symbol_name("_computeClkRate")
    1519                      .dwattr $C$DW$167, DW_AT_external
    1520                      .dwattr $C$DW$167, DW_AT_type(*$C$DW$T$19)
    1521                      .dwattr $C$DW$167, DW_AT_TI_begin_file("../c5535_bsl_revc/ezdsp5535_v1/c55xx_csl/ccs_v4.0_examples/mm
    1522                      .dwattr $C$DW$167, DW_AT_TI_begin_line(0x225)
    1523                      .dwattr $C$DW$167, DW_AT_TI_begin_column(0x08)
    1524                      .dwattr $C$DW$167, DW_AT_TI_max_frame_size(0x08)
    1525                      .dwpsn  file "../c5535_bsl_revc/ezdsp5535_v1/c55xx_csl/ccs_v4.0_examples/mmc_sd/CSL_MMCSD_SdCardExamp
    1526              
    1527                      .dwfde $C$DW$CIE, _computeClkRate
    1528              ;*******************************************************************************
    1529              ;* FUNCTION NAME: computeClkRate                                               *
    1530              ;*                                                                             *
    1531              ;*   Function Uses Regs : AC0,AC0,AC1,AC1,T0,AR1,AR2,SP,CARRY,TC1,M40,SATA,    *
    1532              ;*                        SATD,RDM,FRCT,SMUL                                   *
    1533              ;*   Stack Frame        : Compact (No Frame Pointer, w/ debug)                 *
    1534              ;*   Total Frame Size   : 8 words                                              *
    1535              ;*                        (1 return address/alignment)                         *
    1536              ;*                        (7 local values)                                     *
    1537              ;*   Min System Stack   : 1 word                                               *
    1538              ;*******************************************************************************
    1539 00055c       _computeClkRate:
    1540                      .dwcfi  cfa_offset, 1
    1541                      .dwcfi  save_reg_to_mem, 91, -1
    1542 00055c 4EF9          AADD #-7, SP
    1543                      .dwcfi  cfa_offset, 8
    1544              $C$DW$168       .dwtag  DW_TAG_variable, DW_AT_name("sysClock")
    1545                      .dwattr $C$DW$168, DW_AT_TI_symbol_name("_sysClock")
    1546                      .dwattr $C$DW$168, DW_AT_type(*$C$DW$T$28)
    1547                      .dwattr $C$DW$168, DW_AT_location[DW_OP_bregx 0x24 0]
    1548              $C$DW$169       .dwtag  DW_TAG_variable, DW_AT_name("remainder")
    1549                      .dwattr $C$DW$169, DW_AT_TI_symbol_name("_remainder")
    1550                      .dwattr $C$DW$169, DW_AT_type(*$C$DW$T$28)
    1551                      .dwattr $C$DW$169, DW_AT_location[DW_OP_bregx 0x24 2]
    1552              $C$DW$170       .dwtag  DW_TAG_variable, DW_AT_name("memMaxClk")
    1553                      .dwattr $C$DW$170, DW_AT_TI_symbol_name("_memMaxClk")
    1554                      .dwattr $C$DW$170, DW_AT_type(*$C$DW$T$28)
    1555                      .dwattr $C$DW$170, DW_AT_location[DW_OP_bregx 0x24 4]
    1556              $C$DW$171       .dwtag  DW_TAG_variable, DW_AT_name("clkRate")
    1557                      .dwattr $C$DW$171, DW_AT_TI_symbol_name("_clkRate")
    1558                      .dwattr $C$DW$171, DW_AT_type(*$C$DW$T$19)
    1559                      .dwattr $C$DW$171, DW_AT_location[DW_OP_bregx 0x24 6]
    1560                      .dwpsn  file "../c5535_bsl_revc/ezdsp5535_v1/c55xx_csl/ccs_v4.0_examples/mmc_sd/CSL_MMCSD_SdCardExamp
    1561 00055e 3C00          MOV #0, AC0 ; |556| 
TMS320C55x Assembler PC v4.4.1 Sat Sep 29 23:09:02 2018

Tools Copyright (c) 1996-2012 Texas Instruments Incorporated
csl_mmcsd_SdCardExample.asm                                          PAGE   36

    1562 000560 EB00          MOV AC0, dbl(*SP(#0)) ; |556| 
         000562 08   
    1563                      .dwpsn  file "../c5535_bsl_revc/ezdsp5535_v1/c55xx_csl/ccs_v4.0_examples/mmc_sd/CSL_MMCSD_SdCardExamp
    1564 000563 EB04          MOV AC0, dbl(*SP(#2)) ; |557| 
         000565 08   
    1565                      .dwpsn  file "../c5535_bsl_revc/ezdsp5535_v1/c55xx_csl/ccs_v4.0_examples/mmc_sd/CSL_MMCSD_SdCardExamp
    1566 000566 764E          MOV #20000, AC0 ; |558| 
         000568 2008 
    1567 00056a EB08          MOV AC0, dbl(*SP(#4)) ; |558| 
         00056c 08   
    1568                      .dwpsn  file "../c5535_bsl_revc/ezdsp5535_v1/c55xx_csl/ccs_v4.0_examples/mmc_sd/CSL_MMCSD_SdCardExamp
    1569 00056d E60C          MOV #0, *SP(#6) ; |559| 
         00056f 00   
    1570                      .dwpsn  file "../c5535_bsl_revc/ezdsp5535_v1/c55xx_csl/ccs_v4.0_examples/mmc_sd/CSL_MMCSD_SdCardExamp
    1571              $C$DW$172       .dwtag  DW_TAG_TI_branch
    1572                      .dwattr $C$DW$172, DW_AT_low_pc(0x00)
    1573                      .dwattr $C$DW$172, DW_AT_name("_getSysClk")
    1574                      .dwattr $C$DW$172, DW_AT_TI_call
    1575 000570 0800          CALL #_getSysClk ; |562| 
         000572 65   
    1576                                                      ; call occurs [#_getSysClk] ; |562| 
    1577 000573 EB00          MOV AC0, dbl(*SP(#0)) ; |562| 
         000575 08   
    1578                      .dwpsn  file "../c5535_bsl_revc/ezdsp5535_v1/c55xx_csl/ccs_v4.0_examples/mmc_sd/CSL_MMCSD_SdCardExamp
    1579 000576 ED00          MOV dbl(*SP(#0)), AC1 ; |564| 
         000578 18   
    1580 000579 ED08          MOV dbl(*SP(#4)), AC0 ; |564| 
         00057b 08   
    1581 00057c 1208          CMPU AC1 <= AC0, TC1 ; |564| 
         00057e 14   
    1582 00057f 0464          BCC $C$L41,TC1 ; |564| 
         000581 50   
    1583                                                      ; branchcc occurs ; |564| 
    1584                      .dwpsn  file "../c5535_bsl_revc/ezdsp5535_v1/c55xx_csl/ccs_v4.0_examples/mmc_sd/CSL_MMCSD_SdCardExamp
    1585 000582 ED08          MOV dbl(*SP(#4)), AC0 ; |566| 
         000584 08   
    1586 000585 0400          BCC $C$L40,AC0 == #0 ; |566| 
         000587 46   
    1587                                                      ; branchcc occurs ; |566| 
    1588                      .dwpsn  file "../c5535_bsl_revc/ezdsp5535_v1/c55xx_csl/ccs_v4.0_examples/mmc_sd/CSL_MMCSD_SdCardExamp
    1589 000588 ED00          MOV dbl(*SP(#0)), AC0 ; |568| 
         00058a 08   
    1590 00058b ED08          MOV dbl(*SP(#4)), AC1 ; |568| 
         00058d 18   
    1591              $C$DW$173       .dwtag  DW_TAG_TI_branch
    1592                      .dwattr $C$DW$173, DW_AT_low_pc(0x00)
    1593                      .dwattr $C$DW$173, DW_AT_name("__divul")
    1594                      .dwattr $C$DW$173, DW_AT_TI_call
    1595 00058e 6C00          CALL #__divul ; |568| 
         000590 0000!
    1596                                                      ; call occurs [#__divul] ; |568| 
    1597 000592 C00C          MOV AC0, *SP(#6) ; |568| 
    1598                      .dwpsn  file "../c5535_bsl_revc/ezdsp5535_v1/c55xx_csl/ccs_v4.0_examples/mmc_sd/CSL_MMCSD_SdCardExamp
    1599 000594 ED00          MOV dbl(*SP(#0)), AC0 ; |569| 
         000596 08   
TMS320C55x Assembler PC v4.4.1 Sat Sep 29 23:09:02 2018

Tools Copyright (c) 1996-2012 Texas Instruments Incorporated
csl_mmcsd_SdCardExample.asm                                          PAGE   37

    1600 000597 ED08          MOV dbl(*SP(#4)), AC1 ; |569| 
         000599 18   
    1601              $C$DW$174       .dwtag  DW_TAG_TI_branch
    1602                      .dwattr $C$DW$174, DW_AT_low_pc(0x00)
    1603                      .dwattr $C$DW$174, DW_AT_name("__remul")
    1604                      .dwattr $C$DW$174, DW_AT_TI_call
    1605 00059a 6C00          CALL #__remul ; |569| 
         00059c 0000!
    1606                                                      ; call occurs [#__remul] ; |569| 
    1607 00059e EB04          MOV AC0, dbl(*SP(#2)) ; |569| 
         0005a0 08   
    1608                      .dwpsn  file "../c5535_bsl_revc/ezdsp5535_v1/c55xx_csl/ccs_v4.0_examples/mmc_sd/CSL_MMCSD_SdCardExamp
    1609 0005a1 ED04          MOV dbl(*SP(#2)), AC0 ; |576| 
         0005a3 08   
    1610 0005a4 6200          BCC $C$L38,AC0 == #0 ; |576| 
    1611                                                      ; branchcc occurs ; |576| 
    1612                      .dwpsn  file "../c5535_bsl_revc/ezdsp5535_v1/c55xx_csl/ccs_v4.0_examples/mmc_sd/CSL_MMCSD_SdCardExamp
    1613 0005a6 F70C          ADD #1, *SP(#6) ; |578| 
         0005a8 0001 
    1614 0005aa       $C$L38:    
    1615                      .dwpsn  file "../c5535_bsl_revc/ezdsp5535_v1/c55xx_csl/ccs_v4.0_examples/mmc_sd/CSL_MMCSD_SdCardExamp
    1616 0005aa DC0C          BTST #0, *SP(#6), TC1 ; |586| 
         0005ac 00   
    1617 0005ad 6274          BCC $C$L39,!TC1 ; |586| 
    1618                                                      ; branchcc occurs ; |586| 
    1619                      .dwpsn  file "../c5535_bsl_revc/ezdsp5535_v1/c55xx_csl/ccs_v4.0_examples/mmc_sd/CSL_MMCSD_SdCardExamp
    1620 0005af F70C          ADD #1, *SP(#6) ; |588| 
         0005b1 0001 
    1621 0005b3       $C$L39:    
    1622                      .dwpsn  file "../c5535_bsl_revc/ezdsp5535_v1/c55xx_csl/ccs_v4.0_examples/mmc_sd/CSL_MMCSD_SdCardExamp
    1623 0005b3 A90C          MOV *SP(#6), AR1 ; |595| 
    1624 0005b5 5091          SFTL AR1, #-1 ; |595| 
    1625 0005b7 C90C          MOV AR1, *SP(#6) ; |595| 
    1626                      .dwpsn  file "../c5535_bsl_revc/ezdsp5535_v1/c55xx_csl/ccs_v4.0_examples/mmc_sd/CSL_MMCSD_SdCardExamp
    1627 0005b9 F70C          SUB #1, *SP(#6) ; |596| 
         0005bb FFFF 
    1628                      .dwpsn  file "../c5535_bsl_revc/ezdsp5535_v1/c55xx_csl/ccs_v4.0_examples/mmc_sd/CSL_MMCSD_SdCardExamp
    1629 0005bd 7600          MOV #255, AR2 ; |606| 
         0005bf FFA8 
    1630 0005c1 A90C          MOV *SP(#6), AR1 ; |606| 
    1631 0005c3 12A8          CMPU AR1 <= AR2, TC1 ; |606| 
         0005c5 94   
    1632 0005c6 6564          BCC $C$L41,TC1 ; |606| 
    1633                                                      ; branchcc occurs ; |606| 
    1634                      .dwpsn  file "../c5535_bsl_revc/ezdsp5535_v1/c55xx_csl/ccs_v4.0_examples/mmc_sd/CSL_MMCSD_SdCardExamp
    1635 0005c8 FB0C          MOV #255, *SP(#6) ; |608| 
         0005ca 00FF 
    1636                      .dwpsn  file "../c5535_bsl_revc/ezdsp5535_v1/c55xx_csl/ccs_v4.0_examples/mmc_sd/CSL_MMCSD_SdCardExamp
    1637 0005cc 4A04          B $C$L41  ; |610| 
    1638                                                      ; branch occurs ; |610| 
    1639 0005ce       $C$L40:    
    1640                      .dwpsn  file "../c5535_bsl_revc/ezdsp5535_v1/c55xx_csl/ccs_v4.0_examples/mmc_sd/CSL_MMCSD_SdCardExamp
    1641 0005ce FB0C          MOV #255, *SP(#6) ; |613| 
         0005d0 00FF 
    1642 0005d2       $C$L41:    
TMS320C55x Assembler PC v4.4.1 Sat Sep 29 23:09:02 2018

Tools Copyright (c) 1996-2012 Texas Instruments Incorporated
csl_mmcsd_SdCardExample.asm                                          PAGE   38

    1643                      .dwpsn  file "../c5535_bsl_revc/ezdsp5535_v1/c55xx_csl/ccs_v4.0_examples/mmc_sd/CSL_MMCSD_SdCardExamp
    1644 0005d2 A40C          MOV *SP(#6), T0 ; |617| 
    1645                      .dwpsn  file "../c5535_bsl_revc/ezdsp5535_v1/c55xx_csl/ccs_v4.0_examples/mmc_sd/CSL_MMCSD_SdCardExamp
    1646 0005d4 4E07          AADD #7, SP
    1647                      .dwcfi  cfa_offset, 1
    1648              $C$DW$175       .dwtag  DW_TAG_TI_branch
    1649                      .dwattr $C$DW$175, DW_AT_low_pc(0x00)
    1650                      .dwattr $C$DW$175, DW_AT_TI_return
    1651 0005d6 4804          RET
    1652                                                      ; return occurs
    1653                      .dwattr $C$DW$167, DW_AT_TI_end_file("../c5535_bsl_revc/ezdsp5535_v1/c55xx_csl/ccs_v4.0_examples/mmc_
    1654                      .dwattr $C$DW$167, DW_AT_TI_end_line(0x26a)
    1655                      .dwattr $C$DW$167, DW_AT_TI_end_column(0x01)
    1656                      .dwendentry
    1657                      .dwendtag $C$DW$167
    1658              
    1659 0005d8               .sect   ".text"
    1660                      .align 4
    1661                      .global _getSysClk
    1662              
    1663              $C$DW$176       .dwtag  DW_TAG_subprogram, DW_AT_name("getSysClk")
    1664                      .dwattr $C$DW$176, DW_AT_low_pc(_getSysClk)
    1665                      .dwattr $C$DW$176, DW_AT_high_pc(0x00)
    1666                      .dwattr $C$DW$176, DW_AT_TI_symbol_name("_getSysClk")
    1667                      .dwattr $C$DW$176, DW_AT_external
    1668                      .dwattr $C$DW$176, DW_AT_type(*$C$DW$T$28)
    1669                      .dwattr $C$DW$176, DW_AT_TI_begin_file("../c5535_bsl_revc/ezdsp5535_v1/c55xx_csl/ccs_v4.0_examples/mm
    1670                      .dwattr $C$DW$176, DW_AT_TI_begin_line(0x275)
    1671                      .dwattr $C$DW$176, DW_AT_TI_begin_column(0x08)
    1672                      .dwattr $C$DW$176, DW_AT_TI_max_frame_size(0x0a)
    1673                      .dwpsn  file "../c5535_bsl_revc/ezdsp5535_v1/c55xx_csl/ccs_v4.0_examples/mmc_sd/CSL_MMCSD_SdCardExamp
    1674              
    1675                      .dwfde $C$DW$CIE, _getSysClk
    1676              ;*******************************************************************************
    1677              ;* FUNCTION NAME: getSysClk                                                    *
    1678              ;*                                                                             *
    1679              ;*   Function Uses Regs : AC0,AC0,AC1,AC1,AR1,AR2,SP,CARRY,TC1,M40,SATA,SATD,  *
    1680              ;*                        RDM,FRCT,SMUL                                        *
    1681              ;*   Stack Frame        : Compact (No Frame Pointer, w/ debug)                 *
    1682              ;*   Total Frame Size   : 10 words                                             *
    1683              ;*                        (2 return address/alignment)                         *
    1684              ;*                        (8 local values)                                     *
    1685              ;*   Min System Stack   : 1 word                                               *
    1686              ;*******************************************************************************
    1687 0005d8       _getSysClk:
    1688                      .dwcfi  cfa_offset, 1
    1689                      .dwcfi  save_reg_to_mem, 91, -1
    1690 0005d8 4EF7          AADD #-9, SP
    1691                      .dwcfi  cfa_offset, 10
    1692              $C$DW$177       .dwtag  DW_TAG_variable, DW_AT_name("pllRDBypass")
    1693                      .dwattr $C$DW$177, DW_AT_TI_symbol_name("_pllRDBypass")
    1694                      .dwattr $C$DW$177, DW_AT_type(*$C$DW$T$40)
    1695                      .dwattr $C$DW$177, DW_AT_location[DW_OP_bregx 0x24 0]
    1696              $C$DW$178       .dwtag  DW_TAG_variable, DW_AT_name("pllOutDiv")
    1697                      .dwattr $C$DW$178, DW_AT_TI_symbol_name("_pllOutDiv")
TMS320C55x Assembler PC v4.4.1 Sat Sep 29 23:09:02 2018

Tools Copyright (c) 1996-2012 Texas Instruments Incorporated
csl_mmcsd_SdCardExample.asm                                          PAGE   39

    1698                      .dwattr $C$DW$178, DW_AT_type(*$C$DW$T$40)
    1699                      .dwattr $C$DW$178, DW_AT_location[DW_OP_bregx 0x24 1]
    1700              $C$DW$179       .dwtag  DW_TAG_variable, DW_AT_name("sysClk")
    1701                      .dwattr $C$DW$179, DW_AT_TI_symbol_name("_sysClk")
    1702                      .dwattr $C$DW$179, DW_AT_type(*$C$DW$T$28)
    1703                      .dwattr $C$DW$179, DW_AT_location[DW_OP_bregx 0x24 2]
    1704              $C$DW$180       .dwtag  DW_TAG_variable, DW_AT_name("pllVP")
    1705                      .dwattr $C$DW$180, DW_AT_TI_symbol_name("_pllVP")
    1706                      .dwattr $C$DW$180, DW_AT_type(*$C$DW$T$19)
    1707                      .dwattr $C$DW$180, DW_AT_location[DW_OP_bregx 0x24 4]
    1708              $C$DW$181       .dwtag  DW_TAG_variable, DW_AT_name("pllVS")
    1709                      .dwattr $C$DW$181, DW_AT_TI_symbol_name("_pllVS")
    1710                      .dwattr $C$DW$181, DW_AT_type(*$C$DW$T$19)
    1711                      .dwattr $C$DW$181, DW_AT_location[DW_OP_bregx 0x24 5]
    1712              $C$DW$182       .dwtag  DW_TAG_variable, DW_AT_name("pllRD")
    1713                      .dwattr $C$DW$182, DW_AT_TI_symbol_name("_pllRD")
    1714                      .dwattr $C$DW$182, DW_AT_type(*$C$DW$T$19)
    1715                      .dwattr $C$DW$182, DW_AT_location[DW_OP_bregx 0x24 6]
    1716              $C$DW$183       .dwtag  DW_TAG_variable, DW_AT_name("pllVO")
    1717                      .dwattr $C$DW$183, DW_AT_TI_symbol_name("_pllVO")
    1718                      .dwattr $C$DW$183, DW_AT_type(*$C$DW$T$19)
    1719                      .dwattr $C$DW$183, DW_AT_location[DW_OP_bregx 0x24 7]
    1720                      .dwpsn  file "../c5535_bsl_revc/ezdsp5535_v1/c55xx_csl/ccs_v4.0_examples/mmc_sd/CSL_MMCSD_SdCardExamp
    1721 0005da A951          MOV *port(#7200), AR1 ; |639| 
         0005dc 1C20 
    1722 0005de 7D0F          AND #0x0ffc, AR1, AC0 ; |639| 
         0005e0 FC09 
    1723 0005e2 1005          SFTS AC0, #-2, AC0 ; |639| 
         0005e4 3E   
    1724 0005e5 C008          MOV AC0, *SP(#4) ; |639| 
    1725                      .dwpsn  file "../c5535_bsl_revc/ezdsp5535_v1/c55xx_csl/ccs_v4.0_examples/mmc_sd/CSL_MMCSD_SdCardExamp
    1726 0005e7 A951          MOV *port(#7200), AR1 ; |640| 
         0005e9 1C20 
    1727 0005eb 1803          AND #0x0003, AR1, AC0 ; |640| 
         0005ed 09   
    1728 0005ee C00A          MOV AC0, *SP(#5) ; |640| 
    1729                      .dwpsn  file "../c5535_bsl_revc/ezdsp5535_v1/c55xx_csl/ccs_v4.0_examples/mmc_sd/CSL_MMCSD_SdCardExamp
    1730 0005f0 A951          MOV *port(#7201), AR1 ; |642| 
         0005f2 1C21 
    1731 0005f4 7D0F          AND #0x0fff, AR1, AC0 ; |642| 
         0005f6 FF09 
    1732 0005f8 C00C          MOV AC0, *SP(#6) ; |642| 
    1733                      .dwpsn  file "../c5535_bsl_revc/ezdsp5535_v1/c55xx_csl/ccs_v4.0_examples/mmc_sd/CSL_MMCSD_SdCardExamp
    1734 0005fa DF51          MOV uns(low_byte(*port(#7203))), AR1 ; |643| 
         0005fc 931C 
         0005fe 23   
    1735 0005ff C90E          MOV AR1, *SP(#7) ; |643| 
    1736                      .dwpsn  file "../c5535_bsl_revc/ezdsp5535_v1/c55xx_csl/ccs_v4.0_examples/mmc_sd/CSL_MMCSD_SdCardExamp
    1737 000601 A951          MOV *port(#7201), AR1 ; |645| 
         000603 1C21 
    1738 000605 7D80          AND #0x8000, AR1, AC0 ; |645| 
         000607 0009 
    1739 000609 1005          SFTS AC0, #-15, AC0 ; |645| 
         00060b 31   
    1740 00060c C000          MOV AC0, *SP(#0) ; |645| 
TMS320C55x Assembler PC v4.4.1 Sat Sep 29 23:09:02 2018

Tools Copyright (c) 1996-2012 Texas Instruments Incorporated
csl_mmcsd_SdCardExample.asm                                          PAGE   40

    1741                      .dwpsn  file "../c5535_bsl_revc/ezdsp5535_v1/c55xx_csl/ccs_v4.0_examples/mmc_sd/CSL_MMCSD_SdCardExamp
    1742 00060e A951          MOV *port(#7203), AR1 ; |646| 
         000610 1C23 
    1743 000612 7D02          AND #0x0200, AR1, AC0 ; |646| 
         000614 0009 
    1744 000616 1005          SFTS AC0, #-9, AC0 ; |646| 
         000618 37   
    1745 000619 C002          MOV AC0, *SP(#1) ; |646| 
    1746                      .dwpsn  file "../c5535_bsl_revc/ezdsp5535_v1/c55xx_csl/ccs_v4.0_examples/mmc_sd/CSL_MMCSD_SdCardExamp
    1747 00061b 3C00          MOV #0, AC0 ; |648| 
    1748 00061d 7E80          OR #0x8000, AC0, AC0 ; |648| 
         00061f 0000 
    1749 000621 EB04          MOV AC0, dbl(*SP(#2)) ; |648| 
         000623 08   
    1750                      .dwpsn  file "../c5535_bsl_revc/ezdsp5535_v1/c55xx_csl/ccs_v4.0_examples/mmc_sd/CSL_MMCSD_SdCardExamp
    1751              
    1752 000624 A900          MOV *SP(#0), AR1 ; |650| 
    1753 000626 3D0A  ||      MOV #0, AR2
    1754              
    1755 000628 12AC          CMP AR2 != AR1, TC1 ; |650| 
         00062a 90   
    1756 00062b 0464          BCC $C$L42,TC1 ; |650| 
         00062d 12   
    1757                                                      ; branchcc occurs ; |650| 
    1758                      .dwpsn  file "../c5535_bsl_revc/ezdsp5535_v1/c55xx_csl/ccs_v4.0_examples/mmc_sd/CSL_MMCSD_SdCardExamp
    1759 00062e A90C          MOV *SP(#6), AR1 ; |652| 
    1760              
    1761 000633 4149          ADD #4, AR1 ; |652| 
    1762 000630 ED04  ||      MOV dbl(*SP(#2)), AC0 ; |652| 
         000632 08   
    1763              
    1764 000635 7DFF          AND #0xffff, AR1, AC1 ; |652| 
         000637 FF19 
    1765              $C$DW$184       .dwtag  DW_TAG_TI_branch
    1766                      .dwattr $C$DW$184, DW_AT_low_pc(0x00)
    1767                      .dwattr $C$DW$184, DW_AT_name("__divul")
    1768                      .dwattr $C$DW$184, DW_AT_TI_call
    1769 000639 6C00          CALL #__divul ; |652| 
         00063b 0000!
    1770                                                      ; call occurs [#__divul] ; |652| 
    1771 00063d EB04          MOV AC0, dbl(*SP(#2)) ; |652| 
         00063f 08   
    1772 000640       $C$L42:    
    1773                      .dwpsn  file "../c5535_bsl_revc/ezdsp5535_v1/c55xx_csl/ccs_v4.0_examples/mmc_sd/CSL_MMCSD_SdCardExamp
    1774 000640 A008          MOV *SP(#4), AC0 ; |655| 
    1775 000642 1007          SFTL AC0, #2, AC0 ; |655| 
         000644 02   
    1776 000645 D60A          ADD *SP(#5), AC0, AR1 ; |655| 
         000647 90   
    1777 000648 4049          ADD #4, AR1 ; |655| 
    1778 00064a 7DFF          AND #0xffff, AR1, AC1 ; |655| 
         00064c FF19 
    1779 00064e ED04          MOV dbl(*SP(#2)), AC0 ; |655| 
         000650 08   
    1780              $C$DW$185       .dwtag  DW_TAG_TI_branch
TMS320C55x Assembler PC v4.4.1 Sat Sep 29 23:09:02 2018

Tools Copyright (c) 1996-2012 Texas Instruments Incorporated
csl_mmcsd_SdCardExample.asm                                          PAGE   41

    1781                      .dwattr $C$DW$185, DW_AT_low_pc(0x00)
    1782                      .dwattr $C$DW$185, DW_AT_name("__mpyli")
    1783                      .dwattr $C$DW$185, DW_AT_TI_call
    1784 000651 6C00          CALL #__mpyli ; |655| 
         000653 0000!
    1785                                                      ; call occurs [#__mpyli] ; |655| 
    1786 000655 EB04          MOV AC0, dbl(*SP(#2)) ; |655| 
         000657 08   
    1787                      .dwpsn  file "../c5535_bsl_revc/ezdsp5535_v1/c55xx_csl/ccs_v4.0_examples/mmc_sd/CSL_MMCSD_SdCardExamp
    1788              
    1789 000658 A902          MOV *SP(#1), AR1 ; |657| 
    1790 00065a 3D1A  ||      MOV #1, AR2
    1791              
    1792 00065c 12AC          CMP AR2 != AR1, TC1 ; |657| 
         00065e 90   
    1793 00065f 0464          BCC $C$L43,TC1 ; |657| 
         000661 12   
    1794                                                      ; branchcc occurs ; |657| 
    1795                      .dwpsn  file "../c5535_bsl_revc/ezdsp5535_v1/c55xx_csl/ccs_v4.0_examples/mmc_sd/CSL_MMCSD_SdCardExamp
    1796 000662 A90E          MOV *SP(#7), AR1 ; |659| 
    1797              
    1798 000667 4119          ADD #1, AR1 ; |659| 
    1799 000664 ED04  ||      MOV dbl(*SP(#2)), AC0 ; |659| 
         000666 08   
    1800              
    1801 000669 7DFF          AND #0xffff, AR1, AC1 ; |659| 
         00066b FF19 
    1802              $C$DW$186       .dwtag  DW_TAG_TI_branch
    1803                      .dwattr $C$DW$186, DW_AT_low_pc(0x00)
    1804                      .dwattr $C$DW$186, DW_AT_name("__divul")
    1805                      .dwattr $C$DW$186, DW_AT_TI_call
    1806 00066d 6C00          CALL #__divul ; |659| 
         00066f 0000!
    1807                                                      ; call occurs [#__divul] ; |659| 
    1808 000671 EB04          MOV AC0, dbl(*SP(#2)) ; |659| 
         000673 08   
    1809 000674       $C$L43:    
    1810                      .dwpsn  file "../c5535_bsl_revc/ezdsp5535_v1/c55xx_csl/ccs_v4.0_examples/mmc_sd/CSL_MMCSD_SdCardExamp
    1811 000674 ED04          MOV dbl(*SP(#2)), AC0 ; |663| 
         000676 08   
    1812 000677 7603          MOV #1000, AC1 ; |663| 
         000679 E818 
    1813              $C$DW$187       .dwtag  DW_TAG_TI_branch
    1814                      .dwattr $C$DW$187, DW_AT_low_pc(0x00)
    1815                      .dwattr $C$DW$187, DW_AT_name("__divul")
    1816                      .dwattr $C$DW$187, DW_AT_TI_call
    1817 00067b 6C00          CALL #__divul ; |663| 
         00067d 0000!
    1818                                                      ; call occurs [#__divul] ; |663| 
    1819                      .dwpsn  file "../c5535_bsl_revc/ezdsp5535_v1/c55xx_csl/ccs_v4.0_examples/mmc_sd/CSL_MMCSD_SdCardExamp
    1820 00067f 4E09          AADD #9, SP
    1821                      .dwcfi  cfa_offset, 1
    1822              $C$DW$188       .dwtag  DW_TAG_TI_branch
    1823                      .dwattr $C$DW$188, DW_AT_low_pc(0x00)
    1824                      .dwattr $C$DW$188, DW_AT_TI_return
TMS320C55x Assembler PC v4.4.1 Sat Sep 29 23:09:02 2018

Tools Copyright (c) 1996-2012 Texas Instruments Incorporated
csl_mmcsd_SdCardExample.asm                                          PAGE   42

    1825 000681 4804          RET
    1826                                                      ; return occurs
    1827                      .dwattr $C$DW$176, DW_AT_TI_end_file("../c5535_bsl_revc/ezdsp5535_v1/c55xx_csl/ccs_v4.0_examples/mmc_
    1828                      .dwattr $C$DW$176, DW_AT_TI_end_line(0x298)
    1829                      .dwattr $C$DW$176, DW_AT_TI_end_column(0x01)
    1830                      .dwendentry
    1831                      .dwendtag $C$DW$176
    1832              
    1833              ;*******************************************************************************
    1834              ;* FAR STRINGS                                                                 *
    1835              ;*******************************************************************************
    1836 000000               .sect   ".const:.string"
    1837                      .align  2
    1838 000000 0043  $C$FSL1:        .string "CSL MMCSD - SD CARD POLL MODE TEST!",10,10,0
         000001 0053 
         000002 004C 
         000003 0020 
         000004 004D 
         000005 004D 
         000006 0043 
         000007 0053 
         000008 0044 
         000009 0020 
         00000a 002D 
         00000b 0020 
         00000c 0053 
         00000d 0044 
         00000e 0020 
         00000f 0043 
         000010 0041 
         000011 0052 
         000012 0044 
         000013 0020 
         000014 0050 
         000015 004F 
         000016 004C 
         000017 004C 
         000018 0020 
         000019 004D 
         00001a 004F 
         00001b 0044 
         00001c 0045 
         00001d 0020 
         00001e 0054 
         00001f 0045 
         000020 0053 
         000021 0054 
         000022 0021 
         000023 000A 
         000024 000A 
         000025 0000 
    1839                      .align  2
    1840 000026 000A  $C$FSL2:        .string 10,"CSL MMCSD - SD CARD POLL MODE TEST FAILED!!",10,0
         000027 0043 
         000028 0053 
TMS320C55x Assembler PC v4.4.1 Sat Sep 29 23:09:02 2018

Tools Copyright (c) 1996-2012 Texas Instruments Incorporated
csl_mmcsd_SdCardExample.asm                                          PAGE   43

         000029 004C 
         00002a 0020 
         00002b 004D 
         00002c 004D 
         00002d 0043 
         00002e 0053 
         00002f 0044 
         000030 0020 
         000031 002D 
         000032 0020 
         000033 0053 
         000034 0044 
         000035 0020 
         000036 0043 
         000037 0041 
         000038 0052 
         000039 0044 
         00003a 0020 
         00003b 0050 
         00003c 004F 
         00003d 004C 
         00003e 004C 
         00003f 0020 
         000040 004D 
         000041 004F 
         000042 0044 
         000043 0045 
         000044 0020 
         000045 0054 
         000046 0045 
         000047 0053 
         000048 0054 
         000049 0020 
         00004a 0046 
         00004b 0041 
         00004c 0049 
         00004d 004C 
         00004e 0045 
         00004f 0044 
         000050 0021 
         000051 0021 
         000052 000A 
         000053 0000 
    1841                      .align  2
    1842 000054 000A  $C$FSL3:        .string 10,"CSL MMCSD - SD CARD POLL MODE TEST PASSED!!",10,0
         000055 0043 
         000056 0053 
         000057 004C 
         000058 0020 
         000059 004D 
         00005a 004D 
         00005b 0043 
         00005c 0053 
         00005d 0044 
         00005e 0020 
TMS320C55x Assembler PC v4.4.1 Sat Sep 29 23:09:02 2018

Tools Copyright (c) 1996-2012 Texas Instruments Incorporated
csl_mmcsd_SdCardExample.asm                                          PAGE   44

         00005f 002D 
         000060 0020 
         000061 0053 
         000062 0044 
         000063 0020 
         000064 0043 
         000065 0041 
         000066 0052 
         000067 0044 
         000068 0020 
         000069 0050 
         00006a 004F 
         00006b 004C 
         00006c 004C 
         00006d 0020 
         00006e 004D 
         00006f 004F 
         000070 0044 
         000071 0045 
         000072 0020 
         000073 0054 
         000074 0045 
         000075 0053 
         000076 0054 
         000077 0020 
         000078 0050 
         000079 0041 
         00007a 0053 
         00007b 0053 
         00007c 0045 
         00007d 0044 
         00007e 0021 
         00007f 0021 
         000080 000A 
         000081 0000 
    1843                      .align  2
    1844 000082 0041  $C$FSL4:        .string "API: MMC_init Failed",10,0
         000083 0050 
         000084 0049 
         000085 003A 
         000086 0020 
         000087 004D 
         000088 004D 
         000089 0043 
         00008a 005F 
         00008b 0069 
         00008c 006E 
         00008d 0069 
         00008e 0074 
         00008f 0020 
         000090 0046 
         000091 0061 
         000092 0069 
         000093 006C 
         000094 0065 
TMS320C55x Assembler PC v4.4.1 Sat Sep 29 23:09:02 2018

Tools Copyright (c) 1996-2012 Texas Instruments Incorporated
csl_mmcsd_SdCardExample.asm                                          PAGE   45

         000095 0064 
         000096 000A 
         000097 0000 
    1845                      .align  2
    1846 000098 0041  $C$FSL5:        .string "API: MMC_open Failed",10,0
         000099 0050 
         00009a 0049 
         00009b 003A 
         00009c 0020 
         00009d 004D 
         00009e 004D 
         00009f 0043 
         0000a0 005F 
         0000a1 006F 
         0000a2 0070 
         0000a3 0065 
         0000a4 006E 
         0000a5 0020 
         0000a6 0046 
         0000a7 0061 
         0000a8 0069 
         0000a9 006C 
         0000aa 0065 
         0000ab 0064 
         0000ac 000A 
         0000ad 0000 
    1847                      .align  2
    1848 0000ae 0041  $C$FSL6:        .string "API: MMC_open Successful",10,0
         0000af 0050 
         0000b0 0049 
         0000b1 003A 
         0000b2 0020 
         0000b3 004D 
         0000b4 004D 
         0000b5 0043 
         0000b6 005F 
         0000b7 006F 
         0000b8 0070 
         0000b9 0065 
         0000ba 006E 
         0000bb 0020 
         0000bc 0053 
         0000bd 0075 
         0000be 0063 
         0000bf 0063 
         0000c0 0065 
         0000c1 0073 
         0000c2 0073 
         0000c3 0066 
         0000c4 0075 
         0000c5 006C 
         0000c6 000A 
         0000c7 0000 
    1849                      .align  2
    1850 0000c8 0041  $C$FSL7:        .string "API: MMC_sendGoIdle Failed",10,0
TMS320C55x Assembler PC v4.4.1 Sat Sep 29 23:09:02 2018

Tools Copyright (c) 1996-2012 Texas Instruments Incorporated
csl_mmcsd_SdCardExample.asm                                          PAGE   46

         0000c9 0050 
         0000ca 0049 
         0000cb 003A 
         0000cc 0020 
         0000cd 004D 
         0000ce 004D 
         0000cf 0043 
         0000d0 005F 
         0000d1 0073 
         0000d2 0065 
         0000d3 006E 
         0000d4 0064 
         0000d5 0047 
         0000d6 006F 
         0000d7 0049 
         0000d8 0064 
         0000d9 006C 
         0000da 0065 
         0000db 0020 
         0000dc 0046 
         0000dd 0061 
         0000de 0069 
         0000df 006C 
         0000e0 0065 
         0000e1 0064 
         0000e2 000A 
         0000e3 0000 
    1851                      .align  2
    1852 0000e4 0041  $C$FSL8:        .string "API: MMC_selectCard Failed",10,0
         0000e5 0050 
         0000e6 0049 
         0000e7 003A 
         0000e8 0020 
         0000e9 004D 
         0000ea 004D 
         0000eb 0043 
         0000ec 005F 
         0000ed 0073 
         0000ee 0065 
         0000ef 006C 
         0000f0 0065 
         0000f1 0063 
         0000f2 0074 
         0000f3 0043 
         0000f4 0061 
         0000f5 0072 
         0000f6 0064 
         0000f7 0020 
         0000f8 0046 
         0000f9 0061 
         0000fa 0069 
         0000fb 006C 
         0000fc 0065 
         0000fd 0064 
         0000fe 000A 
TMS320C55x Assembler PC v4.4.1 Sat Sep 29 23:09:02 2018

Tools Copyright (c) 1996-2012 Texas Instruments Incorporated
csl_mmcsd_SdCardExample.asm                                          PAGE   47

         0000ff 0000 
    1853                      .align  2
    1854 000100 0053  $C$FSL9:        .string "SD card Detected!",10,0
         000101 0044 
         000102 0020 
         000103 0063 
         000104 0061 
         000105 0072 
         000106 0064 
         000107 0020 
         000108 0044 
         000109 0065 
         00010a 0074 
         00010b 0065 
         00010c 0063 
         00010d 0074 
         00010e 0065 
         00010f 0064 
         000110 0021 
         000111 000A 
         000112 0000 
    1855                      .align  2
    1856 000114 0053  $C$FSL10:       .string "SD card is High Capacity Card",10,0
         000115 0044 
         000116 0020 
         000117 0063 
         000118 0061 
         000119 0072 
         00011a 0064 
         00011b 0020 
         00011c 0069 
         00011d 0073 
         00011e 0020 
         00011f 0048 
         000120 0069 
         000121 0067 
         000122 0068 
         000123 0020 
         000124 0043 
         000125 0061 
         000126 0070 
         000127 0061 
         000128 0063 
         000129 0069 
         00012a 0074 
         00012b 0079 
         00012c 0020 
         00012d 0043 
         00012e 0061 
         00012f 0072 
         000130 0064 
         000131 000A 
         000132 0000 
    1857                      .align  2
    1858 000134 004D  $C$FSL11:       .string "Memory Access will use Block Addressing",10,10,0
TMS320C55x Assembler PC v4.4.1 Sat Sep 29 23:09:02 2018

Tools Copyright (c) 1996-2012 Texas Instruments Incorporated
csl_mmcsd_SdCardExample.asm                                          PAGE   48

         000135 0065 
         000136 006D 
         000137 006F 
         000138 0072 
         000139 0079 
         00013a 0020 
         00013b 0041 
         00013c 0063 
         00013d 0063 
         00013e 0065 
         00013f 0073 
         000140 0073 
         000141 0020 
         000142 0077 
         000143 0069 
         000144 006C 
         000145 006C 
         000146 0020 
         000147 0075 
         000148 0073 
         000149 0065 
         00014a 0020 
         00014b 0042 
         00014c 006C 
         00014d 006F 
         00014e 0063 
         00014f 006B 
         000150 0020 
         000151 0041 
         000152 0064 
         000153 0064 
         000154 0072 
         000155 0065 
         000156 0073 
         000157 0073 
         000158 0069 
         000159 006E 
         00015a 0067 
         00015b 000A 
         00015c 000A 
         00015d 0000 
    1859                      .align  2
    1860 00015e 0053  $C$FSL12:       .string "SD card is Standard Capacity Card",10,0
         00015f 0044 
         000160 0020 
         000161 0063 
         000162 0061 
         000163 0072 
         000164 0064 
         000165 0020 
         000166 0069 
         000167 0073 
         000168 0020 
         000169 0053 
         00016a 0074 
TMS320C55x Assembler PC v4.4.1 Sat Sep 29 23:09:02 2018

Tools Copyright (c) 1996-2012 Texas Instruments Incorporated
csl_mmcsd_SdCardExample.asm                                          PAGE   49

         00016b 0061 
         00016c 006E 
         00016d 0064 
         00016e 0061 
         00016f 0072 
         000170 0064 
         000171 0020 
         000172 0043 
         000173 0061 
         000174 0070 
         000175 0061 
         000176 0063 
         000177 0069 
         000178 0074 
         000179 0079 
         00017a 0020 
         00017b 0043 
         00017c 0061 
         00017d 0072 
         00017e 0064 
         00017f 000A 
         000180 0000 
    1861                      .align  2
    1862 000182 004D  $C$FSL13:       .string "Memory Access will use Byte Addressing",10,10,0
         000183 0065 
         000184 006D 
         000185 006F 
         000186 0072 
         000187 0079 
         000188 0020 
         000189 0041 
         00018a 0063 
         00018b 0063 
         00018c 0065 
         00018d 0073 
         00018e 0073 
         00018f 0020 
         000190 0077 
         000191 0069 
         000192 006C 
         000193 006C 
         000194 0020 
         000195 0075 
         000196 0073 
         000197 0065 
         000198 0020 
         000199 0042 
         00019a 0079 
         00019b 0074 
         00019c 0065 
         00019d 0020 
         00019e 0041 
         00019f 0064 
         0001a0 0064 
         0001a1 0072 
TMS320C55x Assembler PC v4.4.1 Sat Sep 29 23:09:02 2018

Tools Copyright (c) 1996-2012 Texas Instruments Incorporated
csl_mmcsd_SdCardExample.asm                                          PAGE   50

         0001a2 0065 
         0001a3 0073 
         0001a4 0073 
         0001a5 0069 
         0001a6 006E 
         0001a7 0067 
         0001a8 000A 
         0001a9 000A 
         0001aa 0000 
    1863                      .align  2
    1864 0001ac 004E  $C$FSL14:       .string "No Card Detected!",10,0
         0001ad 006F 
         0001ae 0020 
         0001af 0043 
         0001b0 0061 
         0001b1 0072 
         0001b2 0064 
         0001b3 0020 
         0001b4 0044 
         0001b5 0065 
         0001b6 0074 
         0001b7 0065 
         0001b8 0063 
         0001b9 0074 
         0001ba 0065 
         0001bb 0064 
         0001bc 0021 
         0001bd 000A 
         0001be 0000 
    1865                      .align  2
    1866 0001c0 0053  $C$FSL15:       .string "SD card is not Detected!",10,0
         0001c1 0044 
         0001c2 0020 
         0001c3 0063 
         0001c4 0061 
         0001c5 0072 
         0001c6 0064 
         0001c7 0020 
         0001c8 0069 
         0001c9 0073 
         0001ca 0020 
         0001cb 006E 
         0001cc 006F 
         0001cd 0074 
         0001ce 0020 
         0001cf 0044 
         0001d0 0065 
         0001d1 0074 
         0001d2 0065 
         0001d3 0063 
         0001d4 0074 
         0001d5 0065 
         0001d6 0064 
         0001d7 0021 
         0001d8 000A 
TMS320C55x Assembler PC v4.4.1 Sat Sep 29 23:09:02 2018

Tools Copyright (c) 1996-2012 Texas Instruments Incorporated
csl_mmcsd_SdCardExample.asm                                          PAGE   51

         0001d9 0000 
    1867                      .align  2
    1868 0001da 0050  $C$FSL16:       .string "Please Insert SD card!!",10,0
         0001db 006C 
         0001dc 0065 
         0001dd 0061 
         0001de 0073 
         0001df 0065 
         0001e0 0020 
         0001e1 0049 
         0001e2 006E 
         0001e3 0073 
         0001e4 0065 
         0001e5 0072 
         0001e6 0074 
         0001e7 0020 
         0001e8 0053 
         0001e9 0044 
         0001ea 0020 
         0001eb 0063 
         0001ec 0061 
         0001ed 0072 
         0001ee 0064 
         0001ef 0021 
         0001f0 0021 
         0001f1 000A 
         0001f2 0000 
    1869                      .align  2
    1870 0001f4 0041  $C$FSL17:       .string "API: MMC_sendOpCond Failed",10,0
         0001f5 0050 
         0001f6 0049 
         0001f7 003A 
         0001f8 0020 
         0001f9 004D 
         0001fa 004D 
         0001fb 0043 
         0001fc 005F 
         0001fd 0073 
         0001fe 0065 
         0001ff 006E 
         000200 0064 
         000201 004F 
         000202 0070 
         000203 0043 
         000204 006F 
         000205 006E 
         000206 0064 
         000207 0020 
         000208 0046 
         000209 0061 
         00020a 0069 
         00020b 006C 
         00020c 0065 
         00020d 0064 
         00020e 000A 
TMS320C55x Assembler PC v4.4.1 Sat Sep 29 23:09:02 2018

Tools Copyright (c) 1996-2012 Texas Instruments Incorporated
csl_mmcsd_SdCardExample.asm                                          PAGE   52

         00020f 0000 
    1871                      .align  2
    1872 000210 0041  $C$FSL18:       .string "API: SD_sendAllCID Failed",10,0
         000211 0050 
         000212 0049 
         000213 003A 
         000214 0020 
         000215 0053 
         000216 0044 
         000217 005F 
         000218 0073 
         000219 0065 
         00021a 006E 
         00021b 0064 
         00021c 0041 
         00021d 006C 
         00021e 006C 
         00021f 0043 
         000220 0049 
         000221 0044 
         000222 0020 
         000223 0046 
         000224 0061 
         000225 0069 
         000226 006C 
         000227 0065 
         000228 0064 
         000229 000A 
         00022a 0000 
    1873                      .align  2
    1874 00022c 0041  $C$FSL19:       .string "API: SD_sendRca Failed",10,0
         00022d 0050 
         00022e 0049 
         00022f 003A 
         000230 0020 
         000231 0053 
         000232 0044 
         000233 005F 
         000234 0073 
         000235 0065 
         000236 006E 
         000237 0064 
         000238 0052 
         000239 0063 
         00023a 0061 
         00023b 0020 
         00023c 0046 
         00023d 0061 
         00023e 0069 
         00023f 006C 
         000240 0065 
         000241 0064 
         000242 000A 
         000243 0000 
    1875                      .align  2
TMS320C55x Assembler PC v4.4.1 Sat Sep 29 23:09:02 2018

Tools Copyright (c) 1996-2012 Texas Instruments Incorporated
csl_mmcsd_SdCardExample.asm                                          PAGE   53

    1876 000244 0041  $C$FSL20:       .string "API: SD_getCardCsd Failed",10,0
         000245 0050 
         000246 0049 
         000247 003A 
         000248 0020 
         000249 0053 
         00024a 0044 
         00024b 005F 
         00024c 0067 
         00024d 0065 
         00024e 0074 
         00024f 0043 
         000250 0061 
         000251 0072 
         000252 0064 
         000253 0043 
         000254 0073 
         000255 0064 
         000256 0020 
         000257 0046 
         000258 0061 
         000259 0069 
         00025a 006C 
         00025b 0065 
         00025c 0064 
         00025d 000A 
         00025e 0000 
    1877                      .align  2
    1878 000260 0041  $C$FSL21:       .string "API: SD_setBusWidth Failed",10,0
         000261 0050 
         000262 0049 
         000263 003A 
         000264 0020 
         000265 0053 
         000266 0044 
         000267 005F 
         000268 0073 
         000269 0065 
         00026a 0074 
         00026b 0042 
         00026c 0075 
         00026d 0073 
         00026e 0057 
         00026f 0069 
         000270 0064 
         000271 0074 
         000272 0068 
         000273 0020 
         000274 0046 
         000275 0061 
         000276 0069 
         000277 006C 
         000278 0065 
         000279 0064 
         00027a 000A 
TMS320C55x Assembler PC v4.4.1 Sat Sep 29 23:09:02 2018

Tools Copyright (c) 1996-2012 Texas Instruments Incorporated
csl_mmcsd_SdCardExample.asm                                          PAGE   54

         00027b 0000 
    1879                      .align  2
    1880 00027c 0041  $C$FSL22:       .string "API: SD_configurePullup Failed",10,0
         00027d 0050 
         00027e 0049 
         00027f 003A 
         000280 0020 
         000281 0053 
         000282 0044 
         000283 005F 
         000284 0063 
         000285 006F 
         000286 006E 
         000287 0066 
         000288 0069 
         000289 0067 
         00028a 0075 
         00028b 0072 
         00028c 0065 
         00028d 0050 
         00028e 0075 
         00028f 006C 
         000290 006C 
         000291 0075 
         000292 0070 
         000293 0020 
         000294 0046 
         000295 0061 
         000296 0069 
         000297 006C 
         000298 0065 
         000299 0064 
         00029a 000A 
         00029b 0000 
    1881                      .align  2
    1882 00029c 0041  $C$FSL23:       .string "API: MMC_setCardType Failed",10,0
         00029d 0050 
         00029e 0049 
         00029f 003A 
         0002a0 0020 
         0002a1 004D 
         0002a2 004D 
         0002a3 0043 
         0002a4 005F 
         0002a5 0073 
         0002a6 0065 
         0002a7 0074 
         0002a8 0043 
         0002a9 0061 
         0002aa 0072 
         0002ab 0064 
         0002ac 0054 
         0002ad 0079 
         0002ae 0070 
         0002af 0065 
TMS320C55x Assembler PC v4.4.1 Sat Sep 29 23:09:02 2018

Tools Copyright (c) 1996-2012 Texas Instruments Incorporated
csl_mmcsd_SdCardExample.asm                                          PAGE   55

         0002b0 0020 
         0002b1 0046 
         0002b2 0061 
         0002b3 0069 
         0002b4 006C 
         0002b5 0065 
         0002b6 0064 
         0002b7 000A 
         0002b8 0000 
    1883                      .align  2
    1884 0002ba 0041  $C$FSL24:       .string "API: MMC_setCardPtr Failed",10,0
         0002bb 0050 
         0002bc 0049 
         0002bd 003A 
         0002be 0020 
         0002bf 004D 
         0002c0 004D 
         0002c1 0043 
         0002c2 005F 
         0002c3 0073 
         0002c4 0065 
         0002c5 0074 
         0002c6 0043 
         0002c7 0061 
         0002c8 0072 
         0002c9 0064 
         0002ca 0050 
         0002cb 0074 
         0002cc 0072 
         0002cd 0020 
         0002ce 0046 
         0002cf 0061 
         0002d0 0069 
         0002d1 006C 
         0002d2 0065 
         0002d3 0064 
         0002d4 000A 
         0002d5 0000 
    1885                      .align  2
    1886 0002d6 0041  $C$FSL25:       .string "API: MMC_getNumberOfCards Failed",10,0
         0002d7 0050 
         0002d8 0049 
         0002d9 003A 
         0002da 0020 
         0002db 004D 
         0002dc 004D 
         0002dd 0043 
         0002de 005F 
         0002df 0067 
         0002e0 0065 
         0002e1 0074 
         0002e2 004E 
         0002e3 0075 
         0002e4 006D 
         0002e5 0062 
TMS320C55x Assembler PC v4.4.1 Sat Sep 29 23:09:02 2018

Tools Copyright (c) 1996-2012 Texas Instruments Incorporated
csl_mmcsd_SdCardExample.asm                                          PAGE   56

         0002e6 0065 
         0002e7 0072 
         0002e8 004F 
         0002e9 0066 
         0002ea 0043 
         0002eb 0061 
         0002ec 0072 
         0002ed 0064 
         0002ee 0073 
         0002ef 0020 
         0002f0 0046 
         0002f1 0061 
         0002f2 0069 
         0002f3 006C 
         0002f4 0065 
         0002f5 0064 
         0002f6 000A 
         0002f7 0000 
    1887                      .align  2
    1888 0002f8 0041  $C$FSL26:       .string "API: MMC_setEndianMode Failed",10,0
         0002f9 0050 
         0002fa 0049 
         0002fb 003A 
         0002fc 0020 
         0002fd 004D 
         0002fe 004D 
         0002ff 0043 
         000300 005F 
         000301 0073 
         000302 0065 
         000303 0074 
         000304 0045 
         000305 006E 
         000306 0064 
         000307 0069 
         000308 0061 
         000309 006E 
         00030a 004D 
         00030b 006F 
         00030c 0064 
         00030d 0065 
         00030e 0020 
         00030f 0046 
         000310 0061 
         000311 0069 
         000312 006C 
         000313 0065 
         000314 0064 
         000315 000A 
         000316 0000 
    1889                      .align  2
    1890 000318 0041  $C$FSL27:       .string "API: MMC_setBlockLength Failed",10,0
         000319 0050 
         00031a 0049 
         00031b 003A 
TMS320C55x Assembler PC v4.4.1 Sat Sep 29 23:09:02 2018

Tools Copyright (c) 1996-2012 Texas Instruments Incorporated
csl_mmcsd_SdCardExample.asm                                          PAGE   57

         00031c 0020 
         00031d 004D 
         00031e 004D 
         00031f 0043 
         000320 005F 
         000321 0073 
         000322 0065 
         000323 0074 
         000324 0042 
         000325 006C 
         000326 006F 
         000327 0063 
         000328 006B 
         000329 004C 
         00032a 0065 
         00032b 006E 
         00032c 0067 
         00032d 0074 
         00032e 0068 
         00032f 0020 
         000330 0046 
         000331 0061 
         000332 0069 
         000333 006C 
         000334 0065 
         000335 0064 
         000336 000A 
         000337 0000 
    1891                      .align  2
    1892 000338 0041  $C$FSL28:       .string "API: MMC_write Failed",10,0
         000339 0050 
         00033a 0049 
         00033b 003A 
         00033c 0020 
         00033d 004D 
         00033e 004D 
         00033f 0043 
         000340 005F 
         000341 0077 
         000342 0072 
         000343 0069 
         000344 0074 
         000345 0065 
         000346 0020 
         000347 0046 
         000348 0061 
         000349 0069 
         00034a 006C 
         00034b 0065 
         00034c 0064 
         00034d 000A 
         00034e 0000 
    1893                      .align  2
    1894 000350 0041  $C$FSL29:       .string "API: MMC_write Successful",10,0
         000351 0050 
TMS320C55x Assembler PC v4.4.1 Sat Sep 29 23:09:02 2018

Tools Copyright (c) 1996-2012 Texas Instruments Incorporated
csl_mmcsd_SdCardExample.asm                                          PAGE   58

         000352 0049 
         000353 003A 
         000354 0020 
         000355 004D 
         000356 004D 
         000357 0043 
         000358 005F 
         000359 0077 
         00035a 0072 
         00035b 0069 
         00035c 0074 
         00035d 0065 
         00035e 0020 
         00035f 0053 
         000360 0075 
         000361 0063 
         000362 0063 
         000363 0065 
         000364 0073 
         000365 0073 
         000366 0066 
         000367 0075 
         000368 006C 
         000369 000A 
         00036a 0000 
    1895                      .align  2
    1896 00036c 0041  $C$FSL30:       .string "API: MMC_read Failed",10,0
         00036d 0050 
         00036e 0049 
         00036f 003A 
         000370 0020 
         000371 004D 
         000372 004D 
         000373 0043 
         000374 005F 
         000375 0072 
         000376 0065 
         000377 0061 
         000378 0064 
         000379 0020 
         00037a 0046 
         00037b 0061 
         00037c 0069 
         00037d 006C 
         00037e 0065 
         00037f 0064 
         000380 000A 
         000381 0000 
    1897                      .align  2
    1898 000382 0041  $C$FSL31:       .string "API: MMC_read Successful",10,0
         000383 0050 
         000384 0049 
         000385 003A 
         000386 0020 
         000387 004D 
TMS320C55x Assembler PC v4.4.1 Sat Sep 29 23:09:02 2018

Tools Copyright (c) 1996-2012 Texas Instruments Incorporated
csl_mmcsd_SdCardExample.asm                                          PAGE   59

         000388 004D 
         000389 0043 
         00038a 005F 
         00038b 0072 
         00038c 0065 
         00038d 0061 
         00038e 0064 
         00038f 0020 
         000390 0053 
         000391 0075 
         000392 0063 
         000393 0063 
         000394 0065 
         000395 0073 
         000396 0073 
         000397 0066 
         000398 0075 
         000399 006C 
         00039a 000A 
         00039b 0000 
    1899                      .align  2
    1900 00039c 0041  $C$FSL32:       .string "API: MMC_getCardStatus Failed",10,0
         00039d 0050 
         00039e 0049 
         00039f 003A 
         0003a0 0020 
         0003a1 004D 
         0003a2 004D 
         0003a3 0043 
         0003a4 005F 
         0003a5 0067 
         0003a6 0065 
         0003a7 0074 
         0003a8 0043 
         0003a9 0061 
         0003aa 0072 
         0003ab 0064 
         0003ac 0053 
         0003ad 0074 
         0003ae 0061 
         0003af 0074 
         0003b0 0075 
         0003b1 0073 
         0003b2 0020 
         0003b3 0046 
         0003b4 0061 
         0003b5 0069 
         0003b6 006C 
         0003b7 0065 
         0003b8 0064 
         0003b9 000A 
         0003ba 0000 
    1901                      .align  2
    1902 0003bc 0041  $C$FSL33:       .string "API: MMC_deselectCard Failed",10,0
         0003bd 0050 
TMS320C55x Assembler PC v4.4.1 Sat Sep 29 23:09:02 2018

Tools Copyright (c) 1996-2012 Texas Instruments Incorporated
csl_mmcsd_SdCardExample.asm                                          PAGE   60

         0003be 0049 
         0003bf 003A 
         0003c0 0020 
         0003c1 004D 
         0003c2 004D 
         0003c3 0043 
         0003c4 005F 
         0003c5 0064 
         0003c6 0065 
         0003c7 0073 
         0003c8 0065 
         0003c9 006C 
         0003ca 0065 
         0003cb 0063 
         0003cc 0074 
         0003cd 0043 
         0003ce 0061 
         0003cf 0072 
         0003d0 0064 
         0003d1 0020 
         0003d2 0046 
         0003d3 0061 
         0003d4 0069 
         0003d5 006C 
         0003d6 0065 
         0003d7 0064 
         0003d8 000A 
         0003d9 0000 
    1903                      .align  2
    1904 0003da 0041  $C$FSL34:       .string "API: MMC_clearResponse Failed",10,0
         0003db 0050 
         0003dc 0049 
         0003dd 003A 
         0003de 0020 
         0003df 004D 
         0003e0 004D 
         0003e1 0043 
         0003e2 005F 
         0003e3 0063 
         0003e4 006C 
         0003e5 0065 
         0003e6 0061 
         0003e7 0072 
         0003e8 0052 
         0003e9 0065 
         0003ea 0073 
         0003eb 0070 
         0003ec 006F 
         0003ed 006E 
         0003ee 0073 
         0003ef 0065 
         0003f0 0020 
         0003f1 0046 
         0003f2 0061 
         0003f3 0069 
TMS320C55x Assembler PC v4.4.1 Sat Sep 29 23:09:02 2018

Tools Copyright (c) 1996-2012 Texas Instruments Incorporated
csl_mmcsd_SdCardExample.asm                                          PAGE   61

         0003f4 006C 
         0003f5 0065 
         0003f6 0064 
         0003f7 000A 
         0003f8 0000 
    1905                      .align  2
    1906 0003fa 0041  $C$FSL35:       .string "API: MMC_sendCmd Failed",10,0
         0003fb 0050 
         0003fc 0049 
         0003fd 003A 
         0003fe 0020 
         0003ff 004D 
         000400 004D 
         000401 0043 
         000402 005F 
         000403 0073 
         000404 0065 
         000405 006E 
         000406 0064 
         000407 0043 
         000408 006D 
         000409 0064 
         00040a 0020 
         00040b 0046 
         00040c 0061 
         00040d 0069 
         00040e 006C 
         00040f 0065 
         000410 0064 
         000411 000A 
         000412 0000 
    1907                      .align  2
    1908 000414 0041  $C$FSL36:       .string "API: MMC_close Failed",10,0
         000415 0050 
         000416 0049 
         000417 003A 
         000418 0020 
         000419 004D 
         00041a 004D 
         00041b 0043 
         00041c 005F 
         00041d 0063 
         00041e 006C 
         00041f 006F 
         000420 0073 
         000421 0065 
         000422 0020 
         000423 0046 
         000424 0061 
         000425 0069 
         000426 006C 
         000427 0065 
         000428 0064 
         000429 000A 
         00042a 0000 
TMS320C55x Assembler PC v4.4.1 Sat Sep 29 23:09:02 2018

Tools Copyright (c) 1996-2012 Texas Instruments Incorporated
csl_mmcsd_SdCardExample.asm                                          PAGE   62

    1909                      .align  2
    1910 00042c 0041  $C$FSL37:       .string "API: MMC_close Successful",10,0
         00042d 0050 
         00042e 0049 
         00042f 003A 
         000430 0020 
         000431 004D 
         000432 004D 
         000433 0043 
         000434 005F 
         000435 0063 
         000436 006C 
         000437 006F 
         000438 0073 
         000439 0065 
         00043a 0020 
         00043b 0053 
         00043c 0075 
         00043d 0063 
         00043e 0063 
         00043f 0065 
         000440 0073 
         000441 0073 
         000442 0066 
         000443 0075 
         000444 006C 
         000445 000A 
         000446 0000 
    1911                      .align  2
    1912 000448 000A  $C$FSL38:       .string 10,"Buffer miss matched at position %d",10,0
         000449 0042 
         00044a 0075 
         00044b 0066 
         00044c 0066 
         00044d 0065 
         00044e 0072 
         00044f 0020 
         000450 006D 
         000451 0069 
         000452 0073 
         000453 0073 
         000454 0020 
         000455 006D 
         000456 0061 
         000457 0074 
         000458 0063 
         000459 0068 
         00045a 0065 
         00045b 0064 
         00045c 0020 
         00045d 0061 
         00045e 0074 
         00045f 0020 
         000460 0070 
         000461 006F 
TMS320C55x Assembler PC v4.4.1 Sat Sep 29 23:09:02 2018

Tools Copyright (c) 1996-2012 Texas Instruments Incorporated
csl_mmcsd_SdCardExample.asm                                          PAGE   63

         000462 0073 
         000463 0069 
         000464 0074 
         000465 0069 
         000466 006F 
         000467 006E 
         000468 0020 
         000469 0025 
         00046a 0064 
         00046b 000A 
         00046c 0000 
    1913                      .align  2
    1914 00046e 000A  $C$FSL39:       .string 10,"SD Card Read & Write Buffer Matched",10,0
         00046f 0053 
         000470 0044 
         000471 0020 
         000472 0043 
         000473 0061 
         000474 0072 
         000475 0064 
         000476 0020 
         000477 0052 
         000478 0065 
         000479 0061 
         00047a 0064 
         00047b 0020 
         00047c 0026 
         00047d 0020 
         00047e 0057 
         00047f 0072 
         000480 0069 
         000481 0074 
         000482 0065 
         000483 0020 
         000484 0042 
         000485 0075 
         000486 0066 
         000487 0066 
         000488 0065 
         000489 0072 
         00048a 0020 
         00048b 004D 
         00048c 0061 
         00048d 0074 
         00048e 0063 
         00048f 0068 
         000490 0065 
         000491 0064 
         000492 000A 
         000493 0000 
    1915              ;******************************************************************************
    1916              ;* UNDEFINED EXTERNAL REFERENCES                                              *
    1917              ;******************************************************************************
    1918                      .global _MMC_init
    1919                      .global _MMC_open
TMS320C55x Assembler PC v4.4.1 Sat Sep 29 23:09:02 2018

Tools Copyright (c) 1996-2012 Texas Instruments Incorporated
csl_mmcsd_SdCardExample.asm                                          PAGE   64

    1920                      .global _MMC_close
    1921                      .global _MMC_setCardType
    1922                      .global _MMC_setCardPtr
    1923                      .global _MMC_getNumberOfCards
    1924                      .global _MMC_clearResponse
    1925                      .global _MMC_sendCmd
    1926                      .global _MMC_sendGoIdle
    1927                      .global _MMC_deselectCard
    1928                      .global _MMC_selectCard
    1929                      .global _MMC_sendOpCond
    1930                      .global _SD_sendRca
    1931                      .global _SD_sendAllCID
    1932                      .global _SD_getCardCsd
    1933                      .global _MMC_read
    1934                      .global _MMC_write
    1935                      .global _MMC_setEndianMode
    1936                      .global _MMC_setBlockLength
    1937                      .global _SD_setBusWidth
    1938                      .global _MMC_getCardStatus
    1939                      .global _SD_configurePullup
    1940                      .global _printf
    1941                      .global __divul
    1942                      .global __remul
    1943                      .global __mpyli
    1944              
    1945              ;*******************************************************************************
    1946              ;* TYPE INFORMATION                                                            *
    1947              ;*******************************************************************************
    1948              
    1949              $C$DW$T$32      .dwtag  DW_TAG_enumeration_type
    1950                      .dwattr $C$DW$T$32, DW_AT_byte_size(0x01)
    1951              $C$DW$189       .dwtag  DW_TAG_enumerator, DW_AT_name("CSL_CARD_NONE"), DW_AT_const_value(0x00)
    1952              $C$DW$190       .dwtag  DW_TAG_enumerator, DW_AT_name("CSL_SD_CARD"), DW_AT_const_value(0x01)
    1953              $C$DW$191       .dwtag  DW_TAG_enumerator, DW_AT_name("CSL_MMC_CARD"), DW_AT_const_value(0x02)
    1954                      .dwendtag $C$DW$T$32
    1955              
    1956              $C$DW$T$33      .dwtag  DW_TAG_typedef, DW_AT_name("CSL_CardType")
    1957                      .dwattr $C$DW$T$33, DW_AT_type(*$C$DW$T$32)
    1958                      .dwattr $C$DW$T$33, DW_AT_language(DW_LANG_C)
    1959              
    1960              $C$DW$T$53      .dwtag  DW_TAG_enumeration_type
    1961                      .dwattr $C$DW$T$53, DW_AT_byte_size(0x01)
    1962              $C$DW$192       .dwtag  DW_TAG_enumerator, DW_AT_name("CSL_DMA_CHAN0"), DW_AT_const_value(0x00)
    1963              $C$DW$193       .dwtag  DW_TAG_enumerator, DW_AT_name("CSL_DMA_CHAN1"), DW_AT_const_value(0x01)
    1964              $C$DW$194       .dwtag  DW_TAG_enumerator, DW_AT_name("CSL_DMA_CHAN2"), DW_AT_const_value(0x02)
    1965              $C$DW$195       .dwtag  DW_TAG_enumerator, DW_AT_name("CSL_DMA_CHAN3"), DW_AT_const_value(0x03)
    1966              $C$DW$196       .dwtag  DW_TAG_enumerator, DW_AT_name("CSL_DMA_CHAN4"), DW_AT_const_value(0x04)
    1967              $C$DW$197       .dwtag  DW_TAG_enumerator, DW_AT_name("CSL_DMA_CHAN5"), DW_AT_const_value(0x05)
    1968              $C$DW$198       .dwtag  DW_TAG_enumerator, DW_AT_name("CSL_DMA_CHAN6"), DW_AT_const_value(0x06)
    1969              $C$DW$199       .dwtag  DW_TAG_enumerator, DW_AT_name("CSL_DMA_CHAN7"), DW_AT_const_value(0x07)
    1970              $C$DW$200       .dwtag  DW_TAG_enumerator, DW_AT_name("CSL_DMA_CHAN8"), DW_AT_const_value(0x08)
    1971              $C$DW$201       .dwtag  DW_TAG_enumerator, DW_AT_name("CSL_DMA_CHAN9"), DW_AT_const_value(0x09)
    1972              $C$DW$202       .dwtag  DW_TAG_enumerator, DW_AT_name("CSL_DMA_CHAN10"), DW_AT_const_value(0x0a)
    1973              $C$DW$203       .dwtag  DW_TAG_enumerator, DW_AT_name("CSL_DMA_CHAN11"), DW_AT_const_value(0x0b)
    1974              $C$DW$204       .dwtag  DW_TAG_enumerator, DW_AT_name("CSL_DMA_CHAN12"), DW_AT_const_value(0x0c)
TMS320C55x Assembler PC v4.4.1 Sat Sep 29 23:09:02 2018

Tools Copyright (c) 1996-2012 Texas Instruments Incorporated
csl_mmcsd_SdCardExample.asm                                          PAGE   65

    1975              $C$DW$205       .dwtag  DW_TAG_enumerator, DW_AT_name("CSL_DMA_CHAN13"), DW_AT_const_value(0x0d)
    1976              $C$DW$206       .dwtag  DW_TAG_enumerator, DW_AT_name("CSL_DMA_CHAN14"), DW_AT_const_value(0x0e)
    1977              $C$DW$207       .dwtag  DW_TAG_enumerator, DW_AT_name("CSL_DMA_CHAN15"), DW_AT_const_value(0x0f)
    1978              $C$DW$208       .dwtag  DW_TAG_enumerator, DW_AT_name("CSL_DMA_CHAN_INV"), DW_AT_const_value(0x10)
    1979                      .dwendtag $C$DW$T$53
    1980              
    1981              $C$DW$T$54      .dwtag  DW_TAG_typedef, DW_AT_name("CSL_DMAChanNum")
    1982                      .dwattr $C$DW$T$54, DW_AT_type(*$C$DW$T$53)
    1983                      .dwattr $C$DW$T$54, DW_AT_language(DW_LANG_C)
    1984              
    1985              $C$DW$T$55      .dwtag  DW_TAG_enumeration_type
    1986                      .dwattr $C$DW$T$55, DW_AT_byte_size(0x01)
    1987              $C$DW$209       .dwtag  DW_TAG_enumerator, DW_AT_name("CSL_DMA_ENGINE0"), DW_AT_const_value(0x00)
    1988              $C$DW$210       .dwtag  DW_TAG_enumerator, DW_AT_name("CSL_DMA_ENGINE1"), DW_AT_const_value(0x01)
    1989              $C$DW$211       .dwtag  DW_TAG_enumerator, DW_AT_name("CSL_DMA_ENGINE2"), DW_AT_const_value(0x02)
    1990              $C$DW$212       .dwtag  DW_TAG_enumerator, DW_AT_name("CSL_DMA_ENGINE3"), DW_AT_const_value(0x03)
    1991              $C$DW$213       .dwtag  DW_TAG_enumerator, DW_AT_name("CSL_DMA_ENGINEINV"), DW_AT_const_value(0x04)
    1992                      .dwendtag $C$DW$T$55
    1993              
    1994              $C$DW$T$56      .dwtag  DW_TAG_typedef, DW_AT_name("CSL_DMAEngineId")
    1995                      .dwattr $C$DW$T$56, DW_AT_type(*$C$DW$T$55)
    1996                      .dwattr $C$DW$T$56, DW_AT_language(DW_LANG_C)
    1997              
    1998              $C$DW$T$57      .dwtag  DW_TAG_enumeration_type
    1999                      .dwattr $C$DW$T$57, DW_AT_byte_size(0x01)
    2000              $C$DW$214       .dwtag  DW_TAG_enumerator, DW_AT_name("CSL_DMA_READ"), DW_AT_const_value(0x00)
    2001              $C$DW$215       .dwtag  DW_TAG_enumerator, DW_AT_name("CSL_DMA_WRITE"), DW_AT_const_value(0x01)
    2002                      .dwendtag $C$DW$T$57
    2003              
    2004              $C$DW$T$58      .dwtag  DW_TAG_typedef, DW_AT_name("CSL_DMAChanDir")
    2005                      .dwattr $C$DW$T$58, DW_AT_type(*$C$DW$T$57)
    2006                      .dwattr $C$DW$T$58, DW_AT_language(DW_LANG_C)
    2007              
    2008              $C$DW$T$59      .dwtag  DW_TAG_enumeration_type
    2009                      .dwattr $C$DW$T$59, DW_AT_byte_size(0x01)
    2010              $C$DW$216       .dwtag  DW_TAG_enumerator, DW_AT_name("CSL_DMA_SOFTWARE_TRIGGER"), DW_AT_const_value(0x00)
    2011              $C$DW$217       .dwtag  DW_TAG_enumerator, DW_AT_name("CSL_DMA_EVENT_TRIGGER"), DW_AT_const_value(0x01)
    2012                      .dwendtag $C$DW$T$59
    2013              
    2014              $C$DW$T$60      .dwtag  DW_TAG_typedef, DW_AT_name("CSL_DMATriggerType")
    2015                      .dwattr $C$DW$T$60, DW_AT_type(*$C$DW$T$59)
    2016                      .dwattr $C$DW$T$60, DW_AT_language(DW_LANG_C)
    2017              
    2018              $C$DW$T$61      .dwtag  DW_TAG_enumeration_type
    2019                      .dwattr $C$DW$T$61, DW_AT_byte_size(0x01)
    2020              $C$DW$218       .dwtag  DW_TAG_enumerator, DW_AT_name("CSL_DMA_TRANSFER_IO_MEMORY"), DW_AT_const_value(0x00)
    2021              $C$DW$219       .dwtag  DW_TAG_enumerator, DW_AT_name("CSL_DMA_TRANSFER_MEMORY"), DW_AT_const_value(0x01)
    2022                      .dwendtag $C$DW$T$61
    2023              
    2024              $C$DW$T$62      .dwtag  DW_TAG_typedef, DW_AT_name("CSL_DMATransferType")
    2025                      .dwattr $C$DW$T$62, DW_AT_type(*$C$DW$T$61)
    2026                      .dwattr $C$DW$T$62, DW_AT_language(DW_LANG_C)
    2027              
    2028              $C$DW$T$63      .dwtag  DW_TAG_enumeration_type
    2029                      .dwattr $C$DW$T$63, DW_AT_byte_size(0x01)
TMS320C55x Assembler PC v4.4.1 Sat Sep 29 23:09:02 2018

Tools Copyright (c) 1996-2012 Texas Instruments Incorporated
csl_mmcsd_SdCardExample.asm                                          PAGE   66

    2030              $C$DW$220       .dwtag  DW_TAG_enumerator, DW_AT_name("CSL_DMA_INTERRUPT_DISABLE"), DW_AT_const_value(0x00)
    2031              $C$DW$221       .dwtag  DW_TAG_enumerator, DW_AT_name("CSL_DMA_INTERRUPT_ENABLE"), DW_AT_const_value(0x01)
    2032                      .dwendtag $C$DW$T$63
    2033              
    2034              $C$DW$T$64      .dwtag  DW_TAG_typedef, DW_AT_name("CSL_DMAInterruptState")
    2035                      .dwattr $C$DW$T$64, DW_AT_type(*$C$DW$T$63)
    2036                      .dwattr $C$DW$T$64, DW_AT_language(DW_LANG_C)
    2037              
    2038              $C$DW$T$66      .dwtag  DW_TAG_enumeration_type
    2039                      .dwattr $C$DW$T$66, DW_AT_byte_size(0x01)
    2040              $C$DW$222       .dwtag  DW_TAG_enumerator, DW_AT_name("CSL_DMA_PING_PONG_DISABLE"), DW_AT_const_value(0x00)
    2041              $C$DW$223       .dwtag  DW_TAG_enumerator, DW_AT_name("CSL_DMA_PING_PONG_ENABLE"), DW_AT_const_value(0x01)
    2042                      .dwendtag $C$DW$T$66
    2043              
    2044              $C$DW$T$67      .dwtag  DW_TAG_typedef, DW_AT_name("CSL_DMAPingPongMode")
    2045                      .dwattr $C$DW$T$67, DW_AT_type(*$C$DW$T$66)
    2046                      .dwattr $C$DW$T$67, DW_AT_language(DW_LANG_C)
    2047              
    2048              $C$DW$T$68      .dwtag  DW_TAG_enumeration_type
    2049                      .dwattr $C$DW$T$68, DW_AT_byte_size(0x01)
    2050              $C$DW$224       .dwtag  DW_TAG_enumerator, DW_AT_name("CSL_DMA_AUTORELOAD_DISABLE"), DW_AT_const_value(0x00)
    2051              $C$DW$225       .dwtag  DW_TAG_enumerator, DW_AT_name("CSL_DMA_AUTORELOAD_ENABLE"), DW_AT_const_value(0x01)
    2052                      .dwendtag $C$DW$T$68
    2053              
    2054              $C$DW$T$69      .dwtag  DW_TAG_typedef, DW_AT_name("CSL_DMAAutoReloadMode")
    2055                      .dwattr $C$DW$T$69, DW_AT_type(*$C$DW$T$68)
    2056                      .dwattr $C$DW$T$69, DW_AT_language(DW_LANG_C)
    2057              
    2058              $C$DW$T$70      .dwtag  DW_TAG_enumeration_type
    2059                      .dwattr $C$DW$T$70, DW_AT_byte_size(0x01)
    2060              $C$DW$226       .dwtag  DW_TAG_enumerator, DW_AT_name("CSL_DMA_TXBURST_1WORD"), DW_AT_const_value(0x00)
    2061              $C$DW$227       .dwtag  DW_TAG_enumerator, DW_AT_name("CSL_DMA_TXBURST_2WORD"), DW_AT_const_value(0x01)
    2062              $C$DW$228       .dwtag  DW_TAG_enumerator, DW_AT_name("CSL_DMA_TXBURST_4WORD"), DW_AT_const_value(0x02)
    2063              $C$DW$229       .dwtag  DW_TAG_enumerator, DW_AT_name("CSL_DMA_TXBURST_8WORD"), DW_AT_const_value(0x03)
    2064              $C$DW$230       .dwtag  DW_TAG_enumerator, DW_AT_name("CSL_DMA_TXBURST_16WORD"), DW_AT_const_value(0x04)
    2065                      .dwendtag $C$DW$T$70
    2066              
    2067              $C$DW$T$71      .dwtag  DW_TAG_typedef, DW_AT_name("CSL_DMATxBurstLen")
    2068                      .dwattr $C$DW$T$71, DW_AT_type(*$C$DW$T$70)
    2069                      .dwattr $C$DW$T$71, DW_AT_language(DW_LANG_C)
    2070              
    2071              $C$DW$T$72      .dwtag  DW_TAG_enumeration_type
    2072                      .dwattr $C$DW$T$72, DW_AT_byte_size(0x01)
    2073              $C$DW$231       .dwtag  DW_TAG_enumerator, DW_AT_name("CSL_DMA_EVT_NONE"), DW_AT_const_value(0x00)
    2074              $C$DW$232       .dwtag  DW_TAG_enumerator, DW_AT_name("CSL_DMA_EVT_I2S0_TX"), DW_AT_const_value(0x01)
    2075              $C$DW$233       .dwtag  DW_TAG_enumerator, DW_AT_name("CSL_DMA_EVT_I2S0_RX"), DW_AT_const_value(0x02)
    2076              $C$DW$234       .dwtag  DW_TAG_enumerator, DW_AT_name("CSL_DMA_EVT_I2S1_TX"), DW_AT_const_value(0x01)
    2077              $C$DW$235       .dwtag  DW_TAG_enumerator, DW_AT_name("CSL_DMA_EVT_I2S1_RX"), DW_AT_const_value(0x02)
    2078              $C$DW$236       .dwtag  DW_TAG_enumerator, DW_AT_name("CSL_DMA_EVT_I2S2_TX"), DW_AT_const_value(0x01)
    2079              $C$DW$237       .dwtag  DW_TAG_enumerator, DW_AT_name("CSL_DMA_EVT_I2S2_RX"), DW_AT_const_value(0x02)
    2080              $C$DW$238       .dwtag  DW_TAG_enumerator, DW_AT_name("CSL_DMA_EVT_I2S3_TX"), DW_AT_const_value(0x04)
    2081              $C$DW$239       .dwtag  DW_TAG_enumerator, DW_AT_name("CSL_DMA_EVT_I2S3_RX"), DW_AT_const_value(0x05)
    2082              $C$DW$240       .dwtag  DW_TAG_enumerator, DW_AT_name("CSL_DMA_EVT_MMC_SD0_TX"), DW_AT_const_value(0x05)
    2083              $C$DW$241       .dwtag  DW_TAG_enumerator, DW_AT_name("CSL_DMA_EVT_MMC_SD0_RX"), DW_AT_const_value(0x06)
    2084              $C$DW$242       .dwtag  DW_TAG_enumerator, DW_AT_name("CSL_DMA_EVT_MMC_SD1_TX"), DW_AT_const_value(0x07)
TMS320C55x Assembler PC v4.4.1 Sat Sep 29 23:09:02 2018

Tools Copyright (c) 1996-2012 Texas Instruments Incorporated
csl_mmcsd_SdCardExample.asm                                          PAGE   67

    2085              $C$DW$243       .dwtag  DW_TAG_enumerator, DW_AT_name("CSL_DMA_EVT_MMC_SD1_RX"), DW_AT_const_value(0x08)
    2086              $C$DW$244       .dwtag  DW_TAG_enumerator, DW_AT_name("CSL_DMA_EVT_TIMER0"), DW_AT_const_value(0x0c)
    2087              $C$DW$245       .dwtag  DW_TAG_enumerator, DW_AT_name("CSL_DMA_EVT_TIMER1"), DW_AT_const_value(0x0d)
    2088              $C$DW$246       .dwtag  DW_TAG_enumerator, DW_AT_name("CSL_DMA_EVT_TIMER2"), DW_AT_const_value(0x0e)
    2089              $C$DW$247       .dwtag  DW_TAG_enumerator, DW_AT_name("CSL_DMA_EVT_UART_TX"), DW_AT_const_value(0x05)
    2090              $C$DW$248       .dwtag  DW_TAG_enumerator, DW_AT_name("CSL_DMA_EVT_UART_RX"), DW_AT_const_value(0x06)
    2091              $C$DW$249       .dwtag  DW_TAG_enumerator, DW_AT_name("CSL_DMA_EVT_I2C_TX"), DW_AT_const_value(0x01)
    2092              $C$DW$250       .dwtag  DW_TAG_enumerator, DW_AT_name("CSL_DMA_EVT_I2C_RX"), DW_AT_const_value(0x02)
    2093              $C$DW$251       .dwtag  DW_TAG_enumerator, DW_AT_name("CSL_DMA_EVT_SAR_AD"), DW_AT_const_value(0x03)
    2094              $C$DW$252       .dwtag  DW_TAG_enumerator, DW_AT_name("CSL_DMA_EVT_INVALID"), DW_AT_const_value(0x04)
    2095                      .dwendtag $C$DW$T$72
    2096              
    2097              $C$DW$T$73      .dwtag  DW_TAG_typedef, DW_AT_name("CSL_DMAEvtType")
    2098                      .dwattr $C$DW$T$73, DW_AT_type(*$C$DW$T$72)
    2099                      .dwattr $C$DW$T$73, DW_AT_language(DW_LANG_C)
    2100              
    2101              $C$DW$T$85      .dwtag  DW_TAG_enumeration_type
    2102                      .dwattr $C$DW$T$85, DW_AT_byte_size(0x01)
    2103              $C$DW$253       .dwtag  DW_TAG_enumerator, DW_AT_name("CSL_MMCSD_OPMODE_POLLED"), DW_AT_const_value(0x00)
    2104              $C$DW$254       .dwtag  DW_TAG_enumerator, DW_AT_name("CSL_MMCSD_OPMODE_INTERRUPT"), DW_AT_const_value(0x01)
    2105              $C$DW$255       .dwtag  DW_TAG_enumerator, DW_AT_name("CSL_MMCSD_OPMODE_DMA"), DW_AT_const_value(0x02)
    2106              $C$DW$256       .dwtag  DW_TAG_enumerator, DW_AT_name("CSL_MMCSD_OPMODE_NONE"), DW_AT_const_value(0x03)
    2107                      .dwendtag $C$DW$T$85
    2108              
    2109              $C$DW$T$86      .dwtag  DW_TAG_typedef, DW_AT_name("CSL_MMCSDOpMode")
    2110                      .dwattr $C$DW$T$86, DW_AT_type(*$C$DW$T$85)
    2111                      .dwattr $C$DW$T$86, DW_AT_language(DW_LANG_C)
    2112              
    2113              $C$DW$T$96      .dwtag  DW_TAG_enumeration_type
    2114                      .dwattr $C$DW$T$96, DW_AT_byte_size(0x01)
    2115              $C$DW$257       .dwtag  DW_TAG_enumerator, DW_AT_name("CSL_MMCSD_ENDIAN_LITTLE"), DW_AT_const_value(0x00)
    2116              $C$DW$258       .dwtag  DW_TAG_enumerator, DW_AT_name("CSL_MMCSD_ENDIAN_BIG"), DW_AT_const_value(0x01)
    2117                      .dwendtag $C$DW$T$96
    2118              
    2119              $C$DW$T$97      .dwtag  DW_TAG_typedef, DW_AT_name("CSL_MmcsdEndianMode")
    2120                      .dwattr $C$DW$T$97, DW_AT_type(*$C$DW$T$96)
    2121                      .dwattr $C$DW$T$97, DW_AT_language(DW_LANG_C)
    2122              
    2123              $C$DW$T$102     .dwtag  DW_TAG_enumeration_type
    2124                      .dwattr $C$DW$T$102, DW_AT_byte_size(0x01)
    2125              $C$DW$259       .dwtag  DW_TAG_enumerator, DW_AT_name("CSL_MMCSD0_INST"), DW_AT_const_value(0x00)
    2126              $C$DW$260       .dwtag  DW_TAG_enumerator, DW_AT_name("CSL_MMCSD1_INST"), DW_AT_const_value(0x01)
    2127              $C$DW$261       .dwtag  DW_TAG_enumerator, DW_AT_name("CSL_MMCSD_INST_INV"), DW_AT_const_value(0x02)
    2128                      .dwendtag $C$DW$T$102
    2129              
    2130              $C$DW$T$103     .dwtag  DW_TAG_typedef, DW_AT_name("CSL_MmcsdInstId")
    2131                      .dwattr $C$DW$T$103, DW_AT_type(*$C$DW$T$102)
    2132                      .dwattr $C$DW$T$103, DW_AT_language(DW_LANG_C)
    2133              
    2134              $C$DW$T$25      .dwtag  DW_TAG_structure_type
    2135                      .dwattr $C$DW$T$25, DW_AT_byte_size(0x75)
    2136              $C$DW$262       .dwtag  DW_TAG_member
    2137                      .dwattr $C$DW$262, DW_AT_type(*$C$DW$T$20)
    2138                      .dwattr $C$DW$262, DW_AT_name("MMCCTL")
    2139                      .dwattr $C$DW$262, DW_AT_TI_symbol_name("_MMCCTL")
TMS320C55x Assembler PC v4.4.1 Sat Sep 29 23:09:02 2018

Tools Copyright (c) 1996-2012 Texas Instruments Incorporated
csl_mmcsd_SdCardExample.asm                                          PAGE   68

    2140                      .dwattr $C$DW$262, DW_AT_data_member_location[DW_OP_plus_uconst 0x0]
    2141                      .dwattr $C$DW$262, DW_AT_accessibility(DW_ACCESS_public)
    2142              $C$DW$263       .dwtag  DW_TAG_member
    2143                      .dwattr $C$DW$263, DW_AT_type(*$C$DW$T$21)
    2144                      .dwattr $C$DW$263, DW_AT_name("RSVD0")
    2145                      .dwattr $C$DW$263, DW_AT_TI_symbol_name("_RSVD0")
    2146                      .dwattr $C$DW$263, DW_AT_data_member_location[DW_OP_plus_uconst 0x1]
    2147                      .dwattr $C$DW$263, DW_AT_accessibility(DW_ACCESS_public)
    2148              $C$DW$264       .dwtag  DW_TAG_member
    2149                      .dwattr $C$DW$264, DW_AT_type(*$C$DW$T$20)
    2150                      .dwattr $C$DW$264, DW_AT_name("MMCCLK")
    2151                      .dwattr $C$DW$264, DW_AT_TI_symbol_name("_MMCCLK")
    2152                      .dwattr $C$DW$264, DW_AT_data_member_location[DW_OP_plus_uconst 0x4]
    2153                      .dwattr $C$DW$264, DW_AT_accessibility(DW_ACCESS_public)
    2154              $C$DW$265       .dwtag  DW_TAG_member
    2155                      .dwattr $C$DW$265, DW_AT_type(*$C$DW$T$21)
    2156                      .dwattr $C$DW$265, DW_AT_name("RSVD1")
    2157                      .dwattr $C$DW$265, DW_AT_TI_symbol_name("_RSVD1")
    2158                      .dwattr $C$DW$265, DW_AT_data_member_location[DW_OP_plus_uconst 0x5]
    2159                      .dwattr $C$DW$265, DW_AT_accessibility(DW_ACCESS_public)
    2160              $C$DW$266       .dwtag  DW_TAG_member
    2161                      .dwattr $C$DW$266, DW_AT_type(*$C$DW$T$20)
    2162                      .dwattr $C$DW$266, DW_AT_name("MMCST0")
    2163                      .dwattr $C$DW$266, DW_AT_TI_symbol_name("_MMCST0")
    2164                      .dwattr $C$DW$266, DW_AT_data_member_location[DW_OP_plus_uconst 0x8]
    2165                      .dwattr $C$DW$266, DW_AT_accessibility(DW_ACCESS_public)
    2166              $C$DW$267       .dwtag  DW_TAG_member
    2167                      .dwattr $C$DW$267, DW_AT_type(*$C$DW$T$21)
    2168                      .dwattr $C$DW$267, DW_AT_name("RSVD2")
    2169                      .dwattr $C$DW$267, DW_AT_TI_symbol_name("_RSVD2")
    2170                      .dwattr $C$DW$267, DW_AT_data_member_location[DW_OP_plus_uconst 0x9]
    2171                      .dwattr $C$DW$267, DW_AT_accessibility(DW_ACCESS_public)
    2172              $C$DW$268       .dwtag  DW_TAG_member
    2173                      .dwattr $C$DW$268, DW_AT_type(*$C$DW$T$20)
    2174                      .dwattr $C$DW$268, DW_AT_name("MMCST1")
    2175                      .dwattr $C$DW$268, DW_AT_TI_symbol_name("_MMCST1")
    2176                      .dwattr $C$DW$268, DW_AT_data_member_location[DW_OP_plus_uconst 0xc]
    2177                      .dwattr $C$DW$268, DW_AT_accessibility(DW_ACCESS_public)
    2178              $C$DW$269       .dwtag  DW_TAG_member
    2179                      .dwattr $C$DW$269, DW_AT_type(*$C$DW$T$21)
    2180                      .dwattr $C$DW$269, DW_AT_name("RSVD3")
    2181                      .dwattr $C$DW$269, DW_AT_TI_symbol_name("_RSVD3")
    2182                      .dwattr $C$DW$269, DW_AT_data_member_location[DW_OP_plus_uconst 0xd]
    2183                      .dwattr $C$DW$269, DW_AT_accessibility(DW_ACCESS_public)
    2184              $C$DW$270       .dwtag  DW_TAG_member
    2185                      .dwattr $C$DW$270, DW_AT_type(*$C$DW$T$20)
    2186                      .dwattr $C$DW$270, DW_AT_name("MMCIM")
    2187                      .dwattr $C$DW$270, DW_AT_TI_symbol_name("_MMCIM")
    2188                      .dwattr $C$DW$270, DW_AT_data_member_location[DW_OP_plus_uconst 0x10]
    2189                      .dwattr $C$DW$270, DW_AT_accessibility(DW_ACCESS_public)
    2190              $C$DW$271       .dwtag  DW_TAG_member
    2191                      .dwattr $C$DW$271, DW_AT_type(*$C$DW$T$21)
    2192                      .dwattr $C$DW$271, DW_AT_name("RSVD4")
    2193                      .dwattr $C$DW$271, DW_AT_TI_symbol_name("_RSVD4")
    2194                      .dwattr $C$DW$271, DW_AT_data_member_location[DW_OP_plus_uconst 0x11]
TMS320C55x Assembler PC v4.4.1 Sat Sep 29 23:09:02 2018

Tools Copyright (c) 1996-2012 Texas Instruments Incorporated
csl_mmcsd_SdCardExample.asm                                          PAGE   69

    2195                      .dwattr $C$DW$271, DW_AT_accessibility(DW_ACCESS_public)
    2196              $C$DW$272       .dwtag  DW_TAG_member
    2197                      .dwattr $C$DW$272, DW_AT_type(*$C$DW$T$20)
    2198                      .dwattr $C$DW$272, DW_AT_name("MMCTOR")
    2199                      .dwattr $C$DW$272, DW_AT_TI_symbol_name("_MMCTOR")
    2200                      .dwattr $C$DW$272, DW_AT_data_member_location[DW_OP_plus_uconst 0x14]
    2201                      .dwattr $C$DW$272, DW_AT_accessibility(DW_ACCESS_public)
    2202              $C$DW$273       .dwtag  DW_TAG_member
    2203                      .dwattr $C$DW$273, DW_AT_type(*$C$DW$T$21)
    2204                      .dwattr $C$DW$273, DW_AT_name("RSVD5")
    2205                      .dwattr $C$DW$273, DW_AT_TI_symbol_name("_RSVD5")
    2206                      .dwattr $C$DW$273, DW_AT_data_member_location[DW_OP_plus_uconst 0x15]
    2207                      .dwattr $C$DW$273, DW_AT_accessibility(DW_ACCESS_public)
    2208              $C$DW$274       .dwtag  DW_TAG_member
    2209                      .dwattr $C$DW$274, DW_AT_type(*$C$DW$T$20)
    2210                      .dwattr $C$DW$274, DW_AT_name("MMCTOD")
    2211                      .dwattr $C$DW$274, DW_AT_TI_symbol_name("_MMCTOD")
    2212                      .dwattr $C$DW$274, DW_AT_data_member_location[DW_OP_plus_uconst 0x18]
    2213                      .dwattr $C$DW$274, DW_AT_accessibility(DW_ACCESS_public)
    2214              $C$DW$275       .dwtag  DW_TAG_member
    2215                      .dwattr $C$DW$275, DW_AT_type(*$C$DW$T$21)
    2216                      .dwattr $C$DW$275, DW_AT_name("RSVD6")
    2217                      .dwattr $C$DW$275, DW_AT_TI_symbol_name("_RSVD6")
    2218                      .dwattr $C$DW$275, DW_AT_data_member_location[DW_OP_plus_uconst 0x19]
    2219                      .dwattr $C$DW$275, DW_AT_accessibility(DW_ACCESS_public)
    2220              $C$DW$276       .dwtag  DW_TAG_member
    2221                      .dwattr $C$DW$276, DW_AT_type(*$C$DW$T$20)
    2222                      .dwattr $C$DW$276, DW_AT_name("MMCBLEN")
    2223                      .dwattr $C$DW$276, DW_AT_TI_symbol_name("_MMCBLEN")
    2224                      .dwattr $C$DW$276, DW_AT_data_member_location[DW_OP_plus_uconst 0x1c]
    2225                      .dwattr $C$DW$276, DW_AT_accessibility(DW_ACCESS_public)
    2226              $C$DW$277       .dwtag  DW_TAG_member
    2227                      .dwattr $C$DW$277, DW_AT_type(*$C$DW$T$21)
    2228                      .dwattr $C$DW$277, DW_AT_name("RSVD7")
    2229                      .dwattr $C$DW$277, DW_AT_TI_symbol_name("_RSVD7")
    2230                      .dwattr $C$DW$277, DW_AT_data_member_location[DW_OP_plus_uconst 0x1d]
    2231                      .dwattr $C$DW$277, DW_AT_accessibility(DW_ACCESS_public)
    2232              $C$DW$278       .dwtag  DW_TAG_member
    2233                      .dwattr $C$DW$278, DW_AT_type(*$C$DW$T$20)
    2234                      .dwattr $C$DW$278, DW_AT_name("MMCNBLK")
    2235                      .dwattr $C$DW$278, DW_AT_TI_symbol_name("_MMCNBLK")
    2236                      .dwattr $C$DW$278, DW_AT_data_member_location[DW_OP_plus_uconst 0x20]
    2237                      .dwattr $C$DW$278, DW_AT_accessibility(DW_ACCESS_public)
    2238              $C$DW$279       .dwtag  DW_TAG_member
    2239                      .dwattr $C$DW$279, DW_AT_type(*$C$DW$T$21)
    2240                      .dwattr $C$DW$279, DW_AT_name("RSVD8")
    2241                      .dwattr $C$DW$279, DW_AT_TI_symbol_name("_RSVD8")
    2242                      .dwattr $C$DW$279, DW_AT_data_member_location[DW_OP_plus_uconst 0x21]
    2243                      .dwattr $C$DW$279, DW_AT_accessibility(DW_ACCESS_public)
    2244              $C$DW$280       .dwtag  DW_TAG_member
    2245                      .dwattr $C$DW$280, DW_AT_type(*$C$DW$T$20)
    2246                      .dwattr $C$DW$280, DW_AT_name("MMCNBLC")
    2247                      .dwattr $C$DW$280, DW_AT_TI_symbol_name("_MMCNBLC")
    2248                      .dwattr $C$DW$280, DW_AT_data_member_location[DW_OP_plus_uconst 0x24]
    2249                      .dwattr $C$DW$280, DW_AT_accessibility(DW_ACCESS_public)
TMS320C55x Assembler PC v4.4.1 Sat Sep 29 23:09:02 2018

Tools Copyright (c) 1996-2012 Texas Instruments Incorporated
csl_mmcsd_SdCardExample.asm                                          PAGE   70

    2250              $C$DW$281       .dwtag  DW_TAG_member
    2251                      .dwattr $C$DW$281, DW_AT_type(*$C$DW$T$21)
    2252                      .dwattr $C$DW$281, DW_AT_name("RSVD9")
    2253                      .dwattr $C$DW$281, DW_AT_TI_symbol_name("_RSVD9")
    2254                      .dwattr $C$DW$281, DW_AT_data_member_location[DW_OP_plus_uconst 0x25]
    2255                      .dwattr $C$DW$281, DW_AT_accessibility(DW_ACCESS_public)
    2256              $C$DW$282       .dwtag  DW_TAG_member
    2257                      .dwattr $C$DW$282, DW_AT_type(*$C$DW$T$20)
    2258                      .dwattr $C$DW$282, DW_AT_name("MMCDRR1")
    2259                      .dwattr $C$DW$282, DW_AT_TI_symbol_name("_MMCDRR1")
    2260                      .dwattr $C$DW$282, DW_AT_data_member_location[DW_OP_plus_uconst 0x28]
    2261                      .dwattr $C$DW$282, DW_AT_accessibility(DW_ACCESS_public)
    2262              $C$DW$283       .dwtag  DW_TAG_member
    2263                      .dwattr $C$DW$283, DW_AT_type(*$C$DW$T$20)
    2264                      .dwattr $C$DW$283, DW_AT_name("MMCDRR2")
    2265                      .dwattr $C$DW$283, DW_AT_TI_symbol_name("_MMCDRR2")
    2266                      .dwattr $C$DW$283, DW_AT_data_member_location[DW_OP_plus_uconst 0x29]
    2267                      .dwattr $C$DW$283, DW_AT_accessibility(DW_ACCESS_public)
    2268              $C$DW$284       .dwtag  DW_TAG_member
    2269                      .dwattr $C$DW$284, DW_AT_type(*$C$DW$T$22)
    2270                      .dwattr $C$DW$284, DW_AT_name("RSVD10")
    2271                      .dwattr $C$DW$284, DW_AT_TI_symbol_name("_RSVD10")
    2272                      .dwattr $C$DW$284, DW_AT_data_member_location[DW_OP_plus_uconst 0x2a]
    2273                      .dwattr $C$DW$284, DW_AT_accessibility(DW_ACCESS_public)
    2274              $C$DW$285       .dwtag  DW_TAG_member
    2275                      .dwattr $C$DW$285, DW_AT_type(*$C$DW$T$20)
    2276                      .dwattr $C$DW$285, DW_AT_name("MMCDXR1")
    2277                      .dwattr $C$DW$285, DW_AT_TI_symbol_name("_MMCDXR1")
    2278                      .dwattr $C$DW$285, DW_AT_data_member_location[DW_OP_plus_uconst 0x2c]
    2279                      .dwattr $C$DW$285, DW_AT_accessibility(DW_ACCESS_public)
    2280              $C$DW$286       .dwtag  DW_TAG_member
    2281                      .dwattr $C$DW$286, DW_AT_type(*$C$DW$T$20)
    2282                      .dwattr $C$DW$286, DW_AT_name("MMCDXR2")
    2283                      .dwattr $C$DW$286, DW_AT_TI_symbol_name("_MMCDXR2")
    2284                      .dwattr $C$DW$286, DW_AT_data_member_location[DW_OP_plus_uconst 0x2d]
    2285                      .dwattr $C$DW$286, DW_AT_accessibility(DW_ACCESS_public)
    2286              $C$DW$287       .dwtag  DW_TAG_member
    2287                      .dwattr $C$DW$287, DW_AT_type(*$C$DW$T$22)
    2288                      .dwattr $C$DW$287, DW_AT_name("RSVD11")
    2289                      .dwattr $C$DW$287, DW_AT_TI_symbol_name("_RSVD11")
    2290                      .dwattr $C$DW$287, DW_AT_data_member_location[DW_OP_plus_uconst 0x2e]
    2291                      .dwattr $C$DW$287, DW_AT_accessibility(DW_ACCESS_public)
    2292              $C$DW$288       .dwtag  DW_TAG_member
    2293                      .dwattr $C$DW$288, DW_AT_type(*$C$DW$T$20)
    2294                      .dwattr $C$DW$288, DW_AT_name("MMCCMD1")
    2295                      .dwattr $C$DW$288, DW_AT_TI_symbol_name("_MMCCMD1")
    2296                      .dwattr $C$DW$288, DW_AT_data_member_location[DW_OP_plus_uconst 0x30]
    2297                      .dwattr $C$DW$288, DW_AT_accessibility(DW_ACCESS_public)
    2298              $C$DW$289       .dwtag  DW_TAG_member
    2299                      .dwattr $C$DW$289, DW_AT_type(*$C$DW$T$20)
    2300                      .dwattr $C$DW$289, DW_AT_name("MMCCMD2")
    2301                      .dwattr $C$DW$289, DW_AT_TI_symbol_name("_MMCCMD2")
    2302                      .dwattr $C$DW$289, DW_AT_data_member_location[DW_OP_plus_uconst 0x31]
    2303                      .dwattr $C$DW$289, DW_AT_accessibility(DW_ACCESS_public)
    2304              $C$DW$290       .dwtag  DW_TAG_member
TMS320C55x Assembler PC v4.4.1 Sat Sep 29 23:09:02 2018

Tools Copyright (c) 1996-2012 Texas Instruments Incorporated
csl_mmcsd_SdCardExample.asm                                          PAGE   71

    2305                      .dwattr $C$DW$290, DW_AT_type(*$C$DW$T$22)
    2306                      .dwattr $C$DW$290, DW_AT_name("RSVD12")
    2307                      .dwattr $C$DW$290, DW_AT_TI_symbol_name("_RSVD12")
    2308                      .dwattr $C$DW$290, DW_AT_data_member_location[DW_OP_plus_uconst 0x32]
    2309                      .dwattr $C$DW$290, DW_AT_accessibility(DW_ACCESS_public)
    2310              $C$DW$291       .dwtag  DW_TAG_member
    2311                      .dwattr $C$DW$291, DW_AT_type(*$C$DW$T$20)
    2312                      .dwattr $C$DW$291, DW_AT_name("MMCARG1")
    2313                      .dwattr $C$DW$291, DW_AT_TI_symbol_name("_MMCARG1")
    2314                      .dwattr $C$DW$291, DW_AT_data_member_location[DW_OP_plus_uconst 0x34]
    2315                      .dwattr $C$DW$291, DW_AT_accessibility(DW_ACCESS_public)
    2316              $C$DW$292       .dwtag  DW_TAG_member
    2317                      .dwattr $C$DW$292, DW_AT_type(*$C$DW$T$20)
    2318                      .dwattr $C$DW$292, DW_AT_name("MMCARG2")
    2319                      .dwattr $C$DW$292, DW_AT_TI_symbol_name("_MMCARG2")
    2320                      .dwattr $C$DW$292, DW_AT_data_member_location[DW_OP_plus_uconst 0x35]
    2321                      .dwattr $C$DW$292, DW_AT_accessibility(DW_ACCESS_public)
    2322              $C$DW$293       .dwtag  DW_TAG_member
    2323                      .dwattr $C$DW$293, DW_AT_type(*$C$DW$T$22)
    2324                      .dwattr $C$DW$293, DW_AT_name("RSVD13")
    2325                      .dwattr $C$DW$293, DW_AT_TI_symbol_name("_RSVD13")
    2326                      .dwattr $C$DW$293, DW_AT_data_member_location[DW_OP_plus_uconst 0x36]
    2327                      .dwattr $C$DW$293, DW_AT_accessibility(DW_ACCESS_public)
    2328              $C$DW$294       .dwtag  DW_TAG_member
    2329                      .dwattr $C$DW$294, DW_AT_type(*$C$DW$T$20)
    2330                      .dwattr $C$DW$294, DW_AT_name("MMCRSP0")
    2331                      .dwattr $C$DW$294, DW_AT_TI_symbol_name("_MMCRSP0")
    2332                      .dwattr $C$DW$294, DW_AT_data_member_location[DW_OP_plus_uconst 0x38]
    2333                      .dwattr $C$DW$294, DW_AT_accessibility(DW_ACCESS_public)
    2334              $C$DW$295       .dwtag  DW_TAG_member
    2335                      .dwattr $C$DW$295, DW_AT_type(*$C$DW$T$20)
    2336                      .dwattr $C$DW$295, DW_AT_name("MMCRSP1")
    2337                      .dwattr $C$DW$295, DW_AT_TI_symbol_name("_MMCRSP1")
    2338                      .dwattr $C$DW$295, DW_AT_data_member_location[DW_OP_plus_uconst 0x39]
    2339                      .dwattr $C$DW$295, DW_AT_accessibility(DW_ACCESS_public)
    2340              $C$DW$296       .dwtag  DW_TAG_member
    2341                      .dwattr $C$DW$296, DW_AT_type(*$C$DW$T$22)
    2342                      .dwattr $C$DW$296, DW_AT_name("RSVD14")
    2343                      .dwattr $C$DW$296, DW_AT_TI_symbol_name("_RSVD14")
    2344                      .dwattr $C$DW$296, DW_AT_data_member_location[DW_OP_plus_uconst 0x3a]
    2345                      .dwattr $C$DW$296, DW_AT_accessibility(DW_ACCESS_public)
    2346              $C$DW$297       .dwtag  DW_TAG_member
    2347                      .dwattr $C$DW$297, DW_AT_type(*$C$DW$T$20)
    2348                      .dwattr $C$DW$297, DW_AT_name("MMCRSP2")
    2349                      .dwattr $C$DW$297, DW_AT_TI_symbol_name("_MMCRSP2")
    2350                      .dwattr $C$DW$297, DW_AT_data_member_location[DW_OP_plus_uconst 0x3c]
    2351                      .dwattr $C$DW$297, DW_AT_accessibility(DW_ACCESS_public)
    2352              $C$DW$298       .dwtag  DW_TAG_member
    2353                      .dwattr $C$DW$298, DW_AT_type(*$C$DW$T$20)
    2354                      .dwattr $C$DW$298, DW_AT_name("MMCRSP3")
    2355                      .dwattr $C$DW$298, DW_AT_TI_symbol_name("_MMCRSP3")
    2356                      .dwattr $C$DW$298, DW_AT_data_member_location[DW_OP_plus_uconst 0x3d]
    2357                      .dwattr $C$DW$298, DW_AT_accessibility(DW_ACCESS_public)
    2358              $C$DW$299       .dwtag  DW_TAG_member
    2359                      .dwattr $C$DW$299, DW_AT_type(*$C$DW$T$22)
TMS320C55x Assembler PC v4.4.1 Sat Sep 29 23:09:02 2018

Tools Copyright (c) 1996-2012 Texas Instruments Incorporated
csl_mmcsd_SdCardExample.asm                                          PAGE   72

    2360                      .dwattr $C$DW$299, DW_AT_name("RSVD15")
    2361                      .dwattr $C$DW$299, DW_AT_TI_symbol_name("_RSVD15")
    2362                      .dwattr $C$DW$299, DW_AT_data_member_location[DW_OP_plus_uconst 0x3e]
    2363                      .dwattr $C$DW$299, DW_AT_accessibility(DW_ACCESS_public)
    2364              $C$DW$300       .dwtag  DW_TAG_member
    2365                      .dwattr $C$DW$300, DW_AT_type(*$C$DW$T$20)
    2366                      .dwattr $C$DW$300, DW_AT_name("MMCRSP4")
    2367                      .dwattr $C$DW$300, DW_AT_TI_symbol_name("_MMCRSP4")
    2368                      .dwattr $C$DW$300, DW_AT_data_member_location[DW_OP_plus_uconst 0x40]
    2369                      .dwattr $C$DW$300, DW_AT_accessibility(DW_ACCESS_public)
    2370              $C$DW$301       .dwtag  DW_TAG_member
    2371                      .dwattr $C$DW$301, DW_AT_type(*$C$DW$T$20)
    2372                      .dwattr $C$DW$301, DW_AT_name("MMCRSP5")
    2373                      .dwattr $C$DW$301, DW_AT_TI_symbol_name("_MMCRSP5")
    2374                      .dwattr $C$DW$301, DW_AT_data_member_location[DW_OP_plus_uconst 0x41]
    2375                      .dwattr $C$DW$301, DW_AT_accessibility(DW_ACCESS_public)
    2376              $C$DW$302       .dwtag  DW_TAG_member
    2377                      .dwattr $C$DW$302, DW_AT_type(*$C$DW$T$22)
    2378                      .dwattr $C$DW$302, DW_AT_name("RSVD16")
    2379                      .dwattr $C$DW$302, DW_AT_TI_symbol_name("_RSVD16")
    2380                      .dwattr $C$DW$302, DW_AT_data_member_location[DW_OP_plus_uconst 0x42]
    2381                      .dwattr $C$DW$302, DW_AT_accessibility(DW_ACCESS_public)
    2382              $C$DW$303       .dwtag  DW_TAG_member
    2383                      .dwattr $C$DW$303, DW_AT_type(*$C$DW$T$20)
    2384                      .dwattr $C$DW$303, DW_AT_name("MMCRSP6")
    2385                      .dwattr $C$DW$303, DW_AT_TI_symbol_name("_MMCRSP6")
    2386                      .dwattr $C$DW$303, DW_AT_data_member_location[DW_OP_plus_uconst 0x44]
    2387                      .dwattr $C$DW$303, DW_AT_accessibility(DW_ACCESS_public)
    2388              $C$DW$304       .dwtag  DW_TAG_member
    2389                      .dwattr $C$DW$304, DW_AT_type(*$C$DW$T$20)
    2390                      .dwattr $C$DW$304, DW_AT_name("MMCRSP7")
    2391                      .dwattr $C$DW$304, DW_AT_TI_symbol_name("_MMCRSP7")
    2392                      .dwattr $C$DW$304, DW_AT_data_member_location[DW_OP_plus_uconst 0x45]
    2393                      .dwattr $C$DW$304, DW_AT_accessibility(DW_ACCESS_public)
    2394              $C$DW$305       .dwtag  DW_TAG_member
    2395                      .dwattr $C$DW$305, DW_AT_type(*$C$DW$T$22)
    2396                      .dwattr $C$DW$305, DW_AT_name("RSVD17")
    2397                      .dwattr $C$DW$305, DW_AT_TI_symbol_name("_RSVD17")
    2398                      .dwattr $C$DW$305, DW_AT_data_member_location[DW_OP_plus_uconst 0x46]
    2399                      .dwattr $C$DW$305, DW_AT_accessibility(DW_ACCESS_public)
    2400              $C$DW$306       .dwtag  DW_TAG_member
    2401                      .dwattr $C$DW$306, DW_AT_type(*$C$DW$T$20)
    2402                      .dwattr $C$DW$306, DW_AT_name("MMCDRSP")
    2403                      .dwattr $C$DW$306, DW_AT_TI_symbol_name("_MMCDRSP")
    2404                      .dwattr $C$DW$306, DW_AT_data_member_location[DW_OP_plus_uconst 0x48]
    2405                      .dwattr $C$DW$306, DW_AT_accessibility(DW_ACCESS_public)
    2406              $C$DW$307       .dwtag  DW_TAG_member
    2407                      .dwattr $C$DW$307, DW_AT_type(*$C$DW$T$23)
    2408                      .dwattr $C$DW$307, DW_AT_name("RSVD18")
    2409                      .dwattr $C$DW$307, DW_AT_TI_symbol_name("_RSVD18")
    2410                      .dwattr $C$DW$307, DW_AT_data_member_location[DW_OP_plus_uconst 0x49]
    2411                      .dwattr $C$DW$307, DW_AT_accessibility(DW_ACCESS_public)
    2412              $C$DW$308       .dwtag  DW_TAG_member
    2413                      .dwattr $C$DW$308, DW_AT_type(*$C$DW$T$20)
    2414                      .dwattr $C$DW$308, DW_AT_name("MMCCIDX")
TMS320C55x Assembler PC v4.4.1 Sat Sep 29 23:09:02 2018

Tools Copyright (c) 1996-2012 Texas Instruments Incorporated
csl_mmcsd_SdCardExample.asm                                          PAGE   73

    2415                      .dwattr $C$DW$308, DW_AT_TI_symbol_name("_MMCCIDX")
    2416                      .dwattr $C$DW$308, DW_AT_data_member_location[DW_OP_plus_uconst 0x50]
    2417                      .dwattr $C$DW$308, DW_AT_accessibility(DW_ACCESS_public)
    2418              $C$DW$309       .dwtag  DW_TAG_member
    2419                      .dwattr $C$DW$309, DW_AT_type(*$C$DW$T$24)
    2420                      .dwattr $C$DW$309, DW_AT_name("RSVD19")
    2421                      .dwattr $C$DW$309, DW_AT_TI_symbol_name("_RSVD19")
    2422                      .dwattr $C$DW$309, DW_AT_data_member_location[DW_OP_plus_uconst 0x51]
    2423                      .dwattr $C$DW$309, DW_AT_accessibility(DW_ACCESS_public)
    2424              $C$DW$310       .dwtag  DW_TAG_member
    2425                      .dwattr $C$DW$310, DW_AT_type(*$C$DW$T$20)
    2426                      .dwattr $C$DW$310, DW_AT_name("SDIOCTL")
    2427                      .dwattr $C$DW$310, DW_AT_TI_symbol_name("_SDIOCTL")
    2428                      .dwattr $C$DW$310, DW_AT_data_member_location[DW_OP_plus_uconst 0x64]
    2429                      .dwattr $C$DW$310, DW_AT_accessibility(DW_ACCESS_public)
    2430              $C$DW$311       .dwtag  DW_TAG_member
    2431                      .dwattr $C$DW$311, DW_AT_type(*$C$DW$T$21)
    2432                      .dwattr $C$DW$311, DW_AT_name("RSVD20")
    2433                      .dwattr $C$DW$311, DW_AT_TI_symbol_name("_RSVD20")
    2434                      .dwattr $C$DW$311, DW_AT_data_member_location[DW_OP_plus_uconst 0x65]
    2435                      .dwattr $C$DW$311, DW_AT_accessibility(DW_ACCESS_public)
    2436              $C$DW$312       .dwtag  DW_TAG_member
    2437                      .dwattr $C$DW$312, DW_AT_type(*$C$DW$T$20)
    2438                      .dwattr $C$DW$312, DW_AT_name("SDIOST0")
    2439                      .dwattr $C$DW$312, DW_AT_TI_symbol_name("_SDIOST0")
    2440                      .dwattr $C$DW$312, DW_AT_data_member_location[DW_OP_plus_uconst 0x68]
    2441                      .dwattr $C$DW$312, DW_AT_accessibility(DW_ACCESS_public)
    2442              $C$DW$313       .dwtag  DW_TAG_member
    2443                      .dwattr $C$DW$313, DW_AT_type(*$C$DW$T$21)
    2444                      .dwattr $C$DW$313, DW_AT_name("RSVD21")
    2445                      .dwattr $C$DW$313, DW_AT_TI_symbol_name("_RSVD21")
    2446                      .dwattr $C$DW$313, DW_AT_data_member_location[DW_OP_plus_uconst 0x69]
    2447                      .dwattr $C$DW$313, DW_AT_accessibility(DW_ACCESS_public)
    2448              $C$DW$314       .dwtag  DW_TAG_member
    2449                      .dwattr $C$DW$314, DW_AT_type(*$C$DW$T$20)
    2450                      .dwattr $C$DW$314, DW_AT_name("SDIOIEN")
    2451                      .dwattr $C$DW$314, DW_AT_TI_symbol_name("_SDIOIEN")
    2452                      .dwattr $C$DW$314, DW_AT_data_member_location[DW_OP_plus_uconst 0x6c]
    2453                      .dwattr $C$DW$314, DW_AT_accessibility(DW_ACCESS_public)
    2454              $C$DW$315       .dwtag  DW_TAG_member
    2455                      .dwattr $C$DW$315, DW_AT_type(*$C$DW$T$21)
    2456                      .dwattr $C$DW$315, DW_AT_name("RSVD22")
    2457                      .dwattr $C$DW$315, DW_AT_TI_symbol_name("_RSVD22")
    2458                      .dwattr $C$DW$315, DW_AT_data_member_location[DW_OP_plus_uconst 0x6d]
    2459                      .dwattr $C$DW$315, DW_AT_accessibility(DW_ACCESS_public)
    2460              $C$DW$316       .dwtag  DW_TAG_member
    2461                      .dwattr $C$DW$316, DW_AT_type(*$C$DW$T$20)
    2462                      .dwattr $C$DW$316, DW_AT_name("SDIOIST")
    2463                      .dwattr $C$DW$316, DW_AT_TI_symbol_name("_SDIOIST")
    2464                      .dwattr $C$DW$316, DW_AT_data_member_location[DW_OP_plus_uconst 0x70]
    2465                      .dwattr $C$DW$316, DW_AT_accessibility(DW_ACCESS_public)
    2466              $C$DW$317       .dwtag  DW_TAG_member
    2467                      .dwattr $C$DW$317, DW_AT_type(*$C$DW$T$21)
    2468                      .dwattr $C$DW$317, DW_AT_name("RSVD23")
    2469                      .dwattr $C$DW$317, DW_AT_TI_symbol_name("_RSVD23")
TMS320C55x Assembler PC v4.4.1 Sat Sep 29 23:09:02 2018

Tools Copyright (c) 1996-2012 Texas Instruments Incorporated
csl_mmcsd_SdCardExample.asm                                          PAGE   74

    2470                      .dwattr $C$DW$317, DW_AT_data_member_location[DW_OP_plus_uconst 0x71]
    2471                      .dwattr $C$DW$317, DW_AT_accessibility(DW_ACCESS_public)
    2472              $C$DW$318       .dwtag  DW_TAG_member
    2473                      .dwattr $C$DW$318, DW_AT_type(*$C$DW$T$20)
    2474                      .dwattr $C$DW$318, DW_AT_name("MMCFIFOCTL")
    2475                      .dwattr $C$DW$318, DW_AT_TI_symbol_name("_MMCFIFOCTL")
    2476                      .dwattr $C$DW$318, DW_AT_data_member_location[DW_OP_plus_uconst 0x74]
    2477                      .dwattr $C$DW$318, DW_AT_accessibility(DW_ACCESS_public)
    2478                      .dwendtag $C$DW$T$25
    2479              
    2480              $C$DW$T$77      .dwtag  DW_TAG_typedef, DW_AT_name("CSL_MmcsdRegs")
    2481                      .dwattr $C$DW$T$77, DW_AT_type(*$C$DW$T$25)
    2482                      .dwattr $C$DW$T$77, DW_AT_language(DW_LANG_C)
    2483              $C$DW$319       .dwtag  DW_TAG_TI_far_type
    2484                      .dwattr $C$DW$319, DW_AT_type(*$C$DW$T$77)
    2485              $C$DW$320       .dwtag  DW_TAG_TI_ioport_type
    2486                      .dwattr $C$DW$320, DW_AT_type(*$C$DW$319)
    2487              $C$DW$T$78      .dwtag  DW_TAG_volatile_type
    2488                      .dwattr $C$DW$T$78, DW_AT_type(*$C$DW$320)
    2489              $C$DW$T$79      .dwtag  DW_TAG_pointer_type
    2490                      .dwattr $C$DW$T$79, DW_AT_type(*$C$DW$T$78)
    2491                      .dwattr $C$DW$T$79, DW_AT_address_class(0x10)
    2492              $C$DW$T$80      .dwtag  DW_TAG_typedef, DW_AT_name("CSL_MmcsdRegsOvly")
    2493                      .dwattr $C$DW$T$80, DW_AT_type(*$C$DW$T$79)
    2494                      .dwattr $C$DW$T$80, DW_AT_language(DW_LANG_C)
    2495              
    2496              $C$DW$T$29      .dwtag  DW_TAG_structure_type
    2497                      .dwattr $C$DW$T$29, DW_AT_byte_size(0x10)
    2498              $C$DW$321       .dwtag  DW_TAG_member
    2499                      .dwattr $C$DW$321, DW_AT_type(*$C$DW$T$19)
    2500                      .dwattr $C$DW$321, DW_AT_name("mfgId")
    2501                      .dwattr $C$DW$321, DW_AT_TI_symbol_name("_mfgId")
    2502                      .dwattr $C$DW$321, DW_AT_data_member_location[DW_OP_plus_uconst 0x0]
    2503                      .dwattr $C$DW$321, DW_AT_accessibility(DW_ACCESS_public)
    2504              $C$DW$322       .dwtag  DW_TAG_member
    2505                      .dwattr $C$DW$322, DW_AT_type(*$C$DW$T$19)
    2506                      .dwattr $C$DW$322, DW_AT_name("oemAppId")
    2507                      .dwattr $C$DW$322, DW_AT_TI_symbol_name("_oemAppId")
    2508                      .dwattr $C$DW$322, DW_AT_data_member_location[DW_OP_plus_uconst 0x1]
    2509                      .dwattr $C$DW$322, DW_AT_accessibility(DW_ACCESS_public)
    2510              $C$DW$323       .dwtag  DW_TAG_member
    2511                      .dwattr $C$DW$323, DW_AT_type(*$C$DW$T$27)
    2512                      .dwattr $C$DW$323, DW_AT_name("productName")
    2513                      .dwattr $C$DW$323, DW_AT_TI_symbol_name("_productName")
    2514                      .dwattr $C$DW$323, DW_AT_data_member_location[DW_OP_plus_uconst 0x2]
    2515                      .dwattr $C$DW$323, DW_AT_accessibility(DW_ACCESS_public)
    2516              $C$DW$324       .dwtag  DW_TAG_member
    2517                      .dwattr $C$DW$324, DW_AT_type(*$C$DW$T$19)
    2518                      .dwattr $C$DW$324, DW_AT_name("productRev")
    2519                      .dwattr $C$DW$324, DW_AT_TI_symbol_name("_productRev")
    2520                      .dwattr $C$DW$324, DW_AT_data_member_location[DW_OP_plus_uconst 0x8]
    2521                      .dwattr $C$DW$324, DW_AT_accessibility(DW_ACCESS_public)
    2522              $C$DW$325       .dwtag  DW_TAG_member
    2523                      .dwattr $C$DW$325, DW_AT_type(*$C$DW$T$28)
    2524                      .dwattr $C$DW$325, DW_AT_name("serialNumber")
TMS320C55x Assembler PC v4.4.1 Sat Sep 29 23:09:02 2018

Tools Copyright (c) 1996-2012 Texas Instruments Incorporated
csl_mmcsd_SdCardExample.asm                                          PAGE   75

    2525                      .dwattr $C$DW$325, DW_AT_TI_symbol_name("_serialNumber")
    2526                      .dwattr $C$DW$325, DW_AT_data_member_location[DW_OP_plus_uconst 0xa]
    2527                      .dwattr $C$DW$325, DW_AT_accessibility(DW_ACCESS_public)
    2528              $C$DW$326       .dwtag  DW_TAG_member
    2529                      .dwattr $C$DW$326, DW_AT_type(*$C$DW$T$19)
    2530                      .dwattr $C$DW$326, DW_AT_name("month")
    2531                      .dwattr $C$DW$326, DW_AT_TI_symbol_name("_month")
    2532                      .dwattr $C$DW$326, DW_AT_data_member_location[DW_OP_plus_uconst 0xc]
    2533                      .dwattr $C$DW$326, DW_AT_accessibility(DW_ACCESS_public)
    2534              $C$DW$327       .dwtag  DW_TAG_member
    2535                      .dwattr $C$DW$327, DW_AT_type(*$C$DW$T$19)
    2536                      .dwattr $C$DW$327, DW_AT_name("year")
    2537                      .dwattr $C$DW$327, DW_AT_TI_symbol_name("_year")
    2538                      .dwattr $C$DW$327, DW_AT_data_member_location[DW_OP_plus_uconst 0xd]
    2539                      .dwattr $C$DW$327, DW_AT_accessibility(DW_ACCESS_public)
    2540              $C$DW$328       .dwtag  DW_TAG_member
    2541                      .dwattr $C$DW$328, DW_AT_type(*$C$DW$T$19)
    2542                      .dwattr $C$DW$328, DW_AT_name("checksum")
    2543                      .dwattr $C$DW$328, DW_AT_TI_symbol_name("_checksum")
    2544                      .dwattr $C$DW$328, DW_AT_data_member_location[DW_OP_plus_uconst 0xe]
    2545                      .dwattr $C$DW$328, DW_AT_accessibility(DW_ACCESS_public)
    2546                      .dwendtag $C$DW$T$29
    2547              
    2548              $C$DW$T$34      .dwtag  DW_TAG_typedef, DW_AT_name("CSL_MMCCardIdObj")
    2549                      .dwattr $C$DW$T$34, DW_AT_type(*$C$DW$T$29)
    2550                      .dwattr $C$DW$T$34, DW_AT_language(DW_LANG_C)
    2551              $C$DW$T$35      .dwtag  DW_TAG_pointer_type
    2552                      .dwattr $C$DW$T$35, DW_AT_type(*$C$DW$T$34)
    2553                      .dwattr $C$DW$T$35, DW_AT_address_class(0x17)
    2554              
    2555              $C$DW$T$30      .dwtag  DW_TAG_structure_type
    2556                      .dwattr $C$DW$T$30, DW_AT_byte_size(0x22)
    2557              $C$DW$329       .dwtag  DW_TAG_member
    2558                      .dwattr $C$DW$329, DW_AT_type(*$C$DW$T$19)
    2559                      .dwattr $C$DW$329, DW_AT_name("csdStruct")
    2560                      .dwattr $C$DW$329, DW_AT_TI_symbol_name("_csdStruct")
    2561                      .dwattr $C$DW$329, DW_AT_data_member_location[DW_OP_plus_uconst 0x0]
    2562                      .dwattr $C$DW$329, DW_AT_accessibility(DW_ACCESS_public)
    2563              $C$DW$330       .dwtag  DW_TAG_member
    2564                      .dwattr $C$DW$330, DW_AT_type(*$C$DW$T$19)
    2565                      .dwattr $C$DW$330, DW_AT_name("mmcProt")
    2566                      .dwattr $C$DW$330, DW_AT_TI_symbol_name("_mmcProt")
    2567                      .dwattr $C$DW$330, DW_AT_data_member_location[DW_OP_plus_uconst 0x1]
    2568                      .dwattr $C$DW$330, DW_AT_accessibility(DW_ACCESS_public)
    2569              $C$DW$331       .dwtag  DW_TAG_member
    2570                      .dwattr $C$DW$331, DW_AT_type(*$C$DW$T$19)
    2571                      .dwattr $C$DW$331, DW_AT_name("taac")
    2572                      .dwattr $C$DW$331, DW_AT_TI_symbol_name("_taac")
    2573                      .dwattr $C$DW$331, DW_AT_data_member_location[DW_OP_plus_uconst 0x2]
    2574                      .dwattr $C$DW$331, DW_AT_accessibility(DW_ACCESS_public)
    2575              $C$DW$332       .dwtag  DW_TAG_member
    2576                      .dwattr $C$DW$332, DW_AT_type(*$C$DW$T$19)
    2577                      .dwattr $C$DW$332, DW_AT_name("nsac")
    2578                      .dwattr $C$DW$332, DW_AT_TI_symbol_name("_nsac")
    2579                      .dwattr $C$DW$332, DW_AT_data_member_location[DW_OP_plus_uconst 0x3]
TMS320C55x Assembler PC v4.4.1 Sat Sep 29 23:09:02 2018

Tools Copyright (c) 1996-2012 Texas Instruments Incorporated
csl_mmcsd_SdCardExample.asm                                          PAGE   76

    2580                      .dwattr $C$DW$332, DW_AT_accessibility(DW_ACCESS_public)
    2581              $C$DW$333       .dwtag  DW_TAG_member
    2582                      .dwattr $C$DW$333, DW_AT_type(*$C$DW$T$19)
    2583                      .dwattr $C$DW$333, DW_AT_name("tranSpeed")
    2584                      .dwattr $C$DW$333, DW_AT_TI_symbol_name("_tranSpeed")
    2585                      .dwattr $C$DW$333, DW_AT_data_member_location[DW_OP_plus_uconst 0x4]
    2586                      .dwattr $C$DW$333, DW_AT_accessibility(DW_ACCESS_public)
    2587              $C$DW$334       .dwtag  DW_TAG_member
    2588                      .dwattr $C$DW$334, DW_AT_type(*$C$DW$T$19)
    2589                      .dwattr $C$DW$334, DW_AT_name("ccc")
    2590                      .dwattr $C$DW$334, DW_AT_TI_symbol_name("_ccc")
    2591                      .dwattr $C$DW$334, DW_AT_data_member_location[DW_OP_plus_uconst 0x5]
    2592                      .dwattr $C$DW$334, DW_AT_accessibility(DW_ACCESS_public)
    2593              $C$DW$335       .dwtag  DW_TAG_member
    2594                      .dwattr $C$DW$335, DW_AT_type(*$C$DW$T$19)
    2595                      .dwattr $C$DW$335, DW_AT_name("readBlLen")
    2596                      .dwattr $C$DW$335, DW_AT_TI_symbol_name("_readBlLen")
    2597                      .dwattr $C$DW$335, DW_AT_data_member_location[DW_OP_plus_uconst 0x6]
    2598                      .dwattr $C$DW$335, DW_AT_accessibility(DW_ACCESS_public)
    2599              $C$DW$336       .dwtag  DW_TAG_member
    2600                      .dwattr $C$DW$336, DW_AT_type(*$C$DW$T$19)
    2601                      .dwattr $C$DW$336, DW_AT_name("readBlPartial")
    2602                      .dwattr $C$DW$336, DW_AT_TI_symbol_name("_readBlPartial")
    2603                      .dwattr $C$DW$336, DW_AT_data_member_location[DW_OP_plus_uconst 0x7]
    2604                      .dwattr $C$DW$336, DW_AT_accessibility(DW_ACCESS_public)
    2605              $C$DW$337       .dwtag  DW_TAG_member
    2606                      .dwattr $C$DW$337, DW_AT_type(*$C$DW$T$19)
    2607                      .dwattr $C$DW$337, DW_AT_name("writeBlkMisalign")
    2608                      .dwattr $C$DW$337, DW_AT_TI_symbol_name("_writeBlkMisalign")
    2609                      .dwattr $C$DW$337, DW_AT_data_member_location[DW_OP_plus_uconst 0x8]
    2610                      .dwattr $C$DW$337, DW_AT_accessibility(DW_ACCESS_public)
    2611              $C$DW$338       .dwtag  DW_TAG_member
    2612                      .dwattr $C$DW$338, DW_AT_type(*$C$DW$T$19)
    2613                      .dwattr $C$DW$338, DW_AT_name("readBlkMisalign")
    2614                      .dwattr $C$DW$338, DW_AT_TI_symbol_name("_readBlkMisalign")
    2615                      .dwattr $C$DW$338, DW_AT_data_member_location[DW_OP_plus_uconst 0x9]
    2616                      .dwattr $C$DW$338, DW_AT_accessibility(DW_ACCESS_public)
    2617              $C$DW$339       .dwtag  DW_TAG_member
    2618                      .dwattr $C$DW$339, DW_AT_type(*$C$DW$T$19)
    2619                      .dwattr $C$DW$339, DW_AT_name("dsrImp")
    2620                      .dwattr $C$DW$339, DW_AT_TI_symbol_name("_dsrImp")
    2621                      .dwattr $C$DW$339, DW_AT_data_member_location[DW_OP_plus_uconst 0xa]
    2622                      .dwattr $C$DW$339, DW_AT_accessibility(DW_ACCESS_public)
    2623              $C$DW$340       .dwtag  DW_TAG_member
    2624                      .dwattr $C$DW$340, DW_AT_type(*$C$DW$T$19)
    2625                      .dwattr $C$DW$340, DW_AT_name("cSize")
    2626                      .dwattr $C$DW$340, DW_AT_TI_symbol_name("_cSize")
    2627                      .dwattr $C$DW$340, DW_AT_data_member_location[DW_OP_plus_uconst 0xb]
    2628                      .dwattr $C$DW$340, DW_AT_accessibility(DW_ACCESS_public)
    2629              $C$DW$341       .dwtag  DW_TAG_member
    2630                      .dwattr $C$DW$341, DW_AT_type(*$C$DW$T$19)
    2631                      .dwattr $C$DW$341, DW_AT_name("vddRCurrMin")
    2632                      .dwattr $C$DW$341, DW_AT_TI_symbol_name("_vddRCurrMin")
    2633                      .dwattr $C$DW$341, DW_AT_data_member_location[DW_OP_plus_uconst 0xc]
    2634                      .dwattr $C$DW$341, DW_AT_accessibility(DW_ACCESS_public)
TMS320C55x Assembler PC v4.4.1 Sat Sep 29 23:09:02 2018

Tools Copyright (c) 1996-2012 Texas Instruments Incorporated
csl_mmcsd_SdCardExample.asm                                          PAGE   77

    2635              $C$DW$342       .dwtag  DW_TAG_member
    2636                      .dwattr $C$DW$342, DW_AT_type(*$C$DW$T$19)
    2637                      .dwattr $C$DW$342, DW_AT_name("vddRCurrMax")
    2638                      .dwattr $C$DW$342, DW_AT_TI_symbol_name("_vddRCurrMax")
    2639                      .dwattr $C$DW$342, DW_AT_data_member_location[DW_OP_plus_uconst 0xd]
    2640                      .dwattr $C$DW$342, DW_AT_accessibility(DW_ACCESS_public)
    2641              $C$DW$343       .dwtag  DW_TAG_member
    2642                      .dwattr $C$DW$343, DW_AT_type(*$C$DW$T$19)
    2643                      .dwattr $C$DW$343, DW_AT_name("vddWCurrMin")
    2644                      .dwattr $C$DW$343, DW_AT_TI_symbol_name("_vddWCurrMin")
    2645                      .dwattr $C$DW$343, DW_AT_data_member_location[DW_OP_plus_uconst 0xe]
    2646                      .dwattr $C$DW$343, DW_AT_accessibility(DW_ACCESS_public)
    2647              $C$DW$344       .dwtag  DW_TAG_member
    2648                      .dwattr $C$DW$344, DW_AT_type(*$C$DW$T$19)
    2649                      .dwattr $C$DW$344, DW_AT_name("vddWCurrMax")
    2650                      .dwattr $C$DW$344, DW_AT_TI_symbol_name("_vddWCurrMax")
    2651                      .dwattr $C$DW$344, DW_AT_data_member_location[DW_OP_plus_uconst 0xf]
    2652                      .dwattr $C$DW$344, DW_AT_accessibility(DW_ACCESS_public)
    2653              $C$DW$345       .dwtag  DW_TAG_member
    2654                      .dwattr $C$DW$345, DW_AT_type(*$C$DW$T$19)
    2655                      .dwattr $C$DW$345, DW_AT_name("cSizeMult")
    2656                      .dwattr $C$DW$345, DW_AT_TI_symbol_name("_cSizeMult")
    2657                      .dwattr $C$DW$345, DW_AT_data_member_location[DW_OP_plus_uconst 0x10]
    2658                      .dwattr $C$DW$345, DW_AT_accessibility(DW_ACCESS_public)
    2659              $C$DW$346       .dwtag  DW_TAG_member
    2660                      .dwattr $C$DW$346, DW_AT_type(*$C$DW$T$19)
    2661                      .dwattr $C$DW$346, DW_AT_name("eraseBlkEnable")
    2662                      .dwattr $C$DW$346, DW_AT_TI_symbol_name("_eraseBlkEnable")
    2663                      .dwattr $C$DW$346, DW_AT_data_member_location[DW_OP_plus_uconst 0x11]
    2664                      .dwattr $C$DW$346, DW_AT_accessibility(DW_ACCESS_public)
    2665              $C$DW$347       .dwtag  DW_TAG_member
    2666                      .dwattr $C$DW$347, DW_AT_type(*$C$DW$T$19)
    2667                      .dwattr $C$DW$347, DW_AT_name("eraseGrpSize")
    2668                      .dwattr $C$DW$347, DW_AT_TI_symbol_name("_eraseGrpSize")
    2669                      .dwattr $C$DW$347, DW_AT_data_member_location[DW_OP_plus_uconst 0x12]
    2670                      .dwattr $C$DW$347, DW_AT_accessibility(DW_ACCESS_public)
    2671              $C$DW$348       .dwtag  DW_TAG_member
    2672                      .dwattr $C$DW$348, DW_AT_type(*$C$DW$T$19)
    2673                      .dwattr $C$DW$348, DW_AT_name("eraseGrpMult")
    2674                      .dwattr $C$DW$348, DW_AT_TI_symbol_name("_eraseGrpMult")
    2675                      .dwattr $C$DW$348, DW_AT_data_member_location[DW_OP_plus_uconst 0x13]
    2676                      .dwattr $C$DW$348, DW_AT_accessibility(DW_ACCESS_public)
    2677              $C$DW$349       .dwtag  DW_TAG_member
    2678                      .dwattr $C$DW$349, DW_AT_type(*$C$DW$T$19)
    2679                      .dwattr $C$DW$349, DW_AT_name("wpGrpSize")
    2680                      .dwattr $C$DW$349, DW_AT_TI_symbol_name("_wpGrpSize")
    2681                      .dwattr $C$DW$349, DW_AT_data_member_location[DW_OP_plus_uconst 0x14]
    2682                      .dwattr $C$DW$349, DW_AT_accessibility(DW_ACCESS_public)
    2683              $C$DW$350       .dwtag  DW_TAG_member
    2684                      .dwattr $C$DW$350, DW_AT_type(*$C$DW$T$19)
    2685                      .dwattr $C$DW$350, DW_AT_name("wpGrpEnable")
    2686                      .dwattr $C$DW$350, DW_AT_TI_symbol_name("_wpGrpEnable")
    2687                      .dwattr $C$DW$350, DW_AT_data_member_location[DW_OP_plus_uconst 0x15]
    2688                      .dwattr $C$DW$350, DW_AT_accessibility(DW_ACCESS_public)
    2689              $C$DW$351       .dwtag  DW_TAG_member
TMS320C55x Assembler PC v4.4.1 Sat Sep 29 23:09:02 2018

Tools Copyright (c) 1996-2012 Texas Instruments Incorporated
csl_mmcsd_SdCardExample.asm                                          PAGE   78

    2690                      .dwattr $C$DW$351, DW_AT_type(*$C$DW$T$19)
    2691                      .dwattr $C$DW$351, DW_AT_name("defaultEcc")
    2692                      .dwattr $C$DW$351, DW_AT_TI_symbol_name("_defaultEcc")
    2693                      .dwattr $C$DW$351, DW_AT_data_member_location[DW_OP_plus_uconst 0x16]
    2694                      .dwattr $C$DW$351, DW_AT_accessibility(DW_ACCESS_public)
    2695              $C$DW$352       .dwtag  DW_TAG_member
    2696                      .dwattr $C$DW$352, DW_AT_type(*$C$DW$T$19)
    2697                      .dwattr $C$DW$352, DW_AT_name("r2wFactor")
    2698                      .dwattr $C$DW$352, DW_AT_TI_symbol_name("_r2wFactor")
    2699                      .dwattr $C$DW$352, DW_AT_data_member_location[DW_OP_plus_uconst 0x17]
    2700                      .dwattr $C$DW$352, DW_AT_accessibility(DW_ACCESS_public)
    2701              $C$DW$353       .dwtag  DW_TAG_member
    2702                      .dwattr $C$DW$353, DW_AT_type(*$C$DW$T$19)
    2703                      .dwattr $C$DW$353, DW_AT_name("writeBlLen")
    2704                      .dwattr $C$DW$353, DW_AT_TI_symbol_name("_writeBlLen")
    2705                      .dwattr $C$DW$353, DW_AT_data_member_location[DW_OP_plus_uconst 0x18]
    2706                      .dwattr $C$DW$353, DW_AT_accessibility(DW_ACCESS_public)
    2707              $C$DW$354       .dwtag  DW_TAG_member
    2708                      .dwattr $C$DW$354, DW_AT_type(*$C$DW$T$19)
    2709                      .dwattr $C$DW$354, DW_AT_name("writeBlPartial")
    2710                      .dwattr $C$DW$354, DW_AT_TI_symbol_name("_writeBlPartial")
    2711                      .dwattr $C$DW$354, DW_AT_data_member_location[DW_OP_plus_uconst 0x19]
