TMS320C55x Assembler PC v4.4.1 Sat Sep 29 23:09:39 2018

Tools Copyright (c) 1996-2012 Texas Instruments Incorporated
csl_gpt_example.asm                                                  PAGE    1

    3055              ; Temporary Registers Used: None
       1              ;*******************************************************************************
       2              ;* TMS320C55x C/C++ Codegen                                          PC v4.4.1 *
       3              ;* Date/Time created: Sat Sep 29 23:09:38 2018                                 *
       4              ;*******************************************************************************
       5                      .compiler_opts --hll_source=on --mem_model:code=flat --mem_model:data=large --object_format=coff --si
       6                      .mmregs
       7                      .cpl_on
       8                      .arms_on
       9                      .c54cm_off
      10                      .asg AR6, FP
      11                      .asg XAR6, XFP
      12                      .asg DPH, MDP
      13                      .model call=c55_std
      14                      .model mem=large
      15                      .noremark 5002  ; code respects overwrite rules
      16              ;*******************************************************************************
      17              ;* GLOBAL FILE PARAMETERS                                                      *
      18              ;*                                                                             *
      19              ;*   Architecture       : TMS320C55x                                           *
      20              ;*   Optimizing for     : Speed                                                *
      21              ;*   Memory             : Large Model (23-Bit Data Pointers)                   *
      22              ;*   Calls              : Normal Library ASM calls                             *
      23              ;*   Debug Info         : Standard TI Debug Information                        *
      24              ;*******************************************************************************
      25              
      26              $C$DW$CU        .dwtag  DW_TAG_compile_unit
      27                      .dwattr $C$DW$CU, DW_AT_name("../c5535_bsl_revc/ezdsp5535_v1/c55xx_csl/ccs_v4.0_examples/gpt/CSL_GPTE
      28                      .dwattr $C$DW$CU, DW_AT_producer("TMS320C55x C/C++ Codegen PC v4.4.1 Copyright (c) 1996-2012 Texas In
      29                      .dwattr $C$DW$CU, DW_AT_TI_version(0x01)
      30                      .dwattr $C$DW$CU, DW_AT_comp_dir("F:\eZdsp_DBG\tmp1\c55x-sim2\foo\Debug")
      31              ;******************************************************************************
      32              ;* CINIT RECORDS                                                              *
      33              ;******************************************************************************
      34 000000               .sect   ".cinit"
      35                      .align  1
      36 000000 0002          .field          2,16
      37 000001 0000-         .field          _cpuCycleCount+0,24
         000002 0000 
      38 000002 0000          .field          0,8
      39 000003 0000          .field  0,32                    ; _cpuCycleCount @ 0
         000004 0000 
      40              
      41 000005               .sect   ".cinit"
      42                      .align  1
      43 000005 0001          .field          1,16
      44 000006 0000-         .field          _hitIsr+0,24
         000007 0400 
      45 000007 0400          .field          0,8
      46 000008 0000          .field  0,16                    ; _hitIsr @ 0
      47              
      48 000009               .sect   ".cinit"
      49                      .align  1
      50 000009 0001          .field          1,16
      51 00000a 0000-         .field          _PaSs_StAtE+0,24
TMS320C55x Assembler PC v4.4.1 Sat Sep 29 23:09:39 2018

Tools Copyright (c) 1996-2012 Texas Instruments Incorporated
csl_gpt_example.asm                                                  PAGE    2

         00000b 0500 
      52 00000b 0500          .field          0,8
      53 00000c 0001          .field  1,16                    ; _PaSs_StAtE @ 0
      54              
      55 00000d               .sect   ".cinit"
      56                      .align  1
      57 00000d 0001          .field          1,16
      58 00000e 0000-         .field          _PaSs+0,24
         00000f 0600 
      59 00000f 0600          .field          0,8
      60 000010 0000          .field  0,16                    ; _PaSs @ 0
      61              
      62              
      63              $C$DW$1 .dwtag  DW_TAG_subprogram, DW_AT_name("printf")
      64                      .dwattr $C$DW$1, DW_AT_TI_symbol_name("_printf")
      65                      .dwattr $C$DW$1, DW_AT_type(*$C$DW$T$10)
      66                      .dwattr $C$DW$1, DW_AT_declaration
      67                      .dwattr $C$DW$1, DW_AT_external
      68              $C$DW$2 .dwtag  DW_TAG_formal_parameter
      69                      .dwattr $C$DW$2, DW_AT_type(*$C$DW$T$78)
      70              $C$DW$3 .dwtag  DW_TAG_unspecified_parameters
      71                      .dwendtag $C$DW$1
      72              
      73              
      74              $C$DW$4 .dwtag  DW_TAG_subprogram, DW_AT_name("GPT_open")
      75                      .dwattr $C$DW$4, DW_AT_TI_symbol_name("_GPT_open")
      76                      .dwattr $C$DW$4, DW_AT_type(*$C$DW$T$42)
      77                      .dwattr $C$DW$4, DW_AT_declaration
      78                      .dwattr $C$DW$4, DW_AT_external
      79              $C$DW$5 .dwtag  DW_TAG_formal_parameter
      80                      .dwattr $C$DW$5, DW_AT_type(*$C$DW$T$23)
      81              $C$DW$6 .dwtag  DW_TAG_formal_parameter
      82                      .dwattr $C$DW$6, DW_AT_type(*$C$DW$T$41)
      83              $C$DW$7 .dwtag  DW_TAG_formal_parameter
      84                      .dwattr $C$DW$7, DW_AT_type(*$C$DW$T$45)
      85                      .dwendtag $C$DW$4
      86              
      87              
      88              $C$DW$8 .dwtag  DW_TAG_subprogram, DW_AT_name("GPT_reset")
      89                      .dwattr $C$DW$8, DW_AT_TI_symbol_name("_GPT_reset")
      90                      .dwattr $C$DW$8, DW_AT_type(*$C$DW$T$44)
      91                      .dwattr $C$DW$8, DW_AT_declaration
      92                      .dwattr $C$DW$8, DW_AT_external
      93              $C$DW$9 .dwtag  DW_TAG_formal_parameter
      94                      .dwattr $C$DW$9, DW_AT_type(*$C$DW$T$42)
      95                      .dwendtag $C$DW$8
      96              
      97              
      98              $C$DW$10        .dwtag  DW_TAG_subprogram, DW_AT_name("GPT_close")
      99                      .dwattr $C$DW$10, DW_AT_TI_symbol_name("_GPT_close")
     100                      .dwattr $C$DW$10, DW_AT_type(*$C$DW$T$44)
     101                      .dwattr $C$DW$10, DW_AT_declaration
     102                      .dwattr $C$DW$10, DW_AT_external
     103              $C$DW$11        .dwtag  DW_TAG_formal_parameter
     104                      .dwattr $C$DW$11, DW_AT_type(*$C$DW$T$42)
TMS320C55x Assembler PC v4.4.1 Sat Sep 29 23:09:39 2018

Tools Copyright (c) 1996-2012 Texas Instruments Incorporated
csl_gpt_example.asm                                                  PAGE    3

     105                      .dwendtag $C$DW$10
     106              
     107              
     108              $C$DW$12        .dwtag  DW_TAG_subprogram, DW_AT_name("GPT_start")
     109                      .dwattr $C$DW$12, DW_AT_TI_symbol_name("_GPT_start")
     110                      .dwattr $C$DW$12, DW_AT_type(*$C$DW$T$44)
     111                      .dwattr $C$DW$12, DW_AT_declaration
     112                      .dwattr $C$DW$12, DW_AT_external
     113              $C$DW$13        .dwtag  DW_TAG_formal_parameter
     114                      .dwattr $C$DW$13, DW_AT_type(*$C$DW$T$42)
     115                      .dwendtag $C$DW$12
     116              
     117              
     118              $C$DW$14        .dwtag  DW_TAG_subprogram, DW_AT_name("GPT_stop")
     119                      .dwattr $C$DW$14, DW_AT_TI_symbol_name("_GPT_stop")
     120                      .dwattr $C$DW$14, DW_AT_type(*$C$DW$T$44)
     121                      .dwattr $C$DW$14, DW_AT_declaration
     122                      .dwattr $C$DW$14, DW_AT_external
     123              $C$DW$15        .dwtag  DW_TAG_formal_parameter
     124                      .dwattr $C$DW$15, DW_AT_type(*$C$DW$T$42)
     125                      .dwendtag $C$DW$14
     126              
     127              
     128              $C$DW$16        .dwtag  DW_TAG_subprogram, DW_AT_name("GPT_getCnt")
     129                      .dwattr $C$DW$16, DW_AT_TI_symbol_name("_GPT_getCnt")
     130                      .dwattr $C$DW$16, DW_AT_type(*$C$DW$T$44)
     131                      .dwattr $C$DW$16, DW_AT_declaration
     132                      .dwattr $C$DW$16, DW_AT_external
     133              $C$DW$17        .dwtag  DW_TAG_formal_parameter
     134                      .dwattr $C$DW$17, DW_AT_type(*$C$DW$T$42)
     135              $C$DW$18        .dwtag  DW_TAG_formal_parameter
     136                      .dwattr $C$DW$18, DW_AT_type(*$C$DW$T$60)
     137                      .dwendtag $C$DW$16
     138              
     139              
     140              $C$DW$19        .dwtag  DW_TAG_subprogram, DW_AT_name("GPT_config")
     141                      .dwattr $C$DW$19, DW_AT_TI_symbol_name("_GPT_config")
     142                      .dwattr $C$DW$19, DW_AT_type(*$C$DW$T$44)
     143                      .dwattr $C$DW$19, DW_AT_declaration
     144                      .dwattr $C$DW$19, DW_AT_external
     145              $C$DW$20        .dwtag  DW_TAG_formal_parameter
     146                      .dwattr $C$DW$20, DW_AT_type(*$C$DW$T$42)
     147              $C$DW$21        .dwtag  DW_TAG_formal_parameter
     148                      .dwattr $C$DW$21, DW_AT_type(*$C$DW$T$49)
     149                      .dwendtag $C$DW$19
     150              
     151              
     152              $C$DW$22        .dwtag  DW_TAG_subprogram, DW_AT_name("IRQ_plug")
     153                      .dwattr $C$DW$22, DW_AT_TI_symbol_name("_IRQ_plug")
     154                      .dwattr $C$DW$22, DW_AT_type(*$C$DW$T$10)
     155                      .dwattr $C$DW$22, DW_AT_declaration
     156                      .dwattr $C$DW$22, DW_AT_external
     157              $C$DW$23        .dwtag  DW_TAG_formal_parameter
     158                      .dwattr $C$DW$23, DW_AT_type(*$C$DW$T$19)
     159              $C$DW$24        .dwtag  DW_TAG_formal_parameter
TMS320C55x Assembler PC v4.4.1 Sat Sep 29 23:09:39 2018

Tools Copyright (c) 1996-2012 Texas Instruments Incorporated
csl_gpt_example.asm                                                  PAGE    4

     160                      .dwattr $C$DW$24, DW_AT_type(*$C$DW$T$56)
     161                      .dwendtag $C$DW$22
     162              
     163              
     164              $C$DW$25        .dwtag  DW_TAG_subprogram, DW_AT_name("IRQ_clear")
     165                      .dwattr $C$DW$25, DW_AT_TI_symbol_name("_IRQ_clear")
     166                      .dwattr $C$DW$25, DW_AT_type(*$C$DW$T$44)
     167                      .dwattr $C$DW$25, DW_AT_declaration
     168                      .dwattr $C$DW$25, DW_AT_external
     169              $C$DW$26        .dwtag  DW_TAG_formal_parameter
     170                      .dwattr $C$DW$26, DW_AT_type(*$C$DW$T$19)
     171                      .dwendtag $C$DW$25
     172              
     173              
     174              $C$DW$27        .dwtag  DW_TAG_subprogram, DW_AT_name("IRQ_clearAll")
     175                      .dwattr $C$DW$27, DW_AT_TI_symbol_name("_IRQ_clearAll")
     176                      .dwattr $C$DW$27, DW_AT_declaration
     177                      .dwattr $C$DW$27, DW_AT_external
     178              
     179              $C$DW$28        .dwtag  DW_TAG_subprogram, DW_AT_name("IRQ_disableAll")
     180                      .dwattr $C$DW$28, DW_AT_TI_symbol_name("_IRQ_disableAll")
     181                      .dwattr $C$DW$28, DW_AT_declaration
     182                      .dwattr $C$DW$28, DW_AT_external
     183              
     184              $C$DW$29        .dwtag  DW_TAG_subprogram, DW_AT_name("IRQ_enable")
     185                      .dwattr $C$DW$29, DW_AT_TI_symbol_name("_IRQ_enable")
     186                      .dwattr $C$DW$29, DW_AT_type(*$C$DW$T$10)
     187                      .dwattr $C$DW$29, DW_AT_declaration
     188                      .dwattr $C$DW$29, DW_AT_external
     189              $C$DW$30        .dwtag  DW_TAG_formal_parameter
     190                      .dwattr $C$DW$30, DW_AT_type(*$C$DW$T$19)
     191                      .dwendtag $C$DW$29
     192              
     193              
     194              $C$DW$31        .dwtag  DW_TAG_subprogram, DW_AT_name("IRQ_setVecs")
     195                      .dwattr $C$DW$31, DW_AT_TI_symbol_name("_IRQ_setVecs")
     196                      .dwattr $C$DW$31, DW_AT_type(*$C$DW$T$44)
     197                      .dwattr $C$DW$31, DW_AT_declaration
     198                      .dwattr $C$DW$31, DW_AT_external
     199              $C$DW$32        .dwtag  DW_TAG_formal_parameter
     200                      .dwattr $C$DW$32, DW_AT_type(*$C$DW$T$59)
     201                      .dwendtag $C$DW$31
     202              
     203              
     204              $C$DW$33        .dwtag  DW_TAG_subprogram, DW_AT_name("IRQ_globalDisable")
     205                      .dwattr $C$DW$33, DW_AT_TI_symbol_name("_IRQ_globalDisable")
     206                      .dwattr $C$DW$33, DW_AT_type(*$C$DW$T$73)
     207                      .dwattr $C$DW$33, DW_AT_declaration
     208                      .dwattr $C$DW$33, DW_AT_external
     209              
     210              $C$DW$34        .dwtag  DW_TAG_subprogram, DW_AT_name("IRQ_globalEnable")
     211                      .dwattr $C$DW$34, DW_AT_TI_symbol_name("_IRQ_globalEnable")
     212                      .dwattr $C$DW$34, DW_AT_type(*$C$DW$T$73)
     213                      .dwattr $C$DW$34, DW_AT_declaration
     214                      .dwattr $C$DW$34, DW_AT_external
TMS320C55x Assembler PC v4.4.1 Sat Sep 29 23:09:39 2018

Tools Copyright (c) 1996-2012 Texas Instruments Incorporated
csl_gpt_example.asm                                                  PAGE    5

     215              
     216              $C$DW$35        .dwtag  DW_TAG_subprogram, DW_AT_name("VECSTART")
     217                      .dwattr $C$DW$35, DW_AT_TI_symbol_name("_VECSTART")
     218                      .dwattr $C$DW$35, DW_AT_declaration
     219                      .dwattr $C$DW$35, DW_AT_external
     220                      .global _cpuCycleCount
     221 000000               .bss    _cpuCycleCount,2,0,2
     222              $C$DW$36        .dwtag  DW_TAG_variable, DW_AT_name("cpuCycleCount")
     223                      .dwattr $C$DW$36, DW_AT_TI_symbol_name("_cpuCycleCount")
     224                      .dwattr $C$DW$36, DW_AT_location[DW_OP_addr _cpuCycleCount]
     225                      .dwattr $C$DW$36, DW_AT_type(*$C$DW$T$59)
     226                      .dwattr $C$DW$36, DW_AT_external
     227                      .global _sysClk
     228 000002               .bss    _sysClk,2,0,2
     229              $C$DW$37        .dwtag  DW_TAG_variable, DW_AT_name("sysClk")
     230                      .dwattr $C$DW$37, DW_AT_TI_symbol_name("_sysClk")
     231                      .dwattr $C$DW$37, DW_AT_location[DW_OP_addr _sysClk]
     232                      .dwattr $C$DW$37, DW_AT_type(*$C$DW$T$59)
     233                      .dwattr $C$DW$37, DW_AT_external
     234                      .global _hitIsr
     235 000004               .bss    _hitIsr,1,0,0
     236              $C$DW$38        .dwtag  DW_TAG_variable, DW_AT_name("hitIsr")
     237                      .dwattr $C$DW$38, DW_AT_TI_symbol_name("_hitIsr")
     238                      .dwattr $C$DW$38, DW_AT_location[DW_OP_addr _hitIsr]
     239                      .dwattr $C$DW$38, DW_AT_type(*$C$DW$T$20)
     240                      .dwattr $C$DW$38, DW_AT_external
     241                      .global _PaSs_StAtE
     242 000005               .bss    _PaSs_StAtE,1,0,0
     243              $C$DW$39        .dwtag  DW_TAG_variable, DW_AT_name("PaSs_StAtE")
     244                      .dwattr $C$DW$39, DW_AT_TI_symbol_name("_PaSs_StAtE")
     245                      .dwattr $C$DW$39, DW_AT_location[DW_OP_addr _PaSs_StAtE]
     246                      .dwattr $C$DW$39, DW_AT_type(*$C$DW$T$69)
     247                      .dwattr $C$DW$39, DW_AT_external
     248                      .global _PaSs
     249 000006               .bss    _PaSs,1,0,0
     250              $C$DW$40        .dwtag  DW_TAG_variable, DW_AT_name("PaSs")
     251                      .dwattr $C$DW$40, DW_AT_TI_symbol_name("_PaSs")
     252                      .dwattr $C$DW$40, DW_AT_location[DW_OP_addr _PaSs]
     253                      .dwattr $C$DW$40, DW_AT_type(*$C$DW$T$69)
     254                      .dwattr $C$DW$40, DW_AT_external
     255              ;       F:\t\cc5p5\ccsv5\tools\compiler\c5500_4.4.1\bin\acp55.exe -@f:\\AppData\\Local\\Temp\\2710012 
     256 000000               .sect   ".text"
     257                      .align 4
     258                      .global _main
     259              
     260              $C$DW$41        .dwtag  DW_TAG_subprogram, DW_AT_name("main")
     261                      .dwattr $C$DW$41, DW_AT_low_pc(_main)
     262                      .dwattr $C$DW$41, DW_AT_high_pc(0x00)
     263                      .dwattr $C$DW$41, DW_AT_TI_symbol_name("_main")
     264                      .dwattr $C$DW$41, DW_AT_external
     265                      .dwattr $C$DW$41, DW_AT_TI_begin_file("../c5535_bsl_revc/ezdsp5535_v1/c55xx_csl/ccs_v4.0_examples/gpt
     266                      .dwattr $C$DW$41, DW_AT_TI_begin_line(0xb2)
     267                      .dwattr $C$DW$41, DW_AT_TI_begin_column(0x06)
     268                      .dwattr $C$DW$41, DW_AT_TI_max_frame_size(0x04)
     269                      .dwpsn  file "../c5535_bsl_revc/ezdsp5535_v1/c55xx_csl/ccs_v4.0_examples/gpt/CSL_GPTExample/csl_gpt_e
TMS320C55x Assembler PC v4.4.1 Sat Sep 29 23:09:39 2018

Tools Copyright (c) 1996-2012 Texas Instruments Incorporated
csl_gpt_example.asm                                                  PAGE    6

     270              
     271                      .dwfde $C$DW$CIE, _main
     272              ;*******************************************************************************
     273              ;* FUNCTION NAME: main                                                         *
     274              ;*                                                                             *
     275              ;*   Function Uses Regs : T0,AR1,AR2,AR3,XAR3,SP,TC1,M40,SATA,SATD,RDM,FRCT,   *
     276              ;*                        SMUL                                                 *
     277              ;*   Stack Frame        : Compact (No Frame Pointer, w/ debug)                 *
     278              ;*   Total Frame Size   : 4 words                                              *
     279              ;*                        (1 return address/alignment)                         *
     280              ;*                        (2 function parameters)                              *
     281              ;*                        (1 local values)                                     *
     282              ;*   Min System Stack   : 1 word                                               *
     283              ;*******************************************************************************
     284 000000       _main:
     285                      .dwcfi  cfa_offset, 1
     286                      .dwcfi  save_reg_to_mem, 91, -1
     287 000000 4EFD          AADD #-3, SP
     288                      .dwcfi  cfa_offset, 4
     289              $C$DW$42        .dwtag  DW_TAG_variable, DW_AT_name("result")
     290                      .dwattr $C$DW$42, DW_AT_TI_symbol_name("_result")
     291                      .dwattr $C$DW$42, DW_AT_type(*$C$DW$T$43)
     292                      .dwattr $C$DW$42, DW_AT_location[DW_OP_bregx 0x24 2]
     293                      .dwpsn  file "../c5535_bsl_revc/ezdsp5535_v1/c55xx_csl/ccs_v4.0_examples/gpt/CSL_GPTExample/csl_gpt_e
     294 000002 EC31          AMOV #$C$FSL1, XAR3 ; |182| 
         000004 BE00 
         000006 0000+
     295 000008 EB00          MOV XAR3, dbl(*SP(#0))
         00000a B5   
     296              $C$DW$43        .dwtag  DW_TAG_TI_branch
     297                      .dwattr $C$DW$43, DW_AT_low_pc(0x00)
     298                      .dwattr $C$DW$43, DW_AT_name("_printf")
     299                      .dwattr $C$DW$43, DW_AT_TI_call
     300 00000b 6C00          CALL #_printf ; |182| 
         00000d 0000!
     301                                                      ; call occurs [#_printf] ; |182| 
     302                      .dwpsn  file "../c5535_bsl_revc/ezdsp5535_v1/c55xx_csl/ccs_v4.0_examples/gpt/CSL_GPTExample/csl_gpt_e
     303 00000f EC31          AMOV #$C$FSL2, XAR3 ; |184| 
         000011 BE00 
         000013 0012+
     304 000015 EB00          MOV XAR3, dbl(*SP(#0))
         000017 B5   
     305              $C$DW$44        .dwtag  DW_TAG_TI_branch
     306                      .dwattr $C$DW$44, DW_AT_low_pc(0x00)
     307                      .dwattr $C$DW$44, DW_AT_name("_printf")
     308                      .dwattr $C$DW$44, DW_AT_TI_call
     309 000018 6C00          CALL #_printf ; |184| 
         00001a 0000!
     310                                                      ; call occurs [#_printf] ; |184| 
     311                      .dwpsn  file "../c5535_bsl_revc/ezdsp5535_v1/c55xx_csl/ccs_v4.0_examples/gpt/CSL_GPTExample/csl_gpt_e
     312              $C$DW$45        .dwtag  DW_TAG_TI_branch
     313                      .dwattr $C$DW$45, DW_AT_low_pc(0x00)
     314                      .dwattr $C$DW$45, DW_AT_name("_CSL_gptCountReadTest")
     315                      .dwattr $C$DW$45, DW_AT_TI_call
     316 00001c 0800          CALL #_CSL_gptCountReadTest ; |185| 
TMS320C55x Assembler PC v4.4.1 Sat Sep 29 23:09:39 2018

Tools Copyright (c) 1996-2012 Texas Instruments Incorporated
csl_gpt_example.asm                                                  PAGE    7

         00001e 89   
     317                                                      ; call occurs [#_CSL_gptCountReadTest] ; |185| 
     318 00001f C404          MOV T0, *SP(#2) ; |185| 
     319                      .dwpsn  file "../c5535_bsl_revc/ezdsp5535_v1/c55xx_csl/ccs_v4.0_examples/gpt/CSL_GPTExample/csl_gpt_e
     320              
     321 000021 A904          MOV *SP(#2), AR1 ; |186| 
     322 000023 3D1A  ||      MOV #1, AR2
     323              
     324 000025 12AC          CMPU AR2 != AR1, TC1 ; |186| 
         000027 94   
     325 000028 0464          BCC $C$L1,TC1 ; |186| 
         00002a 15   
     326                                                      ; branchcc occurs ; |186| 
     327                      .dwpsn  file "../c5535_bsl_revc/ezdsp5535_v1/c55xx_csl/ccs_v4.0_examples/gpt/CSL_GPTExample/csl_gpt_e
     328 00002b EC31          AMOV #$C$FSL3, XAR3 ; |188| 
         00002d BE00 
         00002f 002A+
     329 000031 EB00          MOV XAR3, dbl(*SP(#0))
         000033 B5   
     330              $C$DW$46        .dwtag  DW_TAG_TI_branch
     331                      .dwattr $C$DW$46, DW_AT_low_pc(0x00)
     332                      .dwattr $C$DW$46, DW_AT_name("_printf")
     333                      .dwattr $C$DW$46, DW_AT_TI_call
     334 000034 6C00          CALL #_printf ; |188| 
         000036 0000!
     335                                                      ; call occurs [#_printf] ; |188| 
     336                      .dwpsn  file "../c5535_bsl_revc/ezdsp5535_v1/c55xx_csl/ccs_v4.0_examples/gpt/CSL_GPTExample/csl_gpt_e
     337 000038 E631          MOV #0, *(#_PaSs_StAtE) ; |191| 
         00003a 0000 
         00003c 0005-
     338                      .dwpsn  file "../c5535_bsl_revc/ezdsp5535_v1/c55xx_csl/ccs_v4.0_examples/gpt/CSL_GPTExample/csl_gpt_e
     339 00003e 4A0D          B $C$L2   ; |193| 
     340                                                      ; branch occurs ; |193| 
     341 000040       $C$L1:    
     342                      .dwpsn  file "../c5535_bsl_revc/ezdsp5535_v1/c55xx_csl/ccs_v4.0_examples/gpt/CSL_GPTExample/csl_gpt_e
     343 000040 EC31          AMOV #$C$FSL4, XAR3 ; |196| 
         000042 BE00 
         000044 004A+
     344 000046 EB00          MOV XAR3, dbl(*SP(#0))
         000048 B5   
     345              $C$DW$47        .dwtag  DW_TAG_TI_branch
     346                      .dwattr $C$DW$47, DW_AT_low_pc(0x00)
     347                      .dwattr $C$DW$47, DW_AT_name("_printf")
     348                      .dwattr $C$DW$47, DW_AT_TI_call
     349 000049 6C00          CALL #_printf ; |196| 
         00004b 0000!
     350                                                      ; call occurs [#_printf] ; |196| 
     351 00004d       $C$L2:    
     352                      .dwpsn  file "../c5535_bsl_revc/ezdsp5535_v1/c55xx_csl/ccs_v4.0_examples/gpt/CSL_GPTExample/csl_gpt_e
     353 00004d EC31          AMOV #$C$FSL5, XAR3 ; |200| 
         00004f BE00 
         000051 006A+
     354 000053 EB00          MOV XAR3, dbl(*SP(#0))
         000055 B5   
     355              $C$DW$48        .dwtag  DW_TAG_TI_branch
TMS320C55x Assembler PC v4.4.1 Sat Sep 29 23:09:39 2018

Tools Copyright (c) 1996-2012 Texas Instruments Incorporated
csl_gpt_example.asm                                                  PAGE    8

     356                      .dwattr $C$DW$48, DW_AT_low_pc(0x00)
     357                      .dwattr $C$DW$48, DW_AT_name("_printf")
     358                      .dwattr $C$DW$48, DW_AT_TI_call
     359 000056 6C00          CALL #_printf ; |200| 
         000058 0000!
     360                                                      ; call occurs [#_printf] ; |200| 
     361                      .dwpsn  file "../c5535_bsl_revc/ezdsp5535_v1/c55xx_csl/ccs_v4.0_examples/gpt/CSL_GPTExample/csl_gpt_e
     362 00005a EC31          AMOV #$C$FSL6, XAR3 ; |201| 
         00005c BE00 
         00005e 0092+
     363 000060 EB00          MOV XAR3, dbl(*SP(#0))
         000062 B5   
     364              $C$DW$49        .dwtag  DW_TAG_TI_branch
     365                      .dwattr $C$DW$49, DW_AT_low_pc(0x00)
     366                      .dwattr $C$DW$49, DW_AT_name("_printf")
     367                      .dwattr $C$DW$49, DW_AT_TI_call
     368 000063 6C00          CALL #_printf ; |201| 
         000065 0000!
     369                                                      ; call occurs [#_printf] ; |201| 
     370                      .dwpsn  file "../c5535_bsl_revc/ezdsp5535_v1/c55xx_csl/ccs_v4.0_examples/gpt/CSL_GPTExample/csl_gpt_e
     371              $C$DW$50        .dwtag  DW_TAG_TI_branch
     372                      .dwattr $C$DW$50, DW_AT_low_pc(0x00)
     373                      .dwattr $C$DW$50, DW_AT_name("_CSL_gptIntrTest")
     374                      .dwattr $C$DW$50, DW_AT_TI_call
     375 000067 0802          CALL #_CSL_gptIntrTest ; |202| 
         000069 52   
     376                                                      ; call occurs [#_CSL_gptIntrTest] ; |202| 
     377 00006a C404          MOV T0, *SP(#2) ; |202| 
     378                      .dwpsn  file "../c5535_bsl_revc/ezdsp5535_v1/c55xx_csl/ccs_v4.0_examples/gpt/CSL_GPTExample/csl_gpt_e
     379              
     380 00006c A904          MOV *SP(#2), AR1 ; |203| 
     381 00006e 3D1A  ||      MOV #1, AR2
     382              
     383 000070 12AC          CMPU AR2 != AR1, TC1 ; |203| 
         000072 94   
     384 000073 0464          BCC $C$L3,TC1 ; |203| 
         000075 15   
     385                                                      ; branchcc occurs ; |203| 
     386                      .dwpsn  file "../c5535_bsl_revc/ezdsp5535_v1/c55xx_csl/ccs_v4.0_examples/gpt/CSL_GPTExample/csl_gpt_e
     387 000076 EC31          AMOV #$C$FSL7, XAR3 ; |205| 
         000078 BE00 
         00007a 00DC+
     388 00007c EB00          MOV XAR3, dbl(*SP(#0))
         00007e B5   
     389              $C$DW$51        .dwtag  DW_TAG_TI_branch
     390                      .dwattr $C$DW$51, DW_AT_low_pc(0x00)
     391                      .dwattr $C$DW$51, DW_AT_name("_printf")
     392                      .dwattr $C$DW$51, DW_AT_TI_call
     393 00007f 6C00          CALL #_printf ; |205| 
         000081 0000!
     394                                                      ; call occurs [#_printf] ; |205| 
     395                      .dwpsn  file "../c5535_bsl_revc/ezdsp5535_v1/c55xx_csl/ccs_v4.0_examples/gpt/CSL_GPTExample/csl_gpt_e
     396 000083 E631          MOV #0, *(#_PaSs_StAtE) ; |208| 
         000085 0000 
         000087 0005-
TMS320C55x Assembler PC v4.4.1 Sat Sep 29 23:09:39 2018

Tools Copyright (c) 1996-2012 Texas Instruments Incorporated
csl_gpt_example.asm                                                  PAGE    9

     397                      .dwpsn  file "../c5535_bsl_revc/ezdsp5535_v1/c55xx_csl/ccs_v4.0_examples/gpt/CSL_GPTExample/csl_gpt_e
     398 000089 4A0D          B $C$L4   ; |210| 
     399                                                      ; branch occurs ; |210| 
     400 00008b       $C$L3:    
     401                      .dwpsn  file "../c5535_bsl_revc/ezdsp5535_v1/c55xx_csl/ccs_v4.0_examples/gpt/CSL_GPTExample/csl_gpt_e
     402 00008b EC31          AMOV #$C$FSL8, XAR3 ; |213| 
         00008d BE00 
         00008f 010A+
     403 000091 EB00          MOV XAR3, dbl(*SP(#0))
         000093 B5   
     404              $C$DW$52        .dwtag  DW_TAG_TI_branch
     405                      .dwattr $C$DW$52, DW_AT_low_pc(0x00)
     406                      .dwattr $C$DW$52, DW_AT_name("_printf")
     407                      .dwattr $C$DW$52, DW_AT_TI_call
     408 000094 6C00          CALL #_printf ; |213| 
         000096 0000!
     409                                                      ; call occurs [#_printf] ; |213| 
     410 000098       $C$L4:    
     411                      .dwpsn  file "../c5535_bsl_revc/ezdsp5535_v1/c55xx_csl/ccs_v4.0_examples/gpt/CSL_GPTExample/csl_gpt_e
     412 000098 A931          MOV *(#_PaSs_StAtE), AR1 ; |217| 
         00009a 0000 
         00009c 05-  
     413 00009d C931          MOV AR1, *(#_PaSs) ; |217| 
         00009f 0000 
         0000a1 06-  
     414                      .dwpsn  file "../c5535_bsl_revc/ezdsp5535_v1/c55xx_csl/ccs_v4.0_examples/gpt/CSL_GPTExample/csl_gpt_e
     415 0000a2 4E03          AADD #3, SP
     416                      .dwcfi  cfa_offset, 1
     417              $C$DW$53        .dwtag  DW_TAG_TI_branch
     418                      .dwattr $C$DW$53, DW_AT_low_pc(0x00)
     419                      .dwattr $C$DW$53, DW_AT_TI_return
     420 0000a4 4804          RET
     421                                                      ; return occurs
     422                      .dwattr $C$DW$41, DW_AT_TI_end_file("../c5535_bsl_revc/ezdsp5535_v1/c55xx_csl/ccs_v4.0_examples/gpt/C
     423                      .dwattr $C$DW$41, DW_AT_TI_end_line(0xde)
     424                      .dwattr $C$DW$41, DW_AT_TI_end_column(0x01)
     425                      .dwendentry
     426                      .dwendtag $C$DW$41
     427              
     428 0000a6               .sect   ".text"
     429                      .align 4
     430                      .global _CSL_gptCountReadTest
     431              
     432              $C$DW$54        .dwtag  DW_TAG_subprogram, DW_AT_name("CSL_gptCountReadTest")
     433                      .dwattr $C$DW$54, DW_AT_low_pc(_CSL_gptCountReadTest)
     434                      .dwattr $C$DW$54, DW_AT_high_pc(0x00)
     435                      .dwattr $C$DW$54, DW_AT_TI_symbol_name("_CSL_gptCountReadTest")
     436                      .dwattr $C$DW$54, DW_AT_external
     437                      .dwattr $C$DW$54, DW_AT_type(*$C$DW$T$43)
     438                      .dwattr $C$DW$54, DW_AT_TI_begin_file("../c5535_bsl_revc/ezdsp5535_v1/c55xx_csl/ccs_v4.0_examples/gpt
     439                      .dwattr $C$DW$54, DW_AT_TI_begin_line(0xea)
     440                      .dwattr $C$DW$54, DW_AT_TI_begin_column(0x07)
     441                      .dwattr $C$DW$54, DW_AT_TI_max_frame_size(0x14)
     442                      .dwpsn  file "../c5535_bsl_revc/ezdsp5535_v1/c55xx_csl/ccs_v4.0_examples/gpt/CSL_GPTExample/csl_gpt_e
     443              
TMS320C55x Assembler PC v4.4.1 Sat Sep 29 23:09:39 2018

Tools Copyright (c) 1996-2012 Texas Instruments Incorporated
csl_gpt_example.asm                                                  PAGE   10

     444                      .dwfde $C$DW$CIE, _CSL_gptCountReadTest
     445              ;*******************************************************************************
     446              ;* FUNCTION NAME: CSL_gptCountReadTest                                         *
     447              ;*                                                                             *
     448              ;*   Function Uses Regs : AC0,AC0,AC1,AC1,T0,AR0,XAR0,AR1,XAR1,AR2,AR3,XAR3,SP,*
     449              ;*                        CARRY,TC1,M40,SATA,SATD,RDM,FRCT,SMUL                *
     450              ;*   Stack Frame        : Compact (No Frame Pointer, w/ debug)                 *
     451              ;*   Total Frame Size   : 20 words                                             *
     452              ;*                        (1 return address/alignment)                         *
     453              ;*                        (2 function parameters)                              *
     454              ;*                        (17 local values)                                    *
     455              ;*   Min System Stack   : 1 word                                               *
     456              ;*******************************************************************************
     457 0000a8       _CSL_gptCountReadTest:
     458                      .dwcfi  cfa_offset, 1
     459                      .dwcfi  save_reg_to_mem, 91, -1
     460 0000a8 4EED          AADD #-19, SP
     461                      .dwcfi  cfa_offset, 20
     462              $C$DW$55        .dwtag  DW_TAG_variable, DW_AT_name("gptObj")
     463                      .dwattr $C$DW$55, DW_AT_TI_symbol_name("_gptObj")
     464                      .dwattr $C$DW$55, DW_AT_type(*$C$DW$T$40)
     465                      .dwattr $C$DW$55, DW_AT_location[DW_OP_bregx 0x24 2]
     466              $C$DW$56        .dwtag  DW_TAG_variable, DW_AT_name("hGpt")
     467                      .dwattr $C$DW$56, DW_AT_TI_symbol_name("_hGpt")
     468                      .dwattr $C$DW$56, DW_AT_type(*$C$DW$T$42)
     469                      .dwattr $C$DW$56, DW_AT_location[DW_OP_bregx 0x24 6]
     470              $C$DW$57        .dwtag  DW_TAG_variable, DW_AT_name("status")
     471                      .dwattr $C$DW$57, DW_AT_TI_symbol_name("_status")
     472                      .dwattr $C$DW$57, DW_AT_type(*$C$DW$T$44)
     473                      .dwattr $C$DW$57, DW_AT_location[DW_OP_bregx 0x24 8]
     474              $C$DW$58        .dwtag  DW_TAG_variable, DW_AT_name("hwConfig")
     475                      .dwattr $C$DW$58, DW_AT_TI_symbol_name("_hwConfig")
     476                      .dwattr $C$DW$58, DW_AT_type(*$C$DW$T$48)
     477                      .dwattr $C$DW$58, DW_AT_location[DW_OP_bregx 0x24 9]
     478              $C$DW$59        .dwtag  DW_TAG_variable, DW_AT_name("timeCnt1")
     479                      .dwattr $C$DW$59, DW_AT_TI_symbol_name("_timeCnt1")
     480                      .dwattr $C$DW$59, DW_AT_type(*$C$DW$T$59)
     481                      .dwattr $C$DW$59, DW_AT_location[DW_OP_bregx 0x24 14]
     482              $C$DW$60        .dwtag  DW_TAG_variable, DW_AT_name("timeCnt2")
     483                      .dwattr $C$DW$60, DW_AT_TI_symbol_name("_timeCnt2")
     484                      .dwattr $C$DW$60, DW_AT_type(*$C$DW$T$59)
     485                      .dwattr $C$DW$60, DW_AT_location[DW_OP_bregx 0x24 16]
     486              $C$DW$61        .dwtag  DW_TAG_variable, DW_AT_name("delay")
     487                      .dwattr $C$DW$61, DW_AT_TI_symbol_name("_delay")
     488                      .dwattr $C$DW$61, DW_AT_type(*$C$DW$T$20)
     489                      .dwattr $C$DW$61, DW_AT_location[DW_OP_bregx 0x24 18]
     490                      .dwpsn  file "../c5535_bsl_revc/ezdsp5535_v1/c55xx_csl/ccs_v4.0_examples/gpt/CSL_GPTExample/csl_gpt_e
     491 0000aa E631          MOV #0, *(#_hitIsr) ; |244| 
         0000ac 0000 
         0000ae 0004-
     492                      .dwpsn  file "../c5535_bsl_revc/ezdsp5535_v1/c55xx_csl/ccs_v4.0_examples/gpt/CSL_GPTExample/csl_gpt_e
     493 0000b0 E610          MOV #0, *SP(#8) ; |245| 
         0000b2 00   
     494                      .dwpsn  file "../c5535_bsl_revc/ezdsp5535_v1/c55xx_csl/ccs_v4.0_examples/gpt/CSL_GPTExample/csl_gpt_e
     495 0000b3 EC04          AMAR *SP(#2), XAR0
TMS320C55x Assembler PC v4.4.1 Sat Sep 29 23:09:39 2018

Tools Copyright (c) 1996-2012 Texas Instruments Incorporated
csl_gpt_example.asm                                                  PAGE   11

         0000b5 8E   
     496 0000b6 EC10          AMAR *SP(#8), XAR1
         0000b8 9E   
     497              $C$DW$62        .dwtag  DW_TAG_TI_branch
     498                      .dwattr $C$DW$62, DW_AT_low_pc(0x00)
     499                      .dwattr $C$DW$62, DW_AT_name("_GPT_open")
     500                      .dwattr $C$DW$62, DW_AT_TI_call
     501              
     502 0000b9 6C00          CALL #_GPT_open ; |248| 
         0000bb 0000!
     503 0000bd 3D04  ||      MOV #0, T0
     504              
     505                                                      ; call occurs [#_GPT_open] ; |248| 
     506 0000bf EB0C          MOV XAR0, dbl(*SP(#6))
         0000c1 85   
     507                      .dwpsn  file "../c5535_bsl_revc/ezdsp5535_v1/c55xx_csl/ccs_v4.0_examples/gpt/CSL_GPTExample/csl_gpt_e
     508 0000c2 ED0C          MOV dbl(*SP(#6)), XAR3
         0000c4 BF   
     509              
     510 0000c5 90B0          MOV XAR3, AC0
     511 0000c7 3D01  ||      MOV #0, AC1 ; |249| 
     512              
     513 0000c9 1210          CMPU AC1 == AC0, TC1 ; |249| 
         0000cb 04   
     514 0000cc 6564          BCC $C$L5,TC1 ; |249| 
     515                                                      ; branchcc occurs ; |249| 
     516              
     517 0000d0 3D0A          MOV #0, AR2
     518 0000ce A910  ||      MOV *SP(#8), AR1 ; |249| 
     519              
     520 0000d2 12A0          CMP AR2 == AR1, TC1 ; |249| 
         0000d4 90   
     521 0000d5 0464          BCC $C$L6,TC1 ; |249| 
         0000d7 12   
     522                                                      ; branchcc occurs ; |249| 
     523 0000d8       $C$L5:    
     524                      .dwpsn  file "../c5535_bsl_revc/ezdsp5535_v1/c55xx_csl/ccs_v4.0_examples/gpt/CSL_GPTExample/csl_gpt_e
     525 0000d8 EC31          AMOV #$C$FSL9, XAR3 ; |251| 
         0000da BE00 
         0000dc 0138+
     526 0000de EB00          MOV XAR3, dbl(*SP(#0))
         0000e0 B5   
     527              $C$DW$63        .dwtag  DW_TAG_TI_branch
     528                      .dwattr $C$DW$63, DW_AT_low_pc(0x00)
     529                      .dwattr $C$DW$63, DW_AT_name("_printf")
     530                      .dwattr $C$DW$63, DW_AT_TI_call
     531 0000e1 6C00          CALL #_printf ; |251| 
         0000e3 0000!
     532                                                      ; call occurs [#_printf] ; |251| 
     533                      .dwpsn  file "../c5535_bsl_revc/ezdsp5535_v1/c55xx_csl/ccs_v4.0_examples/gpt/CSL_GPTExample/csl_gpt_e
     534 0000e5 3C14          MOV #1, T0
     535 0000e7 0601          B $C$L17  ; |252| 
         0000e9 CB   
     536                                                      ; branch occurs ; |252| 
     537 0000ea       $C$L6:    
TMS320C55x Assembler PC v4.4.1 Sat Sep 29 23:09:39 2018

Tools Copyright (c) 1996-2012 Texas Instruments Incorporated
csl_gpt_example.asm                                                  PAGE   12

     538                      .dwpsn  file "../c5535_bsl_revc/ezdsp5535_v1/c55xx_csl/ccs_v4.0_examples/gpt/CSL_GPTExample/csl_gpt_e
     539 0000ea EC31          AMOV #$C$FSL10, XAR3 ; |256| 
         0000ec BE00 
         0000ee 014A+
     540 0000f0 EB00          MOV XAR3, dbl(*SP(#0))
         0000f2 B5   
     541              $C$DW$64        .dwtag  DW_TAG_TI_branch
     542                      .dwattr $C$DW$64, DW_AT_low_pc(0x00)
     543                      .dwattr $C$DW$64, DW_AT_name("_printf")
     544                      .dwattr $C$DW$64, DW_AT_TI_call
     545 0000f3 6C00          CALL #_printf ; |256| 
         0000f5 0000!
     546                                                      ; call occurs [#_printf] ; |256| 
     547                      .dwpsn  file "../c5535_bsl_revc/ezdsp5535_v1/c55xx_csl/ccs_v4.0_examples/gpt/CSL_GPTExample/csl_gpt_e
     548 0000f7 ED0C          MOV dbl(*SP(#6)), XAR0
         0000f9 8F   
     549              $C$DW$65        .dwtag  DW_TAG_TI_branch
     550                      .dwattr $C$DW$65, DW_AT_low_pc(0x00)
     551                      .dwattr $C$DW$65, DW_AT_name("_GPT_reset")
     552                      .dwattr $C$DW$65, DW_AT_TI_call
     553 0000fa 6C00          CALL #_GPT_reset ; |260| 
         0000fc 0000!
     554                                                      ; call occurs [#_GPT_reset] ; |260| 
     555 0000fe C410          MOV T0, *SP(#8) ; |260| 
     556                      .dwpsn  file "../c5535_bsl_revc/ezdsp5535_v1/c55xx_csl/ccs_v4.0_examples/gpt/CSL_GPTExample/csl_gpt_e
     557              
     558 000100 2249          MOV T0, AR1
     559 000102 3D0A  ||      MOV #0, AR2
     560              
     561 000104 12A0          CMP AR2 == AR1, TC1 ; |261| 
         000106 90   
     562 000107 0464          BCC $C$L7,TC1 ; |261| 
         000109 12   
     563                                                      ; branchcc occurs ; |261| 
     564                      .dwpsn  file "../c5535_bsl_revc/ezdsp5535_v1/c55xx_csl/ccs_v4.0_examples/gpt/CSL_GPTExample/csl_gpt_e
     565 00010a EC31          AMOV #$C$FSL11, XAR3 ; |263| 
         00010c BE00 
         00010e 0160+
     566 000110 EB00          MOV XAR3, dbl(*SP(#0))
         000112 B5   
     567              $C$DW$66        .dwtag  DW_TAG_TI_branch
     568                      .dwattr $C$DW$66, DW_AT_low_pc(0x00)
     569                      .dwattr $C$DW$66, DW_AT_name("_printf")
     570                      .dwattr $C$DW$66, DW_AT_TI_call
     571 000113 6C00          CALL #_printf ; |263| 
         000115 0000!
     572                                                      ; call occurs [#_printf] ; |263| 
     573                      .dwpsn  file "../c5535_bsl_revc/ezdsp5535_v1/c55xx_csl/ccs_v4.0_examples/gpt/CSL_GPTExample/csl_gpt_e
     574 000117 3C14          MOV #1, T0
     575 000119 0601          B $C$L17  ; |264| 
         00011b 99   
     576                                                      ; branch occurs ; |264| 
     577 00011c       $C$L7:    
     578                      .dwpsn  file "../c5535_bsl_revc/ezdsp5535_v1/c55xx_csl/ccs_v4.0_examples/gpt/CSL_GPTExample/csl_gpt_e
     579 00011c EC31          AMOV #$C$FSL12, XAR3 ; |268| 
TMS320C55x Assembler PC v4.4.1 Sat Sep 29 23:09:39 2018

Tools Copyright (c) 1996-2012 Texas Instruments Incorporated
csl_gpt_example.asm                                                  PAGE   13

         00011e BE00 
         000120 0172+
     580 000122 EB00          MOV XAR3, dbl(*SP(#0))
         000124 B5   
     581              $C$DW$67        .dwtag  DW_TAG_TI_branch
     582                      .dwattr $C$DW$67, DW_AT_low_pc(0x00)
     583                      .dwattr $C$DW$67, DW_AT_name("_printf")
     584                      .dwattr $C$DW$67, DW_AT_TI_call
     585 000125 6C00          CALL #_printf ; |268| 
         000127 0000!
     586                                                      ; call occurs [#_printf] ; |268| 
     587                      .dwpsn  file "../c5535_bsl_revc/ezdsp5535_v1/c55xx_csl/ccs_v4.0_examples/gpt/CSL_GPTExample/csl_gpt_e
     588 000129 E612          MOV #1, *SP(#9) ; |272| 
         00012b 01   
     589                      .dwpsn  file "../c5535_bsl_revc/ezdsp5535_v1/c55xx_csl/ccs_v4.0_examples/gpt/CSL_GPTExample/csl_gpt_e
     590 00012c E616          MOV #1, *SP(#11) ; |273| 
         00012e 01   
     591                      .dwpsn  file "../c5535_bsl_revc/ezdsp5535_v1/c55xx_csl/ccs_v4.0_examples/gpt/CSL_GPTExample/csl_gpt_e
     592 00012f E614          MOV #7, *SP(#10) ; |274| 
         000131 07   
     593                      .dwpsn  file "../c5535_bsl_revc/ezdsp5535_v1/c55xx_csl/ccs_v4.0_examples/gpt/CSL_GPTExample/csl_gpt_e
     594 000132 FB18          MOV #65535, *SP(#12) ; |275| 
         000134 FFFF 
     595                      .dwpsn  file "../c5535_bsl_revc/ezdsp5535_v1/c55xx_csl/ccs_v4.0_examples/gpt/CSL_GPTExample/csl_gpt_e
     596 000136 E61A          MOV #0, *SP(#13) ; |276| 
         000138 00   
     597                      .dwpsn  file "../c5535_bsl_revc/ezdsp5535_v1/c55xx_csl/ccs_v4.0_examples/gpt/CSL_GPTExample/csl_gpt_e
     598 000139 EC12          AMAR *SP(#9), XAR1
         00013b 9E   
     599 00013c ED0C          MOV dbl(*SP(#6)), XAR0
         00013e 8F   
     600              $C$DW$68        .dwtag  DW_TAG_TI_branch
     601                      .dwattr $C$DW$68, DW_AT_low_pc(0x00)
     602                      .dwattr $C$DW$68, DW_AT_name("_GPT_config")
     603                      .dwattr $C$DW$68, DW_AT_TI_call
     604 00013f 6C00          CALL #_GPT_config ; |278| 
         000141 0000!
     605                                                      ; call occurs [#_GPT_config] ; |278| 
     606 000143 C410          MOV T0, *SP(#8) ; |278| 
     607                      .dwpsn  file "../c5535_bsl_revc/ezdsp5535_v1/c55xx_csl/ccs_v4.0_examples/gpt/CSL_GPTExample/csl_gpt_e
     608              
     609 000145 2249          MOV T0, AR1
     610 000147 3D0A  ||      MOV #0, AR2
     611              
     612 000149 12A0          CMP AR2 == AR1, TC1 ; |279| 
         00014b 90   
     613 00014c 0464          BCC $C$L8,TC1 ; |279| 
         00014e 12   
     614                                                      ; branchcc occurs ; |279| 
     615                      .dwpsn  file "../c5535_bsl_revc/ezdsp5535_v1/c55xx_csl/ccs_v4.0_examples/gpt/CSL_GPTExample/csl_gpt_e
     616 00014f EC31          AMOV #$C$FSL13, XAR3 ; |281| 
         000151 BE00 
         000153 0188+
     617 000155 EB00          MOV XAR3, dbl(*SP(#0))
         000157 B5   
TMS320C55x Assembler PC v4.4.1 Sat Sep 29 23:09:39 2018

Tools Copyright (c) 1996-2012 Texas Instruments Incorporated
csl_gpt_example.asm                                                  PAGE   14

     618              $C$DW$69        .dwtag  DW_TAG_TI_branch
     619                      .dwattr $C$DW$69, DW_AT_low_pc(0x00)
     620                      .dwattr $C$DW$69, DW_AT_name("_printf")
     621                      .dwattr $C$DW$69, DW_AT_TI_call
     622 000158 6C00          CALL #_printf ; |281| 
         00015a 0000!
     623                                                      ; call occurs [#_printf] ; |281| 
     624                      .dwpsn  file "../c5535_bsl_revc/ezdsp5535_v1/c55xx_csl/ccs_v4.0_examples/gpt/CSL_GPTExample/csl_gpt_e
     625 00015c 3C14          MOV #1, T0
     626 00015e 0601          B $C$L17  ; |282| 
         000160 54   
     627                                                      ; branch occurs ; |282| 
     628 000161       $C$L8:    
     629                      .dwpsn  file "../c5535_bsl_revc/ezdsp5535_v1/c55xx_csl/ccs_v4.0_examples/gpt/CSL_GPTExample/csl_gpt_e
     630 000161 EC31          AMOV #$C$FSL14, XAR3 ; |286| 
         000163 BE00 
         000165 019C+
     631 000167 EB00          MOV XAR3, dbl(*SP(#0))
         000169 B5   
     632              $C$DW$70        .dwtag  DW_TAG_TI_branch
     633                      .dwattr $C$DW$70, DW_AT_low_pc(0x00)
     634                      .dwattr $C$DW$70, DW_AT_name("_printf")
     635                      .dwattr $C$DW$70, DW_AT_TI_call
     636 00016a 6C00          CALL #_printf ; |286| 
         00016c 0000!
     637                                                      ; call occurs [#_printf] ; |286| 
     638                      .dwpsn  file "../c5535_bsl_revc/ezdsp5535_v1/c55xx_csl/ccs_v4.0_examples/gpt/CSL_GPTExample/csl_gpt_e
     639 00016e ED0C          MOV dbl(*SP(#6)), XAR0
         000170 8F   
     640              $C$DW$71        .dwtag  DW_TAG_TI_branch
     641                      .dwattr $C$DW$71, DW_AT_low_pc(0x00)
     642                      .dwattr $C$DW$71, DW_AT_name("_GPT_start")
     643                      .dwattr $C$DW$71, DW_AT_TI_call
     644 000171 6C00          CALL #_GPT_start ; |290| 
         000173 0000!
     645                                                      ; call occurs [#_GPT_start] ; |290| 
     646 000175 C410          MOV T0, *SP(#8) ; |290| 
     647                      .dwpsn  file "../c5535_bsl_revc/ezdsp5535_v1/c55xx_csl/ccs_v4.0_examples/gpt/CSL_GPTExample/csl_gpt_e
     648              
     649 000177 2249          MOV T0, AR1
     650 000179 3D0A  ||      MOV #0, AR2
     651              
     652 00017b 12A0          CMP AR2 == AR1, TC1 ; |291| 
         00017d 90   
     653 00017e 0464          BCC $C$L9,TC1 ; |291| 
         000180 12   
     654                                                      ; branchcc occurs ; |291| 
     655                      .dwpsn  file "../c5535_bsl_revc/ezdsp5535_v1/c55xx_csl/ccs_v4.0_examples/gpt/CSL_GPTExample/csl_gpt_e
     656 000181 EC31          AMOV #$C$FSL15, XAR3 ; |293| 
         000183 BE00 
         000185 01B4+
     657 000187 EB00          MOV XAR3, dbl(*SP(#0))
         000189 B5   
     658              $C$DW$72        .dwtag  DW_TAG_TI_branch
     659                      .dwattr $C$DW$72, DW_AT_low_pc(0x00)
TMS320C55x Assembler PC v4.4.1 Sat Sep 29 23:09:39 2018

Tools Copyright (c) 1996-2012 Texas Instruments Incorporated
csl_gpt_example.asm                                                  PAGE   15

     660                      .dwattr $C$DW$72, DW_AT_name("_printf")
     661                      .dwattr $C$DW$72, DW_AT_TI_call
     662 00018a 6C00          CALL #_printf ; |293| 
         00018c 0000!
     663                                                      ; call occurs [#_printf] ; |293| 
     664                      .dwpsn  file "../c5535_bsl_revc/ezdsp5535_v1/c55xx_csl/ccs_v4.0_examples/gpt/CSL_GPTExample/csl_gpt_e
     665 00018e 3C14          MOV #1, T0
     666 000190 0601          B $C$L17  ; |294| 
         000192 22   
     667                                                      ; branch occurs ; |294| 
     668 000193       $C$L9:    
     669                      .dwpsn  file "../c5535_bsl_revc/ezdsp5535_v1/c55xx_csl/ccs_v4.0_examples/gpt/CSL_GPTExample/csl_gpt_e
     670 000193 ED0C          MOV dbl(*SP(#6)), XAR0
         000195 8F   
     671 000196 EC1C          AMAR *SP(#14), XAR1
         000198 9E   
     672              $C$DW$73        .dwtag  DW_TAG_TI_branch
     673                      .dwattr $C$DW$73, DW_AT_low_pc(0x00)
     674                      .dwattr $C$DW$73, DW_AT_name("_GPT_getCnt")
     675                      .dwattr $C$DW$73, DW_AT_TI_call
     676 000199 6C00          CALL #_GPT_getCnt ; |298| 
         00019b 0000!
     677                                                      ; call occurs [#_GPT_getCnt] ; |298| 
     678 00019d C410          MOV T0, *SP(#8) ; |298| 
     679                      .dwpsn  file "../c5535_bsl_revc/ezdsp5535_v1/c55xx_csl/ccs_v4.0_examples/gpt/CSL_GPTExample/csl_gpt_e
     680              
     681 00019f 2249          MOV T0, AR1
     682 0001a1 3D0A  ||      MOV #0, AR2
     683              
     684 0001a3 12A0          CMP AR2 == AR1, TC1 ; |299| 
         0001a5 90   
     685 0001a6 0464          BCC $C$L10,TC1 ; |299| 
         0001a8 12   
     686                                                      ; branchcc occurs ; |299| 
     687                      .dwpsn  file "../c5535_bsl_revc/ezdsp5535_v1/c55xx_csl/ccs_v4.0_examples/gpt/CSL_GPTExample/csl_gpt_e
     688 0001a9 EC31          AMOV #$C$FSL16, XAR3 ; |301| 
         0001ab BE00 
         0001ad 01C6+
     689 0001af EB00          MOV XAR3, dbl(*SP(#0))
         0001b1 B5   
     690              $C$DW$74        .dwtag  DW_TAG_TI_branch
     691                      .dwattr $C$DW$74, DW_AT_low_pc(0x00)
     692                      .dwattr $C$DW$74, DW_AT_name("_printf")
     693                      .dwattr $C$DW$74, DW_AT_TI_call
     694 0001b2 6C00          CALL #_printf ; |301| 
         0001b4 0000!
     695                                                      ; call occurs [#_printf] ; |301| 
     696                      .dwpsn  file "../c5535_bsl_revc/ezdsp5535_v1/c55xx_csl/ccs_v4.0_examples/gpt/CSL_GPTExample/csl_gpt_e
     697 0001b6 3C14          MOV #1, T0
     698 0001b8 0600          B $C$L17  ; |302| 
         0001ba FA   
     699                                                      ; branch occurs ; |302| 
     700 0001bb       $C$L10:    
     701                      .dwpsn  file "../c5535_bsl_revc/ezdsp5535_v1/c55xx_csl/ccs_v4.0_examples/gpt/CSL_GPTExample/csl_gpt_e
     702 0001bb EC31          AMOV #$C$FSL17, XAR3 ; |306| 
TMS320C55x Assembler PC v4.4.1 Sat Sep 29 23:09:39 2018

Tools Copyright (c) 1996-2012 Texas Instruments Incorporated
csl_gpt_example.asm                                                  PAGE   16

         0001bd BE00 
         0001bf 01DC+
     703 0001c1 EB00          MOV XAR3, dbl(*SP(#0))
         0001c3 B5   
     704              $C$DW$75        .dwtag  DW_TAG_TI_branch
     705                      .dwattr $C$DW$75, DW_AT_low_pc(0x00)
     706                      .dwattr $C$DW$75, DW_AT_name("_printf")
     707                      .dwattr $C$DW$75, DW_AT_TI_call
     708 0001c4 6C00          CALL #_printf ; |306| 
         0001c6 0000!
     709                                                      ; call occurs [#_printf] ; |306| 
     710                      .dwpsn  file "../c5535_bsl_revc/ezdsp5535_v1/c55xx_csl/ccs_v4.0_examples/gpt/CSL_GPTExample/csl_gpt_e
     711 0001c8 E624          MOV #0, *SP(#18) ; |310| 
         0001ca 00   
     712 0001cb 20            NOP
     713 0001cc 20            NOP
     714                      .dwpsn  file "../c5535_bsl_revc/ezdsp5535_v1/c55xx_csl/ccs_v4.0_examples/gpt/CSL_GPTExample/csl_gpt_e
     715 0001cd 7600          MOV #100, AR2 ; |310| 
         0001cf 64A8 
     716 0001d1 A924          MOV *SP(#18), AR1 ; |310| 
     717 0001d3 1298          CMPU AR1 >= AR2, TC1 ; |310| 
         0001d5 A4   
     718 0001d6 67E4          BCC $C$L12,TC1 ; |310| 
     719                                                      ; branchcc occurs ; |310| 
     720 0001d8       $C$L11:    
     721 0001d8       $C$DW$L$_CSL_gptCountReadTest$17$B:
     722                      .dwpsn  file "../c5535_bsl_revc/ezdsp5535_v1/c55xx_csl/ccs_v4.0_examples/gpt/CSL_GPTExample/csl_gpt_e
     723 0001d8 F724          ADD #1, *SP(#18) ; |310| 
         0001da 0001 
     724 0001dc 20            NOP
     725 0001dd 20            NOP
     726 0001de 20            NOP
     727                      .dwpsn  file "../c5535_bsl_revc/ezdsp5535_v1/c55xx_csl/ccs_v4.0_examples/gpt/CSL_GPTExample/csl_gpt_e
     728 0001df A924          MOV *SP(#18), AR1 ; |310| 
     729 0001e1 1294          CMPU AR1 < AR2, TC1 ; |310| 
         0001e3 A4   
     730 0001e4 0464          BCC $C$L11,TC1 ; |310| 
         0001e6 F1   
     731                                                      ; branchcc occurs ; |310| 
     732 0001e7       $C$DW$L$_CSL_gptCountReadTest$17$E:
     733 0001e7       $C$L12:    
     734                      .dwpsn  file "../c5535_bsl_revc/ezdsp5535_v1/c55xx_csl/ccs_v4.0_examples/gpt/CSL_GPTExample/csl_gpt_e
     735 0001e7 ED0C          MOV dbl(*SP(#6)), XAR0
         0001e9 8F   
     736 0001ea EC20          AMAR *SP(#16), XAR1
         0001ec 9E   
     737              $C$DW$76        .dwtag  DW_TAG_TI_branch
     738                      .dwattr $C$DW$76, DW_AT_low_pc(0x00)
     739                      .dwattr $C$DW$76, DW_AT_name("_GPT_getCnt")
     740                      .dwattr $C$DW$76, DW_AT_TI_call
     741 0001ed 6C00          CALL #_GPT_getCnt ; |313| 
         0001ef 0000!
     742                                                      ; call occurs [#_GPT_getCnt] ; |313| 
     743 0001f1 C410          MOV T0, *SP(#8) ; |313| 
     744                      .dwpsn  file "../c5535_bsl_revc/ezdsp5535_v1/c55xx_csl/ccs_v4.0_examples/gpt/CSL_GPTExample/csl_gpt_e
TMS320C55x Assembler PC v4.4.1 Sat Sep 29 23:09:39 2018

Tools Copyright (c) 1996-2012 Texas Instruments Incorporated
csl_gpt_example.asm                                                  PAGE   17

     745              
     746 0001f3 2249          MOV T0, AR1
     747 0001f5 3D0A  ||      MOV #0, AR2
     748              
     749 0001f7 12A0          CMP AR2 == AR1, TC1 ; |314| 
         0001f9 90   
     750 0001fa 0464          BCC $C$L13,TC1 ; |314| 
         0001fc 12   
     751                                                      ; branchcc occurs ; |314| 
     752                      .dwpsn  file "../c5535_bsl_revc/ezdsp5535_v1/c55xx_csl/ccs_v4.0_examples/gpt/CSL_GPTExample/csl_gpt_e
     753 0001fd EC31          AMOV #$C$FSL18, XAR3 ; |316| 
         0001ff BE00 
         000201 01F4+
     754 000203 EB00          MOV XAR3, dbl(*SP(#0))
         000205 B5   
     755              $C$DW$77        .dwtag  DW_TAG_TI_branch
     756                      .dwattr $C$DW$77, DW_AT_low_pc(0x00)
     757                      .dwattr $C$DW$77, DW_AT_name("_printf")
     758                      .dwattr $C$DW$77, DW_AT_TI_call
     759 000206 6C00          CALL #_printf ; |316| 
         000208 0000!
     760                                                      ; call occurs [#_printf] ; |316| 
     761                      .dwpsn  file "../c5535_bsl_revc/ezdsp5535_v1/c55xx_csl/ccs_v4.0_examples/gpt/CSL_GPTExample/csl_gpt_e
     762 00020a 3C14          MOV #1, T0
     763 00020c 0600          B $C$L17  ; |317| 
         00020e A6   
     764                                                      ; branch occurs ; |317| 
     765 00020f       $C$L13:    
     766                      .dwpsn  file "../c5535_bsl_revc/ezdsp5535_v1/c55xx_csl/ccs_v4.0_examples/gpt/CSL_GPTExample/csl_gpt_e
     767 00020f EC31          AMOV #$C$FSL19, XAR3 ; |321| 
         000211 BE00 
         000213 020A+
     768 000215 EB00          MOV XAR3, dbl(*SP(#0))
         000217 B5   
     769              $C$DW$78        .dwtag  DW_TAG_TI_branch
     770                      .dwattr $C$DW$78, DW_AT_low_pc(0x00)
     771                      .dwattr $C$DW$78, DW_AT_name("_printf")
     772                      .dwattr $C$DW$78, DW_AT_TI_call
     773 000218 6C00          CALL #_printf ; |321| 
         00021a 0000!
     774                                                      ; call occurs [#_printf] ; |321| 
     775                      .dwpsn  file "../c5535_bsl_revc/ezdsp5535_v1/c55xx_csl/ccs_v4.0_examples/gpt/CSL_GPTExample/csl_gpt_e
     776 00021c ED1C          MOV dbl(*SP(#14)), AC0 ; |325| 
         00021e 08   
     777 00021f ED20          MOV dbl(*SP(#16)), AC1 ; |325| 
         000221 18   
     778 000222 1214          CMPU AC1 < AC0, TC1 ; |325| 
         000224 04   
     779 000225 0464          BCC $C$L14,TC1 ; |325| 
         000227 12   
     780                                                      ; branchcc occurs ; |325| 
     781                      .dwpsn  file "../c5535_bsl_revc/ezdsp5535_v1/c55xx_csl/ccs_v4.0_examples/gpt/CSL_GPTExample/csl_gpt_e
     782 000228 EC31          AMOV #$C$FSL20, XAR3 ; |327| 
         00022a BE00 
         00022c 0220+
TMS320C55x Assembler PC v4.4.1 Sat Sep 29 23:09:39 2018

Tools Copyright (c) 1996-2012 Texas Instruments Incorporated
csl_gpt_example.asm                                                  PAGE   18

     783 00022e EB00          MOV XAR3, dbl(*SP(#0))
         000230 B5   
     784              $C$DW$79        .dwtag  DW_TAG_TI_branch
     785                      .dwattr $C$DW$79, DW_AT_low_pc(0x00)
     786                      .dwattr $C$DW$79, DW_AT_name("_printf")
     787                      .dwattr $C$DW$79, DW_AT_TI_call
     788 000231 6C00          CALL #_printf ; |327| 
         000233 0000!
     789                                                      ; call occurs [#_printf] ; |327| 
     790                      .dwpsn  file "../c5535_bsl_revc/ezdsp5535_v1/c55xx_csl/ccs_v4.0_examples/gpt/CSL_GPTExample/csl_gpt_e
     791 000235 3C14          MOV #1, T0
     792 000237 0600          B $C$L17  ; |328| 
         000239 7B   
     793                                                      ; branch occurs ; |328| 
     794 00023a       $C$L14:    
     795                      .dwpsn  file "../c5535_bsl_revc/ezdsp5535_v1/c55xx_csl/ccs_v4.0_examples/gpt/CSL_GPTExample/csl_gpt_e
     796 00023a EC31          AMOV #$C$FSL21, XAR3 ; |332| 
         00023c BE00 
         00023e 0240+
     797 000240 EB00          MOV XAR3, dbl(*SP(#0))
         000242 B5   
     798              $C$DW$80        .dwtag  DW_TAG_TI_branch
     799                      .dwattr $C$DW$80, DW_AT_low_pc(0x00)
     800                      .dwattr $C$DW$80, DW_AT_name("_printf")
     801                      .dwattr $C$DW$80, DW_AT_TI_call
     802 000243 6C00          CALL #_printf ; |332| 
         000245 0000!
     803                                                      ; call occurs [#_printf] ; |332| 
     804                      .dwpsn  file "../c5535_bsl_revc/ezdsp5535_v1/c55xx_csl/ccs_v4.0_examples/gpt/CSL_GPTExample/csl_gpt_e
     805 000247 ED0C          MOV dbl(*SP(#6)), XAR0
         000249 8F   
     806              $C$DW$81        .dwtag  DW_TAG_TI_branch
     807                      .dwattr $C$DW$81, DW_AT_low_pc(0x00)
     808                      .dwattr $C$DW$81, DW_AT_name("_GPT_stop")
     809                      .dwattr $C$DW$81, DW_AT_TI_call
     810 00024a 6C00          CALL #_GPT_stop ; |336| 
         00024c 0000!
     811                                                      ; call occurs [#_GPT_stop] ; |336| 
     812 00024e C410          MOV T0, *SP(#8) ; |336| 
     813                      .dwpsn  file "../c5535_bsl_revc/ezdsp5535_v1/c55xx_csl/ccs_v4.0_examples/gpt/CSL_GPTExample/csl_gpt_e
     814              
     815 000250 2249          MOV T0, AR1
     816 000252 3D0A  ||      MOV #0, AR2
     817              
     818 000254 12A0          CMP AR2 == AR1, TC1 ; |337| 
         000256 90   
     819 000257 0464          BCC $C$L15,TC1 ; |337| 
         000259 12   
     820                                                      ; branchcc occurs ; |337| 
     821                      .dwpsn  file "../c5535_bsl_revc/ezdsp5535_v1/c55xx_csl/ccs_v4.0_examples/gpt/CSL_GPTExample/csl_gpt_e
     822 00025a EC31          AMOV #$C$FSL22, XAR3 ; |339| 
         00025c BE00 
         00025e 0264+
     823 000260 EB00          MOV XAR3, dbl(*SP(#0))
         000262 B5   
TMS320C55x Assembler PC v4.4.1 Sat Sep 29 23:09:39 2018

Tools Copyright (c) 1996-2012 Texas Instruments Incorporated
csl_gpt_example.asm                                                  PAGE   19

     824              $C$DW$82        .dwtag  DW_TAG_TI_branch
     825                      .dwattr $C$DW$82, DW_AT_low_pc(0x00)
     826                      .dwattr $C$DW$82, DW_AT_name("_printf")
     827                      .dwattr $C$DW$82, DW_AT_TI_call
     828 000263 6C00          CALL #_printf ; |339| 
         000265 0000!
     829                                                      ; call occurs [#_printf] ; |339| 
     830                      .dwpsn  file "../c5535_bsl_revc/ezdsp5535_v1/c55xx_csl/ccs_v4.0_examples/gpt/CSL_GPTExample/csl_gpt_e
     831 000267 3C14          MOV #1, T0
     832 000269 0600          B $C$L17  ; |340| 
         00026b 49   
     833                                                      ; branch occurs ; |340| 
     834 00026c       $C$L15:    
     835                      .dwpsn  file "../c5535_bsl_revc/ezdsp5535_v1/c55xx_csl/ccs_v4.0_examples/gpt/CSL_GPTExample/csl_gpt_e
     836 00026c EC31          AMOV #$C$FSL23, XAR3 ; |344| 
         00026e BE00 
         000270 0276+
     837 000272 EB00          MOV XAR3, dbl(*SP(#0))
         000274 B5   
     838              $C$DW$83        .dwtag  DW_TAG_TI_branch
     839                      .dwattr $C$DW$83, DW_AT_low_pc(0x00)
     840                      .dwattr $C$DW$83, DW_AT_name("_printf")
     841                      .dwattr $C$DW$83, DW_AT_TI_call
     842 000275 6C00          CALL #_printf ; |344| 
         000277 0000!
     843                                                      ; call occurs [#_printf] ; |344| 
     844                      .dwpsn  file "../c5535_bsl_revc/ezdsp5535_v1/c55xx_csl/ccs_v4.0_examples/gpt/CSL_GPTExample/csl_gpt_e
     845 000279 ED0C          MOV dbl(*SP(#6)), XAR0
         00027b 8F   
     846              $C$DW$84        .dwtag  DW_TAG_TI_branch
     847                      .dwattr $C$DW$84, DW_AT_low_pc(0x00)
     848                      .dwattr $C$DW$84, DW_AT_name("_GPT_reset")
     849                      .dwattr $C$DW$84, DW_AT_TI_call
     850 00027c 6C00          CALL #_GPT_reset ; |348| 
         00027e 0000!
     851                                                      ; call occurs [#_GPT_reset] ; |348| 
     852 000280 C410          MOV T0, *SP(#8) ; |348| 
     853                      .dwpsn  file "../c5535_bsl_revc/ezdsp5535_v1/c55xx_csl/ccs_v4.0_examples/gpt/CSL_GPTExample/csl_gpt_e
     854 000282 ED0C          MOV dbl(*SP(#6)), XAR0
         000284 8F   
     855              $C$DW$85        .dwtag  DW_TAG_TI_branch
     856                      .dwattr $C$DW$85, DW_AT_low_pc(0x00)
     857                      .dwattr $C$DW$85, DW_AT_name("_GPT_close")
     858                      .dwattr $C$DW$85, DW_AT_TI_call
     859 000285 6C00          CALL #_GPT_close ; |351| 
         000287 0000!
     860                                                      ; call occurs [#_GPT_close] ; |351| 
     861 000289 C410          MOV T0, *SP(#8) ; |351| 
     862                      .dwpsn  file "../c5535_bsl_revc/ezdsp5535_v1/c55xx_csl/ccs_v4.0_examples/gpt/CSL_GPTExample/csl_gpt_e
     863              
     864 00028b 2249          MOV T0, AR1
     865 00028d 3D0A  ||      MOV #0, AR2
     866              
     867 00028f 12A0          CMP AR2 == AR1, TC1 ; |352| 
         000291 90   
TMS320C55x Assembler PC v4.4.1 Sat Sep 29 23:09:39 2018

Tools Copyright (c) 1996-2012 Texas Instruments Incorporated
csl_gpt_example.asm                                                  PAGE   20

     868 000292 0464          BCC $C$L16,TC1 ; |352| 
         000294 11   
     869                                                      ; branchcc occurs ; |352| 
     870                      .dwpsn  file "../c5535_bsl_revc/ezdsp5535_v1/c55xx_csl/ccs_v4.0_examples/gpt/CSL_GPTExample/csl_gpt_e
     871 000295 EC31          AMOV #$C$FSL24, XAR3 ; |354| 
         000297 BE00 
         000299 028C+
     872 00029b EB00          MOV XAR3, dbl(*SP(#0))
         00029d B5   
     873              $C$DW$86        .dwtag  DW_TAG_TI_branch
     874                      .dwattr $C$DW$86, DW_AT_low_pc(0x00)
     875                      .dwattr $C$DW$86, DW_AT_name("_printf")
     876                      .dwattr $C$DW$86, DW_AT_TI_call
     877 00029e 6C00          CALL #_printf ; |354| 
         0002a0 0000!
     878                                                      ; call occurs [#_printf] ; |354| 
     879                      .dwpsn  file "../c5535_bsl_revc/ezdsp5535_v1/c55xx_csl/ccs_v4.0_examples/gpt/CSL_GPTExample/csl_gpt_e
     880 0002a2 3C14          MOV #1, T0
     881 0002a4 4A0F          B $C$L17  ; |355| 
     882                                                      ; branch occurs ; |355| 
     883 0002a6       $C$L16:    
     884                      .dwpsn  file "../c5535_bsl_revc/ezdsp5535_v1/c55xx_csl/ccs_v4.0_examples/gpt/CSL_GPTExample/csl_gpt_e
     885 0002a6 EC31          AMOV #$C$FSL25, XAR3 ; |359| 
         0002a8 BE00 
         0002aa 029E+
     886 0002ac EB00          MOV XAR3, dbl(*SP(#0))
         0002ae B5   
     887              $C$DW$87        .dwtag  DW_TAG_TI_branch
     888                      .dwattr $C$DW$87, DW_AT_low_pc(0x00)
     889                      .dwattr $C$DW$87, DW_AT_name("_printf")
     890                      .dwattr $C$DW$87, DW_AT_TI_call
     891 0002af 6C00          CALL #_printf ; |359| 
         0002b1 0000!
     892                                                      ; call occurs [#_printf] ; |359| 
     893                      .dwpsn  file "../c5535_bsl_revc/ezdsp5535_v1/c55xx_csl/ccs_v4.0_examples/gpt/CSL_GPTExample/csl_gpt_e
     894 0002b3 3C04          MOV #0, T0
     895 0002b5       $C$L17:    
     896                      .dwpsn  file "../c5535_bsl_revc/ezdsp5535_v1/c55xx_csl/ccs_v4.0_examples/gpt/CSL_GPTExample/csl_gpt_e
     897 0002b5 4E13          AADD #19, SP
     898                      .dwcfi  cfa_offset, 1
     899              $C$DW$88        .dwtag  DW_TAG_TI_branch
     900                      .dwattr $C$DW$88, DW_AT_low_pc(0x00)
     901                      .dwattr $C$DW$88, DW_AT_TI_return
     902 0002b7 4804          RET
     903                                                      ; return occurs
     904              
     905              $C$DW$89        .dwtag  DW_TAG_TI_loop
     906                      .dwattr $C$DW$89, DW_AT_name("F:\eZdsp_DBG\tmp1\c55x-sim2\foo\Debug\csl_gpt_example.asm:$C$L11:1:1538
     907                      .dwattr $C$DW$89, DW_AT_TI_begin_file("../c5535_bsl_revc/ezdsp5535_v1/c55xx_csl/ccs_v4.0_examples/gpt
     908                      .dwattr $C$DW$89, DW_AT_TI_begin_line(0x136)
     909                      .dwattr $C$DW$89, DW_AT_TI_end_line(0x136)
     910              $C$DW$90        .dwtag  DW_TAG_TI_loop_range
     911                      .dwattr $C$DW$90, DW_AT_low_pc($C$DW$L$_CSL_gptCountReadTest$17$B)
     912                      .dwattr $C$DW$90, DW_AT_high_pc($C$DW$L$_CSL_gptCountReadTest$17$E)
     913                      .dwendtag $C$DW$89
TMS320C55x Assembler PC v4.4.1 Sat Sep 29 23:09:39 2018

Tools Copyright (c) 1996-2012 Texas Instruments Incorporated
csl_gpt_example.asm                                                  PAGE   21

     914              
     915                      .dwattr $C$DW$54, DW_AT_TI_end_file("../c5535_bsl_revc/ezdsp5535_v1/c55xx_csl/ccs_v4.0_examples/gpt/C
     916                      .dwattr $C$DW$54, DW_AT_TI_end_line(0x16b)
     917                      .dwattr $C$DW$54, DW_AT_TI_end_column(0x01)
     918                      .dwendentry
     919                      .dwendtag $C$DW$54
     920              
     921 0002b9               .sect   ".text"
     922                      .align 4
     923                      .global _CSL_gptIntrTest
     924              
     925              $C$DW$91        .dwtag  DW_TAG_subprogram, DW_AT_name("CSL_gptIntrTest")
     926                      .dwattr $C$DW$91, DW_AT_low_pc(_CSL_gptIntrTest)
     927                      .dwattr $C$DW$91, DW_AT_high_pc(0x00)
     928                      .dwattr $C$DW$91, DW_AT_TI_symbol_name("_CSL_gptIntrTest")
     929                      .dwattr $C$DW$91, DW_AT_external
     930                      .dwattr $C$DW$91, DW_AT_type(*$C$DW$T$43)
     931                      .dwattr $C$DW$91, DW_AT_TI_begin_file("../c5535_bsl_revc/ezdsp5535_v1/c55xx_csl/ccs_v4.0_examples/gpt
     932                      .dwattr $C$DW$91, DW_AT_TI_begin_line(0x181)
     933                      .dwattr $C$DW$91, DW_AT_TI_begin_column(0x07)
     934                      .dwattr $C$DW$91, DW_AT_TI_max_frame_size(0x14)
     935                      .dwpsn  file "../c5535_bsl_revc/ezdsp5535_v1/c55xx_csl/ccs_v4.0_examples/gpt/CSL_GPTExample/csl_gpt_e
     936              
     937                      .dwfde $C$DW$CIE, _CSL_gptIntrTest
     938              ;*******************************************************************************
     939              ;* FUNCTION NAME: CSL_gptIntrTest                                              *
     940              ;*                                                                             *
     941              ;*   Function Uses Regs : AC0,AC0,AC1,AC1,T0,AR0,XAR0,AR1,XAR1,AR2,AR3,XAR3,SP,*
     942              ;*                        CARRY,TC1,M40,SATA,SATD,RDM,FRCT,SMUL                *
     943              ;*   Stack Frame        : Compact (No Frame Pointer, w/ debug)                 *
     944              ;*   Total Frame Size   : 20 words                                             *
     945              ;*                        (2 return address/alignment)                         *
     946              ;*                        (4 function parameters)                              *
     947              ;*                        (14 local values)                                    *
     948              ;*   Min System Stack   : 1 word                                               *
     949              ;*******************************************************************************
     950 0002bc       _CSL_gptIntrTest:
     951                      .dwcfi  cfa_offset, 1
     952                      .dwcfi  save_reg_to_mem, 91, -1
     953 0002bc 4EED          AADD #-19, SP
     954                      .dwcfi  cfa_offset, 20
     955              $C$DW$92        .dwtag  DW_TAG_variable, DW_AT_name("hGpt")
     956                      .dwattr $C$DW$92, DW_AT_TI_symbol_name("_hGpt")
     957                      .dwattr $C$DW$92, DW_AT_type(*$C$DW$T$42)
     958                      .dwattr $C$DW$92, DW_AT_location[DW_OP_bregx 0x24 4]
     959              $C$DW$93        .dwtag  DW_TAG_variable, DW_AT_name("status")
     960                      .dwattr $C$DW$93, DW_AT_TI_symbol_name("_status")
     961                      .dwattr $C$DW$93, DW_AT_type(*$C$DW$T$44)
     962                      .dwattr $C$DW$93, DW_AT_location[DW_OP_bregx 0x24 6]
     963              $C$DW$94        .dwtag  DW_TAG_variable, DW_AT_name("hwConfig")
     964                      .dwattr $C$DW$94, DW_AT_TI_symbol_name("_hwConfig")
     965                      .dwattr $C$DW$94, DW_AT_type(*$C$DW$T$48)
     966                      .dwattr $C$DW$94, DW_AT_location[DW_OP_bregx 0x24 7]
     967              $C$DW$95        .dwtag  DW_TAG_variable, DW_AT_name("gptObj")
     968                      .dwattr $C$DW$95, DW_AT_TI_symbol_name("_gptObj")
TMS320C55x Assembler PC v4.4.1 Sat Sep 29 23:09:39 2018

Tools Copyright (c) 1996-2012 Texas Instruments Incorporated
csl_gpt_example.asm                                                  PAGE   22

     969                      .dwattr $C$DW$95, DW_AT_type(*$C$DW$T$40)
     970                      .dwattr $C$DW$95, DW_AT_location[DW_OP_bregx 0x24 12]
     971              $C$DW$96        .dwtag  DW_TAG_variable, DW_AT_name("cpuCycleDelta")
     972                      .dwattr $C$DW$96, DW_AT_TI_symbol_name("_cpuCycleDelta")
     973                      .dwattr $C$DW$96, DW_AT_type(*$C$DW$T$59)
     974                      .dwattr $C$DW$96, DW_AT_location[DW_OP_bregx 0x24 16]
     975                      .dwpsn  file "../c5535_bsl_revc/ezdsp5535_v1/c55xx_csl/ccs_v4.0_examples/gpt/CSL_GPTExample/csl_gpt_e
     976 0002be E631          MOV #0, *(#_hitIsr) ; |393| 
         0002c0 0000 
         0002c2 0004-
     977                      .dwpsn  file "../c5535_bsl_revc/ezdsp5535_v1/c55xx_csl/ccs_v4.0_examples/gpt/CSL_GPTExample/csl_gpt_e
     978 0002c4 E60C          MOV #0, *SP(#6) ; |394| 
         0002c6 00   
     979                      .dwpsn  file "../c5535_bsl_revc/ezdsp5535_v1/c55xx_csl/ccs_v4.0_examples/gpt/CSL_GPTExample/csl_gpt_e
     980              $C$DW$97        .dwtag  DW_TAG_TI_branch
     981                      .dwattr $C$DW$97, DW_AT_low_pc(0x00)
     982                      .dwattr $C$DW$97, DW_AT_name("_getSysClk")
     983                      .dwattr $C$DW$97, DW_AT_TI_call
     984 0002c7 0802          CALL #_getSysClk ; |397| 
         0002c9 9A   
     985                                                      ; call occurs [#_getSysClk] ; |397| 
     986 0002ca EB31          MOV AC0, dbl(*(#_sysClk)) ; |397| 
         0002cc 0800 
         0002ce 0002-
     987                      .dwpsn  file "../c5535_bsl_revc/ezdsp5535_v1/c55xx_csl/ccs_v4.0_examples/gpt/CSL_GPTExample/csl_gpt_e
     988 0002d0 7600          MOV #100, AC1 ; |400| 
         0002d2 6418 
     989 0002d4 ED31          MOV dbl(*(#_sysClk)), AC0 ; |400| 
         0002d6 0800 
         0002d8 0002-
     990              $C$DW$98        .dwtag  DW_TAG_TI_branch
     991                      .dwattr $C$DW$98, DW_AT_low_pc(0x00)
     992                      .dwattr $C$DW$98, DW_AT_name("__divul")
     993                      .dwattr $C$DW$98, DW_AT_TI_call
     994 0002da 6C00          CALL #__divul ; |400| 
         0002dc 0000!
     995                                                      ; call occurs [#__divul] ; |400| 
     996 0002de EB20          MOV AC0, dbl(*SP(#16)) ; |400| 
         0002e0 08   
     997                      .dwpsn  file "../c5535_bsl_revc/ezdsp5535_v1/c55xx_csl/ccs_v4.0_examples/gpt/CSL_GPTExample/csl_gpt_e
     998 0002e1 EC31          AMOV #$C$FSL26, XAR3 ; |402| 
         0002e3 BE00 
         0002e5 02B4+
     999 0002e7 ED31          MOV dbl(*(#_sysClk)), AC0 ; |402| 
         0002e9 0800 
         0002eb 0002-
    1000 0002ed EB00          MOV XAR3, dbl(*SP(#0))
         0002ef B5   
    1001 0002f0 EB04          MOV AC0, dbl(*SP(#2)) ; |402| 
         0002f2 08   
    1002              $C$DW$99        .dwtag  DW_TAG_TI_branch
    1003                      .dwattr $C$DW$99, DW_AT_low_pc(0x00)
    1004                      .dwattr $C$DW$99, DW_AT_name("_printf")
    1005                      .dwattr $C$DW$99, DW_AT_TI_call
    1006 0002f3 6C00          CALL #_printf ; |402| 
TMS320C55x Assembler PC v4.4.1 Sat Sep 29 23:09:39 2018

Tools Copyright (c) 1996-2012 Texas Instruments Incorporated
csl_gpt_example.asm                                                  PAGE   23

         0002f5 0000!
    1007                                                      ; call occurs [#_printf] ; |402| 
    1008                      .dwpsn  file "../c5535_bsl_revc/ezdsp5535_v1/c55xx_csl/ccs_v4.0_examples/gpt/CSL_GPTExample/csl_gpt_e
    1009 0002f7 EC31          AMOV #$C$FSL27, XAR3 ; |403| 
         0002f9 BE00 
         0002fb 02D6+
    1010 0002fd EB00          MOV XAR3, dbl(*SP(#0))
         0002ff B5   
    1011              $C$DW$100       .dwtag  DW_TAG_TI_branch
    1012                      .dwattr $C$DW$100, DW_AT_low_pc(0x00)
    1013                      .dwattr $C$DW$100, DW_AT_name("_printf")
    1014                      .dwattr $C$DW$100, DW_AT_TI_call
    1015 000300 6C00          CALL #_printf ; |403| 
         000302 0000!
    1016                                                      ; call occurs [#_printf] ; |403| 
    1017                      .dwpsn  file "../c5535_bsl_revc/ezdsp5535_v1/c55xx_csl/ccs_v4.0_examples/gpt/CSL_GPTExample/csl_gpt_e
    1018 000304 EC31          AMOV #$C$FSL28, XAR3 ; |404| 
         000306 BE00 
         000308 030A+
    1019 00030a EB00          MOV XAR3, dbl(*SP(#0))
         00030c B5   
    1020              $C$DW$101       .dwtag  DW_TAG_TI_branch
    1021                      .dwattr $C$DW$101, DW_AT_low_pc(0x00)
    1022                      .dwattr $C$DW$101, DW_AT_name("_printf")
    1023                      .dwattr $C$DW$101, DW_AT_TI_call
    1024 00030d 6C00          CALL #_printf ; |404| 
         00030f 0000!
    1025                                                      ; call occurs [#_printf] ; |404| 
    1026                      .dwpsn  file "../c5535_bsl_revc/ezdsp5535_v1/c55xx_csl/ccs_v4.0_examples/gpt/CSL_GPTExample/csl_gpt_e
    1027 000311 EC31          AMOV #$C$FSL29, XAR3 ; |405| 
         000313 BE00 
         000315 0338+
    1028 000317 EB00          MOV XAR3, dbl(*SP(#0))
         000319 B5   
    1029              $C$DW$102       .dwtag  DW_TAG_TI_branch
    1030                      .dwattr $C$DW$102, DW_AT_low_pc(0x00)
    1031                      .dwattr $C$DW$102, DW_AT_name("_printf")
    1032                      .dwattr $C$DW$102, DW_AT_TI_call
    1033 00031a 6C00          CALL #_printf ; |405| 
         00031c 0000!
    1034                                                      ; call occurs [#_printf] ; |405| 
    1035                      .dwpsn  file "../c5535_bsl_revc/ezdsp5535_v1/c55xx_csl/ccs_v4.0_examples/gpt/CSL_GPTExample/csl_gpt_e
    1036 00031e EC31          AMOV #$C$FSL30, XAR3 ; |406| 
         000320 BE00 
         000322 037E+
    1037 000324 EB00          MOV XAR3, dbl(*SP(#0))
         000326 B5   
    1038              $C$DW$103       .dwtag  DW_TAG_TI_branch
    1039                      .dwattr $C$DW$103, DW_AT_low_pc(0x00)
    1040                      .dwattr $C$DW$103, DW_AT_name("_printf")
    1041                      .dwattr $C$DW$103, DW_AT_TI_call
    1042 000327 6C00          CALL #_printf ; |406| 
         000329 0000!
    1043                                                      ; call occurs [#_printf] ; |406| 
    1044                      .dwpsn  file "../c5535_bsl_revc/ezdsp5535_v1/c55xx_csl/ccs_v4.0_examples/gpt/CSL_GPTExample/csl_gpt_e
TMS320C55x Assembler PC v4.4.1 Sat Sep 29 23:09:39 2018

Tools Copyright (c) 1996-2012 Texas Instruments Incorporated
csl_gpt_example.asm                                                  PAGE   24

    1045 00032b EC31          AMOV #$C$FSL31, XAR3 ; |407| 
         00032d BE00 
         00032f 03D4+
    1046 000331 EB00          MOV XAR3, dbl(*SP(#0))
         000333 B5   
    1047 000334 ED31          MOV dbl(*(#_sysClk)), AC0 ; |407| 
         000336 0800 
         000338 0002-
    1048 00033a EB04          MOV AC0, dbl(*SP(#2)) ; |407| 
         00033c 08   
    1049              $C$DW$104       .dwtag  DW_TAG_TI_branch
    1050                      .dwattr $C$DW$104, DW_AT_low_pc(0x00)
    1051                      .dwattr $C$DW$104, DW_AT_name("_printf")
    1052                      .dwattr $C$DW$104, DW_AT_TI_call
    1053 00033d 6C00          CALL #_printf ; |407| 
         00033f 0000!
    1054                                                      ; call occurs [#_printf] ; |407| 
    1055                      .dwpsn  file "../c5535_bsl_revc/ezdsp5535_v1/c55xx_csl/ccs_v4.0_examples/gpt/CSL_GPTExample/csl_gpt_e
    1056 000341 EC31          AMOV #$C$FSL32, XAR3 ; |408| 
         000343 BE00 
         000345 0414+
    1057 000347 EB00          MOV XAR3, dbl(*SP(#0))
         000349 B5   
    1058              $C$DW$105       .dwtag  DW_TAG_TI_branch
    1059                      .dwattr $C$DW$105, DW_AT_low_pc(0x00)
    1060                      .dwattr $C$DW$105, DW_AT_name("_printf")
    1061                      .dwattr $C$DW$105, DW_AT_TI_call
    1062 00034a 6C00          CALL #_printf ; |408| 
         00034c 0000!
    1063                                                      ; call occurs [#_printf] ; |408| 
    1064                      .dwpsn  file "../c5535_bsl_revc/ezdsp5535_v1/c55xx_csl/ccs_v4.0_examples/gpt/CSL_GPTExample/csl_gpt_e
    1065 00034e EC18          AMAR *SP(#12), XAR0
         000350 8E   
    1066 000351 EC0C          AMAR *SP(#6), XAR1
         000353 9E   
    1067              $C$DW$106       .dwtag  DW_TAG_TI_branch
    1068                      .dwattr $C$DW$106, DW_AT_low_pc(0x00)
    1069                      .dwattr $C$DW$106, DW_AT_name("_GPT_open")
    1070                      .dwattr $C$DW$106, DW_AT_TI_call
    1071              
    1072 000354 6C00          CALL #_GPT_open ; |411| 
         000356 0000!
    1073 000358 3D04  ||      MOV #0, T0
    1074              
    1075                                                      ; call occurs [#_GPT_open] ; |411| 
    1076 00035a EB08          MOV XAR0, dbl(*SP(#4))
         00035c 85   
    1077                      .dwpsn  file "../c5535_bsl_revc/ezdsp5535_v1/c55xx_csl/ccs_v4.0_examples/gpt/CSL_GPTExample/csl_gpt_e
    1078 00035d ED08          MOV dbl(*SP(#4)), XAR3
         00035f BF   
    1079              
    1080 000362 3D01          MOV #0, AC1 ; |412| 
    1081 000360 90B0  ||      MOV XAR3, AC0
    1082              
    1083 000364 1210          CMPU AC1 == AC0, TC1 ; |412| 
TMS320C55x Assembler PC v4.4.1 Sat Sep 29 23:09:39 2018

Tools Copyright (c) 1996-2012 Texas Instruments Incorporated
csl_gpt_example.asm                                                  PAGE   25

         000366 04   
    1084 000367 6564          BCC $C$L18,TC1 ; |412| 
    1085                                                      ; branchcc occurs ; |412| 
    1086              
    1087 00036b 3D0A          MOV #0, AR2
    1088 000369 A90C  ||      MOV *SP(#6), AR1 ; |412| 
    1089              
    1090 00036d 12A0          CMP AR2 == AR1, TC1 ; |412| 
         00036f 90   
    1091 000370 0464          BCC $C$L19,TC1 ; |412| 
         000372 12   
    1092                                                      ; branchcc occurs ; |412| 
    1093 000373       $C$L18:    
    1094                      .dwpsn  file "../c5535_bsl_revc/ezdsp5535_v1/c55xx_csl/ccs_v4.0_examples/gpt/CSL_GPTExample/csl_gpt_e
    1095 000373 EC31          AMOV #$C$FSL9, XAR3 ; |414| 
         000375 BE00 
         000377 0138+
    1096 000379 EB00          MOV XAR3, dbl(*SP(#0))
         00037b B5   
    1097              $C$DW$107       .dwtag  DW_TAG_TI_branch
    1098                      .dwattr $C$DW$107, DW_AT_low_pc(0x00)
    1099                      .dwattr $C$DW$107, DW_AT_name("_printf")
    1100                      .dwattr $C$DW$107, DW_AT_TI_call
    1101 00037c 6C00          CALL #_printf ; |414| 
         00037e 0000!
    1102                                                      ; call occurs [#_printf] ; |414| 
    1103                      .dwpsn  file "../c5535_bsl_revc/ezdsp5535_v1/c55xx_csl/ccs_v4.0_examples/gpt/CSL_GPTExample/csl_gpt_e
    1104 000380 3C14          MOV #1, T0
    1105 000382 0601          B $C$L28  ; |415| 
         000384 DA   
    1106                                                      ; branch occurs ; |415| 
    1107 000385       $C$L19:    
    1108                      .dwpsn  file "../c5535_bsl_revc/ezdsp5535_v1/c55xx_csl/ccs_v4.0_examples/gpt/CSL_GPTExample/csl_gpt_e
    1109 000385 EC31          AMOV #$C$FSL10, XAR3 ; |419| 
         000387 BE00 
         000389 014A+
    1110 00038b EB00          MOV XAR3, dbl(*SP(#0))
         00038d B5   
    1111              $C$DW$108       .dwtag  DW_TAG_TI_branch
    1112                      .dwattr $C$DW$108, DW_AT_low_pc(0x00)
    1113                      .dwattr $C$DW$108, DW_AT_name("_printf")
    1114                      .dwattr $C$DW$108, DW_AT_TI_call
    1115 00038e 6C00          CALL #_printf ; |419| 
         000390 0000!
    1116                                                      ; call occurs [#_printf] ; |419| 
    1117                      .dwpsn  file "../c5535_bsl_revc/ezdsp5535_v1/c55xx_csl/ccs_v4.0_examples/gpt/CSL_GPTExample/csl_gpt_e
    1118 000392 ED08          MOV dbl(*SP(#4)), XAR0
         000394 8F   
    1119              $C$DW$109       .dwtag  DW_TAG_TI_branch
    1120                      .dwattr $C$DW$109, DW_AT_low_pc(0x00)
    1121                      .dwattr $C$DW$109, DW_AT_name("_GPT_reset")
    1122                      .dwattr $C$DW$109, DW_AT_TI_call
    1123 000395 6C00          CALL #_GPT_reset ; |423| 
         000397 0000!
    1124                                                      ; call occurs [#_GPT_reset] ; |423| 
TMS320C55x Assembler PC v4.4.1 Sat Sep 29 23:09:39 2018

Tools Copyright (c) 1996-2012 Texas Instruments Incorporated
csl_gpt_example.asm                                                  PAGE   26

    1125 000399 C40C          MOV T0, *SP(#6) ; |423| 
    1126                      .dwpsn  file "../c5535_bsl_revc/ezdsp5535_v1/c55xx_csl/ccs_v4.0_examples/gpt/CSL_GPTExample/csl_gpt_e
    1127              
    1128 00039b 2249          MOV T0, AR1
    1129 00039d 3D0A  ||      MOV #0, AR2
    1130              
    1131 00039f 12A0          CMP AR2 == AR1, TC1 ; |424| 
         0003a1 90   
    1132 0003a2 0464          BCC $C$L20,TC1 ; |424| 
         0003a4 12   
    1133                                                      ; branchcc occurs ; |424| 
    1134                      .dwpsn  file "../c5535_bsl_revc/ezdsp5535_v1/c55xx_csl/ccs_v4.0_examples/gpt/CSL_GPTExample/csl_gpt_e
    1135 0003a5 EC31          AMOV #$C$FSL11, XAR3 ; |426| 
         0003a7 BE00 
         0003a9 0160+
    1136 0003ab EB00          MOV XAR3, dbl(*SP(#0))
         0003ad B5   
    1137              $C$DW$110       .dwtag  DW_TAG_TI_branch
    1138                      .dwattr $C$DW$110, DW_AT_low_pc(0x00)
    1139                      .dwattr $C$DW$110, DW_AT_name("_printf")
    1140                      .dwattr $C$DW$110, DW_AT_TI_call
    1141 0003ae 6C00          CALL #_printf ; |426| 
         0003b0 0000!
    1142                                                      ; call occurs [#_printf] ; |426| 
    1143                      .dwpsn  file "../c5535_bsl_revc/ezdsp5535_v1/c55xx_csl/ccs_v4.0_examples/gpt/CSL_GPTExample/csl_gpt_e
    1144 0003b2 3C14          MOV #1, T0
    1145 0003b4 0601          B $C$L28  ; |427| 
         0003b6 A8   
    1146                                                      ; branch occurs ; |427| 
    1147 0003b7       $C$L20:    
    1148                      .dwpsn  file "../c5535_bsl_revc/ezdsp5535_v1/c55xx_csl/ccs_v4.0_examples/gpt/CSL_GPTExample/csl_gpt_e
    1149 0003b7 EC31          AMOV #$C$FSL12, XAR3 ; |431| 
         0003b9 BE00 
         0003bb 0172+
    1150 0003bd EB00          MOV XAR3, dbl(*SP(#0))
         0003bf B5   
    1151              $C$DW$111       .dwtag  DW_TAG_TI_branch
    1152                      .dwattr $C$DW$111, DW_AT_low_pc(0x00)
    1153                      .dwattr $C$DW$111, DW_AT_name("_printf")
    1154                      .dwattr $C$DW$111, DW_AT_TI_call
    1155 0003c0 6C00          CALL #_printf ; |431| 
         0003c2 0000!
    1156                                                      ; call occurs [#_printf] ; |431| 
    1157                      .dwpsn  file "../c5535_bsl_revc/ezdsp5535_v1/c55xx_csl/ccs_v4.0_examples/gpt/CSL_GPTExample/csl_gpt_e
    1158              $C$DW$112       .dwtag  DW_TAG_TI_branch
    1159                      .dwattr $C$DW$112, DW_AT_low_pc(0x00)
    1160                      .dwattr $C$DW$112, DW_AT_name("_IRQ_clearAll")
    1161                      .dwattr $C$DW$112, DW_AT_TI_call
    1162 0003c4 6C00          CALL #_IRQ_clearAll ; |435| 
         0003c6 0000!
    1163                                                      ; call occurs [#_IRQ_clearAll] ; |435| 
    1164                      .dwpsn  file "../c5535_bsl_revc/ezdsp5535_v1/c55xx_csl/ccs_v4.0_examples/gpt/CSL_GPTExample/csl_gpt_e
    1165              $C$DW$113       .dwtag  DW_TAG_TI_branch
    1166                      .dwattr $C$DW$113, DW_AT_low_pc(0x00)
    1167                      .dwattr $C$DW$113, DW_AT_name("_IRQ_disableAll")
TMS320C55x Assembler PC v4.4.1 Sat Sep 29 23:09:39 2018

Tools Copyright (c) 1996-2012 Texas Instruments Incorporated
csl_gpt_example.asm                                                  PAGE   27

    1168                      .dwattr $C$DW$113, DW_AT_TI_call
    1169 0003c8 6C00          CALL #_IRQ_disableAll ; |438| 
         0003ca 0000!
    1170                                                      ; call occurs [#_IRQ_disableAll] ; |438| 
    1171                      .dwpsn  file "../c5535_bsl_revc/ezdsp5535_v1/c55xx_csl/ccs_v4.0_examples/gpt/CSL_GPTExample/csl_gpt_e
    1172 0003cc 7A00          MOV #(_VECSTART >> 16) << #16, AC0 ; |440| 
         0003ce 000A%
    1173 0003d0 7E00          OR #(_VECSTART & 0xffff), AC0, AC0 ; |440| 
         0003d2 0000%
    1174              $C$DW$114       .dwtag  DW_TAG_TI_branch
    1175                      .dwattr $C$DW$114, DW_AT_low_pc(0x00)
    1176                      .dwattr $C$DW$114, DW_AT_name("_IRQ_setVecs")
    1177                      .dwattr $C$DW$114, DW_AT_TI_call
    1178 0003d4 6C00          CALL #_IRQ_setVecs ; |440| 
         0003d6 0000!
    1179                                                      ; call occurs [#_IRQ_setVecs] ; |440| 
    1180                      .dwpsn  file "../c5535_bsl_revc/ezdsp5535_v1/c55xx_csl/ccs_v4.0_examples/gpt/CSL_GPTExample/csl_gpt_e
    1181 0003d8 7A00          MOV #(_gpt0Isr >> 16) << #16, AC0 ; |441| 
         0003da 000A%
    1182 0003dc 7E00          OR #(_gpt0Isr & 0xffff), AC0, AC0 ; |441| 
         0003de 0000%
    1183              $C$DW$115       .dwtag  DW_TAG_TI_branch
    1184                      .dwattr $C$DW$115, DW_AT_low_pc(0x00)
    1185                      .dwattr $C$DW$115, DW_AT_name("_IRQ_plug")
    1186                      .dwattr $C$DW$115, DW_AT_TI_call
    1187              
    1188 0003e0 6C00          CALL #_IRQ_plug ; |441| 
         0003e2 0000!
    1189 0003e4 3D44  ||      MOV #4, T0
    1190              
    1191                                                      ; call occurs [#_IRQ_plug] ; |441| 
    1192                      .dwpsn  file "../c5535_bsl_revc/ezdsp5535_v1/c55xx_csl/ccs_v4.0_examples/gpt/CSL_GPTExample/csl_gpt_e
    1193              $C$DW$116       .dwtag  DW_TAG_TI_branch
    1194                      .dwattr $C$DW$116, DW_AT_low_pc(0x00)
    1195                      .dwattr $C$DW$116, DW_AT_name("_IRQ_enable")
    1196                      .dwattr $C$DW$116, DW_AT_TI_call
    1197              
    1198 0003e6 6C00          CALL #_IRQ_enable ; |442| 
         0003e8 0000!
    1199 0003ea 3D44  ||      MOV #4, T0
    1200              
    1201                                                      ; call occurs [#_IRQ_enable] ; |442| 
    1202                      .dwpsn  file "../c5535_bsl_revc/ezdsp5535_v1/c55xx_csl/ccs_v4.0_examples/gpt/CSL_GPTExample/csl_gpt_e
    1203 0003ec E60E          MOV #1, *SP(#7) ; |444| 
         0003ee 01   
    1204                      .dwpsn  file "../c5535_bsl_revc/ezdsp5535_v1/c55xx_csl/ccs_v4.0_examples/gpt/CSL_GPTExample/csl_gpt_e
    1205 0003ef E612          MOV #1, *SP(#9) ; |445| 
         0003f1 01   
    1206                      .dwpsn  file "../c5535_bsl_revc/ezdsp5535_v1/c55xx_csl/ccs_v4.0_examples/gpt/CSL_GPTExample/csl_gpt_e
    1207 0003f2 E610          MOV #1, *SP(#8) ; |446| 
         0003f4 01   
    1208                      .dwpsn  file "../c5535_bsl_revc/ezdsp5535_v1/c55xx_csl/ccs_v4.0_examples/gpt/CSL_GPTExample/csl_gpt_e
    1209 0003f5 ED31          MOV dbl(*(#_sysClk)), AC0 ; |447| 
         0003f7 0800 
         0003f9 0002-
TMS320C55x Assembler PC v4.4.1 Sat Sep 29 23:09:39 2018

Tools Copyright (c) 1996-2012 Texas Instruments Incorporated
csl_gpt_example.asm                                                  PAGE   28

    1210 0003fb 1007          SFTL AC0, #-2, AC0 ; |447| 
         0003fd 3E   
    1211 0003fe C014          MOV AC0, *SP(#10) ; |447| 
    1212                      .dwpsn  file "../c5535_bsl_revc/ezdsp5535_v1/c55xx_csl/ccs_v4.0_examples/gpt/CSL_GPTExample/csl_gpt_e
    1213 000400 E616          MOV #0, *SP(#11) ; |448| 
         000402 00   
    1214                      .dwpsn  file "../c5535_bsl_revc/ezdsp5535_v1/c55xx_csl/ccs_v4.0_examples/gpt/CSL_GPTExample/csl_gpt_e
    1215 000403 EC0E          AMAR *SP(#7), XAR1
         000405 9E   
    1216 000406 ED08          MOV dbl(*SP(#4)), XAR0
         000408 8F   
    1217              $C$DW$117       .dwtag  DW_TAG_TI_branch
    1218                      .dwattr $C$DW$117, DW_AT_low_pc(0x00)
    1219                      .dwattr $C$DW$117, DW_AT_name("_GPT_config")
    1220                      .dwattr $C$DW$117, DW_AT_TI_call
    1221 000409 6C00          CALL #_GPT_config ; |451| 
         00040b 0000!
    1222                                                      ; call occurs [#_GPT_config] ; |451| 
    1223 00040d C40C          MOV T0, *SP(#6) ; |451| 
    1224                      .dwpsn  file "../c5535_bsl_revc/ezdsp5535_v1/c55xx_csl/ccs_v4.0_examples/gpt/CSL_GPTExample/csl_gpt_e
    1225              
    1226 00040f 3C0A          MOV #0, AR2
    1227 000411 2349  ||      MOV T0, AR1
    1228              
    1229 000413 12A0          CMP AR2 == AR1, TC1 ; |452| 
         000415 90   
    1230 000416 0464          BCC $C$L21,TC1 ; |452| 
         000418 12   
    1231                                                      ; branchcc occurs ; |452| 
    1232                      .dwpsn  file "../c5535_bsl_revc/ezdsp5535_v1/c55xx_csl/ccs_v4.0_examples/gpt/CSL_GPTExample/csl_gpt_e
    1233 000419 EC31          AMOV #$C$FSL13, XAR3 ; |454| 
         00041b BE00 
         00041d 0188+
    1234 00041f EB00          MOV XAR3, dbl(*SP(#0))
         000421 B5   
    1235              $C$DW$118       .dwtag  DW_TAG_TI_branch
    1236                      .dwattr $C$DW$118, DW_AT_low_pc(0x00)
    1237                      .dwattr $C$DW$118, DW_AT_name("_printf")
    1238                      .dwattr $C$DW$118, DW_AT_TI_call
    1239 000422 6C00          CALL #_printf ; |454| 
         000424 0000!
    1240                                                      ; call occurs [#_printf] ; |454| 
    1241                      .dwpsn  file "../c5535_bsl_revc/ezdsp5535_v1/c55xx_csl/ccs_v4.0_examples/gpt/CSL_GPTExample/csl_gpt_e
    1242 000426 3C14          MOV #1, T0
    1243 000428 0601          B $C$L28  ; |455| 
         00042a 34   
    1244                                                      ; branch occurs ; |455| 
    1245 00042b       $C$L21:    
    1246                      .dwpsn  file "../c5535_bsl_revc/ezdsp5535_v1/c55xx_csl/ccs_v4.0_examples/gpt/CSL_GPTExample/csl_gpt_e
    1247 00042b EC31          AMOV #$C$FSL14, XAR3 ; |459| 
         00042d BE00 
         00042f 019C+
    1248 000431 EB00          MOV XAR3, dbl(*SP(#0))
         000433 B5   
    1249              $C$DW$119       .dwtag  DW_TAG_TI_branch
TMS320C55x Assembler PC v4.4.1 Sat Sep 29 23:09:39 2018

Tools Copyright (c) 1996-2012 Texas Instruments Incorporated
csl_gpt_example.asm                                                  PAGE   29

    1250                      .dwattr $C$DW$119, DW_AT_low_pc(0x00)
    1251                      .dwattr $C$DW$119, DW_AT_name("_printf")
    1252                      .dwattr $C$DW$119, DW_AT_TI_call
    1253 000434 6C00          CALL #_printf ; |459| 
         000436 0000!
    1254                                                      ; call occurs [#_printf] ; |459| 
    1255                      .dwpsn  file "../c5535_bsl_revc/ezdsp5535_v1/c55xx_csl/ccs_v4.0_examples/gpt/CSL_GPTExample/csl_gpt_e
    1256              $C$DW$120       .dwtag  DW_TAG_TI_branch
    1257                      .dwattr $C$DW$120, DW_AT_low_pc(0x00)
    1258                      .dwattr $C$DW$120, DW_AT_name("_IRQ_globalEnable")
    1259                      .dwattr $C$DW$120, DW_AT_TI_call
    1260 000438 6C00          CALL #_IRQ_globalEnable ; |463| 
         00043a 0000!
    1261                                                      ; call occurs [#_IRQ_globalEnable] ; |463| 
    1262                      .dwpsn  file "../c5535_bsl_revc/ezdsp5535_v1/c55xx_csl/ccs_v4.0_examples/gpt/CSL_GPTExample/csl_gpt_e
    1263 00043c ED08          MOV dbl(*SP(#4)), XAR0
         00043e 8F   
    1264              $C$DW$121       .dwtag  DW_TAG_TI_branch
    1265                      .dwattr $C$DW$121, DW_AT_low_pc(0x00)
    1266                      .dwattr $C$DW$121, DW_AT_name("_GPT_start")
    1267                      .dwattr $C$DW$121, DW_AT_TI_call
    1268 00043f 6C00          CALL #_GPT_start ; |466| 
         000441 0000!
    1269                                                      ; call occurs [#_GPT_start] ; |466| 
    1270                      .dwpsn  file "../c5535_bsl_revc/ezdsp5535_v1/c55xx_csl/ccs_v4.0_examples/gpt/CSL_GPTExample/csl_gpt_e
    1271 000443 F031          CMP *(#_hitIsr) == #1, TC1 ; |472| 
         000445 0001 
         000447 0000 
         000449 04-  
    1272 00044a 0464          BCC $C$L23,TC1 ; |472| 
         00044c 18   
    1273                                                      ; branchcc occurs ; |472| 
    1274 00044d       $C$L22:    
    1275 00044d       $C$DW$L$_CSL_gptIntrTest$12$B:
    1276                      .dwpsn  file "../c5535_bsl_revc/ezdsp5535_v1/c55xx_csl/ccs_v4.0_examples/gpt/CSL_GPTExample/csl_gpt_e
    1277 00044d ED31          MOV dbl(*(#_cpuCycleCount)), AC0 ; |474| 
         00044f 0800 
         000451 0000-
    1278 000453 4010          ADD #1, AC0 ; |474| 
    1279 000455 EB31          MOV AC0, dbl(*(#_cpuCycleCount)) ; |474| 
         000457 0800 
         000459 0000-
    1280                      .dwpsn  file "../c5535_bsl_revc/ezdsp5535_v1/c55xx_csl/ccs_v4.0_examples/gpt/CSL_GPTExample/csl_gpt_e
    1281 00045b F031          CMP *(#_hitIsr) == #1, TC1 ; |472| 
         00045d 0001 
         00045f 0000 
         000461 04-  
    1282 000462 0474          BCC $C$L22,!TC1 ; |472| 
         000464 E8   
    1283                                                      ; branchcc occurs ; |472| 
    1284 000465       $C$DW$L$_CSL_gptIntrTest$12$E:
    1285 000465       $C$L23:    
    1286                      .dwpsn  file "../c5535_bsl_revc/ezdsp5535_v1/c55xx_csl/ccs_v4.0_examples/gpt/CSL_GPTExample/csl_gpt_e
    1287              $C$DW$122       .dwtag  DW_TAG_TI_branch
    1288                      .dwattr $C$DW$122, DW_AT_low_pc(0x00)
TMS320C55x Assembler PC v4.4.1 Sat Sep 29 23:09:39 2018

Tools Copyright (c) 1996-2012 Texas Instruments Incorporated
csl_gpt_example.asm                                                  PAGE   30

    1289                      .dwattr $C$DW$122, DW_AT_name("_IRQ_globalDisable")
    1290                      .dwattr $C$DW$122, DW_AT_TI_call
    1291 000465 6C00          CALL #_IRQ_globalDisable ; |478| 
         000467 0000!
    1292                                                      ; call occurs [#_IRQ_globalDisable] ; |478| 
    1293                      .dwpsn  file "../c5535_bsl_revc/ezdsp5535_v1/c55xx_csl/ccs_v4.0_examples/gpt/CSL_GPTExample/csl_gpt_e
    1294              $C$DW$123       .dwtag  DW_TAG_TI_branch
    1295                      .dwattr $C$DW$123, DW_AT_low_pc(0x00)
    1296                      .dwattr $C$DW$123, DW_AT_name("_IRQ_clearAll")
    1297                      .dwattr $C$DW$123, DW_AT_TI_call
    1298 000469 6C00          CALL #_IRQ_clearAll ; |481| 
         00046b 0000!
    1299                                                      ; call occurs [#_IRQ_clearAll] ; |481| 
    1300                      .dwpsn  file "../c5535_bsl_revc/ezdsp5535_v1/c55xx_csl/ccs_v4.0_examples/gpt/CSL_GPTExample/csl_gpt_e
    1301              $C$DW$124       .dwtag  DW_TAG_TI_branch
    1302                      .dwattr $C$DW$124, DW_AT_low_pc(0x00)
    1303                      .dwattr $C$DW$124, DW_AT_name("_IRQ_disableAll")
    1304                      .dwattr $C$DW$124, DW_AT_TI_call
    1305 00046d 6C00          CALL #_IRQ_disableAll ; |484| 
         00046f 0000!
    1306                                                      ; call occurs [#_IRQ_disableAll] ; |484| 
    1307                      .dwpsn  file "../c5535_bsl_revc/ezdsp5535_v1/c55xx_csl/ccs_v4.0_examples/gpt/CSL_GPTExample/csl_gpt_e
    1308 000471 ED08          MOV dbl(*SP(#4)), XAR0
         000473 8F   
    1309              $C$DW$125       .dwtag  DW_TAG_TI_branch
    1310                      .dwattr $C$DW$125, DW_AT_low_pc(0x00)
    1311                      .dwattr $C$DW$125, DW_AT_name("_GPT_stop")
    1312                      .dwattr $C$DW$125, DW_AT_TI_call
    1313 000474 6C00          CALL #_GPT_stop ; |487| 
         000476 0000!
    1314                                                      ; call occurs [#_GPT_stop] ; |487| 
    1315 000478 C40C          MOV T0, *SP(#6) ; |487| 
    1316                      .dwpsn  file "../c5535_bsl_revc/ezdsp5535_v1/c55xx_csl/ccs_v4.0_examples/gpt/CSL_GPTExample/csl_gpt_e
    1317              
    1318 00047a 2249          MOV T0, AR1
    1319 00047c 3D0A  ||      MOV #0, AR2
    1320              
    1321 00047e 12A0          CMP AR2 == AR1, TC1 ; |488| 
         000480 90   
    1322 000481 0464          BCC $C$L24,TC1 ; |488| 
         000483 12   
    1323                                                      ; branchcc occurs ; |488| 
    1324                      .dwpsn  file "../c5535_bsl_revc/ezdsp5535_v1/c55xx_csl/ccs_v4.0_examples/gpt/CSL_GPTExample/csl_gpt_e
    1325 000484 EC31          AMOV #$C$FSL22, XAR3 ; |490| 
         000486 BE00 
         000488 0264+
    1326 00048a EB00          MOV XAR3, dbl(*SP(#0))
         00048c B5   
    1327              $C$DW$126       .dwtag  DW_TAG_TI_branch
    1328                      .dwattr $C$DW$126, DW_AT_low_pc(0x00)
    1329                      .dwattr $C$DW$126, DW_AT_name("_printf")
    1330                      .dwattr $C$DW$126, DW_AT_TI_call
    1331 00048d 6C00          CALL #_printf ; |490| 
         00048f 0000!
    1332                                                      ; call occurs [#_printf] ; |490| 
TMS320C55x Assembler PC v4.4.1 Sat Sep 29 23:09:39 2018

Tools Copyright (c) 1996-2012 Texas Instruments Incorporated
csl_gpt_example.asm                                                  PAGE   31

    1333                      .dwpsn  file "../c5535_bsl_revc/ezdsp5535_v1/c55xx_csl/ccs_v4.0_examples/gpt/CSL_GPTExample/csl_gpt_e
    1334 000491 3C14          MOV #1, T0
    1335 000493 0600          B $C$L28  ; |491| 
         000495 C9   
    1336                                                      ; branch occurs ; |491| 
    1337 000496       $C$L24:    
    1338                      .dwpsn  file "../c5535_bsl_revc/ezdsp5535_v1/c55xx_csl/ccs_v4.0_examples/gpt/CSL_GPTExample/csl_gpt_e
    1339 000496 EC31          AMOV #$C$FSL23, XAR3 ; |495| 
         000498 BE00 
         00049a 0276+
    1340 00049c EB00          MOV XAR3, dbl(*SP(#0))
         00049e B5   
    1341              $C$DW$127       .dwtag  DW_TAG_TI_branch
    1342                      .dwattr $C$DW$127, DW_AT_low_pc(0x00)
    1343                      .dwattr $C$DW$127, DW_AT_name("_printf")
    1344                      .dwattr $C$DW$127, DW_AT_TI_call
    1345 00049f 6C00          CALL #_printf ; |495| 
         0004a1 0000!
    1346                                                      ; call occurs [#_printf] ; |495| 
    1347                      .dwpsn  file "../c5535_bsl_revc/ezdsp5535_v1/c55xx_csl/ccs_v4.0_examples/gpt/CSL_GPTExample/csl_gpt_e
    1348 0004a3 ED08          MOV dbl(*SP(#4)), XAR0
         0004a5 8F   
    1349              $C$DW$128       .dwtag  DW_TAG_TI_branch
    1350                      .dwattr $C$DW$128, DW_AT_low_pc(0x00)
    1351                      .dwattr $C$DW$128, DW_AT_name("_GPT_reset")
    1352                      .dwattr $C$DW$128, DW_AT_TI_call
    1353 0004a6 6C00          CALL #_GPT_reset ; |498| 
         0004a8 0000!
    1354                                                      ; call occurs [#_GPT_reset] ; |498| 
    1355 0004aa C40C          MOV T0, *SP(#6) ; |498| 
    1356                      .dwpsn  file "../c5535_bsl_revc/ezdsp5535_v1/c55xx_csl/ccs_v4.0_examples/gpt/CSL_GPTExample/csl_gpt_e
    1357 0004ac EC31          AMOV #$C$FSL33, XAR3 ; |501| 
         0004ae BE00 
         0004b0 0452+
    1358 0004b2 EB00          MOV XAR3, dbl(*SP(#0))
         0004b4 B5   
    1359              $C$DW$129       .dwtag  DW_TAG_TI_branch
    1360                      .dwattr $C$DW$129, DW_AT_low_pc(0x00)
    1361                      .dwattr $C$DW$129, DW_AT_name("_printf")
    1362                      .dwattr $C$DW$129, DW_AT_TI_call
    1363 0004b5 6C00          CALL #_printf ; |501| 
         0004b7 0000!
    1364                                                      ; call occurs [#_printf] ; |501| 
    1365                      .dwpsn  file "../c5535_bsl_revc/ezdsp5535_v1/c55xx_csl/ccs_v4.0_examples/gpt/CSL_GPTExample/csl_gpt_e
    1366 0004b9 ED31          MOV dbl(*(#_cpuCycleCount)), AC0 ; |502| 
         0004bb 0800 
         0004bd 0000-
    1367 0004bf 1047          SFTL AC0, #3, AC1 ; |502| 
         0004c1 03   
    1368 0004c2 1007          SFTL AC0, #2, AC0 ; |502| 
         0004c4 02   
    1369 0004c5 2410          ADD AC1, AC0 ; |502| 
    1370 0004c7 EB31          MOV AC0, dbl(*(#_cpuCycleCount)) ; |502| 
         0004c9 0800 
         0004cb 0000-
TMS320C55x Assembler PC v4.4.1 Sat Sep 29 23:09:39 2018

Tools Copyright (c) 1996-2012 Texas Instruments Incorporated
csl_gpt_example.asm                                                  PAGE   32

    1371                      .dwpsn  file "../c5535_bsl_revc/ezdsp5535_v1/c55xx_csl/ccs_v4.0_examples/gpt/CSL_GPTExample/csl_gpt_e
    1372 0004cd EC31          AMOV #$C$FSL34, XAR3 ; |503| 
         0004cf BE00 
         0004d1 046E+
    1373 0004d3 EB00          MOV XAR3, dbl(*SP(#0))
         0004d5 B5   
    1374              $C$DW$130       .dwtag  DW_TAG_TI_branch
    1375                      .dwattr $C$DW$130, DW_AT_low_pc(0x00)
    1376                      .dwattr $C$DW$130, DW_AT_name("_printf")
    1377                      .dwattr $C$DW$130, DW_AT_TI_call
    1378 0004d6 6C00          CALL #_printf ; |503| 
         0004d8 0000!
    1379                                                      ; call occurs [#_printf] ; |503| 
    1380                      .dwpsn  file "../c5535_bsl_revc/ezdsp5535_v1/c55xx_csl/ccs_v4.0_examples/gpt/CSL_GPTExample/csl_gpt_e
    1381 0004da ED31          MOV dbl(*(#_cpuCycleCount)), AC0 ; |504| 
         0004dc 0800 
         0004de 0000-
    1382 0004e0 EC31          AMOV #$C$FSL35, XAR3 ; |504| 
         0004e2 BE00 
         0004e4 04C0+
    1383 0004e6 EB00          MOV XAR3, dbl(*SP(#0))
         0004e8 B5   
    1384 0004e9 EB04          MOV AC0, dbl(*SP(#2)) ; |504| 
         0004eb 08   
    1385              $C$DW$131       .dwtag  DW_TAG_TI_branch
    1386                      .dwattr $C$DW$131, DW_AT_low_pc(0x00)
    1387                      .dwattr $C$DW$131, DW_AT_name("_printf")
    1388                      .dwattr $C$DW$131, DW_AT_TI_call
    1389 0004ec 6C00          CALL #_printf ; |504| 
         0004ee 0000!
    1390                                                      ; call occurs [#_printf] ; |504| 
    1391                      .dwpsn  file "../c5535_bsl_revc/ezdsp5535_v1/c55xx_csl/ccs_v4.0_examples/gpt/CSL_GPTExample/csl_gpt_e
    1392 0004f0 ED31          MOV dbl(*(#_sysClk)), AC0 ; |508| 
         0004f2 0800 
         0004f4 0002-
    1393 0004f6 ED20          MOV dbl(*SP(#16)), AC1 ; |508| 
         0004f8 18   
    1394 0004f9 ED31          SUB AC1, dbl(*(#_cpuCycleCount)), AC1 ; |508| 
         0004fb 5400 
         0004fd 0000-
    1395 0004ff 1218          CMPU AC1 >= AC0, TC1 ; |508| 
         000501 04   
    1396 000502 0464          BCC $C$L25,TC1 ; |508| 
         000504 23   
    1397                                                      ; branchcc occurs ; |508| 
    1398 000505 ED20          MOV dbl(*SP(#16)), AC1 ; |508| 
         000507 18   
    1399 000508 ED31          MOV dbl(*(#_sysClk)), AC0 ; |508| 
         00050a 0800 
         00050c 0002-
    1400 00050e ED31          ADD dbl(*(#_cpuCycleCount)), AC1, AC1 ; |508| 
         000510 5000 
         000512 0000-
    1401 000514 1208          CMPU AC1 <= AC0, TC1 ; |508| 
         000516 14   
TMS320C55x Assembler PC v4.4.1 Sat Sep 29 23:09:39 2018

Tools Copyright (c) 1996-2012 Texas Instruments Incorporated
csl_gpt_example.asm                                                  PAGE   33

    1402 000517 67E4          BCC $C$L25,TC1 ; |508| 
    1403                                                      ; branchcc occurs ; |508| 
    1404                      .dwpsn  file "../c5535_bsl_revc/ezdsp5535_v1/c55xx_csl/ccs_v4.0_examples/gpt/CSL_GPTExample/csl_gpt_e
    1405 000519 EC31          AMOV #$C$FSL36, XAR3 ; |511| 
         00051b BE00 
         00051d 04C6+
    1406 00051f EB00          MOV XAR3, dbl(*SP(#0))
         000521 B5   
    1407              $C$DW$132       .dwtag  DW_TAG_TI_branch
    1408                      .dwattr $C$DW$132, DW_AT_low_pc(0x00)
    1409                      .dwattr $C$DW$132, DW_AT_name("_printf")
    1410                      .dwattr $C$DW$132, DW_AT_TI_call
    1411 000522 6C00          CALL #_printf ; |511| 
         000524 0000!
    1412                                                      ; call occurs [#_printf] ; |511| 
    1413                      .dwpsn  file "../c5535_bsl_revc/ezdsp5535_v1/c55xx_csl/ccs_v4.0_examples/gpt/CSL_GPTExample/csl_gpt_e
    1414 000526 4A11          B $C$L26  ; |512| 
    1415                                                      ; branch occurs ; |512| 
    1416 000528       $C$L25:    
    1417                      .dwpsn  file "../c5535_bsl_revc/ezdsp5535_v1/c55xx_csl/ccs_v4.0_examples/gpt/CSL_GPTExample/csl_gpt_e
    1418 000528 EC31          AMOV #$C$FSL37, XAR3 ; |515| 
         00052a BE00 
         00052c 04F0+
    1419 00052e EB00          MOV XAR3, dbl(*SP(#0))
         000530 B5   
    1420              $C$DW$133       .dwtag  DW_TAG_TI_branch
    1421                      .dwattr $C$DW$133, DW_AT_low_pc(0x00)
    1422                      .dwattr $C$DW$133, DW_AT_name("_printf")
    1423                      .dwattr $C$DW$133, DW_AT_TI_call
    1424 000531 6C00          CALL #_printf ; |515| 
         000533 0000!
    1425                                                      ; call occurs [#_printf] ; |515| 
    1426                      .dwpsn  file "../c5535_bsl_revc/ezdsp5535_v1/c55xx_csl/ccs_v4.0_examples/gpt/CSL_GPTExample/csl_gpt_e
    1427 000535 3C14          MOV #1, T0
    1428 000537 4A26          B $C$L28  ; |516| 
    1429                                                      ; branch occurs ; |516| 
    1430 000539       $C$L26:    
    1431                      .dwpsn  file "../c5535_bsl_revc/ezdsp5535_v1/c55xx_csl/ccs_v4.0_examples/gpt/CSL_GPTExample/csl_gpt_e
    1432 000539 ED08          MOV dbl(*SP(#4)), XAR0
         00053b 8F   
    1433              $C$DW$134       .dwtag  DW_TAG_TI_branch
    1434                      .dwattr $C$DW$134, DW_AT_low_pc(0x00)
    1435                      .dwattr $C$DW$134, DW_AT_name("_GPT_close")
    1436                      .dwattr $C$DW$134, DW_AT_TI_call
    1437 00053c 6C00          CALL #_GPT_close ; |520| 
         00053e 0000!
    1438                                                      ; call occurs [#_GPT_close] ; |520| 
    1439 000540 C40C          MOV T0, *SP(#6) ; |520| 
    1440                      .dwpsn  file "../c5535_bsl_revc/ezdsp5535_v1/c55xx_csl/ccs_v4.0_examples/gpt/CSL_GPTExample/csl_gpt_e
    1441              
    1442 000542 2249          MOV T0, AR1
    1443 000544 3D0A  ||      MOV #0, AR2
    1444              
    1445 000546 12A0          CMP AR2 == AR1, TC1 ; |521| 
         000548 90   
TMS320C55x Assembler PC v4.4.1 Sat Sep 29 23:09:39 2018

Tools Copyright (c) 1996-2012 Texas Instruments Incorporated
csl_gpt_example.asm                                                  PAGE   34

    1446 000549 0464          BCC $C$L27,TC1 ; |521| 
         00054b 11   
    1447                                                      ; branchcc occurs ; |521| 
    1448                      .dwpsn  file "../c5535_bsl_revc/ezdsp5535_v1/c55xx_csl/ccs_v4.0_examples/gpt/CSL_GPTExample/csl_gpt_e
    1449 00054c EC31          AMOV #$C$FSL24, XAR3 ; |523| 
         00054e BE00 
         000550 028C+
    1450 000552 EB00          MOV XAR3, dbl(*SP(#0))
         000554 B5   
    1451              $C$DW$135       .dwtag  DW_TAG_TI_branch
    1452                      .dwattr $C$DW$135, DW_AT_low_pc(0x00)
    1453                      .dwattr $C$DW$135, DW_AT_name("_printf")
    1454                      .dwattr $C$DW$135, DW_AT_TI_call
    1455 000555 6C00          CALL #_printf ; |523| 
         000557 0000!
    1456                                                      ; call occurs [#_printf] ; |523| 
    1457                      .dwpsn  file "../c5535_bsl_revc/ezdsp5535_v1/c55xx_csl/ccs_v4.0_examples/gpt/CSL_GPTExample/csl_gpt_e
    1458 000559 3C14          MOV #1, T0
    1459 00055b 4A02          B $C$L28  ; |524| 
    1460                                                      ; branch occurs ; |524| 
    1461 00055d       $C$L27:    
    1462                      .dwpsn  file "../c5535_bsl_revc/ezdsp5535_v1/c55xx_csl/ccs_v4.0_examples/gpt/CSL_GPTExample/csl_gpt_e
    1463 00055d 3C04          MOV #0, T0
    1464 00055f       $C$L28:    
    1465                      .dwpsn  file "../c5535_bsl_revc/ezdsp5535_v1/c55xx_csl/ccs_v4.0_examples/gpt/CSL_GPTExample/csl_gpt_e
    1466 00055f 4E13          AADD #19, SP
    1467                      .dwcfi  cfa_offset, 1
    1468              $C$DW$136       .dwtag  DW_TAG_TI_branch
    1469                      .dwattr $C$DW$136, DW_AT_low_pc(0x00)
    1470                      .dwattr $C$DW$136, DW_AT_TI_return
    1471 000561 4804          RET
    1472                                                      ; return occurs
    1473              
    1474              $C$DW$137       .dwtag  DW_TAG_TI_loop
    1475                      .dwattr $C$DW$137, DW_AT_name("F:\eZdsp_DBG\tmp1\c55x-sim2\foo\Debug\csl_gpt_example.asm:$C$L22:1:153
    1476                      .dwattr $C$DW$137, DW_AT_TI_begin_file("../c5535_bsl_revc/ezdsp5535_v1/c55xx_csl/ccs_v4.0_examples/gp
    1477                      .dwattr $C$DW$137, DW_AT_TI_begin_line(0x1d8)
    1478                      .dwattr $C$DW$137, DW_AT_TI_end_line(0x1db)
    1479              $C$DW$138       .dwtag  DW_TAG_TI_loop_range
    1480                      .dwattr $C$DW$138, DW_AT_low_pc($C$DW$L$_CSL_gptIntrTest$12$B)
    1481                      .dwattr $C$DW$138, DW_AT_high_pc($C$DW$L$_CSL_gptIntrTest$12$E)
    1482                      .dwendtag $C$DW$137
    1483              
    1484                      .dwattr $C$DW$91, DW_AT_TI_end_file("../c5535_bsl_revc/ezdsp5535_v1/c55xx_csl/ccs_v4.0_examples/gpt/C
    1485                      .dwattr $C$DW$91, DW_AT_TI_end_line(0x210)
    1486                      .dwattr $C$DW$91, DW_AT_TI_end_column(0x01)
    1487                      .dwendentry
    1488                      .dwendtag $C$DW$91
    1489              
    1490 000000               .sect   ".text:retain"
    1491                      .align 4
    1492                      .global _gpt0Isr
    1493              
    1494              $C$DW$139       .dwtag  DW_TAG_subprogram, DW_AT_name("gpt0Isr")
    1495                      .dwattr $C$DW$139, DW_AT_low_pc(_gpt0Isr)
TMS320C55x Assembler PC v4.4.1 Sat Sep 29 23:09:39 2018

Tools Copyright (c) 1996-2012 Texas Instruments Incorporated
csl_gpt_example.asm                                                  PAGE   35

    1496                      .dwattr $C$DW$139, DW_AT_high_pc(0x00)
    1497                      .dwattr $C$DW$139, DW_AT_TI_symbol_name("_gpt0Isr")
    1498                      .dwattr $C$DW$139, DW_AT_external
    1499                      .dwattr $C$DW$139, DW_AT_TI_begin_file("../c5535_bsl_revc/ezdsp5535_v1/c55xx_csl/ccs_v4.0_examples/gp
    1500                      .dwattr $C$DW$139, DW_AT_TI_begin_line(0x219)
    1501                      .dwattr $C$DW$139, DW_AT_TI_begin_column(0x10)
    1502                      .dwattr $C$DW$139, DW_AT_TI_interrupt
    1503                      .dwattr $C$DW$139, DW_AT_TI_max_frame_size(0x2f)
    1504                      .dwpsn  file "../c5535_bsl_revc/ezdsp5535_v1/c55xx_csl/ccs_v4.0_examples/gpt/CSL_GPTExample/csl_gpt_e
    1505              
    1506                      .dwfde $C$DW$CIE, _gpt0Isr
    1507              ;*******************************************************************************
    1508              ;* INTERRUPT NAME: gpt0Isr                                                     *
    1509              ;*                                                                             *
    1510              ;*   Function Uses Regs : AC0,AC0,AC1,AC1,AC2,AC2,AC3,AC3,T0,T1,AR0,AR1,AR2,   *
    1511              ;*                        AR3,AR4,SP,BKC,BK03,BK47,ST1,ST2,ST3,BRC0,RSA0,REA0, *
    1512              ;*                        BRS1,BRC1,RSA1,REA1,CSR,RPTC,CDP,TRN0,TRN1,BSA01,    *
    1513              ;*                        BSA23,BSA45,BSA67,BSAC,M40,SATA,SATD,RDM,FRCT,SMUL   *
    1514              ;*   Save On Entry Regs : AC0,AC0,AC1,AC1,AC2,AC2,AC3,AC3,T0,T1,AR0,AR1,AR2,   *
    1515              ;*                        AR3,AR4,BKC,BK03,BK47,BRC0,RSA0,REA0,BRS1,BRC1,RSA1, *
    1516              ;*                        REA1,CSR,RPTC,CDP,TRN0,TRN1,BSA01,BSA23,BSA45,BSA67, *
    1517              ;*                        BSAC                                                 *
    1518              ;*******************************************************************************
    1519 000000       _gpt0Isr:
    1520                      .dwcfi  cfa_offset, 3
    1521                      .dwcfi  save_reg_to_mem, 91, -3
    1522 000000 F406          AND #0xf91f, mmap(ST1_55)
         000002 F91F 
         000004 98   
    1523 000005 F506          OR #0x4100, mmap(ST1_55)
         000007 4100 
         000009 98   
    1524 00000a F496          AND #0xfa00, mmap(ST2_55)
         00000c FA00 
         00000e 98   
    1525 00000f F596          OR #0x8000, mmap(ST2_55)
         000011 8000 
         000013 98   
    1526 000014 B508          PSH mmap(ST3_55)
         000016 98   
    1527                      .dwcfi  cfa_offset, 4
    1528                      .dwcfi  save_reg_to_mem, 42, -4
    1529 000017 5007          PSH dbl(AC0)
    1530                      .dwcfi  cfa_offset, 5
    1531                      .dwcfi  save_reg_to_mem, 0, -5
    1532                      .dwcfi  cfa_offset, 6
    1533                      .dwcfi  save_reg_to_mem, 1, -6
    1534 000019 B514          PSH mmap(AC0G)
         00001b 98   
    1535                      .dwcfi  cfa_offset, 7
    1536                      .dwcfi  save_reg_to_mem, 2, -7
    1537 00001c 5017          PSH dbl(AC1)
    1538                      .dwcfi  cfa_offset, 8
    1539                      .dwcfi  save_reg_to_mem, 3, -8
    1540                      .dwcfi  cfa_offset, 9
TMS320C55x Assembler PC v4.4.1 Sat Sep 29 23:09:39 2018

Tools Copyright (c) 1996-2012 Texas Instruments Incorporated
csl_gpt_example.asm                                                  PAGE   36

    1541                      .dwcfi  save_reg_to_mem, 4, -9
    1542 00001e B51A          PSH mmap(AC1G)
         000020 98   
    1543                      .dwcfi  cfa_offset, 10
    1544                      .dwcfi  save_reg_to_mem, 5, -10
    1545 000021 5027          PSH dbl(AC2)
    1546                      .dwcfi  cfa_offset, 11
    1547                      .dwcfi  save_reg_to_mem, 6, -11
    1548                      .dwcfi  cfa_offset, 12
    1549                      .dwcfi  save_reg_to_mem, 7, -12
    1550 000023 B54C          PSH mmap(AC2G)
         000025 98   
    1551                      .dwcfi  cfa_offset, 13
    1552                      .dwcfi  save_reg_to_mem, 8, -13
    1553 000026 5037          PSH dbl(AC3)
    1554                      .dwcfi  cfa_offset, 14
    1555                      .dwcfi  save_reg_to_mem, 9, -14
    1556                      .dwcfi  cfa_offset, 15
    1557                      .dwcfi  save_reg_to_mem, 10, -15
    1558 000028 B554          PSH mmap(AC3G)
         00002a 98   
    1559                      .dwcfi  cfa_offset, 16
    1560                      .dwcfi  save_reg_to_mem, 11, -16
    1561 00002b 5046          PSH T0
    1562                      .dwcfi  cfa_offset, 17
    1563                      .dwcfi  save_reg_to_mem, 12, -17
    1564 00002d 5056          PSH T1
    1565                      .dwcfi  cfa_offset, 18
    1566                      .dwcfi  save_reg_to_mem, 13, -18
    1567 00002f 5085          PSHBOTH XAR0
    1568                      .dwcfi  cfa_offset, 19
    1569                      .dwcfi  save_reg_to_mem, 16, -19
    1570 000031 5095          PSHBOTH XAR1
    1571                      .dwcfi  cfa_offset, 20
    1572                      .dwcfi  save_reg_to_mem, 18, -20
    1573 000033 50A5          PSHBOTH XAR2
    1574                      .dwcfi  cfa_offset, 21
    1575                      .dwcfi  save_reg_to_mem, 20, -21
    1576 000035 50B5          PSHBOTH XAR3
    1577                      .dwcfi  cfa_offset, 22
    1578                      .dwcfi  save_reg_to_mem, 22, -22
    1579 000037 50C5          PSHBOTH XAR4
    1580                      .dwcfi  cfa_offset, 23
    1581                      .dwcfi  save_reg_to_mem, 24, -23
    1582 000039 B562          PSH mmap(BKC)
         00003b 98   
    1583                      .dwcfi  cfa_offset, 24
    1584                      .dwcfi  save_reg_to_mem, 37, -24
    1585 00003c B532          PSH mmap(BK03)
         00003e 98   
    1586                      .dwcfi  cfa_offset, 25
    1587                      .dwcfi  save_reg_to_mem, 38, -25
    1588 00003f B560          PSH mmap(BK47)
         000041 98   
    1589                      .dwcfi  cfa_offset, 26
TMS320C55x Assembler PC v4.4.1 Sat Sep 29 23:09:39 2018

Tools Copyright (c) 1996-2012 Texas Instruments Incorporated
csl_gpt_example.asm                                                  PAGE   37

    1590                      .dwcfi  save_reg_to_mem, 39, -26
    1591 000042 B534          PSH mmap(BRC0)
         000044 98   
    1592                      .dwcfi  cfa_offset, 27
    1593                      .dwcfi  save_reg_to_mem, 47, -27
    1594 000045 B57A          PSH mmap(RSA0L)
         000047 98   
    1595                      .dwcfi  cfa_offset, 28
    1596                      .dwcfi  save_reg_to_mem, 48, -28
    1597 000048 B578          PSH mmap(RSA0H)
         00004a 98   
    1598                      .dwcfi  cfa_offset, 29
    1599                      .dwcfi  save_reg_to_mem, 49, -29
    1600 00004b B57E          PSH mmap(REA0L)
         00004d 98   
    1601                      .dwcfi  cfa_offset, 30
    1602                      .dwcfi  save_reg_to_mem, 50, -30
    1603 00004e B57C          PSH mmap(REA0H)
         000050 98   
    1604                      .dwcfi  cfa_offset, 31
    1605                      .dwcfi  save_reg_to_mem, 51, -31
    1606 000051 B574          PSH mmap(BRS1)
         000053 98   
    1607                      .dwcfi  cfa_offset, 32
    1608                      .dwcfi  save_reg_to_mem, 52, -32
    1609 000054 B572          PSH mmap(BRC1)
         000056 98   
    1610                      .dwcfi  cfa_offset, 33
    1611                      .dwcfi  save_reg_to_mem, 53, -33
    1612 000057 B582          PSH mmap(RSA1L)
         000059 98   
    1613                      .dwcfi  cfa_offset, 34
    1614                      .dwcfi  save_reg_to_mem, 54, -34
    1615 00005a B580          PSH mmap(RSA1H)
         00005c 98   
    1616                      .dwcfi  cfa_offset, 35
    1617                      .dwcfi  save_reg_to_mem, 55, -35
    1618 00005d B586          PSH mmap(REA1L)
         00005f 98   
    1619                      .dwcfi  cfa_offset, 36
    1620                      .dwcfi  save_reg_to_mem, 56, -36
    1621 000060 B584          PSH mmap(REA1H)
         000062 98   
    1622                      .dwcfi  cfa_offset, 37
    1623                      .dwcfi  save_reg_to_mem, 57, -37
    1624 000063 B576          PSH mmap(CSR)
         000065 98   
    1625                      .dwcfi  cfa_offset, 38
    1626                      .dwcfi  save_reg_to_mem, 58, -38
    1627 000066 B588          PSH mmap(RPTC)
         000068 98   
    1628                      .dwcfi  cfa_offset, 39
    1629                      .dwcfi  save_reg_to_mem, 59, -39
    1630 000069 5075          PSHBOTH XCDP
    1631                      .dwcfi  cfa_offset, 40
TMS320C55x Assembler PC v4.4.1 Sat Sep 29 23:09:39 2018

Tools Copyright (c) 1996-2012 Texas Instruments Incorporated
csl_gpt_example.asm                                                  PAGE   38

    1632                      .dwcfi  save_reg_to_mem, 60, -40
    1633 00006b B51E          PSH mmap(TRN0)
         00006d 98   
    1634                      .dwcfi  cfa_offset, 41
    1635                      .dwcfi  save_reg_to_mem, 62, -41
    1636 00006e B570          PSH mmap(TRN1)
         000070 98   
    1637                      .dwcfi  cfa_offset, 42
    1638                      .dwcfi  save_reg_to_mem, 63, -42
    1639 000071 B564          PSH mmap(BSA01)
         000073 98   
    1640                      .dwcfi  cfa_offset, 43
    1641                      .dwcfi  save_reg_to_mem, 64, -43
    1642 000074 B566          PSH mmap(BSA23)
         000076 98   
    1643                      .dwcfi  cfa_offset, 44
    1644                      .dwcfi  save_reg_to_mem, 65, -44
    1645 000077 B568          PSH mmap(BSA45)
         000079 98   
    1646                      .dwcfi  cfa_offset, 45
    1647                      .dwcfi  save_reg_to_mem, 66, -45
    1648 00007a B56A          PSH mmap(BSA67)
         00007c 98   
    1649                      .dwcfi  cfa_offset, 46
    1650                      .dwcfi  save_reg_to_mem, 67, -46
    1651 00007d B56C          PSH mmap(BSAC)
         00007f 98   
    1652                      .dwcfi  cfa_offset, 47
    1653                      .dwcfi  save_reg_to_mem, 68, -47
    1654 000080 EC00          AMAR *SP(#0), XAR1
         000082 9E   
    1655 000083 F49A          AND #0xfffe, mmap(SP)
         000085 FFFE 
         000087 98   
    1656 000088 5096          PSH AR1
    1657 00008a 4EFF          AADD #-1, SP
    1658                      .dwcfi  cfa_offset, 47
    1659                      .dwpsn  file "../c5535_bsl_revc/ezdsp5535_v1/c55xx_csl/ccs_v4.0_examples/gpt/CSL_GPTExample/csl_gpt_e
    1660 00008c E631          MOV #1, *(#_hitIsr) ; |539| 
         00008e 0100 
         000090 0004-
    1661                      .dwpsn  file "../c5535_bsl_revc/ezdsp5535_v1/c55xx_csl/ccs_v4.0_examples/gpt/CSL_GPTExample/csl_gpt_e
    1662 000092 4656          BCLR ST3_SATA
    1663 000094 4617          BSET ST3_SMUL
    1664              $C$DW$140       .dwtag  DW_TAG_TI_branch
    1665                      .dwattr $C$DW$140, DW_AT_low_pc(0x00)
    1666                      .dwattr $C$DW$140, DW_AT_name("_IRQ_clear")
    1667                      .dwattr $C$DW$140, DW_AT_TI_call
    1668              
    1669 000096 6C00          CALL #_IRQ_clear ; |540| 
         000098 0000!
    1670 00009a 3D44  ||      MOV #4, T0
    1671              
    1672                                                      ; call occurs [#_IRQ_clear] ; |540| 
    1673                      .dwpsn  file "../c5535_bsl_revc/ezdsp5535_v1/c55xx_csl/ccs_v4.0_examples/gpt/CSL_GPTExample/csl_gpt_e
TMS320C55x Assembler PC v4.4.1 Sat Sep 29 23:09:39 2018

Tools Copyright (c) 1996-2012 Texas Instruments Incorporated
csl_gpt_example.asm                                                  PAGE   39

    1674 00009c E651          MOV #1, *port(#7188) ; |542| 
         00009e 011C 
         0000a0 14   
    1675                      .dwpsn  file "../c5535_bsl_revc/ezdsp5535_v1/c55xx_csl/ccs_v4.0_examples/gpt/CSL_GPTExample/csl_gpt_e
    1676 0000a1 4E01          AADD #1, SP
    1677                      .dwcfi  cfa_offset, 47
    1678 0000a3 BB9A          POP mmap(SP)
         0000a5 98   
    1679 0000a6 BB6C          POP mmap(BSAC)
         0000a8 98   
    1680                      .dwcfi  restore_reg, 68
    1681                      .dwcfi  cfa_offset, 46
    1682 0000a9 BB6A          POP mmap(BSA67)
         0000ab 98   
    1683                      .dwcfi  restore_reg, 67
    1684                      .dwcfi  cfa_offset, 45
    1685 0000ac BB68          POP mmap(BSA45)
         0000ae 98   
    1686                      .dwcfi  restore_reg, 66
    1687                      .dwcfi  cfa_offset, 44
    1688 0000af BB66          POP mmap(BSA23)
         0000b1 98   
    1689                      .dwcfi  restore_reg, 65
    1690                      .dwcfi  cfa_offset, 43
    1691 0000b2 BB64          POP mmap(BSA01)
         0000b4 98   
    1692                      .dwcfi  restore_reg, 64
    1693                      .dwcfi  cfa_offset, 42
    1694 0000b5 BB70          POP mmap(TRN1)
         0000b7 98   
    1695                      .dwcfi  restore_reg, 63
    1696                      .dwcfi  cfa_offset, 41
    1697 0000b8 BB1E          POP mmap(TRN0)
         0000ba 98   
    1698                      .dwcfi  restore_reg, 62
    1699                      .dwcfi  cfa_offset, 40
    1700 0000bb 5074          POPBOTH XCDP
    1701                      .dwcfi  restore_reg, 60
    1702                      .dwcfi  cfa_offset, 39
    1703 0000bd BB88          POP mmap(RPTC)
         0000bf 98   
    1704                      .dwcfi  restore_reg, 59
    1705                      .dwcfi  cfa_offset, 38
    1706 0000c0 BB76          POP mmap(CSR)
         0000c2 98   
    1707                      .dwcfi  restore_reg, 58
    1708                      .dwcfi  cfa_offset, 37
    1709 0000c3 BB84          POP mmap(REA1H)
         0000c5 98   
    1710                      .dwcfi  restore_reg, 57
    1711                      .dwcfi  cfa_offset, 36
    1712 0000c6 BB86          POP mmap(REA1L)
         0000c8 98   
    1713                      .dwcfi  restore_reg, 56
    1714                      .dwcfi  cfa_offset, 35
TMS320C55x Assembler PC v4.4.1 Sat Sep 29 23:09:39 2018

Tools Copyright (c) 1996-2012 Texas Instruments Incorporated
csl_gpt_example.asm                                                  PAGE   40

    1715 0000c9 BB80          POP mmap(RSA1H)
         0000cb 98   
    1716                      .dwcfi  restore_reg, 55
    1717                      .dwcfi  cfa_offset, 34
    1718 0000cc BB82          POP mmap(RSA1L)
         0000ce 98   
    1719                      .dwcfi  restore_reg, 54
    1720                      .dwcfi  cfa_offset, 33
    1721 0000cf BB72          POP mmap(BRC1)
         0000d1 98   
    1722                      .dwcfi  restore_reg, 53
    1723                      .dwcfi  cfa_offset, 32
    1724 0000d2 BB74          POP mmap(BRS1)
         0000d4 98   
    1725                      .dwcfi  restore_reg, 52
    1726                      .dwcfi  cfa_offset, 31
    1727 0000d5 BB7C          POP mmap(REA0H)
         0000d7 98   
    1728                      .dwcfi  restore_reg, 51
    1729                      .dwcfi  cfa_offset, 30
    1730 0000d8 BB7E          POP mmap(REA0L)
         0000da 98   
    1731                      .dwcfi  restore_reg, 50
    1732                      .dwcfi  cfa_offset, 29
    1733 0000db BB78          POP mmap(RSA0H)
         0000dd 98   
    1734                      .dwcfi  restore_reg, 49
    1735                      .dwcfi  cfa_offset, 28
    1736 0000de BB7A          POP mmap(RSA0L)
         0000e0 98   
    1737                      .dwcfi  restore_reg, 48
    1738                      .dwcfi  cfa_offset, 27
    1739 0000e1 BB34          POP mmap(BRC0)
         0000e3 98   
    1740                      .dwcfi  restore_reg, 47
    1741                      .dwcfi  cfa_offset, 26
    1742 0000e4 BB60          POP mmap(BK47)
         0000e6 98   
    1743                      .dwcfi  restore_reg, 39
    1744                      .dwcfi  cfa_offset, 25
    1745 0000e7 BB32          POP mmap(BK03)
         0000e9 98   
    1746                      .dwcfi  restore_reg, 38
    1747                      .dwcfi  cfa_offset, 24
    1748 0000ea BB62          POP mmap(BKC)
         0000ec 98   
    1749                      .dwcfi  restore_reg, 37
    1750                      .dwcfi  cfa_offset, 23
    1751 0000ed 50C4          POPBOTH XAR4
    1752                      .dwcfi  restore_reg, 24
    1753                      .dwcfi  cfa_offset, 22
    1754 0000ef 50B4          POPBOTH XAR3
    1755                      .dwcfi  restore_reg, 22
    1756                      .dwcfi  cfa_offset, 21
    1757 0000f1 50A4          POPBOTH XAR2
TMS320C55x Assembler PC v4.4.1 Sat Sep 29 23:09:39 2018

Tools Copyright (c) 1996-2012 Texas Instruments Incorporated
csl_gpt_example.asm                                                  PAGE   41

    1758                      .dwcfi  restore_reg, 20
    1759                      .dwcfi  cfa_offset, 20
    1760 0000f3 5094          POPBOTH XAR1
    1761                      .dwcfi  restore_reg, 18
    1762                      .dwcfi  cfa_offset, 19
    1763 0000f5 5084          POPBOTH XAR0
    1764                      .dwcfi  restore_reg, 16
    1765                      .dwcfi  cfa_offset, 18
    1766 0000f7 5052          POP T1
    1767                      .dwcfi  restore_reg, 13
    1768                      .dwcfi  cfa_offset, 17
    1769 0000f9 5042          POP T0
    1770                      .dwcfi  restore_reg, 12
    1771                      .dwcfi  cfa_offset, 16
    1772 0000fb BB54          POP mmap(AC3G)
         0000fd 98   
    1773                      .dwcfi  restore_reg, 11
    1774                      .dwcfi  cfa_offset, 15
    1775                      .dwcfi  restore_reg, 10
    1776                      .dwcfi  cfa_offset, 14
    1777 0000fe 5033          POP dbl(AC3)
    1778                      .dwcfi  restore_reg, 9
    1779                      .dwcfi  cfa_offset, 13
    1780 000100 BB4C          POP mmap(AC2G)
         000102 98   
    1781                      .dwcfi  restore_reg, 8
    1782                      .dwcfi  cfa_offset, 12
    1783                      .dwcfi  restore_reg, 7
    1784                      .dwcfi  cfa_offset, 11
    1785 000103 5023          POP dbl(AC2)
    1786                      .dwcfi  restore_reg, 6
    1787                      .dwcfi  cfa_offset, 10
    1788 000105 BB1A          POP mmap(AC1G)
         000107 98   
    1789                      .dwcfi  restore_reg, 5
    1790                      .dwcfi  cfa_offset, 9
    1791                      .dwcfi  restore_reg, 4
    1792                      .dwcfi  cfa_offset, 8
    1793 000108 5013          POP dbl(AC1)
    1794                      .dwcfi  restore_reg, 3
    1795                      .dwcfi  cfa_offset, 7
    1796 00010a BB14          POP mmap(AC0G)
         00010c 98   
    1797                      .dwcfi  restore_reg, 2
    1798                      .dwcfi  cfa_offset, 6
    1799                      .dwcfi  restore_reg, 1
    1800                      .dwcfi  cfa_offset, 5
    1801 00010d 5003          POP dbl(AC0)
    1802                      .dwcfi  restore_reg, 0
    1803                      .dwcfi  cfa_offset, 4
    1804 00010f BB08          POP mmap(ST3_55)
         000111 98   
    1805                      .dwcfi  restore_reg, 43
    1806                      .dwcfi  cfa_offset, 3
    1807              $C$DW$141       .dwtag  DW_TAG_TI_branch
TMS320C55x Assembler PC v4.4.1 Sat Sep 29 23:09:39 2018

Tools Copyright (c) 1996-2012 Texas Instruments Incorporated
csl_gpt_example.asm                                                  PAGE   42

    1808                      .dwattr $C$DW$141, DW_AT_low_pc(0x00)
    1809                      .dwattr $C$DW$141, DW_AT_TI_return
    1810 000112 4805          RETI
    1811                                                      ; return occurs
    1812                      .dwattr $C$DW$139, DW_AT_TI_end_file("../c5535_bsl_revc/ezdsp5535_v1/c55xx_csl/ccs_v4.0_examples/gpt/
    1813                      .dwattr $C$DW$139, DW_AT_TI_end_line(0x21f)
    1814                      .dwattr $C$DW$139, DW_AT_TI_end_column(0x01)
    1815                      .dwendentry
    1816                      .dwendtag $C$DW$139
    1817              
    1818 000563               .sect   ".text"
    1819                      .align 4
    1820                      .global _getSysClk
    1821              
    1822              $C$DW$142       .dwtag  DW_TAG_subprogram, DW_AT_name("getSysClk")
    1823                      .dwattr $C$DW$142, DW_AT_low_pc(_getSysClk)
    1824                      .dwattr $C$DW$142, DW_AT_high_pc(0x00)
    1825                      .dwattr $C$DW$142, DW_AT_TI_symbol_name("_getSysClk")
    1826                      .dwattr $C$DW$142, DW_AT_external
    1827                      .dwattr $C$DW$142, DW_AT_type(*$C$DW$T$59)
    1828                      .dwattr $C$DW$142, DW_AT_TI_begin_file("../c5535_bsl_revc/ezdsp5535_v1/c55xx_csl/ccs_v4.0_examples/gp
    1829                      .dwattr $C$DW$142, DW_AT_TI_begin_line(0x22a)
    1830                      .dwattr $C$DW$142, DW_AT_TI_begin_column(0x08)
    1831                      .dwattr $C$DW$142, DW_AT_TI_max_frame_size(0x0a)
    1832                      .dwpsn  file "../c5535_bsl_revc/ezdsp5535_v1/c55xx_csl/ccs_v4.0_examples/gpt/CSL_GPTExample/csl_gpt_e
    1833              
    1834                      .dwfde $C$DW$CIE, _getSysClk
    1835              ;*******************************************************************************
    1836              ;* FUNCTION NAME: getSysClk                                                    *
    1837              ;*                                                                             *
    1838              ;*   Function Uses Regs : AC0,AC0,AC1,AC1,AR1,AR2,SP,CARRY,TC1,M40,SATA,SATD,  *
    1839              ;*                        RDM,FRCT,SMUL                                        *
    1840              ;*   Stack Frame        : Compact (No Frame Pointer, w/ debug)                 *
    1841              ;*   Total Frame Size   : 10 words                                             *
    1842              ;*                        (2 return address/alignment)                         *
    1843              ;*                        (8 local values)                                     *
    1844              ;*   Min System Stack   : 1 word                                               *
    1845              ;*******************************************************************************
    1846 000564       _getSysClk:
    1847                      .dwcfi  cfa_offset, 1
    1848                      .dwcfi  save_reg_to_mem, 91, -1
    1849 000564 4EF7          AADD #-9, SP
    1850                      .dwcfi  cfa_offset, 10
    1851              $C$DW$143       .dwtag  DW_TAG_variable, DW_AT_name("pllRDBypass")
    1852                      .dwattr $C$DW$143, DW_AT_TI_symbol_name("_pllRDBypass")
    1853                      .dwattr $C$DW$143, DW_AT_type(*$C$DW$T$73)
    1854                      .dwattr $C$DW$143, DW_AT_location[DW_OP_bregx 0x24 0]
    1855              $C$DW$144       .dwtag  DW_TAG_variable, DW_AT_name("pllOutDiv")
    1856                      .dwattr $C$DW$144, DW_AT_TI_symbol_name("_pllOutDiv")
    1857                      .dwattr $C$DW$144, DW_AT_type(*$C$DW$T$73)
    1858                      .dwattr $C$DW$144, DW_AT_location[DW_OP_bregx 0x24 1]
    1859              $C$DW$145       .dwtag  DW_TAG_variable, DW_AT_name("sysClk")
    1860                      .dwattr $C$DW$145, DW_AT_TI_symbol_name("_sysClk")
    1861                      .dwattr $C$DW$145, DW_AT_type(*$C$DW$T$59)
    1862                      .dwattr $C$DW$145, DW_AT_location[DW_OP_bregx 0x24 2]
TMS320C55x Assembler PC v4.4.1 Sat Sep 29 23:09:39 2018

Tools Copyright (c) 1996-2012 Texas Instruments Incorporated
csl_gpt_example.asm                                                  PAGE   43

    1863              $C$DW$146       .dwtag  DW_TAG_variable, DW_AT_name("pllVP")
    1864                      .dwattr $C$DW$146, DW_AT_TI_symbol_name("_pllVP")
    1865                      .dwattr $C$DW$146, DW_AT_type(*$C$DW$T$19)
    1866                      .dwattr $C$DW$146, DW_AT_location[DW_OP_bregx 0x24 4]
    1867              $C$DW$147       .dwtag  DW_TAG_variable, DW_AT_name("pllVS")
    1868                      .dwattr $C$DW$147, DW_AT_TI_symbol_name("_pllVS")
    1869                      .dwattr $C$DW$147, DW_AT_type(*$C$DW$T$19)
    1870                      .dwattr $C$DW$147, DW_AT_location[DW_OP_bregx 0x24 5]
    1871              $C$DW$148       .dwtag  DW_TAG_variable, DW_AT_name("pllRD")
    1872                      .dwattr $C$DW$148, DW_AT_TI_symbol_name("_pllRD")
    1873                      .dwattr $C$DW$148, DW_AT_type(*$C$DW$T$19)
    1874                      .dwattr $C$DW$148, DW_AT_location[DW_OP_bregx 0x24 6]
    1875              $C$DW$149       .dwtag  DW_TAG_variable, DW_AT_name("pllVO")
    1876                      .dwattr $C$DW$149, DW_AT_TI_symbol_name("_pllVO")
    1877                      .dwattr $C$DW$149, DW_AT_type(*$C$DW$T$19)
    1878                      .dwattr $C$DW$149, DW_AT_location[DW_OP_bregx 0x24 7]
    1879                      .dwpsn  file "../c5535_bsl_revc/ezdsp5535_v1/c55xx_csl/ccs_v4.0_examples/gpt/CSL_GPTExample/csl_gpt_e
    1880 000566 A951          MOV *port(#7200), AR1 ; |564| 
         000568 1C20 
    1881 00056a 7D0F          AND #0x0ffc, AR1, AC0 ; |564| 
         00056c FC09 
    1882 00056e 1005          SFTS AC0, #-2, AC0 ; |564| 
         000570 3E   
    1883 000571 C008          MOV AC0, *SP(#4) ; |564| 
    1884                      .dwpsn  file "../c5535_bsl_revc/ezdsp5535_v1/c55xx_csl/ccs_v4.0_examples/gpt/CSL_GPTExample/csl_gpt_e
    1885 000573 A951          MOV *port(#7200), AR1 ; |565| 
         000575 1C20 
    1886 000577 1803          AND #0x0003, AR1, AC0 ; |565| 
         000579 09   
    1887 00057a C00A          MOV AC0, *SP(#5) ; |565| 
    1888                      .dwpsn  file "../c5535_bsl_revc/ezdsp5535_v1/c55xx_csl/ccs_v4.0_examples/gpt/CSL_GPTExample/csl_gpt_e
    1889 00057c A951          MOV *port(#7201), AR1 ; |567| 
         00057e 1C21 
    1890 000580 7D0F          AND #0x0fff, AR1, AC0 ; |567| 
         000582 FF09 
    1891 000584 C00C          MOV AC0, *SP(#6) ; |567| 
    1892                      .dwpsn  file "../c5535_bsl_revc/ezdsp5535_v1/c55xx_csl/ccs_v4.0_examples/gpt/CSL_GPTExample/csl_gpt_e
    1893 000586 DF51          MOV uns(low_byte(*port(#7203))), AR1 ; |568| 
         000588 931C 
         00058a 23   
    1894 00058b C90E          MOV AR1, *SP(#7) ; |568| 
    1895                      .dwpsn  file "../c5535_bsl_revc/ezdsp5535_v1/c55xx_csl/ccs_v4.0_examples/gpt/CSL_GPTExample/csl_gpt_e
    1896 00058d A951          MOV *port(#7201), AR1 ; |570| 
         00058f 1C21 
    1897 000591 7D80          AND #0x8000, AR1, AC0 ; |570| 
         000593 0009 
    1898 000595 1005          SFTS AC0, #-15, AC0 ; |570| 
         000597 31   
    1899 000598 C000          MOV AC0, *SP(#0) ; |570| 
    1900                      .dwpsn  file "../c5535_bsl_revc/ezdsp5535_v1/c55xx_csl/ccs_v4.0_examples/gpt/CSL_GPTExample/csl_gpt_e
    1901 00059a A951          MOV *port(#7203), AR1 ; |571| 
         00059c 1C23 
    1902 00059e 7D02          AND #0x0200, AR1, AC0 ; |571| 
         0005a0 0009 
    1903 0005a2 1005          SFTS AC0, #-9, AC0 ; |571| 
TMS320C55x Assembler PC v4.4.1 Sat Sep 29 23:09:39 2018

Tools Copyright (c) 1996-2012 Texas Instruments Incorporated
csl_gpt_example.asm                                                  PAGE   44

         0005a4 37   
    1904 0005a5 C002          MOV AC0, *SP(#1) ; |571| 
    1905                      .dwpsn  file "../c5535_bsl_revc/ezdsp5535_v1/c55xx_csl/ccs_v4.0_examples/gpt/CSL_GPTExample/csl_gpt_e
    1906 0005a7 3C00          MOV #0, AC0 ; |573| 
    1907 0005a9 7E80          OR #0x8000, AC0, AC0 ; |573| 
         0005ab 0000 
    1908 0005ad EB04          MOV AC0, dbl(*SP(#2)) ; |573| 
         0005af 08   
    1909                      .dwpsn  file "../c5535_bsl_revc/ezdsp5535_v1/c55xx_csl/ccs_v4.0_examples/gpt/CSL_GPTExample/csl_gpt_e
    1910              
    1911 0005b0 A900          MOV *SP(#0), AR1 ; |575| 
    1912 0005b2 3D0A  ||      MOV #0, AR2
    1913              
    1914 0005b4 12AC          CMP AR2 != AR1, TC1 ; |575| 
         0005b6 90   
    1915 0005b7 0464          BCC $C$L29,TC1 ; |575| 
         0005b9 12   
    1916                                                      ; branchcc occurs ; |575| 
    1917                      .dwpsn  file "../c5535_bsl_revc/ezdsp5535_v1/c55xx_csl/ccs_v4.0_examples/gpt/CSL_GPTExample/csl_gpt_e
    1918 0005ba A90C          MOV *SP(#6), AR1 ; |577| 
    1919              
    1920 0005bf 4149          ADD #4, AR1 ; |577| 
    1921 0005bc ED04  ||      MOV dbl(*SP(#2)), AC0 ; |577| 
         0005be 08   
    1922              
    1923 0005c1 7DFF          AND #0xffff, AR1, AC1 ; |577| 
         0005c3 FF19 
    1924              $C$DW$150       .dwtag  DW_TAG_TI_branch
    1925                      .dwattr $C$DW$150, DW_AT_low_pc(0x00)
    1926                      .dwattr $C$DW$150, DW_AT_name("__divul")
    1927                      .dwattr $C$DW$150, DW_AT_TI_call
    1928 0005c5 6C00          CALL #__divul ; |577| 
         0005c7 0000!
    1929                                                      ; call occurs [#__divul] ; |577| 
    1930 0005c9 EB04          MOV AC0, dbl(*SP(#2)) ; |577| 
         0005cb 08   
    1931 0005cc       $C$L29:    
    1932                      .dwpsn  file "../c5535_bsl_revc/ezdsp5535_v1/c55xx_csl/ccs_v4.0_examples/gpt/CSL_GPTExample/csl_gpt_e
    1933 0005cc A008          MOV *SP(#4), AC0 ; |580| 
    1934 0005ce 1007          SFTL AC0, #2, AC0 ; |580| 
         0005d0 02   
    1935 0005d1 D60A          ADD *SP(#5), AC0, AR1 ; |580| 
         0005d3 90   
    1936 0005d4 4049          ADD #4, AR1 ; |580| 
    1937 0005d6 7DFF          AND #0xffff, AR1, AC1 ; |580| 
         0005d8 FF19 
    1938 0005da ED04          MOV dbl(*SP(#2)), AC0 ; |580| 
         0005dc 08   
    1939              $C$DW$151       .dwtag  DW_TAG_TI_branch
    1940                      .dwattr $C$DW$151, DW_AT_low_pc(0x00)
    1941                      .dwattr $C$DW$151, DW_AT_name("__mpyli")
    1942                      .dwattr $C$DW$151, DW_AT_TI_call
    1943 0005dd 6C00          CALL #__mpyli ; |580| 
         0005df 0000!
    1944                                                      ; call occurs [#__mpyli] ; |580| 
TMS320C55x Assembler PC v4.4.1 Sat Sep 29 23:09:39 2018

Tools Copyright (c) 1996-2012 Texas Instruments Incorporated
csl_gpt_example.asm                                                  PAGE   45

    1945 0005e1 EB04          MOV AC0, dbl(*SP(#2)) ; |580| 
         0005e3 08   
    1946                      .dwpsn  file "../c5535_bsl_revc/ezdsp5535_v1/c55xx_csl/ccs_v4.0_examples/gpt/CSL_GPTExample/csl_gpt_e
    1947              
    1948 0005e4 A902          MOV *SP(#1), AR1 ; |582| 
    1949 0005e6 3D1A  ||      MOV #1, AR2
    1950              
    1951 0005e8 12AC          CMP AR2 != AR1, TC1 ; |582| 
         0005ea 90   
    1952 0005eb 0464          BCC $C$L30,TC1 ; |582| 
         0005ed 12   
    1953                                                      ; branchcc occurs ; |582| 
    1954                      .dwpsn  file "../c5535_bsl_revc/ezdsp5535_v1/c55xx_csl/ccs_v4.0_examples/gpt/CSL_GPTExample/csl_gpt_e
    1955 0005ee A90E          MOV *SP(#7), AR1 ; |584| 
    1956              
    1957 0005f3 4119          ADD #1, AR1 ; |584| 
    1958 0005f0 ED04  ||      MOV dbl(*SP(#2)), AC0 ; |584| 
         0005f2 08   
    1959              
    1960 0005f5 7DFF          AND #0xffff, AR1, AC1 ; |584| 
         0005f7 FF19 
    1961              $C$DW$152       .dwtag  DW_TAG_TI_branch
    1962                      .dwattr $C$DW$152, DW_AT_low_pc(0x00)
    1963                      .dwattr $C$DW$152, DW_AT_name("__divul")
    1964                      .dwattr $C$DW$152, DW_AT_TI_call
    1965 0005f9 6C00          CALL #__divul ; |584| 
         0005fb 0000!
    1966                                                      ; call occurs [#__divul] ; |584| 
    1967 0005fd EB04          MOV AC0, dbl(*SP(#2)) ; |584| 
         0005ff 08   
    1968 000600       $C$L30:    
    1969                      .dwpsn  file "../c5535_bsl_revc/ezdsp5535_v1/c55xx_csl/ccs_v4.0_examples/gpt/CSL_GPTExample/csl_gpt_e
    1970 000600 ED04          MOV dbl(*SP(#2)), AC0 ; |588| 
         000602 08   
    1971 000603 7603          MOV #1000, AC1 ; |588| 
         000605 E818 
    1972              $C$DW$153       .dwtag  DW_TAG_TI_branch
    1973                      .dwattr $C$DW$153, DW_AT_low_pc(0x00)
    1974                      .dwattr $C$DW$153, DW_AT_name("__divul")
    1975                      .dwattr $C$DW$153, DW_AT_TI_call
    1976 000607 6C00          CALL #__divul ; |588| 
         000609 0000!
    1977                                                      ; call occurs [#__divul] ; |588| 
    1978                      .dwpsn  file "../c5535_bsl_revc/ezdsp5535_v1/c55xx_csl/ccs_v4.0_examples/gpt/CSL_GPTExample/csl_gpt_e
    1979 00060b 4E09          AADD #9, SP
    1980                      .dwcfi  cfa_offset, 1
    1981              $C$DW$154       .dwtag  DW_TAG_TI_branch
    1982                      .dwattr $C$DW$154, DW_AT_low_pc(0x00)
    1983                      .dwattr $C$DW$154, DW_AT_TI_return
    1984 00060d 4804          RET
    1985                                                      ; return occurs
    1986                      .dwattr $C$DW$142, DW_AT_TI_end_file("../c5535_bsl_revc/ezdsp5535_v1/c55xx_csl/ccs_v4.0_examples/gpt/
    1987                      .dwattr $C$DW$142, DW_AT_TI_end_line(0x24d)
    1988                      .dwattr $C$DW$142, DW_AT_TI_end_column(0x01)
    1989                      .dwendentry
TMS320C55x Assembler PC v4.4.1 Sat Sep 29 23:09:39 2018

Tools Copyright (c) 1996-2012 Texas Instruments Incorporated
csl_gpt_example.asm                                                  PAGE   46

    1990                      .dwendtag $C$DW$142
    1991              
    1992              ;*******************************************************************************
    1993              ;* FAR STRINGS                                                                 *
    1994              ;*******************************************************************************
    1995 000000               .sect   ".const:.string"
    1996                      .align  2
    1997 000000 0043  $C$FSL1:        .string "CSL GPT TESTS!",10,10,0
         000001 0053 
         000002 004C 
         000003 0020 
         000004 0047 
         000005 0050 
         000006 0054 
         000007 0020 
         000008 0054 
         000009 0045 
         00000a 0053 
         00000b 0054 
         00000c 0053 
         00000d 0021 
         00000e 000A 
         00000f 000A 
         000010 0000 
    1998                      .align  2
    1999 000012 0054  $C$FSL2:        .string "TIMER COUNT READ TEST!",10,0
         000013 0049 
         000014 004D 
         000015 0045 
         000016 0052 
         000017 0020 
         000018 0043 
         000019 004F 
         00001a 0055 
         00001b 004E 
         00001c 0054 
         00001d 0020 
         00001e 0052 
         00001f 0045 
         000020 0041 
         000021 0044 
         000022 0020 
         000023 0054 
         000024 0045 
         000025 0053 
         000026 0054 
         000027 0021 
         000028 000A 
         000029 0000 
    2000                      .align  2
    2001 00002a 0054  $C$FSL3:        .string "TIMER COUNT READ TEST FAILED!!",10,0
         00002b 0049 
         00002c 004D 
         00002d 0045 
         00002e 0052 
TMS320C55x Assembler PC v4.4.1 Sat Sep 29 23:09:39 2018

Tools Copyright (c) 1996-2012 Texas Instruments Incorporated
csl_gpt_example.asm                                                  PAGE   47

         00002f 0020 
         000030 0043 
         000031 004F 
         000032 0055 
         000033 004E 
         000034 0054 
         000035 0020 
         000036 0052 
         000037 0045 
         000038 0041 
         000039 0044 
         00003a 0020 
         00003b 0054 
         00003c 0045 
         00003d 0053 
         00003e 0054 
         00003f 0020 
         000040 0046 
         000041 0041 
         000042 0049 
         000043 004C 
         000044 0045 
         000045 0044 
         000046 0021 
         000047 0021 
         000048 000A 
         000049 0000 
    2002                      .align  2
    2003 00004a 0054  $C$FSL4:        .string "TIMER COUNT READ TEST PASSED!!",10,0
         00004b 0049 
         00004c 004D 
         00004d 0045 
         00004e 0052 
         00004f 0020 
         000050 0043 
         000051 004F 
         000052 0055 
         000053 004E 
         000054 0054 
         000055 0020 
         000056 0052 
         000057 0045 
         000058 0041 
         000059 0044 
         00005a 0020 
         00005b 0054 
         00005c 0045 
         00005d 0053 
         00005e 0054 
         00005f 0020 
         000060 0050 
         000061 0041 
         000062 0053 
         000063 0053 
         000064 0045 
TMS320C55x Assembler PC v4.4.1 Sat Sep 29 23:09:39 2018

Tools Copyright (c) 1996-2012 Texas Instruments Incorporated
csl_gpt_example.asm                                                  PAGE   48

         000065 0044 
         000066 0021 
         000067 0021 
         000068 000A 
         000069 0000 
    2004                      .align  2
    2005 00006a 000A  $C$FSL5:        .string 10,10,"TIMER COUNT RATE VERIFICATION TEST!",10,0
         00006b 000A 
         00006c 0054 
         00006d 0049 
         00006e 004D 
         00006f 0045 
         000070 0052 
         000071 0020 
         000072 0043 
         000073 004F 
         000074 0055 
         000075 004E 
         000076 0054 
         000077 0020 
         000078 0052 
         000079 0041 
         00007a 0054 
         00007b 0045 
         00007c 0020 
         00007d 0056 
         00007e 0045 
         00007f 0052 
         000080 0049 
         000081 0046 
         000082 0049 
         000083 0043 
         000084 0041 
         000085 0054 
         000086 0049 
         000087 004F 
         000088 004E 
         000089 0020 
         00008a 0054 
         00008b 0045 
         00008c 0053 
         00008d 0054 
         00008e 0021 
         00008f 000A 
         000090 0000 
    2006                      .align  2
    2007 000092 0054  $C$FSL6:        .string "THIS TEST VERIFIES WHETHER THE TIMER IS RUNNING AT CONFIGUR"
         000093 0048 
         000094 0049 
         000095 0053 
         000096 0020 
         000097 0054 
         000098 0045 
         000099 0053 
         00009a 0054 
TMS320C55x Assembler PC v4.4.1 Sat Sep 29 23:09:39 2018

Tools Copyright (c) 1996-2012 Texas Instruments Incorporated
csl_gpt_example.asm                                                  PAGE   49

         00009b 0020 
         00009c 0056 
         00009d 0045 
         00009e 0052 
         00009f 0049 
         0000a0 0046 
         0000a1 0049 
         0000a2 0045 
         0000a3 0053 
         0000a4 0020 
         0000a5 0057 
         0000a6 0048 
         0000a7 0045 
         0000a8 0054 
         0000a9 0048 
         0000aa 0045 
         0000ab 0052 
         0000ac 0020 
         0000ad 0054 
         0000ae 0048 
         0000af 0045 
         0000b0 0020 
         0000b1 0054 
         0000b2 0049 
         0000b3 004D 
         0000b4 0045 
         0000b5 0052 
         0000b6 0020 
         0000b7 0049 
         0000b8 0053 
         0000b9 0020 
         0000ba 0052 
         0000bb 0055 
         0000bc 004E 
         0000bd 004E 
         0000be 0049 
         0000bf 004E 
         0000c0 0047 
         0000c1 0020 
         0000c2 0041 
         0000c3 0054 
         0000c4 0020 
         0000c5 0043 
         0000c6 004F 
         0000c7 004E 
         0000c8 0046 
         0000c9 0049 
         0000ca 0047 
         0000cb 0055 
         0000cc 0052 
    2008 0000cd 0045          .string "ED RATE OR NOT",0
         0000ce 0044 
         0000cf 0020 
         0000d0 0052 
         0000d1 0041 
TMS320C55x Assembler PC v4.4.1 Sat Sep 29 23:09:39 2018

Tools Copyright (c) 1996-2012 Texas Instruments Incorporated
csl_gpt_example.asm                                                  PAGE   50

         0000d2 0054 
         0000d3 0045 
         0000d4 0020 
         0000d5 004F 
         0000d6 0052 
         0000d7 0020 
         0000d8 004E 
         0000d9 004F 
         0000da 0054 
         0000db 0000 
    2009                      .align  2
    2010 0000dc 0054  $C$FSL7:        .string "TIMER COUNT RATE VERIFICATION TEST FAILED!!",10,0
         0000dd 0049 
         0000de 004D 
         0000df 0045 
         0000e0 0052 
         0000e1 0020 
         0000e2 0043 
         0000e3 004F 
         0000e4 0055 
         0000e5 004E 
         0000e6 0054 
         0000e7 0020 
         0000e8 0052 
         0000e9 0041 
         0000ea 0054 
         0000eb 0045 
         0000ec 0020 
         0000ed 0056 
         0000ee 0045 
         0000ef 0052 
         0000f0 0049 
         0000f1 0046 
         0000f2 0049 
         0000f3 0043 
         0000f4 0041 
         0000f5 0054 
         0000f6 0049 
         0000f7 004F 
         0000f8 004E 
         0000f9 0020 
         0000fa 0054 
         0000fb 0045 
         0000fc 0053 
         0000fd 0054 
         0000fe 0020 
         0000ff 0046 
         000100 0041 
         000101 0049 
         000102 004C 
         000103 0045 
         000104 0044 
         000105 0021 
         000106 0021 
         000107 000A 
TMS320C55x Assembler PC v4.4.1 Sat Sep 29 23:09:39 2018

Tools Copyright (c) 1996-2012 Texas Instruments Incorporated
csl_gpt_example.asm                                                  PAGE   51

         000108 0000 
    2011                      .align  2
    2012 00010a 0054  $C$FSL8:        .string "TIMER COUNT RATE VERIFICATION TEST PASSED!!",10,0
         00010b 0049 
         00010c 004D 
         00010d 0045 
         00010e 0052 
         00010f 0020 
         000110 0043 
         000111 004F 
         000112 0055 
         000113 004E 
         000114 0054 
         000115 0020 
         000116 0052 
         000117 0041 
         000118 0054 
         000119 0045 
         00011a 0020 
         00011b 0056 
         00011c 0045 
         00011d 0052 
         00011e 0049 
         00011f 0046 
         000120 0049 
         000121 0043 
         000122 0041 
         000123 0054 
         000124 0049 
         000125 004F 
         000126 004E 
         000127 0020 
         000128 0054 
         000129 0045 
         00012a 0053 
         00012b 0054 
         00012c 0020 
         00012d 0050 
         00012e 0041 
         00012f 0053 
         000130 0053 
         000131 0045 
         000132 0044 
         000133 0021 
         000134 0021 
         000135 000A 
         000136 0000 
    2013                      .align  2
    2014 000138 0047  $C$FSL9:        .string "GPT Open Failed",10,0
         000139 0050 
         00013a 0054 
         00013b 0020 
         00013c 004F 
         00013d 0070 
         00013e 0065 
TMS320C55x Assembler PC v4.4.1 Sat Sep 29 23:09:39 2018

Tools Copyright (c) 1996-2012 Texas Instruments Incorporated
csl_gpt_example.asm                                                  PAGE   52

         00013f 006E 
         000140 0020 
         000141 0046 
         000142 0061 
         000143 0069 
         000144 006C 
         000145 0065 
         000146 0064 
         000147 000A 
         000148 0000 
    2015                      .align  2
    2016 00014a 0047  $C$FSL10:       .string "GPT Open Successful",10,0
         00014b 0050 
         00014c 0054 
         00014d 0020 
         00014e 004F 
         00014f 0070 
         000150 0065 
         000151 006E 
         000152 0020 
         000153 0053 
         000154 0075 
         000155 0063 
         000156 0063 
         000157 0065 
         000158 0073 
         000159 0073 
         00015a 0066 
         00015b 0075 
         00015c 006C 
         00015d 000A 
         00015e 0000 
    2017                      .align  2
    2018 000160 0047  $C$FSL11:       .string "GPT Reset Failed",10,0
         000161 0050 
         000162 0054 
         000163 0020 
         000164 0052 
         000165 0065 
         000166 0073 
         000167 0065 
         000168 0074 
         000169 0020 
         00016a 0046 
         00016b 0061 
         00016c 0069 
         00016d 006C 
         00016e 0065 
         00016f 0064 
         000170 000A 
         000171 0000 
    2019                      .align  2
    2020 000172 0047  $C$FSL12:       .string "GPT Reset Successful",10,0
         000173 0050 
         000174 0054 
TMS320C55x Assembler PC v4.4.1 Sat Sep 29 23:09:39 2018

Tools Copyright (c) 1996-2012 Texas Instruments Incorporated
csl_gpt_example.asm                                                  PAGE   53

         000175 0020 
         000176 0052 
         000177 0065 
         000178 0073 
         000179 0065 
         00017a 0074 
         00017b 0020 
         00017c 0053 
         00017d 0075 
         00017e 0063 
         00017f 0063 
         000180 0065 
         000181 0073 
         000182 0073 
         000183 0066 
         000184 0075 
         000185 006C 
         000186 000A 
         000187 0000 
    2021                      .align  2
    2022 000188 0047  $C$FSL13:       .string "GPT Config Failed",10,0
         000189 0050 
         00018a 0054 
         00018b 0020 
         00018c 0043 
         00018d 006F 
         00018e 006E 
         00018f 0066 
         000190 0069 
         000191 0067 
         000192 0020 
         000193 0046 
         000194 0061 
         000195 0069 
         000196 006C 
         000197 0065 
         000198 0064 
         000199 000A 
         00019a 0000 
    2023                      .align  2
    2024 00019c 0047  $C$FSL14:       .string "GPT Config Successful",10,0
         00019d 0050 
         00019e 0054 
         00019f 0020 
         0001a0 0043 
         0001a1 006F 
         0001a2 006E 
         0001a3 0066 
         0001a4 0069 
         0001a5 0067 
         0001a6 0020 
         0001a7 0053 
         0001a8 0075 
         0001a9 0063 
         0001aa 0063 
TMS320C55x Assembler PC v4.4.1 Sat Sep 29 23:09:39 2018

Tools Copyright (c) 1996-2012 Texas Instruments Incorporated
csl_gpt_example.asm                                                  PAGE   54

         0001ab 0065 
         0001ac 0073 
         0001ad 0073 
         0001ae 0066 
         0001af 0075 
         0001b0 006C 
         0001b1 000A 
         0001b2 0000 
    2025                      .align  2
    2026 0001b4 0047  $C$FSL15:       .string "GPT Start Failed",10,0
         0001b5 0050 
         0001b6 0054 
         0001b7 0020 
         0001b8 0053 
         0001b9 0074 
         0001ba 0061 
         0001bb 0072 
         0001bc 0074 
         0001bd 0020 
         0001be 0046 
         0001bf 0061 
         0001c0 0069 
         0001c1 006C 
         0001c2 0065 
         0001c3 0064 
         0001c4 000A 
         0001c5 0000 
    2027                      .align  2
    2028 0001c6 0047  $C$FSL16:       .string "GPT Count-1 Failed ",10,0
         0001c7 0050 
         0001c8 0054 
         0001c9 0020 
         0001ca 0043 
         0001cb 006F 
         0001cc 0075 
         0001cd 006E 
         0001ce 0074 
         0001cf 002D 
         0001d0 0031 
         0001d1 0020 
         0001d2 0046 
         0001d3 0061 
         0001d4 0069 
         0001d5 006C 
         0001d6 0065 
         0001d7 0064 
         0001d8 0020 
         0001d9 000A 
         0001da 0000 
    2029                      .align  2
    2030 0001dc 0047  $C$FSL17:       .string "GPT Count-1 Successful",10,0
         0001dd 0050 
         0001de 0054 
         0001df 0020 
         0001e0 0043 
TMS320C55x Assembler PC v4.4.1 Sat Sep 29 23:09:39 2018

Tools Copyright (c) 1996-2012 Texas Instruments Incorporated
csl_gpt_example.asm                                                  PAGE   55

         0001e1 006F 
         0001e2 0075 
         0001e3 006E 
         0001e4 0074 
         0001e5 002D 
         0001e6 0031 
         0001e7 0020 
         0001e8 0053 
         0001e9 0075 
         0001ea 0063 
         0001eb 0063 
         0001ec 0065 
         0001ed 0073 
         0001ee 0073 
         0001ef 0066 
         0001f0 0075 
         0001f1 006C 
         0001f2 000A 
         0001f3 0000 
    2031                      .align  2
    2032 0001f4 0047  $C$FSL18:       .string "GPT Count-2 Failed ",10,0
         0001f5 0050 
         0001f6 0054 
         0001f7 0020 
         0001f8 0043 
         0001f9 006F 
         0001fa 0075 
         0001fb 006E 
         0001fc 0074 
         0001fd 002D 
         0001fe 0032 
         0001ff 0020 
         000200 0046 
         000201 0061 
         000202 0069 
         000203 006C 
         000204 0065 
         000205 0064 
         000206 0020 
         000207 000A 
         000208 0000 
    2033                      .align  2
    2034 00020a 0047  $C$FSL19:       .string "GPT Count-2 Success ",10,0
         00020b 0050 
         00020c 0054 
         00020d 0020 
         00020e 0043 
         00020f 006F 
         000210 0075 
         000211 006E 
         000212 0074 
         000213 002D 
         000214 0032 
         000215 0020 
         000216 0053 
TMS320C55x Assembler PC v4.4.1 Sat Sep 29 23:09:39 2018

Tools Copyright (c) 1996-2012 Texas Instruments Incorporated
csl_gpt_example.asm                                                  PAGE   56

         000217 0075 
         000218 0063 
         000219 0063 
         00021a 0065 
         00021b 0073 
         00021c 0073 
         00021d 0020 
         00021e 000A 
         00021f 0000 
    2035                      .align  2
    2036 000220 0047  $C$FSL20:       .string "GTP Time Count Compare Failed",10,0
         000221 0054 
         000222 0050 
         000223 0020 
         000224 0054 
         000225 0069 
         000226 006D 
         000227 0065 
         000228 0020 
         000229 0043 
         00022a 006F 
         00022b 0075 
         00022c 006E 
         00022d 0074 
         00022e 0020 
         00022f 0043 
         000230 006F 
         000231 006D 
         000232 0070 
         000233 0061 
         000234 0072 
         000235 0065 
         000236 0020 
         000237 0046 
         000238 0061 
         000239 0069 
         00023a 006C 
         00023b 0065 
         00023c 0064 
         00023d 000A 
         00023e 0000 
    2037                      .align  2
    2038 000240 0047  $C$FSL21:       .string "GTP Time Count Compare Successful",10,0
         000241 0054 
         000242 0050 
         000243 0020 
         000244 0054 
         000245 0069 
         000246 006D 
         000247 0065 
         000248 0020 
         000249 0043 
         00024a 006F 
         00024b 0075 
         00024c 006E 
TMS320C55x Assembler PC v4.4.1 Sat Sep 29 23:09:39 2018

Tools Copyright (c) 1996-2012 Texas Instruments Incorporated
csl_gpt_example.asm                                                  PAGE   57

         00024d 0074 
         00024e 0020 
         00024f 0043 
         000250 006F 
         000251 006D 
         000252 0070 
         000253 0061 
         000254 0072 
         000255 0065 
         000256 0020 
         000257 0053 
         000258 0075 
         000259 0063 
         00025a 0063 
         00025b 0065 
         00025c 0073 
         00025d 0073 
         00025e 0066 
         00025f 0075 
         000260 006C 
         000261 000A 
         000262 0000 
    2039                      .align  2
    2040 000264 0047  $C$FSL22:       .string "GPT Stop Failed ",10,0
         000265 0050 
         000266 0054 
         000267 0020 
         000268 0053 
         000269 0074 
         00026a 006F 
         00026b 0070 
         00026c 0020 
         00026d 0046 
         00026e 0061 
         00026f 0069 
         000270 006C 
         000271 0065 
         000272 0064 
         000273 0020 
         000274 000A 
         000275 0000 
    2041                      .align  2
    2042 000276 0047  $C$FSL23:       .string "GPT Stop Successful",10,0
         000277 0050 
         000278 0054 
         000279 0020 
         00027a 0053 
         00027b 0074 
         00027c 006F 
         00027d 0070 
         00027e 0020 
         00027f 0053 
         000280 0075 
         000281 0063 
         000282 0063 
TMS320C55x Assembler PC v4.4.1 Sat Sep 29 23:09:39 2018

Tools Copyright (c) 1996-2012 Texas Instruments Incorporated
csl_gpt_example.asm                                                  PAGE   58

         000283 0065 
         000284 0073 
         000285 0073 
         000286 0066 
         000287 0075 
         000288 006C 
         000289 000A 
         00028a 0000 
    2043                      .align  2
    2044 00028c 0047  $C$FSL24:       .string "GPT Close Failed",10,0
         00028d 0050 
         00028e 0054 
         00028f 0020 
         000290 0043 
         000291 006C 
         000292 006F 
         000293 0073 
         000294 0065 
         000295 0020 
         000296 0046 
         000297 0061 
         000298 0069 
         000299 006C 
         00029a 0065 
         00029b 0064 
         00029c 000A 
         00029d 0000 
    2045                      .align  2
    2046 00029e 0047  $C$FSL25:       .string "GPT Close Successful",10,0
         00029f 0050 
         0002a0 0054 
         0002a1 0020 
         0002a2 0043 
         0002a3 006C 
         0002a4 006F 
         0002a5 0073 
         0002a6 0065 
         0002a7 0020 
         0002a8 0053 
         0002a9 0075 
         0002aa 0063 
         0002ab 0063 
         0002ac 0065 
         0002ad 0073 
         0002ae 0073 
         0002af 0066 
         0002b0 0075 
         0002b1 006C 
         0002b2 000A 
         0002b3 0000 
    2047                      .align  2
    2048 0002b4 000A  $C$FSL26:       .string 10,10,"CPU clock is running at %ldKHz",10,0
         0002b5 000A 
         0002b6 0043 
         0002b7 0050 
TMS320C55x Assembler PC v4.4.1 Sat Sep 29 23:09:39 2018

Tools Copyright (c) 1996-2012 Texas Instruments Incorporated
csl_gpt_example.asm                                                  PAGE   59

         0002b8 0055 
         0002b9 0020 
         0002ba 0063 
         0002bb 006C 
         0002bc 006F 
         0002bd 0063 
         0002be 006B 
         0002bf 0020 
         0002c0 0069 
         0002c1 0073 
         0002c2 0020 
         0002c3 0072 
         0002c4 0075 
         0002c5 006E 
         0002c6 006E 
         0002c7 0069 
         0002c8 006E 
         0002c9 0067 
         0002ca 0020 
         0002cb 0061 
         0002cc 0074 
         0002cd 0020 
         0002ce 0025 
         0002cf 006C 
         0002d0 0064 
         0002d1 004B 
         0002d2 0048 
         0002d3 007A 
         0002d4 000A 
         0002d5 0000 
    2049                      .align  2
    2050 0002d6 0054  $C$FSL27:       .string "Timer Prescaler Divide Value is Set to Divide by 4",10,0
         0002d7 0069 
         0002d8 006D 
         0002d9 0065 
         0002da 0072 
         0002db 0020 
         0002dc 0050 
         0002dd 0072 
         0002de 0065 
         0002df 0073 
         0002e0 0063 
         0002e1 0061 
         0002e2 006C 
         0002e3 0065 
         0002e4 0072 
         0002e5 0020 
         0002e6 0044 
         0002e7 0069 
         0002e8 0076 
         0002e9 0069 
         0002ea 0064 
         0002eb 0065 
         0002ec 0020 
         0002ed 0056 
TMS320C55x Assembler PC v4.4.1 Sat Sep 29 23:09:39 2018

Tools Copyright (c) 1996-2012 Texas Instruments Incorporated
csl_gpt_example.asm                                                  PAGE   60

         0002ee 0061 
         0002ef 006C 
         0002f0 0075 
         0002f1 0065 
         0002f2 0020 
         0002f3 0069 
         0002f4 0073 
         0002f5 0020 
         0002f6 0053 
         0002f7 0065 
         0002f8 0074 
         0002f9 0020 
         0002fa 0074 
         0002fb 006F 
         0002fc 0020 
         0002fd 0044 
         0002fe 0069 
         0002ff 0076 
         000300 0069 
         000301 0064 
         000302 0065 
         000303 0020 
         000304 0062 
         000305 0079 
         000306 0020 
         000307 0034 
         000308 000A 
         000309 0000 
    2051                      .align  2
    2052 00030a 0047  $C$FSL28:       .string "GPT Runs at Rate 1/4 of the CPU System Clock",10,0
         00030b 0050 
         00030c 0054 
         00030d 0020 
         00030e 0052 
         00030f 0075 
         000310 006E 
         000311 0073 
         000312 0020 
         000313 0061 
         000314 0074 
         000315 0020 
         000316 0052 
         000317 0061 
         000318 0074 
         000319 0065 
         00031a 0020 
         00031b 0031 
         00031c 002F 
         00031d 0034 
         00031e 0020 
         00031f 006F 
         000320 0066 
         000321 0020 
         000322 0074 
         000323 0068 
TMS320C55x Assembler PC v4.4.1 Sat Sep 29 23:09:39 2018

Tools Copyright (c) 1996-2012 Texas Instruments Incorporated
csl_gpt_example.asm                                                  PAGE   61

         000324 0065 
         000325 0020 
         000326 0043 
         000327 0050 
         000328 0055 
         000329 0020 
         00032a 0053 
         00032b 0079 
         00032c 0073 
         00032d 0074 
         00032e 0065 
         00032f 006D 
         000330 0020 
         000331 0043 
         000332 006C 
         000333 006F 
         000334 0063 
         000335 006B 
         000336 000A 
         000337 0000 
    2053                      .align  2
    2054 000338 0047  $C$FSL29:       .string "GPT Count is Initialized to 1/4 of CPU Clock Cycles per Mil"
         000339 0050 
         00033a 0054 
         00033b 0020 
         00033c 0043 
         00033d 006F 
         00033e 0075 
         00033f 006E 
         000340 0074 
         000341 0020 
         000342 0069 
         000343 0073 
         000344 0020 
         000345 0049 
         000346 006E 
         000347 0069 
         000348 0074 
         000349 0069 
         00034a 0061 
         00034b 006C 
         00034c 0069 
         00034d 007A 
         00034e 0065 
         00034f 0064 
         000350 0020 
         000351 0074 
         000352 006F 
         000353 0020 
         000354 0031 
         000355 002F 
         000356 0034 
         000357 0020 
         000358 006F 
         000359 0066 
TMS320C55x Assembler PC v4.4.1 Sat Sep 29 23:09:39 2018

Tools Copyright (c) 1996-2012 Texas Instruments Incorporated
csl_gpt_example.asm                                                  PAGE   62

         00035a 0020 
         00035b 0043 
         00035c 0050 
         00035d 0055 
         00035e 0020 
         00035f 0043 
         000360 006C 
         000361 006F 
         000362 0063 
         000363 006B 
         000364 0020 
         000365 0043 
         000366 0079 
         000367 0063 
         000368 006C 
         000369 0065 
         00036a 0073 
         00036b 0020 
         00036c 0070 
         00036d 0065 
         00036e 0072 
         00036f 0020 
         000370 004D 
         000371 0069 
         000372 006C 
    2055 000373 006C          .string "lisecond",10,0
         000374 0069 
         000375 0073 
         000376 0065 
         000377 0063 
         000378 006F 
         000379 006E 
         00037a 0064 
         00037b 000A 
         00037c 0000 
    2056                      .align  2
    2057 00037e 0057  $C$FSL30:       .string "With Reference to CPU Clock GPT Will Take 1 Millisecond to "
         00037f 0069 
         000380 0074 
         000381 0068 
         000382 0020 
         000383 0052 
         000384 0065 
         000385 0066 
         000386 0065 
         000387 0072 
         000388 0065 
         000389 006E 
         00038a 0063 
         00038b 0065 
         00038c 0020 
         00038d 0074 
         00038e 006F 
         00038f 0020 
         000390 0043 
TMS320C55x Assembler PC v4.4.1 Sat Sep 29 23:09:39 2018

Tools Copyright (c) 1996-2012 Texas Instruments Incorporated
csl_gpt_example.asm                                                  PAGE   63

         000391 0050 
         000392 0055 
         000393 0020 
         000394 0043 
         000395 006C 
         000396 006F 
         000397 0063 
         000398 006B 
         000399 0020 
         00039a 0047 
         00039b 0050 
         00039c 0054 
         00039d 0020 
         00039e 0057 
         00039f 0069 
         0003a0 006C 
         0003a1 006C 
         0003a2 0020 
         0003a3 0054 
         0003a4 0061 
         0003a5 006B 
         0003a6 0065 
         0003a7 0020 
         0003a8 0031 
         0003a9 0020 
         0003aa 004D 
         0003ab 0069 
         0003ac 006C 
         0003ad 006C 
         0003ae 0069 
         0003af 0073 
         0003b0 0065 
         0003b1 0063 
         0003b2 006F 
         0003b3 006E 
         0003b4 0064 
         0003b5 0020 
         0003b6 0074 
         0003b7 006F 
         0003b8 0020 
    2058 0003b9 0043          .string "Count Down the Timer to 0",10,0
         0003ba 006F 
         0003bb 0075 
         0003bc 006E 
         0003bd 0074 
         0003be 0020 
         0003bf 0044 
         0003c0 006F 
         0003c1 0077 
         0003c2 006E 
         0003c3 0020 
         0003c4 0074 
         0003c5 0068 
         0003c6 0065 
         0003c7 0020 
TMS320C55x Assembler PC v4.4.1 Sat Sep 29 23:09:39 2018

Tools Copyright (c) 1996-2012 Texas Instruments Incorporated
csl_gpt_example.asm                                                  PAGE   64

         0003c8 0054 
         0003c9 0069 
         0003ca 006D 
         0003cb 0065 
         0003cc 0072 
         0003cd 0020 
         0003ce 0074 
         0003cf 006F 
         0003d0 0020 
         0003d1 0030 
         0003d2 000A 
         0003d3 0000 
    2059                      .align  2
    2060 0003d4 0053  $C$FSL31:       .string "So The CPU Should Execute Approximately %ld(",177,"1%%) Clo"
         0003d5 006F 
         0003d6 0020 
         0003d7 0054 
         0003d8 0068 
         0003d9 0065 
         0003da 0020 
         0003db 0043 
         0003dc 0050 
         0003dd 0055 
         0003de 0020 
         0003df 0053 
         0003e0 0068 
         0003e1 006F 
         0003e2 0075 
         0003e3 006C 
         0003e4 0064 
         0003e5 0020 
         0003e6 0045 
         0003e7 0078 
         0003e8 0065 
         0003e9 0063 
         0003ea 0075 
         0003eb 0074 
         0003ec 0065 
         0003ed 0020 
         0003ee 0041 
         0003ef 0070 
         0003f0 0070 
         0003f1 0072 
         0003f2 006F 
         0003f3 0078 
         0003f4 0069 
         0003f5 006D 
         0003f6 0061 
         0003f7 0074 
         0003f8 0065 
         0003f9 006C 
         0003fa 0079 
         0003fb 0020 
         0003fc 0025 
         0003fd 006C 
TMS320C55x Assembler PC v4.4.1 Sat Sep 29 23:09:39 2018

Tools Copyright (c) 1996-2012 Texas Instruments Incorporated
csl_gpt_example.asm                                                  PAGE   65

         0003fe 0064 
         0003ff 0028 
         000400 00B1 
         000401 0031 
         000402 0025 
         000403 0025 
         000404 0029 
         000405 0020 
         000406 0043 
         000407 006C 
         000408 006F 
    2061 000409 0063          .string "ck Cycles ",0
         00040a 006B 
         00040b 0020 
         00040c 0043 
         00040d 0079 
         00040e 0063 
         00040f 006C 
         000410 0065 
         000411 0073 
         000412 0020 
         000413 0000 
    2062                      .align  2
    2063 000414 0046  $C$FSL32:       .string "From the Starting of the Timer Till the Expiry of the Timer"
         000415 0072 
         000416 006F 
         000417 006D 
         000418 0020 
         000419 0074 
         00041a 0068 
         00041b 0065 
         00041c 0020 
         00041d 0053 
         00041e 0074 
         00041f 0061 
         000420 0072 
         000421 0074 
         000422 0069 
         000423 006E 
         000424 0067 
         000425 0020 
         000426 006F 
         000427 0066 
         000428 0020 
         000429 0074 
         00042a 0068 
         00042b 0065 
         00042c 0020 
         00042d 0054 
         00042e 0069 
         00042f 006D 
         000430 0065 
         000431 0072 
         000432 0020 
         000433 0054 
TMS320C55x Assembler PC v4.4.1 Sat Sep 29 23:09:39 2018

Tools Copyright (c) 1996-2012 Texas Instruments Incorporated
csl_gpt_example.asm                                                  PAGE   66

         000434 0069 
         000435 006C 
         000436 006C 
         000437 0020 
         000438 0074 
         000439 0068 
         00043a 0065 
         00043b 0020 
         00043c 0045 
         00043d 0078 
         00043e 0070 
         00043f 0069 
         000440 0072 
         000441 0079 
         000442 0020 
         000443 006F 
         000444 0066 
         000445 0020 
         000446 0074 
         000447 0068 
         000448 0065 
         000449 0020 
         00044a 0054 
         00044b 0069 
         00044c 006D 
         00044d 0065 
         00044e 0072 
    2064 00044f 000A          .string 10,10,0
         000450 000A 
         000451 0000 
    2065                      .align  2
    2066 000452 000A  $C$FSL33:       .string 10,"Timer Count Reached Zero",10,0
         000453 0054 
         000454 0069 
         000455 006D 
         000456 0065 
         000457 0072 
         000458 0020 
         000459 0043 
         00045a 006F 
         00045b 0075 
         00045c 006E 
         00045d 0074 
         00045e 0020 
         00045f 0052 
         000460 0065 
         000461 0061 
         000462 0063 
         000463 0068 
         000464 0065 
         000465 0064 
         000466 0020 
         000467 005A 
         000468 0065 
         000469 0072 
TMS320C55x Assembler PC v4.4.1 Sat Sep 29 23:09:39 2018

Tools Copyright (c) 1996-2012 Texas Instruments Incorporated
csl_gpt_example.asm                                                  PAGE   67

         00046a 006F 
         00046b 000A 
         00046c 0000 
    2067                      .align  2
    2068 00046e 000A  $C$FSL34:       .string 10,10,"NUMBER OF CPU CYCLES EXECUTED AFTER STARTING THE TIME"
         00046f 000A 
         000470 004E 
         000471 0055 
         000472 004D 
         000473 0042 
         000474 0045 
         000475 0052 
         000476 0020 
         000477 004F 
         000478 0046 
         000479 0020 
         00047a 0043 
         00047b 0050 
         00047c 0055 
         00047d 0020 
         00047e 0043 
         00047f 0059 
         000480 0043 
         000481 004C 
         000482 0045 
         000483 0053 
         000484 0020 
         000485 0045 
         000486 0058 
         000487 0045 
         000488 0043 
         000489 0055 
         00048a 0054 
         00048b 0045 
         00048c 0044 
         00048d 0020 
         00048e 0041 
         00048f 0046 
         000490 0054 
         000491 0045 
         000492 0052 
         000493 0020 
         000494 0053 
         000495 0054 
         000496 0041 
         000497 0052 
         000498 0054 
         000499 0049 
         00049a 004E 
         00049b 0047 
         00049c 0020 
         00049d 0054 
         00049e 0048 
         00049f 0045 
         0004a0 0020 
TMS320C55x Assembler PC v4.4.1 Sat Sep 29 23:09:39 2018

Tools Copyright (c) 1996-2012 Texas Instruments Incorporated
csl_gpt_example.asm                                                  PAGE   68

         0004a1 0054 
         0004a2 0049 
         0004a3 004D 
         0004a4 0045 
    2069 0004a5 0052          .string "R TILL THE TIMER EXPIRY: ",0
         0004a6 0020 
         0004a7 0054 
         0004a8 0049 
         0004a9 004C 
         0004aa 004C 
         0004ab 0020 
         0004ac 0054 
         0004ad 0048 
         0004ae 0045 
         0004af 0020 
         0004b0 0054 
         0004b1 0049 
         0004b2 004D 
         0004b3 0045 
         0004b4 0052 
         0004b5 0020 
         0004b6 0045 
         0004b7 0058 
         0004b8 0050 
         0004b9 0049 
         0004ba 0052 
         0004bb 0059 
         0004bc 003A 
         0004bd 0020 
         0004be 0000 
    2070                      .align  2
    2071 0004c0 0025  $C$FSL35:       .string "%ld",10,0
         0004c1 006C 
         0004c2 0064 
         0004c3 000A 
         0004c4 0000 
    2072                      .align  2
    2073 0004c6 0047  $C$FSL36:       .string "GPT IS RUNNING AT THE CONFIGURED RATE!",10,10,0
         0004c7 0050 
         0004c8 0054 
         0004c9 0020 
         0004ca 0049 
         0004cb 0053 
         0004cc 0020 
         0004cd 0052 
         0004ce 0055 
         0004cf 004E 
         0004d0 004E 
         0004d1 0049 
         0004d2 004E 
         0004d3 0047 
         0004d4 0020 
         0004d5 0041 
         0004d6 0054 
         0004d7 0020 
TMS320C55x Assembler PC v4.4.1 Sat Sep 29 23:09:39 2018

Tools Copyright (c) 1996-2012 Texas Instruments Incorporated
csl_gpt_example.asm                                                  PAGE   69

         0004d8 0054 
         0004d9 0048 
         0004da 0045 
         0004db 0020 
         0004dc 0043 
         0004dd 004F 
         0004de 004E 
         0004df 0046 
         0004e0 0049 
         0004e1 0047 
         0004e2 0055 
         0004e3 0052 
         0004e4 0045 
         0004e5 0044 
         0004e6 0020 
         0004e7 0052 
         0004e8 0041 
         0004e9 0054 
         0004ea 0045 
         0004eb 0021 
         0004ec 000A 
         0004ed 000A 
         0004ee 0000 
    2074                      .align  2
    2075 0004f0 0047  $C$FSL37:       .string "GPT IS NOT RUNNING AT THE CONFIGURED RATE!",10,10,0
         0004f1 0050 
         0004f2 0054 
         0004f3 0020 
         0004f4 0049 
         0004f5 0053 
         0004f6 0020 
         0004f7 004E 
         0004f8 004F 
         0004f9 0054 
         0004fa 0020 
         0004fb 0052 
         0004fc 0055 
         0004fd 004E 
         0004fe 004E 
         0004ff 0049 
         000500 004E 
         000501 0047 
         000502 0020 
         000503 0041 
         000504 0054 
         000505 0020 
         000506 0054 
         000507 0048 
         000508 0045 
         000509 0020 
         00050a 0043 
         00050b 004F 
         00050c 004E 
         00050d 0046 
         00050e 0049 
TMS320C55x Assembler PC v4.4.1 Sat Sep 29 23:09:39 2018

Tools Copyright (c) 1996-2012 Texas Instruments Incorporated
csl_gpt_example.asm                                                  PAGE   70

         00050f 0047 
         000510 0055 
         000511 0052 
         000512 0045 
         000513 0044 
         000514 0020 
         000515 0052 
         000516 0041 
         000517 0054 
         000518 0045 
         000519 0021 
         00051a 000A 
         00051b 000A 
         00051c 0000 
    2076              ;******************************************************************************
    2077              ;* UNDEFINED EXTERNAL REFERENCES                                              *
    2078              ;******************************************************************************
    2079                      .global _printf
    2080                      .global _GPT_open
    2081                      .global _GPT_reset
    2082                      .global _GPT_close
    2083                      .global _GPT_start
    2084                      .global _GPT_stop
    2085                      .global _GPT_getCnt
    2086                      .global _GPT_config
    2087                      .global _IRQ_plug
    2088                      .global _IRQ_clear
    2089                      .global _IRQ_clearAll
    2090                      .global _IRQ_disableAll
    2091                      .global _IRQ_enable
    2092                      .global _IRQ_setVecs
    2093                      .global _IRQ_globalDisable
    2094                      .global _IRQ_globalEnable
    2095                      .global _VECSTART
    2096                      .global __divul
    2097                      .global __mpyli
    2098              
    2099              ;*******************************************************************************
    2100              ;* TYPE INFORMATION                                                            *
    2101              ;*******************************************************************************
    2102              
    2103              $C$DW$T$22      .dwtag  DW_TAG_enumeration_type
    2104                      .dwattr $C$DW$T$22, DW_AT_byte_size(0x01)
    2105              $C$DW$155       .dwtag  DW_TAG_enumerator, DW_AT_name("GPT_0"), DW_AT_const_value(0x00)
    2106              $C$DW$156       .dwtag  DW_TAG_enumerator, DW_AT_name("GPT_1"), DW_AT_const_value(0x01)
    2107              $C$DW$157       .dwtag  DW_TAG_enumerator, DW_AT_name("GPT_2"), DW_AT_const_value(0x02)
    2108              $C$DW$158       .dwtag  DW_TAG_enumerator, DW_AT_name("GPT_INVALID"), DW_AT_const_value(0x03)
    2109                      .dwendtag $C$DW$T$22
    2110              
    2111              $C$DW$T$23      .dwtag  DW_TAG_typedef, DW_AT_name("CSL_Instance")
    2112                      .dwattr $C$DW$T$23, DW_AT_type(*$C$DW$T$22)
    2113                      .dwattr $C$DW$T$23, DW_AT_language(DW_LANG_C)
    2114              
    2115              $C$DW$T$29      .dwtag  DW_TAG_enumeration_type
    2116                      .dwattr $C$DW$T$29, DW_AT_byte_size(0x01)
TMS320C55x Assembler PC v4.4.1 Sat Sep 29 23:09:39 2018

Tools Copyright (c) 1996-2012 Texas Instruments Incorporated
csl_gpt_example.asm                                                  PAGE   71

    2117              $C$DW$159       .dwtag  DW_TAG_enumerator, DW_AT_name("GPT_AUTO_DISABLE"), DW_AT_const_value(0x00)
    2118              $C$DW$160       .dwtag  DW_TAG_enumerator, DW_AT_name("GPT_AUTO_ENABLE"), DW_AT_const_value(0x01)
    2119                      .dwendtag $C$DW$T$29
    2120              
    2121              $C$DW$T$30      .dwtag  DW_TAG_typedef, DW_AT_name("CSL_AutoReLoad")
    2122                      .dwattr $C$DW$T$30, DW_AT_type(*$C$DW$T$29)
    2123                      .dwattr $C$DW$T$30, DW_AT_language(DW_LANG_C)
    2124              
    2125              $C$DW$T$31      .dwtag  DW_TAG_enumeration_type
    2126                      .dwattr $C$DW$T$31, DW_AT_byte_size(0x01)
    2127              $C$DW$161       .dwtag  DW_TAG_enumerator, DW_AT_name("GPT_PRE_SC_DIV_0"), DW_AT_const_value(0x00)
    2128              $C$DW$162       .dwtag  DW_TAG_enumerator, DW_AT_name("GPT_PRE_SC_DIV_1"), DW_AT_const_value(0x01)
    2129              $C$DW$163       .dwtag  DW_TAG_enumerator, DW_AT_name("GPT_PRE_SC_DIV_2"), DW_AT_const_value(0x02)
    2130              $C$DW$164       .dwtag  DW_TAG_enumerator, DW_AT_name("GPT_PRE_SC_DIV_3"), DW_AT_const_value(0x03)
    2131              $C$DW$165       .dwtag  DW_TAG_enumerator, DW_AT_name("GPT_PRE_SC_DIV_4"), DW_AT_const_value(0x04)
    2132              $C$DW$166       .dwtag  DW_TAG_enumerator, DW_AT_name("GPT_PRE_SC_DIV_5"), DW_AT_const_value(0x05)
    2133              $C$DW$167       .dwtag  DW_TAG_enumerator, DW_AT_name("GPT_PRE_SC_DIV_6"), DW_AT_const_value(0x06)
    2134              $C$DW$168       .dwtag  DW_TAG_enumerator, DW_AT_name("GPT_PRE_SC_DIV_7"), DW_AT_const_value(0x07)
    2135              $C$DW$169       .dwtag  DW_TAG_enumerator, DW_AT_name("GPT_PRE_SC_DIV_8"), DW_AT_const_value(0x08)
    2136              $C$DW$170       .dwtag  DW_TAG_enumerator, DW_AT_name("GPT_PRE_SC_DIV_9"), DW_AT_const_value(0x09)
    2137              $C$DW$171       .dwtag  DW_TAG_enumerator, DW_AT_name("GPT_PRE_SC_DIV_10"), DW_AT_const_value(0x0a)
    2138              $C$DW$172       .dwtag  DW_TAG_enumerator, DW_AT_name("GPT_PRE_SC_DIV_11"), DW_AT_const_value(0x0b)
    2139              $C$DW$173       .dwtag  DW_TAG_enumerator, DW_AT_name("GPT_PRE_SC_DIV_12"), DW_AT_const_value(0x0c)
    2140              $C$DW$174       .dwtag  DW_TAG_enumerator, DW_AT_name("GPT_PRE_SC_DIV_RESERVE"), DW_AT_const_value(0x0d)
    2141                      .dwendtag $C$DW$T$31
    2142              
    2143              $C$DW$T$32      .dwtag  DW_TAG_typedef, DW_AT_name("CSL_PreScale")
    2144                      .dwattr $C$DW$T$32, DW_AT_type(*$C$DW$T$31)
    2145                      .dwattr $C$DW$T$32, DW_AT_language(DW_LANG_C)
    2146              
    2147              $C$DW$T$33      .dwtag  DW_TAG_enumeration_type
    2148                      .dwattr $C$DW$T$33, DW_AT_byte_size(0x01)
    2149              $C$DW$175       .dwtag  DW_TAG_enumerator, DW_AT_name("GPT_TIMER_DISABLE"), DW_AT_const_value(0x00)
    2150              $C$DW$176       .dwtag  DW_TAG_enumerator, DW_AT_name("GPT_TIMER_ENABLE"), DW_AT_const_value(0x01)
    2151                      .dwendtag $C$DW$T$33
    2152              
    2153              $C$DW$T$34      .dwtag  DW_TAG_typedef, DW_AT_name("CSL_CtrlTimer")
    2154                      .dwattr $C$DW$T$34, DW_AT_type(*$C$DW$T$33)
    2155                      .dwattr $C$DW$T$34, DW_AT_language(DW_LANG_C)
    2156              
    2157              $C$DW$T$21      .dwtag  DW_TAG_structure_type
    2158                      .dwattr $C$DW$T$21, DW_AT_byte_size(0x06)
    2159              $C$DW$177       .dwtag  DW_TAG_member
    2160                      .dwattr $C$DW$177, DW_AT_type(*$C$DW$T$20)
    2161                      .dwattr $C$DW$177, DW_AT_name("TCR")
    2162                      .dwattr $C$DW$177, DW_AT_TI_symbol_name("_TCR")
    2163                      .dwattr $C$DW$177, DW_AT_data_member_location[DW_OP_plus_uconst 0x0]
    2164                      .dwattr $C$DW$177, DW_AT_accessibility(DW_ACCESS_public)
    2165              $C$DW$178       .dwtag  DW_TAG_member
    2166                      .dwattr $C$DW$178, DW_AT_type(*$C$DW$T$20)
    2167                      .dwattr $C$DW$178, DW_AT_name("RSVD0")
    2168                      .dwattr $C$DW$178, DW_AT_TI_symbol_name("_RSVD0")
    2169                      .dwattr $C$DW$178, DW_AT_data_member_location[DW_OP_plus_uconst 0x1]
    2170                      .dwattr $C$DW$178, DW_AT_accessibility(DW_ACCESS_public)
    2171              $C$DW$179       .dwtag  DW_TAG_member
TMS320C55x Assembler PC v4.4.1 Sat Sep 29 23:09:39 2018

Tools Copyright (c) 1996-2012 Texas Instruments Incorporated
csl_gpt_example.asm                                                  PAGE   72

    2172                      .dwattr $C$DW$179, DW_AT_type(*$C$DW$T$20)
    2173                      .dwattr $C$DW$179, DW_AT_name("TIMPRD1")
    2174                      .dwattr $C$DW$179, DW_AT_TI_symbol_name("_TIMPRD1")
    2175                      .dwattr $C$DW$179, DW_AT_data_member_location[DW_OP_plus_uconst 0x2]
    2176                      .dwattr $C$DW$179, DW_AT_accessibility(DW_ACCESS_public)
    2177              $C$DW$180       .dwtag  DW_TAG_member
    2178                      .dwattr $C$DW$180, DW_AT_type(*$C$DW$T$20)
    2179                      .dwattr $C$DW$180, DW_AT_name("TIMPRD2")
    2180                      .dwattr $C$DW$180, DW_AT_TI_symbol_name("_TIMPRD2")
    2181                      .dwattr $C$DW$180, DW_AT_data_member_location[DW_OP_plus_uconst 0x3]
    2182                      .dwattr $C$DW$180, DW_AT_accessibility(DW_ACCESS_public)
    2183              $C$DW$181       .dwtag  DW_TAG_member
    2184                      .dwattr $C$DW$181, DW_AT_type(*$C$DW$T$20)
    2185                      .dwattr $C$DW$181, DW_AT_name("TIMCNT1")
    2186                      .dwattr $C$DW$181, DW_AT_TI_symbol_name("_TIMCNT1")
    2187                      .dwattr $C$DW$181, DW_AT_data_member_location[DW_OP_plus_uconst 0x4]
    2188                      .dwattr $C$DW$181, DW_AT_accessibility(DW_ACCESS_public)
    2189              $C$DW$182       .dwtag  DW_TAG_member
    2190                      .dwattr $C$DW$182, DW_AT_type(*$C$DW$T$20)
    2191                      .dwattr $C$DW$182, DW_AT_name("TIMCNT2")
    2192                      .dwattr $C$DW$182, DW_AT_TI_symbol_name("_TIMCNT2")
    2193                      .dwattr $C$DW$182, DW_AT_data_member_location[DW_OP_plus_uconst 0x5]
    2194                      .dwattr $C$DW$182, DW_AT_accessibility(DW_ACCESS_public)
    2195                      .dwendtag $C$DW$T$21
    2196              
    2197              $C$DW$T$24      .dwtag  DW_TAG_typedef, DW_AT_name("CSL_TimRegs")
    2198                      .dwattr $C$DW$T$24, DW_AT_type(*$C$DW$T$21)
    2199                      .dwattr $C$DW$T$24, DW_AT_language(DW_LANG_C)
    2200              $C$DW$183       .dwtag  DW_TAG_TI_far_type
    2201                      .dwattr $C$DW$183, DW_AT_type(*$C$DW$T$24)
    2202              $C$DW$184       .dwtag  DW_TAG_TI_ioport_type
    2203                      .dwattr $C$DW$184, DW_AT_type(*$C$DW$183)
    2204              $C$DW$T$25      .dwtag  DW_TAG_volatile_type
    2205                      .dwattr $C$DW$T$25, DW_AT_type(*$C$DW$184)
    2206              $C$DW$T$26      .dwtag  DW_TAG_pointer_type
    2207                      .dwattr $C$DW$T$26, DW_AT_type(*$C$DW$T$25)
    2208                      .dwattr $C$DW$T$26, DW_AT_address_class(0x10)
    2209              $C$DW$T$27      .dwtag  DW_TAG_typedef, DW_AT_name("CSL_TimRegsOvly")
    2210                      .dwattr $C$DW$T$27, DW_AT_type(*$C$DW$T$26)
    2211                      .dwattr $C$DW$T$27, DW_AT_language(DW_LANG_C)
    2212              
    2213              $C$DW$T$28      .dwtag  DW_TAG_structure_type
    2214                      .dwattr $C$DW$T$28, DW_AT_byte_size(0x03)
    2215              $C$DW$185       .dwtag  DW_TAG_member
    2216                      .dwattr $C$DW$185, DW_AT_type(*$C$DW$T$23)
    2217                      .dwattr $C$DW$185, DW_AT_name("Instance")
    2218                      .dwattr $C$DW$185, DW_AT_TI_symbol_name("_Instance")
    2219                      .dwattr $C$DW$185, DW_AT_data_member_location[DW_OP_plus_uconst 0x0]
    2220                      .dwattr $C$DW$185, DW_AT_accessibility(DW_ACCESS_public)
    2221              $C$DW$186       .dwtag  DW_TAG_member
    2222                      .dwattr $C$DW$186, DW_AT_type(*$C$DW$T$19)
    2223                      .dwattr $C$DW$186, DW_AT_name("EventId")
    2224                      .dwattr $C$DW$186, DW_AT_TI_symbol_name("_EventId")
    2225                      .dwattr $C$DW$186, DW_AT_data_member_location[DW_OP_plus_uconst 0x1]
    2226                      .dwattr $C$DW$186, DW_AT_accessibility(DW_ACCESS_public)
TMS320C55x Assembler PC v4.4.1 Sat Sep 29 23:09:39 2018

Tools Copyright (c) 1996-2012 Texas Instruments Incorporated
csl_gpt_example.asm                                                  PAGE   73

    2227              $C$DW$187       .dwtag  DW_TAG_member
    2228                      .dwattr $C$DW$187, DW_AT_type(*$C$DW$T$27)
    2229                      .dwattr $C$DW$187, DW_AT_name("regs")
    2230                      .dwattr $C$DW$187, DW_AT_TI_symbol_name("_regs")
    2231                      .dwattr $C$DW$187, DW_AT_data_member_location[DW_OP_plus_uconst 0x2]
    2232                      .dwattr $C$DW$187, DW_AT_accessibility(DW_ACCESS_public)
    2233                      .dwendtag $C$DW$T$28
    2234              
    2235              $C$DW$T$40      .dwtag  DW_TAG_typedef, DW_AT_name("CSL_GptObj")
    2236                      .dwattr $C$DW$T$40, DW_AT_type(*$C$DW$T$28)
    2237                      .dwattr $C$DW$T$40, DW_AT_language(DW_LANG_C)
    2238              $C$DW$T$41      .dwtag  DW_TAG_pointer_type
    2239                      .dwattr $C$DW$T$41, DW_AT_type(*$C$DW$T$40)
    2240                      .dwattr $C$DW$T$41, DW_AT_address_class(0x17)
    2241              $C$DW$T$42      .dwtag  DW_TAG_typedef, DW_AT_name("CSL_Handle")
    2242                      .dwattr $C$DW$T$42, DW_AT_type(*$C$DW$T$41)
    2243                      .dwattr $C$DW$T$42, DW_AT_language(DW_LANG_C)
    2244              
    2245              $C$DW$T$35      .dwtag  DW_TAG_structure_type
    2246                      .dwattr $C$DW$T$35, DW_AT_byte_size(0x05)
    2247              $C$DW$188       .dwtag  DW_TAG_member
    2248                      .dwattr $C$DW$188, DW_AT_type(*$C$DW$T$30)
    2249                      .dwattr $C$DW$188, DW_AT_name("autoLoad")
    2250                      .dwattr $C$DW$188, DW_AT_TI_symbol_name("_autoLoad")
    2251                      .dwattr $C$DW$188, DW_AT_data_member_location[DW_OP_plus_uconst 0x0]
    2252                      .dwattr $C$DW$188, DW_AT_accessibility(DW_ACCESS_public)
    2253              $C$DW$189       .dwtag  DW_TAG_member
    2254                      .dwattr $C$DW$189, DW_AT_type(*$C$DW$T$32)
    2255                      .dwattr $C$DW$189, DW_AT_name("preScaleDiv")
    2256                      .dwattr $C$DW$189, DW_AT_TI_symbol_name("_preScaleDiv")
    2257                      .dwattr $C$DW$189, DW_AT_data_member_location[DW_OP_plus_uconst 0x1]
    2258                      .dwattr $C$DW$189, DW_AT_accessibility(DW_ACCESS_public)
    2259              $C$DW$190       .dwtag  DW_TAG_member
    2260                      .dwattr $C$DW$190, DW_AT_type(*$C$DW$T$34)
    2261                      .dwattr $C$DW$190, DW_AT_name("ctrlTim")
    2262                      .dwattr $C$DW$190, DW_AT_TI_symbol_name("_ctrlTim")
    2263                      .dwattr $C$DW$190, DW_AT_data_member_location[DW_OP_plus_uconst 0x2]
    2264                      .dwattr $C$DW$190, DW_AT_accessibility(DW_ACCESS_public)
    2265              $C$DW$191       .dwtag  DW_TAG_member
    2266                      .dwattr $C$DW$191, DW_AT_type(*$C$DW$T$19)
    2267                      .dwattr $C$DW$191, DW_AT_name("prdLow")
    2268                      .dwattr $C$DW$191, DW_AT_TI_symbol_name("_prdLow")
    2269                      .dwattr $C$DW$191, DW_AT_data_member_location[DW_OP_plus_uconst 0x3]
    2270                      .dwattr $C$DW$191, DW_AT_accessibility(DW_ACCESS_public)
    2271              $C$DW$192       .dwtag  DW_TAG_member
    2272                      .dwattr $C$DW$192, DW_AT_type(*$C$DW$T$19)
    2273                      .dwattr $C$DW$192, DW_AT_name("prdHigh")
    2274                      .dwattr $C$DW$192, DW_AT_TI_symbol_name("_prdHigh")
    2275                      .dwattr $C$DW$192, DW_AT_data_member_location[DW_OP_plus_uconst 0x4]
    2276                      .dwattr $C$DW$192, DW_AT_accessibility(DW_ACCESS_public)
    2277                      .dwendtag $C$DW$T$35
    2278              
    2279              $C$DW$T$48      .dwtag  DW_TAG_typedef, DW_AT_name("CSL_Config")
    2280                      .dwattr $C$DW$T$48, DW_AT_type(*$C$DW$T$35)
    2281                      .dwattr $C$DW$T$48, DW_AT_language(DW_LANG_C)
TMS320C55x Assembler PC v4.4.1 Sat Sep 29 23:09:39 2018

Tools Copyright (c) 1996-2012 Texas Instruments Incorporated
csl_gpt_example.asm                                                  PAGE   74

    2282              $C$DW$T$49      .dwtag  DW_TAG_pointer_type
    2283                      .dwattr $C$DW$T$49, DW_AT_type(*$C$DW$T$48)
    2284                      .dwattr $C$DW$T$49, DW_AT_address_class(0x17)
    2285              
    2286              $C$DW$T$39      .dwtag  DW_TAG_structure_type
    2287                      .dwattr $C$DW$T$39, DW_AT_byte_size(0x48)
    2288              $C$DW$193       .dwtag  DW_TAG_member
    2289                      .dwattr $C$DW$193, DW_AT_type(*$C$DW$T$20)
    2290                      .dwattr $C$DW$193, DW_AT_name("EBSR")
    2291                      .dwattr $C$DW$193, DW_AT_TI_symbol_name("_EBSR")
    2292                      .dwattr $C$DW$193, DW_AT_data_member_location[DW_OP_plus_uconst 0x0]
    2293                      .dwattr $C$DW$193, DW_AT_accessibility(DW_ACCESS_public)
    2294              $C$DW$194       .dwtag  DW_TAG_member
    2295                      .dwattr $C$DW$194, DW_AT_type(*$C$DW$T$20)
    2296                      .dwattr $C$DW$194, DW_AT_name("RSVD0")
    2297                      .dwattr $C$DW$194, DW_AT_TI_symbol_name("_RSVD0")
    2298                      .dwattr $C$DW$194, DW_AT_data_member_location[DW_OP_plus_uconst 0x1]
    2299                      .dwattr $C$DW$194, DW_AT_accessibility(DW_ACCESS_public)
    2300              $C$DW$195       .dwtag  DW_TAG_member
    2301                      .dwattr $C$DW$195, DW_AT_type(*$C$DW$T$20)
    2302                      .dwattr $C$DW$195, DW_AT_name("PCGCR1")
    2303                      .dwattr $C$DW$195, DW_AT_TI_symbol_name("_PCGCR1")
    2304                      .dwattr $C$DW$195, DW_AT_data_member_location[DW_OP_plus_uconst 0x2]
    2305                      .dwattr $C$DW$195, DW_AT_accessibility(DW_ACCESS_public)
    2306              $C$DW$196       .dwtag  DW_TAG_member
    2307                      .dwattr $C$DW$196, DW_AT_type(*$C$DW$T$20)
    2308                      .dwattr $C$DW$196, DW_AT_name("PCGCR2")
    2309                      .dwattr $C$DW$196, DW_AT_TI_symbol_name("_PCGCR2")
    2310                      .dwattr $C$DW$196, DW_AT_data_member_location[DW_OP_plus_uconst 0x3]
    2311                      .dwattr $C$DW$196, DW_AT_accessibility(DW_ACCESS_public)
    2312              $C$DW$197       .dwtag  DW_TAG_member
    2313                      .dwattr $C$DW$197, DW_AT_type(*$C$DW$T$20)
    2314                      .dwattr $C$DW$197, DW_AT_name("PSRCR")
    2315                      .dwattr $C$DW$197, DW_AT_TI_symbol_name("_PSRCR")
    2316                      .dwattr $C$DW$197, DW_AT_data_member_location[DW_OP_plus_uconst 0x4]
    2317                      .dwattr $C$DW$197, DW_AT_accessibility(DW_ACCESS_public)
    2318              $C$DW$198       .dwtag  DW_TAG_member
    2319                      .dwattr $C$DW$198, DW_AT_type(*$C$DW$T$20)
    2320                      .dwattr $C$DW$198, DW_AT_name("PRCR")
    2321                      .dwattr $C$DW$198, DW_AT_TI_symbol_name("_PRCR")
    2322                      .dwattr $C$DW$198, DW_AT_data_member_location[DW_OP_plus_uconst 0x5]
    2323                      .dwattr $C$DW$198, DW_AT_accessibility(DW_ACCESS_public)
    2324              $C$DW$199       .dwtag  DW_TAG_member
    2325                      .dwattr $C$DW$199, DW_AT_type(*$C$DW$T$36)
    2326                      .dwattr $C$DW$199, DW_AT_name("RSVD1")
    2327                      .dwattr $C$DW$199, DW_AT_TI_symbol_name("_RSVD1")
    2328                      .dwattr $C$DW$199, DW_AT_data_member_location[DW_OP_plus_uconst 0x6]
    2329                      .dwattr $C$DW$199, DW_AT_accessibility(DW_ACCESS_public)
    2330              $C$DW$200       .dwtag  DW_TAG_member
    2331                      .dwattr $C$DW$200, DW_AT_type(*$C$DW$T$20)
    2332                      .dwattr $C$DW$200, DW_AT_name("TIAFR")
    2333                      .dwattr $C$DW$200, DW_AT_TI_symbol_name("_TIAFR")
    2334                      .dwattr $C$DW$200, DW_AT_data_member_location[DW_OP_plus_uconst 0x14]
    2335                      .dwattr $C$DW$200, DW_AT_accessibility(DW_ACCESS_public)
    2336              $C$DW$201       .dwtag  DW_TAG_member
TMS320C55x Assembler PC v4.4.1 Sat Sep 29 23:09:39 2018

Tools Copyright (c) 1996-2012 Texas Instruments Incorporated
csl_gpt_example.asm                                                  PAGE   75

    2337                      .dwattr $C$DW$201, DW_AT_type(*$C$DW$T$20)
    2338                      .dwattr $C$DW$201, DW_AT_name("RSVD2")
    2339                      .dwattr $C$DW$201, DW_AT_TI_symbol_name("_RSVD2")
    2340                      .dwattr $C$DW$201, DW_AT_data_member_location[DW_OP_plus_uconst 0x15]
    2341                      .dwattr $C$DW$201, DW_AT_accessibility(DW_ACCESS_public)
    2342              $C$DW$202       .dwtag  DW_TAG_member
    2343                      .dwattr $C$DW$202, DW_AT_type(*$C$DW$T$20)
    2344                      .dwattr $C$DW$202, DW_AT_name("ODSCR")
    2345                      .dwattr $C$DW$202, DW_AT_TI_symbol_name("_ODSCR")
    2346                      .dwattr $C$DW$202, DW_AT_data_member_location[DW_OP_plus_uconst 0x16]
    2347                      .dwattr $C$DW$202, DW_AT_accessibility(DW_ACCESS_public)
    2348              $C$DW$203       .dwtag  DW_TAG_member
    2349                      .dwattr $C$DW$203, DW_AT_type(*$C$DW$T$20)
    2350                      .dwattr $C$DW$203, DW_AT_name("PDINHIBR1")
    2351                      .dwattr $C$DW$203, DW_AT_TI_symbol_name("_PDINHIBR1")
    2352                      .dwattr $C$DW$203, DW_AT_data_member_location[DW_OP_plus_uconst 0x17]
    2353                      .dwattr $C$DW$203, DW_AT_accessibility(DW_ACCESS_public)
    2354              $C$DW$204       .dwtag  DW_TAG_member
    2355                      .dwattr $C$DW$204, DW_AT_type(*$C$DW$T$20)
    2356                      .dwattr $C$DW$204, DW_AT_name("PDINHIBR2")
    2357                      .dwattr $C$DW$204, DW_AT_TI_symbol_name("_PDINHIBR2")
    2358                      .dwattr $C$DW$204, DW_AT_data_member_location[DW_OP_plus_uconst 0x18]
    2359                      .dwattr $C$DW$204, DW_AT_accessibility(DW_ACCESS_public)
    2360              $C$DW$205       .dwtag  DW_TAG_member
    2361                      .dwattr $C$DW$205, DW_AT_type(*$C$DW$T$20)
    2362                      .dwattr $C$DW$205, DW_AT_name("PDINHIBR3")
    2363                      .dwattr $C$DW$205, DW_AT_TI_symbol_name("_PDINHIBR3")
    2364                      .dwattr $C$DW$205, DW_AT_data_member_location[DW_OP_plus_uconst 0x19]
    2365                      .dwattr $C$DW$205, DW_AT_accessibility(DW_ACCESS_public)
    2366              $C$DW$206       .dwtag  DW_TAG_member
    2367                      .dwattr $C$DW$206, DW_AT_type(*$C$DW$T$20)
    2368                      .dwattr $C$DW$206, DW_AT_name("DMA0CESR1")
    2369                      .dwattr $C$DW$206, DW_AT_TI_symbol_name("_DMA0CESR1")
    2370                      .dwattr $C$DW$206, DW_AT_data_member_location[DW_OP_plus_uconst 0x1a]
    2371                      .dwattr $C$DW$206, DW_AT_accessibility(DW_ACCESS_public)
    2372              $C$DW$207       .dwtag  DW_TAG_member
    2373                      .dwattr $C$DW$207, DW_AT_type(*$C$DW$T$20)
    2374                      .dwattr $C$DW$207, DW_AT_name("DMA0CESR2")
    2375                      .dwattr $C$DW$207, DW_AT_TI_symbol_name("_DMA0CESR2")
    2376                      .dwattr $C$DW$207, DW_AT_data_member_location[DW_OP_plus_uconst 0x1b]
    2377                      .dwattr $C$DW$207, DW_AT_accessibility(DW_ACCESS_public)
    2378              $C$DW$208       .dwtag  DW_TAG_member
    2379                      .dwattr $C$DW$208, DW_AT_type(*$C$DW$T$20)
    2380                      .dwattr $C$DW$208, DW_AT_name("DMA1CESR1")
    2381                      .dwattr $C$DW$208, DW_AT_TI_symbol_name("_DMA1CESR1")
    2382                      .dwattr $C$DW$208, DW_AT_data_member_location[DW_OP_plus_uconst 0x1c]
    2383                      .dwattr $C$DW$208, DW_AT_accessibility(DW_ACCESS_public)
    2384              $C$DW$209       .dwtag  DW_TAG_member
    2385                      .dwattr $C$DW$209, DW_AT_type(*$C$DW$T$20)
    2386                      .dwattr $C$DW$209, DW_AT_name("DMA1CESR2")
    2387                      .dwattr $C$DW$209, DW_AT_TI_symbol_name("_DMA1CESR2")
    2388                      .dwattr $C$DW$209, DW_AT_data_member_location[DW_OP_plus_uconst 0x1d]
    2389                      .dwattr $C$DW$209, DW_AT_accessibility(DW_ACCESS_public)
    2390              $C$DW$210       .dwtag  DW_TAG_member
    2391                      .dwattr $C$DW$210, DW_AT_type(*$C$DW$T$20)
TMS320C55x Assembler PC v4.4.1 Sat Sep 29 23:09:39 2018

Tools Copyright (c) 1996-2012 Texas Instruments Incorporated
csl_gpt_example.asm                                                  PAGE   76

    2392                      .dwattr $C$DW$210, DW_AT_name("SDRAMCCR")
    2393                      .dwattr $C$DW$210, DW_AT_TI_symbol_name("_SDRAMCCR")
    2394                      .dwattr $C$DW$210, DW_AT_data_member_location[DW_OP_plus_uconst 0x1e]
    2395                      .dwattr $C$DW$210, DW_AT_accessibility(DW_ACCESS_public)
    2396              $C$DW$211       .dwtag  DW_TAG_member
    2397                      .dwattr $C$DW$211, DW_AT_type(*$C$DW$T$20)
    2398                      .dwattr $C$DW$211, DW_AT_name("CCR2")
    2399                      .dwattr $C$DW$211, DW_AT_TI_symbol_name("_CCR2")
    2400                      .dwattr $C$DW$211, DW_AT_data_member_location[DW_OP_plus_uconst 0x1f]
    2401                      .dwattr $C$DW$211, DW_AT_accessibility(DW_ACCESS_public)
    2402              $C$DW$212       .dwtag  DW_TAG_member
    2403                      .dwattr $C$DW$212, DW_AT_type(*$C$DW$T$20)
    2404                      .dwattr $C$DW$212, DW_AT_name("CGCR1")
    2405                      .dwattr $C$DW$212, DW_AT_TI_symbol_name("_CGCR1")
    2406                      .dwattr $C$DW$212, DW_AT_data_member_location[DW_OP_plus_uconst 0x20]
    2407                      .dwattr $C$DW$212, DW_AT_accessibility(DW_ACCESS_public)
    2408              $C$DW$213       .dwtag  DW_TAG_member
    2409                      .dwattr $C$DW$213, DW_AT_type(*$C$DW$T$20)
    2410                      .dwattr $C$DW$213, DW_AT_name("CGICR")
    2411                      .dwattr $C$DW$213, DW_AT_TI_symbol_name("_CGICR")
    2412                      .dwattr $C$DW$213, DW_AT_data_member_location[DW_OP_plus_uconst 0x21]
    2413                      .dwattr $C$DW$213, DW_AT_accessibility(DW_ACCESS_public)
    2414              $C$DW$214       .dwtag  DW_TAG_member
    2415                      .dwattr $C$DW$214, DW_AT_type(*$C$DW$T$20)
    2416                      .dwattr $C$DW$214, DW_AT_name("CGCR2")
    2417                      .dwattr $C$DW$214, DW_AT_TI_symbol_name("_CGCR2")
    2418                      .dwattr $C$DW$214, DW_AT_data_member_location[DW_OP_plus_uconst 0x22]
    2419                      .dwattr $C$DW$214, DW_AT_accessibility(DW_ACCESS_public)
    2420              $C$DW$215       .dwtag  DW_TAG_member
    2421                      .dwattr $C$DW$215, DW_AT_type(*$C$DW$T$20)
    2422                      .dwattr $C$DW$215, DW_AT_name("CGOCR")
    2423                      .dwattr $C$DW$215, DW_AT_TI_symbol_name("_CGOCR")
    2424                      .dwattr $C$DW$215, DW_AT_data_member_location[DW_OP_plus_uconst 0x23]
    2425                      .dwattr $C$DW$215, DW_AT_accessibility(DW_ACCESS_public)
    2426              $C$DW$216       .dwtag  DW_TAG_member
    2427                      .dwattr $C$DW$216, DW_AT_type(*$C$DW$T$20)
    2428                      .dwattr $C$DW$216, DW_AT_name("CCSSR")
    2429                      .dwattr $C$DW$216, DW_AT_TI_symbol_name("_CCSSR")
    2430                      .dwattr $C$DW$216, DW_AT_data_member_location[DW_OP_plus_uconst 0x24]
    2431                      .dwattr $C$DW$216, DW_AT_accessibility(DW_ACCESS_public)
    2432              $C$DW$217       .dwtag  DW_TAG_member
    2433                      .dwattr $C$DW$217, DW_AT_type(*$C$DW$T$20)
    2434                      .dwattr $C$DW$217, DW_AT_name("RSVD3")
    2435                      .dwattr $C$DW$217, DW_AT_TI_symbol_name("_RSVD3")
    2436                      .dwattr $C$DW$217, DW_AT_data_member_location[DW_OP_plus_uconst 0x25]
    2437                      .dwattr $C$DW$217, DW_AT_accessibility(DW_ACCESS_public)
    2438              $C$DW$218       .dwtag  DW_TAG_member
    2439                      .dwattr $C$DW$218, DW_AT_type(*$C$DW$T$20)
    2440                      .dwattr $C$DW$218, DW_AT_name("ECDR")
    2441                      .dwattr $C$DW$218, DW_AT_TI_symbol_name("_ECDR")
    2442                      .dwattr $C$DW$218, DW_AT_data_member_location[DW_OP_plus_uconst 0x26]
    2443                      .dwattr $C$DW$218, DW_AT_accessibility(DW_ACCESS_public)
    2444              $C$DW$219       .dwtag  DW_TAG_member
    2445                      .dwattr $C$DW$219, DW_AT_type(*$C$DW$T$20)
    2446                      .dwattr $C$DW$219, DW_AT_name("RSVD4")
TMS320C55x Assembler PC v4.4.1 Sat Sep 29 23:09:39 2018

Tools Copyright (c) 1996-2012 Texas Instruments Incorporated
csl_gpt_example.asm                                                  PAGE   77

    2447                      .dwattr $C$DW$219, DW_AT_TI_symbol_name("_RSVD4")
    2448                      .dwattr $C$DW$219, DW_AT_data_member_location[DW_OP_plus_uconst 0x27]
    2449                      .dwattr $C$DW$219, DW_AT_accessibility(DW_ACCESS_public)
    2450              $C$DW$220       .dwtag  DW_TAG_member
    2451                      .dwattr $C$DW$220, DW_AT_type(*$C$DW$T$20)
    2452                      .dwattr $C$DW$220, DW_AT_name("RAMSLPMDCNTLR1")
    2453                      .dwattr $C$DW$220, DW_AT_TI_symbol_name("_RAMSLPMDCNTLR1")
    2454                      .dwattr $C$DW$220, DW_AT_data_member_location[DW_OP_plus_uconst 0x28]
    2455                      .dwattr $C$DW$220, DW_AT_accessibility(DW_ACCESS_public)
    2456              $C$DW$221       .dwtag  DW_TAG_member
    2457                      .dwattr $C$DW$221, DW_AT_type(*$C$DW$T$20)
    2458                      .dwattr $C$DW$221, DW_AT_name("RSVD5")
    2459                      .dwattr $C$DW$221, DW_AT_TI_symbol_name("_RSVD5")
    2460                      .dwattr $C$DW$221, DW_AT_data_member_location[DW_OP_plus_uconst 0x29]
    2461                      .dwattr $C$DW$221, DW_AT_accessibility(DW_ACCESS_public)
    2462              $C$DW$222       .dwtag  DW_TAG_member
    2463                      .dwattr $C$DW$222, DW_AT_type(*$C$DW$T$20)
    2464                      .dwattr $C$DW$222, DW_AT_name("RAMSLPMDCNTLR2")
    2465                      .dwattr $C$DW$222, DW_AT_TI_symbol_name("_RAMSLPMDCNTLR2")
    2466                      .dwattr $C$DW$222, DW_AT_data_member_location[DW_OP_plus_uconst 0x2a]
    2467                      .dwattr $C$DW$222, DW_AT_accessibility(DW_ACCESS_public)
    2468              $C$DW$223       .dwtag  DW_TAG_member
    2469                      .dwattr $C$DW$223, DW_AT_type(*$C$DW$T$20)
    2470                      .dwattr $C$DW$223, DW_AT_name("RAMSLPMDCNTLR3")
    2471                      .dwattr $C$DW$223, DW_AT_TI_symbol_name("_RAMSLPMDCNTLR3")
    2472                      .dwattr $C$DW$223, DW_AT_data_member_location[DW_OP_plus_uconst 0x2b]
    2473                      .dwattr $C$DW$223, DW_AT_accessibility(DW_ACCESS_public)
    2474              $C$DW$224       .dwtag  DW_TAG_member
    2475                      .dwattr $C$DW$224, DW_AT_type(*$C$DW$T$20)
    2476                      .dwattr $C$DW$224, DW_AT_name("RAMSLPMDCNTLR4")
    2477                      .dwattr $C$DW$224, DW_AT_TI_symbol_name("_RAMSLPMDCNTLR4")
    2478                      .dwattr $C$DW$224, DW_AT_data_member_location[DW_OP_plus_uconst 0x2c]
    2479                      .dwattr $C$DW$224, DW_AT_accessibility(DW_ACCESS_public)
    2480              $C$DW$225       .dwtag  DW_TAG_member
    2481                      .dwattr $C$DW$225, DW_AT_type(*$C$DW$T$20)
    2482                      .dwattr $C$DW$225, DW_AT_name("RAMSLPMDCNTLR5")
    2483                      .dwattr $C$DW$225, DW_AT_TI_symbol_name("_RAMSLPMDCNTLR5")
    2484                      .dwattr $C$DW$225, DW_AT_data_member_location[DW_OP_plus_uconst 0x2d]
    2485                      .dwattr $C$DW$225, DW_AT_accessibility(DW_ACCESS_public)
    2486              $C$DW$226       .dwtag  DW_TAG_member
    2487                      .dwattr $C$DW$226, DW_AT_type(*$C$DW$T$37)
    2488                      .dwattr $C$DW$226, DW_AT_name("RSVD6")
    2489                      .dwattr $C$DW$226, DW_AT_TI_symbol_name("_RSVD6")
    2490                      .dwattr $C$DW$226, DW_AT_data_member_location[DW_OP_plus_uconst 0x2e]
    2491                      .dwattr $C$DW$226, DW_AT_accessibility(DW_ACCESS_public)
    2492              $C$DW$227       .dwtag  DW_TAG_member
    2493                      .dwattr $C$DW$227, DW_AT_type(*$C$DW$T$20)
    2494                      .dwattr $C$DW$227, DW_AT_name("DMAIFR")
    2495                      .dwattr $C$DW$227, DW_AT_TI_symbol_name("_DMAIFR")
    2496                      .dwattr $C$DW$227, DW_AT_data_member_location[DW_OP_plus_uconst 0x30]
    2497                      .dwattr $C$DW$227, DW_AT_accessibility(DW_ACCESS_public)
    2498              $C$DW$228       .dwtag  DW_TAG_member
    2499                      .dwattr $C$DW$228, DW_AT_type(*$C$DW$T$20)
    2500                      .dwattr $C$DW$228, DW_AT_name("DMAIER")
    2501                      .dwattr $C$DW$228, DW_AT_TI_symbol_name("_DMAIER")
TMS320C55x Assembler PC v4.4.1 Sat Sep 29 23:09:39 2018

Tools Copyright (c) 1996-2012 Texas Instruments Incorporated
csl_gpt_example.asm                                                  PAGE   78

    2502                      .dwattr $C$DW$228, DW_AT_data_member_location[DW_OP_plus_uconst 0x31]
    2503                      .dwattr $C$DW$228, DW_AT_accessibility(DW_ACCESS_public)
    2504              $C$DW$229       .dwtag  DW_TAG_member
    2505                      .dwattr $C$DW$229, DW_AT_type(*$C$DW$T$20)
    2506                      .dwattr $C$DW$229, DW_AT_name("USBSCR")
    2507                      .dwattr $C$DW$229, DW_AT_TI_symbol_name("_USBSCR")
    2508                      .dwattr $C$DW$229, DW_AT_data_member_location[DW_OP_plus_uconst 0x32]
    2509                      .dwattr $C$DW$229, DW_AT_accessibility(DW_ACCESS_public)
    2510              $C$DW$230       .dwtag  DW_TAG_member
    2511                      .dwattr $C$DW$230, DW_AT_type(*$C$DW$T$20)
    2512                      .dwattr $C$DW$230, DW_AT_name("ESCR")
    2513                      .dwattr $C$DW$230, DW_AT_TI_symbol_name("_ESCR")
    2514                      .dwattr $C$DW$230, DW_AT_data_member_location[DW_OP_plus_uconst 0x33]
    2515                      .dwattr $C$DW$230, DW_AT_accessibility(DW_ACCESS_public)
    2516              $C$DW$231       .dwtag  DW_TAG_member
    2517                      .dwattr $C$DW$231, DW_AT_type(*$C$DW$T$37)
    2518                      .dwattr $C$DW$231, DW_AT_name("RSVD7")
    2519                      .dwattr $C$DW$231, DW_AT_TI_symbol_name("_RSVD7")
    2520                      .dwattr $C$DW$231, DW_AT_data_member_location[DW_OP_plus_uconst 0x34]
    2521                      .dwattr $C$DW$231, DW_AT_accessibility(DW_ACCESS_public)
    2522              $C$DW$232       .dwtag  DW_TAG_member
    2523                      .dwattr $C$DW$232, DW_AT_type(*$C$DW$T$20)
    2524                      .dwattr $C$DW$232, DW_AT_name("DMA2CESR1")
    2525                      .dwattr $C$DW$232, DW_AT_TI_symbol_name("_DMA2CESR1")
    2526                      .dwattr $C$DW$232, DW_AT_data_member_location[DW_OP_plus_uconst 0x36]
    2527                      .dwattr $C$DW$232, DW_AT_accessibility(DW_ACCESS_public)
    2528              $C$DW$233       .dwtag  DW_TAG_member
    2529                      .dwattr $C$DW$233, DW_AT_type(*$C$DW$T$20)
    2530                      .dwattr $C$DW$233, DW_AT_name("DMA2CESR2")
    2531                      .dwattr $C$DW$233, DW_AT_TI_symbol_name("_DMA2CESR2")
    2532                      .dwattr $C$DW$233, DW_AT_data_member_location[DW_OP_plus_uconst 0x37]
    2533                      .dwattr $C$DW$233, DW_AT_accessibility(DW_ACCESS_public)
    2534              $C$DW$234       .dwtag  DW_TAG_member
    2535                      .dwattr $C$DW$234, DW_AT_type(*$C$DW$T$20)
    2536                      .dwattr $C$DW$234, DW_AT_name("DMA3CESR1")
    2537                      .dwattr $C$DW$234, DW_AT_TI_symbol_name("_DMA3CESR1")
    2538                      .dwattr $C$DW$234, DW_AT_data_member_location[DW_OP_plus_uconst 0x38]
    2539                      .dwattr $C$DW$234, DW_AT_accessibility(DW_ACCESS_public)
    2540              $C$DW$235       .dwtag  DW_TAG_member
    2541                      .dwattr $C$DW$235, DW_AT_type(*$C$DW$T$20)
    2542                      .dwattr $C$DW$235, DW_AT_name("DMA3CESR2")
    2543                      .dwattr $C$DW$235, DW_AT_TI_symbol_name("_DMA3CESR2")
    2544                      .dwattr $C$DW$235, DW_AT_data_member_location[DW_OP_plus_uconst 0x39]
    2545                      .dwattr $C$DW$235, DW_AT_accessibility(DW_ACCESS_public)
    2546              $C$DW$236       .dwtag  DW_TAG_member
    2547                      .dwattr $C$DW$236, DW_AT_type(*$C$DW$T$20)
    2548                      .dwattr $C$DW$236, DW_AT_name("CLKSTOP")
    2549                      .dwattr $C$DW$236, DW_AT_TI_symbol_name("_CLKSTOP")
    2550                      .dwattr $C$DW$236, DW_AT_data_member_location[DW_OP_plus_uconst 0x3a]
    2551                      .dwattr $C$DW$236, DW_AT_accessibility(DW_ACCESS_public)
    2552              $C$DW$237       .dwtag  DW_TAG_member
    2553                      .dwattr $C$DW$237, DW_AT_type(*$C$DW$T$38)
    2554                      .dwattr $C$DW$237, DW_AT_name("RSVD8")
    2555                      .dwattr $C$DW$237, DW_AT_TI_symbol_name("_RSVD8")
    2556                      .dwattr $C$DW$237, DW_AT_data_member_location[DW_OP_plus_uconst 0x3b]
TMS320C55x Assembler PC v4.4.1 Sat Sep 29 23:09:39 2018

Tools Copyright (c) 1996-2012 Texas Instruments Incorporated
csl_gpt_example.asm                                                  PAGE   79

    2557                      .dwattr $C$DW$237, DW_AT_accessibility(DW_ACCESS_public)
    2558              $C$DW$238       .dwtag  DW_TAG_member
    2559                      .dwattr $C$DW$238, DW_AT_type(*$C$DW$T$20)
    2560                      .dwattr $C$DW$238, DW_AT_name("DIEIDR0")
    2561                      .dwattr $C$DW$238, DW_AT_TI_symbol_name("_DIEIDR0")
    2562                      .dwattr $C$DW$238, DW_AT_data_member_location[DW_OP_plus_uconst 0x40]
    2563                      .dwattr $C$DW$238, DW_AT_accessibility(DW_ACCESS_public)
    2564              $C$DW$239       .dwtag  DW_TAG_member
    2565                      .dwattr $C$DW$239, DW_AT_type(*$C$DW$T$20)
    2566                      .dwattr $C$DW$239, DW_AT_name("DIEIDR1")
    2567                      .dwattr $C$DW$239, DW_AT_TI_symbol_name("_DIEIDR1")
    2568                      .dwattr $C$DW$239, DW_AT_data_member_location[DW_OP_plus_uconst 0x41]
    2569                      .dwattr $C$DW$239, DW_AT_accessibility(DW_ACCESS_public)
    2570              $C$DW$240       .dwtag  DW_TAG_member
    2571                      .dwattr $C$DW$240, DW_AT_type(*$C$DW$T$20)
    2572                      .dwattr $C$DW$240, DW_AT_name("DIEIDR2")
    2573                      .dwattr $C$DW$240, DW_AT_TI_symbol_name("_DIEIDR2")
    2574                      .dwattr $C$DW$240, DW_AT_data_member_location[DW_OP_plus_uconst 0x42]
    2575                      .dwattr $C$DW$240, DW_AT_accessibility(DW_ACCESS_public)
    2576              $C$DW$241       .dwtag  DW_TAG_member
    2577                      .dwattr $C$DW$241, DW_AT_type(*$C$DW$T$20)
    2578                      .dwattr $C$DW$241, DW_AT_name("DIEIDR3")
    2579                      .dwattr $C$DW$241, DW_AT_TI_symbol_name("_DIEIDR3")
    2580                      .dwattr $C$DW$241, DW_AT_data_member_location[DW_OP_plus_uconst 0x43]
    2581                      .dwattr $C$DW$241, DW_AT_accessibility(DW_ACCESS_public)
    2582              $C$DW$242       .dwtag  DW_TAG_member
    2583                      .dwattr $C$DW$242, DW_AT_type(*$C$DW$T$20)
    2584                      .dwattr $C$DW$242, DW_AT_name("DIEIDR4")
    2585                      .dwattr $C$DW$242, DW_AT_TI_symbol_name("_DIEIDR4")
    2586                      .dwattr $C$DW$242, DW_AT_data_member_location[DW_OP_plus_uconst 0x44]
    2587                      .dwattr $C$DW$242, DW_AT_accessibility(DW_ACCESS_public)
    2588              $C$DW$243       .dwtag  DW_TAG_member
    2589                      .dwattr $C$DW$243, DW_AT_type(*$C$DW$T$20)
    2590                      .dwattr $C$DW$243, DW_AT_name("DIEIDR5")
    2591                      .dwattr $C$DW$243, DW_AT_TI_symbol_name("_DIEIDR5")
    2592                      .dwattr $C$DW$243, DW_AT_data_member_location[DW_OP_plus_uconst 0x45]
    2593                      .dwattr $C$DW$243, DW_AT_accessibility(DW_ACCESS_public)
    2594              $C$DW$244       .dwtag  DW_TAG_member
    2595                      .dwattr $C$DW$244, DW_AT_type(*$C$DW$T$20)
    2596                      .dwattr $C$DW$244, DW_AT_name("DIEIDR6")
    2597                      .dwattr $C$DW$244, DW_AT_TI_symbol_name("_DIEIDR6")
    2598                      .dwattr $C$DW$244, DW_AT_data_member_location[DW_OP_plus_uconst 0x46]
    2599                      .dwattr $C$DW$244, DW_AT_accessibility(DW_ACCESS_public)
    2600              $C$DW$245       .dwtag  DW_TAG_member
    2601                      .dwattr $C$DW$245, DW_AT_type(*$C$DW$T$20)
    2602                      .dwattr $C$DW$245, DW_AT_name("DIEIDR7")
    2603                      .dwattr $C$DW$245, DW_AT_TI_symbol_name("_DIEIDR7")
    2604                      .dwattr $C$DW$245, DW_AT_data_member_location[DW_OP_plus_uconst 0x47]
    2605                      .dwattr $C$DW$245, DW_AT_accessibility(DW_ACCESS_public)
    2606                      .dwendtag $C$DW$T$39
    2607              
    2608              $C$DW$T$50      .dwtag  DW_TAG_typedef, DW_AT_name("CSL_SysRegs")
    2609                      .dwattr $C$DW$T$50, DW_AT_type(*$C$DW$T$39)
    2610                      .dwattr $C$DW$T$50, DW_AT_language(DW_LANG_C)
    2611              $C$DW$246       .dwtag  DW_TAG_TI_far_type
TMS320C55x Assembler PC v4.4.1 Sat Sep 29 23:09:39 2018

Tools Copyright (c) 1996-2012 Texas Instruments Incorporated
csl_gpt_example.asm                                                  PAGE   80

    2612                      .dwattr $C$DW$246, DW_AT_type(*$C$DW$T$50)
    2613              $C$DW$247       .dwtag  DW_TAG_TI_ioport_type
    2614                      .dwattr $C$DW$247, DW_AT_type(*$C$DW$246)
    2615              $C$DW$T$51      .dwtag  DW_TAG_volatile_type
    2616                      .dwattr $C$DW$T$51, DW_AT_type(*$C$DW$247)
    2617              $C$DW$T$52      .dwtag  DW_TAG_pointer_type
    2618                      .dwattr $C$DW$T$52, DW_AT_type(*$C$DW$T$51)
    2619                      .dwattr $C$DW$T$52, DW_AT_address_class(0x10)
    2620              $C$DW$T$53      .dwtag  DW_TAG_typedef, DW_AT_name("CSL_SysRegsOvly")
    2621                      .dwattr $C$DW$T$53, DW_AT_type(*$C$DW$T$52)
    2622                      .dwattr $C$DW$T$53, DW_AT_language(DW_LANG_C)
    2623              
    2624              $C$DW$T$54      .dwtag  DW_TAG_subroutine_type
    2625                      .dwattr $C$DW$T$54, DW_AT_language(DW_LANG_C)
    2626              $C$DW$T$55      .dwtag  DW_TAG_pointer_type
    2627                      .dwattr $C$DW$T$55, DW_AT_type(*$C$DW$T$54)
    2628                      .dwattr $C$DW$T$55, DW_AT_address_class(0x20)
    2629              $C$DW$T$56      .dwtag  DW_TAG_typedef, DW_AT_name("IRQ_IsrPtr")
    2630                      .dwattr $C$DW$T$56, DW_AT_type(*$C$DW$T$55)
    2631                      .dwattr $C$DW$T$56, DW_AT_language(DW_LANG_C)
    2632              $C$DW$T$4       .dwtag  DW_TAG_base_type
    2633                      .dwattr $C$DW$T$4, DW_AT_encoding(DW_ATE_boolean)
    2634                      .dwattr $C$DW$T$4, DW_AT_name("bool")
    2635                      .dwattr $C$DW$T$4, DW_AT_byte_size(0x01)
    2636              $C$DW$T$5       .dwtag  DW_TAG_base_type
    2637                      .dwattr $C$DW$T$5, DW_AT_encoding(DW_ATE_signed_char)
    2638                      .dwattr $C$DW$T$5, DW_AT_name("signed char")
    2639                      .dwattr $C$DW$T$5, DW_AT_byte_size(0x01)
    2640              $C$DW$T$6       .dwtag  DW_TAG_base_type
    2641                      .dwattr $C$DW$T$6, DW_AT_encoding(DW_ATE_unsigned_char)
    2642                      .dwattr $C$DW$T$6, DW_AT_name("unsigned char")
    2643                      .dwattr $C$DW$T$6, DW_AT_byte_size(0x01)
    2644              $C$DW$T$7       .dwtag  DW_TAG_base_type
    2645                      .dwattr $C$DW$T$7, DW_AT_encoding(DW_ATE_signed_char)
    2646                      .dwattr $C$DW$T$7, DW_AT_name("wchar_t")
    2647                      .dwattr $C$DW$T$7, DW_AT_byte_size(0x01)
    2648              $C$DW$T$8       .dwtag  DW_TAG_base_type
    2649                      .dwattr $C$DW$T$8, DW_AT_encoding(DW_ATE_signed)
    2650                      .dwattr $C$DW$T$8, DW_AT_name("short")
    2651                      .dwattr $C$DW$T$8, DW_AT_byte_size(0x01)
    2652              $C$DW$T$43      .dwtag  DW_TAG_typedef, DW_AT_name("Int16")
    2653                      .dwattr $C$DW$T$43, DW_AT_type(*$C$DW$T$8)
    2654                      .dwattr $C$DW$T$43, DW_AT_language(DW_LANG_C)
    2655              $C$DW$T$44      .dwtag  DW_TAG_typedef, DW_AT_name("CSL_Status")
    2656                      .dwattr $C$DW$T$44, DW_AT_type(*$C$DW$T$43)
    2657                      .dwattr $C$DW$T$44, DW_AT_language(DW_LANG_C)
    2658              $C$DW$T$45      .dwtag  DW_TAG_pointer_type
    2659                      .dwattr $C$DW$T$45, DW_AT_type(*$C$DW$T$44)
    2660                      .dwattr $C$DW$T$45, DW_AT_address_class(0x17)
    2661              $C$DW$248       .dwtag  DW_TAG_TI_far_type
    2662                      .dwattr $C$DW$248, DW_AT_type(*$C$DW$T$43)
    2663              $C$DW$T$69      .dwtag  DW_TAG_volatile_type
    2664                      .dwattr $C$DW$T$69, DW_AT_type(*$C$DW$248)
    2665              $C$DW$T$9       .dwtag  DW_TAG_base_type
    2666                      .dwattr $C$DW$T$9, DW_AT_encoding(DW_ATE_unsigned)
TMS320C55x Assembler PC v4.4.1 Sat Sep 29 23:09:39 2018

Tools Copyright (c) 1996-2012 Texas Instruments Incorporated
csl_gpt_example.asm                                                  PAGE   81

    2667                      .dwattr $C$DW$T$9, DW_AT_name("unsigned short")
    2668                      .dwattr $C$DW$T$9, DW_AT_byte_size(0x01)
    2669              $C$DW$T$19      .dwtag  DW_TAG_typedef, DW_AT_name("Uint16")
    2670                      .dwattr $C$DW$T$19, DW_AT_type(*$C$DW$T$9)
    2671                      .dwattr $C$DW$T$19, DW_AT_language(DW_LANG_C)
    2672              $C$DW$249       .dwtag  DW_TAG_TI_far_type
    2673                      .dwattr $C$DW$249, DW_AT_type(*$C$DW$T$19)
    2674              $C$DW$T$20      .dwtag  DW_TAG_volatile_type
    2675                      .dwattr $C$DW$T$20, DW_AT_type(*$C$DW$249)
    2676              
    2677              $C$DW$T$36      .dwtag  DW_TAG_array_type
    2678                      .dwattr $C$DW$T$36, DW_AT_type(*$C$DW$T$20)
    2679                      .dwattr $C$DW$T$36, DW_AT_language(DW_LANG_C)
    2680                      .dwattr $C$DW$T$36, DW_AT_byte_size(0x0e)
    2681              $C$DW$250       .dwtag  DW_TAG_subrange_type
    2682                      .dwattr $C$DW$250, DW_AT_upper_bound(0x0d)
    2683                      .dwendtag $C$DW$T$36
    2684              
    2685              
    2686              $C$DW$T$37      .dwtag  DW_TAG_array_type
    2687                      .dwattr $C$DW$T$37, DW_AT_type(*$C$DW$T$20)
    2688                      .dwattr $C$DW$T$37, DW_AT_language(DW_LANG_C)
    2689                      .dwattr $C$DW$T$37, DW_AT_byte_size(0x02)
    2690              $C$DW$251       .dwtag  DW_TAG_subrange_type
    2691                      .dwattr $C$DW$251, DW_AT_upper_bound(0x01)
    2692                      .dwendtag $C$DW$T$37
    2693              
    2694              
    2695              $C$DW$T$38      .dwtag  DW_TAG_array_type
    2696                      .dwattr $C$DW$T$38, DW_AT_type(*$C$DW$T$20)
    2697                      .dwattr $C$DW$T$38, DW_AT_language(DW_LANG_C)
    2698                      .dwattr $C$DW$T$38, DW_AT_byte_size(0x05)
    2699              $C$DW$252       .dwtag  DW_TAG_subrange_type
    2700                      .dwattr $C$DW$252, DW_AT_upper_bound(0x04)
    2701                      .dwendtag $C$DW$T$38
    2702              
    2703              $C$DW$T$10      .dwtag  DW_TAG_base_type
    2704                      .dwattr $C$DW$T$10, DW_AT_encoding(DW_ATE_signed)
    2705                      .dwattr $C$DW$T$10, DW_AT_name("int")
    2706                      .dwattr $C$DW$T$10, DW_AT_byte_size(0x01)
    2707              $C$DW$T$73      .dwtag  DW_TAG_typedef, DW_AT_name("Bool")
    2708                      .dwattr $C$DW$T$73, DW_AT_type(*$C$DW$T$10)
    2709                      .dwattr $C$DW$T$73, DW_AT_language(DW_LANG_C)
    2710              $C$DW$T$11      .dwtag  DW_TAG_base_type
    2711                      .dwattr $C$DW$T$11, DW_AT_encoding(DW_ATE_unsigned)
    2712                      .dwattr $C$DW$T$11, DW_AT_name("unsigned int")
    2713                      .dwattr $C$DW$T$11, DW_AT_byte_size(0x01)
    2714              $C$DW$T$12      .dwtag  DW_TAG_base_type
    2715                      .dwattr $C$DW$T$12, DW_AT_encoding(DW_ATE_signed)
    2716                      .dwattr $C$DW$T$12, DW_AT_name("long")
    2717                      .dwattr $C$DW$T$12, DW_AT_byte_size(0x02)
    2718              $C$DW$T$13      .dwtag  DW_TAG_base_type
    2719                      .dwattr $C$DW$T$13, DW_AT_encoding(DW_ATE_unsigned)
    2720                      .dwattr $C$DW$T$13, DW_AT_name("unsigned long")
    2721                      .dwattr $C$DW$T$13, DW_AT_byte_size(0x02)
TMS320C55x Assembler PC v4.4.1 Sat Sep 29 23:09:39 2018

Tools Copyright (c) 1996-2012 Texas Instruments Incorporated
csl_gpt_example.asm                                                  PAGE   82

    2722              $C$DW$T$59      .dwtag  DW_TAG_typedef, DW_AT_name("Uint32")
    2723                      .dwattr $C$DW$T$59, DW_AT_type(*$C$DW$T$13)
    2724                      .dwattr $C$DW$T$59, DW_AT_language(DW_LANG_C)
    2725              $C$DW$T$60      .dwtag  DW_TAG_pointer_type
    2726                      .dwattr $C$DW$T$60, DW_AT_type(*$C$DW$T$59)
    2727                      .dwattr $C$DW$T$60, DW_AT_address_class(0x17)
    2728              $C$DW$T$14      .dwtag  DW_TAG_base_type
    2729                      .dwattr $C$DW$T$14, DW_AT_encoding(DW_ATE_signed)
    2730                      .dwattr $C$DW$T$14, DW_AT_name("long long")
    2731                      .dwattr $C$DW$T$14, DW_AT_byte_size(0x04)
    2732                      .dwattr $C$DW$T$14, DW_AT_bit_size(0x28)
    2733                      .dwattr $C$DW$T$14, DW_AT_bit_offset(0x18)
    2734              $C$DW$T$15      .dwtag  DW_TAG_base_type
    2735                      .dwattr $C$DW$T$15, DW_AT_encoding(DW_ATE_unsigned)
    2736                      .dwattr $C$DW$T$15, DW_AT_name("unsigned long long")
    2737                      .dwattr $C$DW$T$15, DW_AT_byte_size(0x04)
    2738                      .dwattr $C$DW$T$15, DW_AT_bit_size(0x28)
    2739                      .dwattr $C$DW$T$15, DW_AT_bit_offset(0x18)
    2740              $C$DW$T$16      .dwtag  DW_TAG_base_type
    2741                      .dwattr $C$DW$T$16, DW_AT_encoding(DW_ATE_float)
    2742                      .dwattr $C$DW$T$16, DW_AT_name("float")
    2743                      .dwattr $C$DW$T$16, DW_AT_byte_size(0x02)
    2744              $C$DW$T$17      .dwtag  DW_TAG_base_type
    2745                      .dwattr $C$DW$T$17, DW_AT_encoding(DW_ATE_float)
    2746                      .dwattr $C$DW$T$17, DW_AT_name("double")
    2747                      .dwattr $C$DW$T$17, DW_AT_byte_size(0x02)
    2748              $C$DW$T$18      .dwtag  DW_TAG_base_type
    2749                      .dwattr $C$DW$T$18, DW_AT_encoding(DW_ATE_float)
    2750                      .dwattr $C$DW$T$18, DW_AT_name("long double")
    2751                      .dwattr $C$DW$T$18, DW_AT_byte_size(0x02)
    2752              $C$DW$T$76      .dwtag  DW_TAG_base_type
    2753                      .dwattr $C$DW$T$76, DW_AT_encoding(DW_ATE_signed_char)
    2754                      .dwattr $C$DW$T$76, DW_AT_name("signed char")
    2755                      .dwattr $C$DW$T$76, DW_AT_byte_size(0x01)
    2756              $C$DW$253       .dwtag  DW_TAG_TI_far_type
    2757                      .dwattr $C$DW$253, DW_AT_type(*$C$DW$T$76)
    2758              $C$DW$T$77      .dwtag  DW_TAG_const_type
    2759                      .dwattr $C$DW$T$77, DW_AT_type(*$C$DW$253)
    2760              $C$DW$T$78      .dwtag  DW_TAG_pointer_type
    2761                      .dwattr $C$DW$T$78, DW_AT_type(*$C$DW$T$77)
    2762                      .dwattr $C$DW$T$78, DW_AT_address_class(0x17)
    2763                      .dwattr $C$DW$CU, DW_AT_language(DW_LANG_C)
    2764              
    2765              ;***************************************************************
    2766              ;* DWARF CIE ENTRIES                                           *
    2767              ;***************************************************************
    2768              
    2769              $C$DW$CIE       .dwcie 91
    2770                      .dwcfi  cfa_register, 36
    2771                      .dwcfi  cfa_offset, 0
    2772                      .dwcfi  undefined, 0
    2773                      .dwcfi  undefined, 1
    2774                      .dwcfi  undefined, 2
    2775                      .dwcfi  undefined, 3
    2776                      .dwcfi  undefined, 4
TMS320C55x Assembler PC v4.4.1 Sat Sep 29 23:09:39 2018

Tools Copyright (c) 1996-2012 Texas Instruments Incorporated
csl_gpt_example.asm                                                  PAGE   83

    2777                      .dwcfi  undefined, 5
    2778                      .dwcfi  undefined, 6
    2779                      .dwcfi  undefined, 7
    2780                      .dwcfi  undefined, 8
    2781                      .dwcfi  undefined, 9
    2782                      .dwcfi  undefined, 10
    2783                      .dwcfi  undefined, 11
    2784                      .dwcfi  undefined, 12
    2785                      .dwcfi  undefined, 13
    2786                      .dwcfi  same_value, 14
    2787                      .dwcfi  same_value, 15
    2788                      .dwcfi  undefined, 16
    2789                      .dwcfi  undefined, 17
    2790                      .dwcfi  undefined, 18
    2791                      .dwcfi  undefined, 19
    2792                      .dwcfi  undefined, 20
    2793                      .dwcfi  undefined, 21
    2794                      .dwcfi  undefined, 22
    2795                      .dwcfi  undefined, 23
    2796                      .dwcfi  undefined, 24
    2797                      .dwcfi  undefined, 25
