TMS320C55x Assembler PC v4.4.1 Sat Sep 29 23:08:53 2018

Tools Copyright (c) 1996-2012 Texas Instruments Incorporated
csl_nand_intr_example.asm                                            PAGE    1

    5413              ; Temporary Registers Used: None
       1              ;*******************************************************************************
       2              ;* TMS320C55x C/C++ Codegen                                          PC v4.4.1 *
       3              ;* Date/Time created: Sat Sep 29 23:08:52 2018                                 *
       4              ;*******************************************************************************
       5                      .compiler_opts --hll_source=on --mem_model:code=flat --mem_model:data=large --object_format=coff --si
       6                      .mmregs
       7                      .cpl_on
       8                      .arms_on
       9                      .c54cm_off
      10                      .asg AR6, FP
      11                      .asg XAR6, XFP
      12                      .asg DPH, MDP
      13                      .model call=c55_std
      14                      .model mem=large
      15                      .noremark 5002  ; code respects overwrite rules
      16              ;*******************************************************************************
      17              ;* GLOBAL FILE PARAMETERS                                                      *
      18              ;*                                                                             *
      19              ;*   Architecture       : TMS320C55x                                           *
      20              ;*   Optimizing for     : Speed                                                *
      21              ;*   Memory             : Large Model (23-Bit Data Pointers)                   *
      22              ;*   Calls              : Normal Library ASM calls                             *
      23              ;*   Debug Info         : Standard TI Debug Information                        *
      24              ;*******************************************************************************
      25              
      26              $C$DW$CU        .dwtag  DW_TAG_compile_unit
      27                      .dwattr $C$DW$CU, DW_AT_name("../c5535_bsl_revc/ezdsp5535_v1/c55xx_csl/ccs_v4.0_examples/nand/CSL_NAN
      28                      .dwattr $C$DW$CU, DW_AT_producer("TMS320C55x C/C++ Codegen PC v4.4.1 Copyright (c) 1996-2012 Texas In
      29                      .dwattr $C$DW$CU, DW_AT_TI_version(0x01)
      30                      .dwattr $C$DW$CU, DW_AT_comp_dir("F:\eZdsp_DBG\tmp1\c55x-sim2\foo\Debug")
      31              ;******************************************************************************
      32              ;* CINIT RECORDS                                                              *
      33              ;******************************************************************************
      34 000000               .sect   ".cinit"
      35                      .align  1
      36 000000 033C          .field          $C$IR_1,16
      37 000001 0000-         .field          _cslNandIdLookup+0,24
         000002 0000 
      38 000002 0000          .field          0,8
      39 000003 0000+         .field  $C$FSL1,32              ; _cslNandIdLookup[0]._name @ 0
         000004 0000 
      40 000005 0000          .field  110,32                  ; _cslNandIdLookup[0]._id @ 32
         000006 006E 
      41 000007 0000          .field  256,32                  ; _cslNandIdLookup[0]._bytesPerPage @ 64
         000008 0100 
      42 000009 0000          .field  1,32                    ; _cslNandIdLookup[0]._chipSize @ 96
         00000a 0001 
      43 00000b 0000          .field  4096,32                 ; _cslNandIdLookup[0]._eraseSize @ 128
         00000c 1000 
      44 00000d 0000          .field  0,16                    ; _cslNandIdLookup[0]._nand8Bit @ 160
      45 00000e               .space  16
      46 00000f 0000          .field  0,32                    ; _cslNandIdLookup[0]._nandOptions @ 192
         000010 0000 
      47 000011 0000+         .field  $C$FSL2,32              ; _cslNandIdLookup[1]._name @ 224
TMS320C55x Assembler PC v4.4.1 Sat Sep 29 23:08:53 2018

Tools Copyright (c) 1996-2012 Texas Instruments Incorporated
csl_nand_intr_example.asm                                            PAGE    2

         000012 000A 
      48 000013 0000          .field  100,32                  ; _cslNandIdLookup[1]._id @ 256
         000014 0064 
      49 000015 0000          .field  256,32                  ; _cslNandIdLookup[1]._bytesPerPage @ 288
         000016 0100 
      50 000017 0000          .field  2,32                    ; _cslNandIdLookup[1]._chipSize @ 320
         000018 0002 
      51 000019 0000          .field  4096,32                 ; _cslNandIdLookup[1]._eraseSize @ 352
         00001a 1000 
      52 00001b 0000          .field  0,16                    ; _cslNandIdLookup[1]._nand8Bit @ 384
      53 00001c               .space  16
      54 00001d 0000          .field  0,32                    ; _cslNandIdLookup[1]._nandOptions @ 416
         00001e 0000 
      55 00001f 0000+         .field  $C$FSL3,32              ; _cslNandIdLookup[2]._name @ 448
         000020 0014 
      56 000021 0000          .field  107,32                  ; _cslNandIdLookup[2]._id @ 480
         000022 006B 
      57 000023 0000          .field  512,32                  ; _cslNandIdLookup[2]._bytesPerPage @ 512
         000024 0200 
      58 000025 0000          .field  4,32                    ; _cslNandIdLookup[2]._chipSize @ 544
         000026 0004 
      59 000027 0000          .field  8192,32                 ; _cslNandIdLookup[2]._eraseSize @ 576
         000028 2000 
      60 000029 0000          .field  0,16                    ; _cslNandIdLookup[2]._nand8Bit @ 608
      61 00002a               .space  16
      62 00002b 0000          .field  0,32                    ; _cslNandIdLookup[2]._nandOptions @ 640
         00002c 0000 
      63 00002d 0000+         .field  $C$FSL1,32              ; _cslNandIdLookup[3]._name @ 672
         00002e 0000 
      64 00002f 0000          .field  232,32                  ; _cslNandIdLookup[3]._id @ 704
         000030 00E8 
      65 000031 0000          .field  256,32                  ; _cslNandIdLookup[3]._bytesPerPage @ 736
         000032 0100 
      66 000033 0000          .field  1,32                    ; _cslNandIdLookup[3]._chipSize @ 768
         000034 0001 
      67 000035 0000          .field  4096,32                 ; _cslNandIdLookup[3]._eraseSize @ 800
         000036 1000 
      68 000037 0000          .field  0,16                    ; _cslNandIdLookup[3]._nand8Bit @ 832
      69 000038               .space  16
      70 000039 0000          .field  0,32                    ; _cslNandIdLookup[3]._nandOptions @ 864
         00003a 0000 
      71 00003b 0000+         .field  $C$FSL1,32              ; _cslNandIdLookup[4]._name @ 896
         00003c 0000 
      72 00003d 0000          .field  236,32                  ; _cslNandIdLookup[4]._id @ 928
         00003e 00EC 
      73 00003f 0000          .field  256,32                  ; _cslNandIdLookup[4]._bytesPerPage @ 960
         000040 0100 
      74 000041 0000          .field  1,32                    ; _cslNandIdLookup[4]._chipSize @ 992
         000042 0001 
      75 000043 0000          .field  4096,32                 ; _cslNandIdLookup[4]._eraseSize @ 1024
         000044 1000 
      76 000045 0000          .field  0,16                    ; _cslNandIdLookup[4]._nand8Bit @ 1056
      77 000046               .space  16
      78 000047 0000          .field  0,32                    ; _cslNandIdLookup[4]._nandOptions @ 1088
         000048 0000 
TMS320C55x Assembler PC v4.4.1 Sat Sep 29 23:08:53 2018

Tools Copyright (c) 1996-2012 Texas Instruments Incorporated
csl_nand_intr_example.asm                                            PAGE    3

      79 000049 0000+         .field  $C$FSL2,32              ; _cslNandIdLookup[5]._name @ 1120
         00004a 000A 
      80 00004b 0000          .field  234,32                  ; _cslNandIdLookup[5]._id @ 1152
         00004c 00EA 
      81 00004d 0000          .field  256,32                  ; _cslNandIdLookup[5]._bytesPerPage @ 1184
         00004e 0100 
      82 00004f 0000          .field  2,32                    ; _cslNandIdLookup[5]._chipSize @ 1216
         000050 0002 
      83 000051 0000          .field  4096,32                 ; _cslNandIdLookup[5]._eraseSize @ 1248
         000052 1000 
      84 000053 0000          .field  0,16                    ; _cslNandIdLookup[5]._nand8Bit @ 1280
      85 000054               .space  16
      86 000055 0000          .field  0,32                    ; _cslNandIdLookup[5]._nandOptions @ 1312
         000056 0000 
      87 000057 0000+         .field  $C$FSL3,32              ; _cslNandIdLookup[6]._name @ 1344
         000058 0014 
      88 000059 0000          .field  213,32                  ; _cslNandIdLookup[6]._id @ 1376
         00005a 00D5 
      89 00005b 0000          .field  512,32                  ; _cslNandIdLookup[6]._bytesPerPage @ 1408
         00005c 0200 
      90 00005d 0000          .field  4,32                    ; _cslNandIdLookup[6]._chipSize @ 1440
         00005e 0004 
      91 00005f 0000          .field  8192,32                 ; _cslNandIdLookup[6]._eraseSize @ 1472
         000060 2000 
      92 000061 0000          .field  0,16                    ; _cslNandIdLookup[6]._nand8Bit @ 1504
      93 000062               .space  16
      94 000063 0000          .field  0,32                    ; _cslNandIdLookup[6]._nandOptions @ 1536
         000064 0000 
      95 000065 0000+         .field  $C$FSL3,32              ; _cslNandIdLookup[7]._name @ 1568
         000066 0014 
      96 000067 0000          .field  227,32                  ; _cslNandIdLookup[7]._id @ 1600
         000068 00E3 
      97 000069 0000          .field  512,32                  ; _cslNandIdLookup[7]._bytesPerPage @ 1632
         00006a 0200 
      98 00006b 0000          .field  4,32                    ; _cslNandIdLookup[7]._chipSize @ 1664
         00006c 0004 
      99 00006d 0000          .field  8192,32                 ; _cslNandIdLookup[7]._eraseSize @ 1696
         00006e 2000 
     100 00006f 0000          .field  0,16                    ; _cslNandIdLookup[7]._nand8Bit @ 1728
     101 000070               .space  16
     102 000071 0000          .field  0,32                    ; _cslNandIdLookup[7]._nandOptions @ 1760
         000072 0000 
     103 000073 0000+         .field  $C$FSL3,32              ; _cslNandIdLookup[8]._name @ 1792
         000074 0014 
     104 000075 0000          .field  229,32                  ; _cslNandIdLookup[8]._id @ 1824
         000076 00E5 
     105 000077 0000          .field  512,32                  ; _cslNandIdLookup[8]._bytesPerPage @ 1856
         000078 0200 
     106 000079 0000          .field  4,32                    ; _cslNandIdLookup[8]._chipSize @ 1888
         00007a 0004 
     107 00007b 0000          .field  8192,32                 ; _cslNandIdLookup[8]._eraseSize @ 1920
         00007c 2000 
     108 00007d 0000          .field  0,16                    ; _cslNandIdLookup[8]._nand8Bit @ 1952
     109 00007e               .space  16
     110 00007f 0000          .field  0,32                    ; _cslNandIdLookup[8]._nandOptions @ 1984
TMS320C55x Assembler PC v4.4.1 Sat Sep 29 23:08:53 2018

Tools Copyright (c) 1996-2012 Texas Instruments Incorporated
csl_nand_intr_example.asm                                            PAGE    4

         000080 0000 
     111 000081 0000+         .field  $C$FSL4,32              ; _cslNandIdLookup[9]._name @ 2016
         000082 001E 
     112 000083 0000          .field  214,32                  ; _cslNandIdLookup[9]._id @ 2048
         000084 00D6 
     113 000085 0000          .field  512,32                  ; _cslNandIdLookup[9]._bytesPerPage @ 2080
         000086 0200 
     114 000087 0000          .field  8,32                    ; _cslNandIdLookup[9]._chipSize @ 2112
         000088 0008 
     115 000089 0000          .field  8192,32                 ; _cslNandIdLookup[9]._eraseSize @ 2144
         00008a 2000 
     116 00008b 0000          .field  0,16                    ; _cslNandIdLookup[9]._nand8Bit @ 2176
     117 00008c               .space  16
     118 00008d 0000          .field  0,32                    ; _cslNandIdLookup[9]._nandOptions @ 2208
         00008e 0000 
     119 00008f 0000+         .field  $C$FSL4,32              ; _cslNandIdLookup[10]._name @ 2240
         000090 001E 
     120 000091 0000          .field  57,32                   ; _cslNandIdLookup[10]._id @ 2272
         000092 0039 
     121 000093 0000          .field  512,32                  ; _cslNandIdLookup[10]._bytesPerPage @ 2304
         000094 0200 
     122 000095 0000          .field  8,32                    ; _cslNandIdLookup[10]._chipSize @ 2336
         000096 0008 
     123 000097 0000          .field  8192,32                 ; _cslNandIdLookup[10]._eraseSize @ 2368
         000098 2000 
     124 000099 0000          .field  0,16                    ; _cslNandIdLookup[10]._nand8Bit @ 2400
     125 00009a               .space  16
     126 00009b 0000          .field  0,32                    ; _cslNandIdLookup[10]._nandOptions @ 2432
         00009c 0000 
     127 00009d 0000+         .field  $C$FSL4,32              ; _cslNandIdLookup[11]._name @ 2464
         00009e 001E 
     128 00009f 0000          .field  230,32                  ; _cslNandIdLookup[11]._id @ 2496
         0000a0 00E6 
     129 0000a1 0000          .field  512,32                  ; _cslNandIdLookup[11]._bytesPerPage @ 2528
         0000a2 0200 
     130 0000a3 0000          .field  8,32                    ; _cslNandIdLookup[11]._chipSize @ 2560
         0000a4 0008 
     131 0000a5 0000          .field  8192,32                 ; _cslNandIdLookup[11]._eraseSize @ 2592
         0000a6 2000 
     132 0000a7 0000          .field  0,16                    ; _cslNandIdLookup[11]._nand8Bit @ 2624
     133 0000a8               .space  16
     134 0000a9 0000          .field  0,32                    ; _cslNandIdLookup[11]._nandOptions @ 2656
         0000aa 0000 
     135 0000ab 0000+         .field  $C$FSL5,32              ; _cslNandIdLookup[12]._name @ 2688
         0000ac 0028 
     136 0000ad 0000          .field  73,32                   ; _cslNandIdLookup[12]._id @ 2720
         0000ae 0049 
     137 0000af 0000          .field  512,32                  ; _cslNandIdLookup[12]._bytesPerPage @ 2752
         0000b0 0200 
     138 0000b1 0000          .field  8,32                    ; _cslNandIdLookup[12]._chipSize @ 2784
         0000b2 0008 
     139 0000b3 0000          .field  8192,32                 ; _cslNandIdLookup[12]._eraseSize @ 2816
         0000b4 2000 
     140 0000b5 0001          .field  1,16                    ; _cslNandIdLookup[12]._nand8Bit @ 2848
     141 0000b6               .space  16
TMS320C55x Assembler PC v4.4.1 Sat Sep 29 23:08:53 2018

Tools Copyright (c) 1996-2012 Texas Instruments Incorporated
csl_nand_intr_example.asm                                            PAGE    5

     142 0000b7 0000          .field  0,32                    ; _cslNandIdLookup[12]._nandOptions @ 2880
         0000b8 0000 
     143 0000b9 0000+         .field  $C$FSL5,32              ; _cslNandIdLookup[13]._name @ 2912
         0000ba 0028 
     144 0000bb 0000          .field  89,32                   ; _cslNandIdLookup[13]._id @ 2944
         0000bc 0059 
     145 0000bd 0000          .field  512,32                  ; _cslNandIdLookup[13]._bytesPerPage @ 2976
         0000be 0200 
     146 0000bf 0000          .field  8,32                    ; _cslNandIdLookup[13]._chipSize @ 3008
         0000c0 0008 
     147 0000c1 0000          .field  8192,32                 ; _cslNandIdLookup[13]._eraseSize @ 3040
         0000c2 2000 
     148 0000c3 0001          .field  1,16                    ; _cslNandIdLookup[13]._nand8Bit @ 3072
     149 0000c4               .space  16
     150 0000c5 0000          .field  0,32                    ; _cslNandIdLookup[13]._nandOptions @ 3104
         0000c6 0000 
     151 0000c7 0000+         .field  $C$FSL6,32              ; _cslNandIdLookup[14]._name @ 3136
         0000c8 0034 
     152 0000c9 0000          .field  51,32                   ; _cslNandIdLookup[14]._id @ 3168
         0000ca 0033 
     153 0000cb 0000          .field  512,32                  ; _cslNandIdLookup[14]._bytesPerPage @ 3200
         0000cc 0200 
     154 0000cd 0000          .field  16,32                   ; _cslNandIdLookup[14]._chipSize @ 3232
         0000ce 0010 
     155 0000cf 0000          .field  16384,32                        ; _cslNandIdLookup[14]._eraseSize @ 3264
         0000d0 4000 
     156 0000d1 0000          .field  0,16                    ; _cslNandIdLookup[14]._nand8Bit @ 3296
     157 0000d2               .space  16
     158 0000d3 0000          .field  0,32                    ; _cslNandIdLookup[14]._nandOptions @ 3328
         0000d4 0000 
     159 0000d5 0000+         .field  $C$FSL6,32              ; _cslNandIdLookup[15]._name @ 3360
         0000d6 0034 
     160 0000d7 0000          .field  115,32                  ; _cslNandIdLookup[15]._id @ 3392
         0000d8 0073 
     161 0000d9 0000          .field  512,32                  ; _cslNandIdLookup[15]._bytesPerPage @ 3424
         0000da 0200 
     162 0000db 0000          .field  16,32                   ; _cslNandIdLookup[15]._chipSize @ 3456
         0000dc 0010 
     163 0000dd 0000          .field  16384,32                        ; _cslNandIdLookup[15]._eraseSize @ 3488
         0000de 4000 
     164 0000df 0000          .field  0,16                    ; _cslNandIdLookup[15]._nand8Bit @ 3520
     165 0000e0               .space  16
     166 0000e1 0000          .field  0,32                    ; _cslNandIdLookup[15]._nandOptions @ 3552
         0000e2 0000 
     167 0000e3 0000+         .field  $C$FSL7,32              ; _cslNandIdLookup[16]._name @ 3584
         0000e4 0040 
     168 0000e5 0000          .field  67,32                   ; _cslNandIdLookup[16]._id @ 3616
         0000e6 0043 
     169 0000e7 0000          .field  512,32                  ; _cslNandIdLookup[16]._bytesPerPage @ 3648
         0000e8 0200 
     170 0000e9 0000          .field  16,32                   ; _cslNandIdLookup[16]._chipSize @ 3680
         0000ea 0010 
     171 0000eb 0000          .field  16384,32                        ; _cslNandIdLookup[16]._eraseSize @ 3712
         0000ec 4000 
     172 0000ed 0001          .field  1,16                    ; _cslNandIdLookup[16]._nand8Bit @ 3744
TMS320C55x Assembler PC v4.4.1 Sat Sep 29 23:08:53 2018

Tools Copyright (c) 1996-2012 Texas Instruments Incorporated
csl_nand_intr_example.asm                                            PAGE    6

     173 0000ee               .space  16
     174 0000ef 0000          .field  0,32                    ; _cslNandIdLookup[16]._nandOptions @ 3776
         0000f0 0000 
     175 0000f1 0000+         .field  $C$FSL7,32              ; _cslNandIdLookup[17]._name @ 3808
         0000f2 0040 
     176 0000f3 0000          .field  83,32                   ; _cslNandIdLookup[17]._id @ 3840
         0000f4 0053 
     177 0000f5 0000          .field  512,32                  ; _cslNandIdLookup[17]._bytesPerPage @ 3872
         0000f6 0200 
     178 0000f7 0000          .field  16,32                   ; _cslNandIdLookup[17]._chipSize @ 3904
         0000f8 0010 
     179 0000f9 0000          .field  16384,32                        ; _cslNandIdLookup[17]._eraseSize @ 3936
         0000fa 4000 
     180 0000fb 0001          .field  1,16                    ; _cslNandIdLookup[17]._nand8Bit @ 3968
     181 0000fc               .space  16
     182 0000fd 0000          .field  0,32                    ; _cslNandIdLookup[17]._nandOptions @ 4000
         0000fe 0000 
     183 0000ff 0000+         .field  $C$FSL8,32              ; _cslNandIdLookup[18]._name @ 4032
         000100 004C 
     184 000101 0000          .field  53,32                   ; _cslNandIdLookup[18]._id @ 4064
         000102 0035 
     185 000103 0000          .field  512,32                  ; _cslNandIdLookup[18]._bytesPerPage @ 4096
         000104 0200 
     186 000105 0000          .field  32,32                   ; _cslNandIdLookup[18]._chipSize @ 4128
         000106 0020 
     187 000107 0000          .field  16384,32                        ; _cslNandIdLookup[18]._eraseSize @ 4160
         000108 4000 
     188 000109 0000          .field  0,16                    ; _cslNandIdLookup[18]._nand8Bit @ 4192
     189 00010a               .space  16
     190 00010b 0000          .field  0,32                    ; _cslNandIdLookup[18]._nandOptions @ 4224
         00010c 0000 
     191 00010d 0000+         .field  $C$FSL8,32              ; _cslNandIdLookup[19]._name @ 4256
         00010e 004C 
     192 00010f 0000          .field  117,32                  ; _cslNandIdLookup[19]._id @ 4288
         000110 0075 
     193 000111 0000          .field  512,32                  ; _cslNandIdLookup[19]._bytesPerPage @ 4320
         000112 0200 
     194 000113 0000          .field  32,32                   ; _cslNandIdLookup[19]._chipSize @ 4352
         000114 0020 
     195 000115 0000          .field  16384,32                        ; _cslNandIdLookup[19]._eraseSize @ 4384
         000116 4000 
     196 000117 0000          .field  0,16                    ; _cslNandIdLookup[19]._nand8Bit @ 4416
     197 000118               .space  16
     198 000119 0000          .field  0,32                    ; _cslNandIdLookup[19]._nandOptions @ 4448
         00011a 0000 
     199 00011b 0000+         .field  $C$FSL9,32              ; _cslNandIdLookup[20]._name @ 4480
         00011c 0058 
     200 00011d 0000          .field  69,32                   ; _cslNandIdLookup[20]._id @ 4512
         00011e 0045 
     201 00011f 0000          .field  512,32                  ; _cslNandIdLookup[20]._bytesPerPage @ 4544
         000120 0200 
     202 000121 0000          .field  32,32                   ; _cslNandIdLookup[20]._chipSize @ 4576
         000122 0020 
     203 000123 0000          .field  16384,32                        ; _cslNandIdLookup[20]._eraseSize @ 4608
         000124 4000 
TMS320C55x Assembler PC v4.4.1 Sat Sep 29 23:08:53 2018

Tools Copyright (c) 1996-2012 Texas Instruments Incorporated
csl_nand_intr_example.asm                                            PAGE    7

     204 000125 0001          .field  1,16                    ; _cslNandIdLookup[20]._nand8Bit @ 4640
     205 000126               .space  16
     206 000127 0000          .field  0,32                    ; _cslNandIdLookup[20]._nandOptions @ 4672
         000128 0000 
     207 000129 0000+         .field  $C$FSL9,32              ; _cslNandIdLookup[21]._name @ 4704
         00012a 0058 
     208 00012b 0000          .field  85,32                   ; _cslNandIdLookup[21]._id @ 4736
         00012c 0055 
     209 00012d 0000          .field  512,32                  ; _cslNandIdLookup[21]._bytesPerPage @ 4768
         00012e 0200 
     210 00012f 0000          .field  32,32                   ; _cslNandIdLookup[21]._chipSize @ 4800
         000130 0020 
     211 000131 0000          .field  16384,32                        ; _cslNandIdLookup[21]._eraseSize @ 4832
         000132 4000 
     212 000133 0001          .field  1,16                    ; _cslNandIdLookup[21]._nand8Bit @ 4864
     213 000134               .space  16
     214 000135 0000          .field  0,32                    ; _cslNandIdLookup[21]._nandOptions @ 4896
         000136 0000 
     215 000137 0000+         .field  $C$FSL10,32             ; _cslNandIdLookup[22]._name @ 4928
         000138 0064 
     216 000139 0000          .field  54,32                   ; _cslNandIdLookup[22]._id @ 4960
         00013a 0036 
     217 00013b 0000          .field  512,32                  ; _cslNandIdLookup[22]._bytesPerPage @ 4992
         00013c 0200 
     218 00013d 0000          .field  64,32                   ; _cslNandIdLookup[22]._chipSize @ 5024
         00013e 0040 
     219 00013f 0000          .field  16384,32                        ; _cslNandIdLookup[22]._eraseSize @ 5056
         000140 4000 
     220 000141 0000          .field  0,16                    ; _cslNandIdLookup[22]._nand8Bit @ 5088
     221 000142               .space  16
     222 000143 0000          .field  0,32                    ; _cslNandIdLookup[22]._nandOptions @ 5120
         000144 0000 
     223 000145 0000+         .field  $C$FSL11,32             ; _cslNandIdLookup[23]._name @ 5152
         000146 0070 
     224 000147 0000          .field  37,32                   ; _cslNandIdLookup[23]._id @ 5184
         000148 0025 
     225 000149 0000          .field  2048,32                 ; _cslNandIdLookup[23]._bytesPerPage @ 5216
         00014a 0800 
     226 00014b 0000          .field  64,32                   ; _cslNandIdLookup[23]._chipSize @ 5248
         00014c 0040 
     227 00014d 0002          .field  131072,32                       ; _cslNandIdLookup[23]._eraseSize @ 5280
         00014e 0000 
     228 00014f 0001          .field  1,16                    ; _cslNandIdLookup[23]._nand8Bit @ 5312
     229 000150               .space  16
     230 000151 0000          .field  15,32                   ; _cslNandIdLookup[23]._nandOptions @ 5344
         000152 000F 
     231 000153 0000+         .field  $C$FSL10,32             ; _cslNandIdLookup[24]._name @ 5376
         000154 0064 
     232 000155 0000          .field  118,32                  ; _cslNandIdLookup[24]._id @ 5408
         000156 0076 
     233 000157 0000          .field  512,32                  ; _cslNandIdLookup[24]._bytesPerPage @ 5440
         000158 0200 
     234 000159 0000          .field  64,32                   ; _cslNandIdLookup[24]._chipSize @ 5472
         00015a 0040 
     235 00015b 0000          .field  16384,32                        ; _cslNandIdLookup[24]._eraseSize @ 5504
TMS320C55x Assembler PC v4.4.1 Sat Sep 29 23:08:53 2018

Tools Copyright (c) 1996-2012 Texas Instruments Incorporated
csl_nand_intr_example.asm                                            PAGE    8

         00015c 4000 
     236 00015d 0000          .field  0,16                    ; _cslNandIdLookup[24]._nand8Bit @ 5536
     237 00015e               .space  16
     238 00015f 0000          .field  0,32                    ; _cslNandIdLookup[24]._nandOptions @ 5568
         000160 0000 
     239 000161 0000+         .field  $C$FSL11,32             ; _cslNandIdLookup[25]._name @ 5600
         000162 0070 
     240 000163 0000          .field  70,32                   ; _cslNandIdLookup[25]._id @ 5632
         000164 0046 
     241 000165 0000          .field  512,32                  ; _cslNandIdLookup[25]._bytesPerPage @ 5664
         000166 0200 
     242 000167 0000          .field  64,32                   ; _cslNandIdLookup[25]._chipSize @ 5696
         000168 0040 
     243 000169 0000          .field  16384,32                        ; _cslNandIdLookup[25]._eraseSize @ 5728
         00016a 4000 
     244 00016b 0001          .field  1,16                    ; _cslNandIdLookup[25]._nand8Bit @ 5760
     245 00016c               .space  16
     246 00016d 0000          .field  0,32                    ; _cslNandIdLookup[25]._nandOptions @ 5792
         00016e 0000 
     247 00016f 0000+         .field  $C$FSL11,32             ; _cslNandIdLookup[26]._name @ 5824
         000170 0070 
     248 000171 0000          .field  86,32                   ; _cslNandIdLookup[26]._id @ 5856
         000172 0056 
     249 000173 0000          .field  512,32                  ; _cslNandIdLookup[26]._bytesPerPage @ 5888
         000174 0200 
     250 000175 0000          .field  64,32                   ; _cslNandIdLookup[26]._chipSize @ 5920
         000176 0040 
     251 000177 0000          .field  16384,32                        ; _cslNandIdLookup[26]._eraseSize @ 5952
         000178 4000 
     252 000179 0001          .field  1,16                    ; _cslNandIdLookup[26]._nand8Bit @ 5984
     253 00017a               .space  16
     254 00017b 0000          .field  0,32                    ; _cslNandIdLookup[26]._nandOptions @ 6016
         00017c 0000 
     255 00017d 0000+         .field  $C$FSL12,32             ; _cslNandIdLookup[27]._name @ 6048
         00017e 007C 
     256 00017f 0000          .field  120,32                  ; _cslNandIdLookup[27]._id @ 6080
         000180 0078 
     257 000181 0000          .field  512,32                  ; _cslNandIdLookup[27]._bytesPerPage @ 6112
         000182 0200 
     258 000183 0000          .field  128,32                  ; _cslNandIdLookup[27]._chipSize @ 6144
         000184 0080 
     259 000185 0000          .field  16384,32                        ; _cslNandIdLookup[27]._eraseSize @ 6176
         000186 4000 
     260 000187 0000          .field  0,16                    ; _cslNandIdLookup[27]._nand8Bit @ 6208
     261 000188               .space  16
     262 000189 0000          .field  0,32                    ; _cslNandIdLookup[27]._nandOptions @ 6240
         00018a 0000 
     263 00018b 0000+         .field  $C$FSL12,32             ; _cslNandIdLookup[28]._name @ 6272
         00018c 007C 
     264 00018d 0000          .field  57,32                   ; _cslNandIdLookup[28]._id @ 6304
         00018e 0039 
     265 00018f 0000          .field  512,32                  ; _cslNandIdLookup[28]._bytesPerPage @ 6336
         000190 0200 
     266 000191 0000          .field  128,32                  ; _cslNandIdLookup[28]._chipSize @ 6368
         000192 0080 
TMS320C55x Assembler PC v4.4.1 Sat Sep 29 23:08:53 2018

Tools Copyright (c) 1996-2012 Texas Instruments Incorporated
csl_nand_intr_example.asm                                            PAGE    9

     267 000193 0000          .field  16384,32                        ; _cslNandIdLookup[28]._eraseSize @ 6400
         000194 4000 
     268 000195 0000          .field  0,16                    ; _cslNandIdLookup[28]._nand8Bit @ 6432
     269 000196               .space  16
     270 000197 0000          .field  0,32                    ; _cslNandIdLookup[28]._nandOptions @ 6464
         000198 0000 
     271 000199 0000+         .field  $C$FSL12,32             ; _cslNandIdLookup[29]._name @ 6496
         00019a 007C 
     272 00019b 0000          .field  121,32                  ; _cslNandIdLookup[29]._id @ 6528
         00019c 0079 
     273 00019d 0000          .field  512,32                  ; _cslNandIdLookup[29]._bytesPerPage @ 6560
         00019e 0200 
     274 00019f 0000          .field  128,32                  ; _cslNandIdLookup[29]._chipSize @ 6592
         0001a0 0080 
     275 0001a1 0000          .field  16384,32                        ; _cslNandIdLookup[29]._eraseSize @ 6624
         0001a2 4000 
     276 0001a3 0000          .field  0,16                    ; _cslNandIdLookup[29]._nand8Bit @ 6656
     277 0001a4               .space  16
     278 0001a5 0000          .field  0,32                    ; _cslNandIdLookup[29]._nandOptions @ 6688
         0001a6 0000 
     279 0001a7 0000+         .field  $C$FSL13,32             ; _cslNandIdLookup[30]._name @ 6720
         0001a8 0088 
     280 0001a9 0000          .field  114,32                  ; _cslNandIdLookup[30]._id @ 6752
         0001aa 0072 
     281 0001ab 0000          .field  512,32                  ; _cslNandIdLookup[30]._bytesPerPage @ 6784
         0001ac 0200 
     282 0001ad 0000          .field  128,32                  ; _cslNandIdLookup[30]._chipSize @ 6816
         0001ae 0080 
     283 0001af 0000          .field  16384,32                        ; _cslNandIdLookup[30]._eraseSize @ 6848
         0001b0 4000 
     284 0001b1 0001          .field  1,16                    ; _cslNandIdLookup[30]._nand8Bit @ 6880
     285 0001b2               .space  16
     286 0001b3 0000          .field  0,32                    ; _cslNandIdLookup[30]._nandOptions @ 6912
         0001b4 0000 
     287 0001b5 0000+         .field  $C$FSL13,32             ; _cslNandIdLookup[31]._name @ 6944
         0001b6 0088 
     288 0001b7 0000          .field  73,32                   ; _cslNandIdLookup[31]._id @ 6976
         0001b8 0049 
     289 0001b9 0000          .field  512,32                  ; _cslNandIdLookup[31]._bytesPerPage @ 7008
         0001ba 0200 
     290 0001bb 0000          .field  128,32                  ; _cslNandIdLookup[31]._chipSize @ 7040
         0001bc 0080 
     291 0001bd 0000          .field  16384,32                        ; _cslNandIdLookup[31]._eraseSize @ 7072
         0001be 4000 
     292 0001bf 0001          .field  1,16                    ; _cslNandIdLookup[31]._nand8Bit @ 7104
     293 0001c0               .space  16
     294 0001c1 0000          .field  0,32                    ; _cslNandIdLookup[31]._nandOptions @ 7136
         0001c2 0000 
     295 0001c3 0000+         .field  $C$FSL13,32             ; _cslNandIdLookup[32]._name @ 7168
         0001c4 0088 
     296 0001c5 0000          .field  116,32                  ; _cslNandIdLookup[32]._id @ 7200
         0001c6 0074 
     297 0001c7 0000          .field  512,32                  ; _cslNandIdLookup[32]._bytesPerPage @ 7232
         0001c8 0200 
     298 0001c9 0000          .field  128,32                  ; _cslNandIdLookup[32]._chipSize @ 7264
TMS320C55x Assembler PC v4.4.1 Sat Sep 29 23:08:53 2018

Tools Copyright (c) 1996-2012 Texas Instruments Incorporated
csl_nand_intr_example.asm                                            PAGE   10

         0001ca 0080 
     299 0001cb 0000          .field  16384,32                        ; _cslNandIdLookup[32]._eraseSize @ 7296
         0001cc 4000 
     300 0001cd 0001          .field  1,16                    ; _cslNandIdLookup[32]._nand8Bit @ 7328
     301 0001ce               .space  16
     302 0001cf 0000          .field  0,32                    ; _cslNandIdLookup[32]._nandOptions @ 7360
         0001d0 0000 
     303 0001d1 0000+         .field  $C$FSL13,32             ; _cslNandIdLookup[33]._name @ 7392
         0001d2 0088 
     304 0001d3 0000          .field  89,32                   ; _cslNandIdLookup[33]._id @ 7424
         0001d4 0059 
     305 0001d5 0000          .field  512,32                  ; _cslNandIdLookup[33]._bytesPerPage @ 7456
         0001d6 0200 
     306 0001d7 0000          .field  128,32                  ; _cslNandIdLookup[33]._chipSize @ 7488
         0001d8 0080 
     307 0001d9 0000          .field  16384,32                        ; _cslNandIdLookup[33]._eraseSize @ 7520
         0001da 4000 
     308 0001db 0001          .field  1,16                    ; _cslNandIdLookup[33]._nand8Bit @ 7552
     309 0001dc               .space  16
     310 0001dd 0000          .field  0,32                    ; _cslNandIdLookup[33]._nandOptions @ 7584
         0001de 0000 
     311 0001df 0000+         .field  $C$FSL14,32             ; _cslNandIdLookup[34]._name @ 7616
         0001e0 0096 
     312 0001e1 0000          .field  113,32                  ; _cslNandIdLookup[34]._id @ 7648
         0001e2 0071 
     313 0001e3 0000          .field  512,32                  ; _cslNandIdLookup[34]._bytesPerPage @ 7680
         0001e4 0200 
     314 0001e5 0000          .field  256,32                  ; _cslNandIdLookup[34]._chipSize @ 7712
         0001e6 0100 
     315 0001e7 0000          .field  16384,32                        ; _cslNandIdLookup[34]._eraseSize @ 7744
         0001e8 4000 
     316 0001e9 0000          .field  0,16                    ; _cslNandIdLookup[34]._nand8Bit @ 7776
     317 0001ea               .space  16
     318 0001eb 0000          .field  0,32                    ; _cslNandIdLookup[34]._nandOptions @ 7808
         0001ec 0000 
     319 0001ed 0000+         .field  $C$FSL10,32             ; _cslNandIdLookup[35]._name @ 7840
         0001ee 0064 
     320 0001ef 0000          .field  162,32                  ; _cslNandIdLookup[35]._id @ 7872
         0001f0 00A2 
     321 0001f1 0000          .field  0,32                    ; _cslNandIdLookup[35]._bytesPerPage @ 7904
         0001f2 0000 
     322 0001f3 0000          .field  64,32                   ; _cslNandIdLookup[35]._chipSize @ 7936
         0001f4 0040 
     323 0001f5 0000          .field  0,32                    ; _cslNandIdLookup[35]._eraseSize @ 7968
         0001f6 0000 
     324 0001f7 0000          .field  0,16                    ; _cslNandIdLookup[35]._nand8Bit @ 8000
     325 0001f8               .space  16
     326 0001f9 0000          .field  0,32                    ; _cslNandIdLookup[35]._nandOptions @ 8032
         0001fa 0000 
     327 0001fb 0000+         .field  $C$FSL10,32             ; _cslNandIdLookup[36]._name @ 8064
         0001fc 0064 
     328 0001fd 0000          .field  242,32                  ; _cslNandIdLookup[36]._id @ 8096
         0001fe 00F2 
     329 0001ff 0000          .field  0,32                    ; _cslNandIdLookup[36]._bytesPerPage @ 8128
         000200 0000 
TMS320C55x Assembler PC v4.4.1 Sat Sep 29 23:08:53 2018

Tools Copyright (c) 1996-2012 Texas Instruments Incorporated
csl_nand_intr_example.asm                                            PAGE   11

     330 000201 0000          .field  64,32                   ; _cslNandIdLookup[36]._chipSize @ 8160
         000202 0040 
     331 000203 0000          .field  0,32                    ; _cslNandIdLookup[36]._eraseSize @ 8192
         000204 0000 
     332 000205 0000          .field  0,16                    ; _cslNandIdLookup[36]._nand8Bit @ 8224
     333 000206               .space  16
     334 000207 0000          .field  0,32                    ; _cslNandIdLookup[36]._nandOptions @ 8256
         000208 0000 
     335 000209 0000+         .field  $C$FSL11,32             ; _cslNandIdLookup[37]._name @ 8288
         00020a 0070 
     336 00020b 0000          .field  178,32                  ; _cslNandIdLookup[37]._id @ 8320
         00020c 00B2 
     337 00020d 0000          .field  0,32                    ; _cslNandIdLookup[37]._bytesPerPage @ 8352
         00020e 0000 
     338 00020f 0000          .field  64,32                   ; _cslNandIdLookup[37]._chipSize @ 8384
         000210 0040 
     339 000211 0000          .field  0,32                    ; _cslNandIdLookup[37]._eraseSize @ 8416
         000212 0000 
     340 000213 0001          .field  1,16                    ; _cslNandIdLookup[37]._nand8Bit @ 8448
     341 000214               .space  16
     342 000215 0000          .field  0,32                    ; _cslNandIdLookup[37]._nandOptions @ 8480
         000216 0000 
     343 000217 0000+         .field  $C$FSL11,32             ; _cslNandIdLookup[38]._name @ 8512
         000218 0070 
     344 000219 0000          .field  194,32                  ; _cslNandIdLookup[38]._id @ 8544
         00021a 00C2 
     345 00021b 0000          .field  0,32                    ; _cslNandIdLookup[38]._bytesPerPage @ 8576
         00021c 0000 
     346 00021d 0000          .field  64,32                   ; _cslNandIdLookup[38]._chipSize @ 8608
         00021e 0040 
     347 00021f 0000          .field  0,32                    ; _cslNandIdLookup[38]._eraseSize @ 8640
         000220 0000 
     348 000221 0001          .field  1,16                    ; _cslNandIdLookup[38]._nand8Bit @ 8672
     349 000222               .space  16
     350 000223 0000          .field  0,32                    ; _cslNandIdLookup[38]._nandOptions @ 8704
         000224 0000 
     351 000225 0000+         .field  $C$FSL12,32             ; _cslNandIdLookup[39]._name @ 8736
         000226 007C 
     352 000227 0000          .field  161,32                  ; _cslNandIdLookup[39]._id @ 8768
         000228 00A1 
     353 000229 0000          .field  0,32                    ; _cslNandIdLookup[39]._bytesPerPage @ 8800
         00022a 0000 
     354 00022b 0000          .field  128,32                  ; _cslNandIdLookup[39]._chipSize @ 8832
         00022c 0080 
     355 00022d 0000          .field  0,32                    ; _cslNandIdLookup[39]._eraseSize @ 8864
         00022e 0000 
     356 00022f 0000          .field  0,16                    ; _cslNandIdLookup[39]._nand8Bit @ 8896
     357 000230               .space  16
     358 000231 0000          .field  15,32                   ; _cslNandIdLookup[39]._nandOptions @ 8928
         000232 000F 
     359 000233 0000+         .field  $C$FSL12,32             ; _cslNandIdLookup[40]._name @ 8960
         000234 007C 
     360 000235 0000          .field  241,32                  ; _cslNandIdLookup[40]._id @ 8992
         000236 00F1 
     361 000237 0000          .field  0,32                    ; _cslNandIdLookup[40]._bytesPerPage @ 9024
TMS320C55x Assembler PC v4.4.1 Sat Sep 29 23:08:53 2018

Tools Copyright (c) 1996-2012 Texas Instruments Incorporated
csl_nand_intr_example.asm                                            PAGE   12

         000238 0000 
     362 000239 0000          .field  128,32                  ; _cslNandIdLookup[40]._chipSize @ 9056
         00023a 0080 
     363 00023b 0000          .field  0,32                    ; _cslNandIdLookup[40]._eraseSize @ 9088
         00023c 0000 
     364 00023d 0000          .field  0,16                    ; _cslNandIdLookup[40]._nand8Bit @ 9120
     365 00023e               .space  16
     366 00023f 0000          .field  15,32                   ; _cslNandIdLookup[40]._nandOptions @ 9152
         000240 000F 
     367 000241 0000+         .field  $C$FSL13,32             ; _cslNandIdLookup[41]._name @ 9184
         000242 0088 
     368 000243 0000          .field  177,32                  ; _cslNandIdLookup[41]._id @ 9216
         000244 00B1 
     369 000245 0000          .field  0,32                    ; _cslNandIdLookup[41]._bytesPerPage @ 9248
         000246 0000 
     370 000247 0000          .field  128,32                  ; _cslNandIdLookup[41]._chipSize @ 9280
         000248 0080 
     371 000249 0000          .field  0,32                    ; _cslNandIdLookup[41]._eraseSize @ 9312
         00024a 0000 
     372 00024b 0001          .field  1,16                    ; _cslNandIdLookup[41]._nand8Bit @ 9344
     373 00024c               .space  16
     374 00024d 0000          .field  15,32                   ; _cslNandIdLookup[41]._nandOptions @ 9376
         00024e 000F 
     375 00024f 0000+         .field  $C$FSL13,32             ; _cslNandIdLookup[42]._name @ 9408
         000250 0088 
     376 000251 0000          .field  193,32                  ; _cslNandIdLookup[42]._id @ 9440
         000252 00C1 
     377 000253 0000          .field  0,32                    ; _cslNandIdLookup[42]._bytesPerPage @ 9472
         000254 0000 
     378 000255 0000          .field  128,32                  ; _cslNandIdLookup[42]._chipSize @ 9504
         000256 0080 
     379 000257 0000          .field  0,32                    ; _cslNandIdLookup[42]._eraseSize @ 9536
         000258 0000 
     380 000259 0001          .field  1,16                    ; _cslNandIdLookup[42]._nand8Bit @ 9568
     381 00025a               .space  16
     382 00025b 0000          .field  15,32                   ; _cslNandIdLookup[42]._nandOptions @ 9600
         00025c 000F 
     383 00025d 0000+         .field  $C$FSL14,32             ; _cslNandIdLookup[43]._name @ 9632
         00025e 0096 
     384 00025f 0000          .field  170,32                  ; _cslNandIdLookup[43]._id @ 9664
         000260 00AA 
     385 000261 0000          .field  0,32                    ; _cslNandIdLookup[43]._bytesPerPage @ 9696
         000262 0000 
     386 000263 0000          .field  256,32                  ; _cslNandIdLookup[43]._chipSize @ 9728
         000264 0100 
     387 000265 0000          .field  0,32                    ; _cslNandIdLookup[43]._eraseSize @ 9760
         000266 0000 
     388 000267 0000          .field  0,16                    ; _cslNandIdLookup[43]._nand8Bit @ 9792
     389 000268               .space  16
     390 000269 0000          .field  15,32                   ; _cslNandIdLookup[43]._nandOptions @ 9824
         00026a 000F 
     391 00026b 0000+         .field  $C$FSL14,32             ; _cslNandIdLookup[44]._name @ 9856
         00026c 0096 
     392 00026d 0000          .field  218,32                  ; _cslNandIdLookup[44]._id @ 9888
         00026e 00DA 
TMS320C55x Assembler PC v4.4.1 Sat Sep 29 23:08:53 2018

Tools Copyright (c) 1996-2012 Texas Instruments Incorporated
csl_nand_intr_example.asm                                            PAGE   13

     393 00026f 0000          .field  0,32                    ; _cslNandIdLookup[44]._bytesPerPage @ 9920
         000270 0000 
     394 000271 0000          .field  256,32                  ; _cslNandIdLookup[44]._chipSize @ 9952
         000272 0100 
     395 000273 0000          .field  0,32                    ; _cslNandIdLookup[44]._eraseSize @ 9984
         000274 0000 
     396 000275 0000          .field  0,16                    ; _cslNandIdLookup[44]._nand8Bit @ 10016
     397 000276               .space  16
     398 000277 0000          .field  15,32                   ; _cslNandIdLookup[44]._nandOptions @ 10048
         000278 000F 
     399 000279 0000+         .field  $C$FSL15,32             ; _cslNandIdLookup[45]._name @ 10080
         00027a 00A2 
     400 00027b 0000          .field  186,32                  ; _cslNandIdLookup[45]._id @ 10112
         00027c 00BA 
     401 00027d 0000          .field  0,32                    ; _cslNandIdLookup[45]._bytesPerPage @ 10144
         00027e 0000 
     402 00027f 0000          .field  256,32                  ; _cslNandIdLookup[45]._chipSize @ 10176
         000280 0100 
     403 000281 0000          .field  0,32                    ; _cslNandIdLookup[45]._eraseSize @ 10208
         000282 0000 
     404 000283 0001          .field  1,16                    ; _cslNandIdLookup[45]._nand8Bit @ 10240
     405 000284               .space  16
     406 000285 0000          .field  15,32                   ; _cslNandIdLookup[45]._nandOptions @ 10272
         000286 000F 
     407 000287 0000+         .field  $C$FSL15,32             ; _cslNandIdLookup[46]._name @ 10304
         000288 00A2 
     408 000289 0000          .field  202,32                  ; _cslNandIdLookup[46]._id @ 10336
         00028a 00CA 
     409 00028b 0000          .field  0,32                    ; _cslNandIdLookup[46]._bytesPerPage @ 10368
         00028c 0000 
     410 00028d 0000          .field  256,32                  ; _cslNandIdLookup[46]._chipSize @ 10400
         00028e 0100 
     411 00028f 0000          .field  0,32                    ; _cslNandIdLookup[46]._eraseSize @ 10432
         000290 0000 
     412 000291 0001          .field  1,16                    ; _cslNandIdLookup[46]._nand8Bit @ 10464
     413 000292               .space  16
     414 000293 0000          .field  15,32                   ; _cslNandIdLookup[46]._nandOptions @ 10496
         000294 000F 
     415 000295 0000+         .field  $C$FSL16,32             ; _cslNandIdLookup[47]._name @ 10528
         000296 00B0 
     416 000297 0000          .field  172,32                  ; _cslNandIdLookup[47]._id @ 10560
         000298 00AC 
     417 000299 0000          .field  0,32                    ; _cslNandIdLookup[47]._bytesPerPage @ 10592
         00029a 0000 
     418 00029b 0000          .field  512,32                  ; _cslNandIdLookup[47]._chipSize @ 10624
         00029c 0200 
     419 00029d 0000          .field  0,32                    ; _cslNandIdLookup[47]._eraseSize @ 10656
         00029e 0000 
     420 00029f 0000          .field  0,16                    ; _cslNandIdLookup[47]._nand8Bit @ 10688
     421 0002a0               .space  16
     422 0002a1 0000          .field  15,32                   ; _cslNandIdLookup[47]._nandOptions @ 10720
         0002a2 000F 
     423 0002a3 0000+         .field  $C$FSL16,32             ; _cslNandIdLookup[48]._name @ 10752
         0002a4 00B0 
     424 0002a5 0000          .field  220,32                  ; _cslNandIdLookup[48]._id @ 10784
TMS320C55x Assembler PC v4.4.1 Sat Sep 29 23:08:53 2018

Tools Copyright (c) 1996-2012 Texas Instruments Incorporated
csl_nand_intr_example.asm                                            PAGE   14

         0002a6 00DC 
     425 0002a7 0000          .field  0,32                    ; _cslNandIdLookup[48]._bytesPerPage @ 10816
         0002a8 0000 
     426 0002a9 0000          .field  512,32                  ; _cslNandIdLookup[48]._chipSize @ 10848
         0002aa 0200 
     427 0002ab 0000          .field  0,32                    ; _cslNandIdLookup[48]._eraseSize @ 10880
         0002ac 0000 
     428 0002ad 0000          .field  0,16                    ; _cslNandIdLookup[48]._nand8Bit @ 10912
     429 0002ae               .space  16
     430 0002af 0000          .field  15,32                   ; _cslNandIdLookup[48]._nandOptions @ 10944
         0002b0 000F 
     431 0002b1 0000+         .field  $C$FSL17,32             ; _cslNandIdLookup[49]._name @ 10976
         0002b2 00BC 
     432 0002b3 0000          .field  188,32                  ; _cslNandIdLookup[49]._id @ 11008
         0002b4 00BC 
     433 0002b5 0000          .field  0,32                    ; _cslNandIdLookup[49]._bytesPerPage @ 11040
         0002b6 0000 
     434 0002b7 0000          .field  512,32                  ; _cslNandIdLookup[49]._chipSize @ 11072
         0002b8 0200 
     435 0002b9 0000          .field  0,32                    ; _cslNandIdLookup[49]._eraseSize @ 11104
         0002ba 0000 
     436 0002bb 0001          .field  1,16                    ; _cslNandIdLookup[49]._nand8Bit @ 11136
     437 0002bc               .space  16
     438 0002bd 0000          .field  15,32                   ; _cslNandIdLookup[49]._nandOptions @ 11168
         0002be 000F 
     439 0002bf 0000+         .field  $C$FSL17,32             ; _cslNandIdLookup[50]._name @ 11200
         0002c0 00BC 
     440 0002c1 0000          .field  204,32                  ; _cslNandIdLookup[50]._id @ 11232
         0002c2 00CC 
     441 0002c3 0000          .field  0,32                    ; _cslNandIdLookup[50]._bytesPerPage @ 11264
         0002c4 0000 
     442 0002c5 0000          .field  512,32                  ; _cslNandIdLookup[50]._chipSize @ 11296
         0002c6 0200 
     443 0002c7 0000          .field  0,32                    ; _cslNandIdLookup[50]._eraseSize @ 11328
         0002c8 0000 
     444 0002c9 0001          .field  1,16                    ; _cslNandIdLookup[50]._nand8Bit @ 11360
     445 0002ca               .space  16
     446 0002cb 0000          .field  15,32                   ; _cslNandIdLookup[50]._nandOptions @ 11392
         0002cc 000F 
     447 0002cd 0000+         .field  $C$FSL18,32             ; _cslNandIdLookup[51]._name @ 11424
         0002ce 00CA 
     448 0002cf 0000          .field  163,32                  ; _cslNandIdLookup[51]._id @ 11456
         0002d0 00A3 
     449 0002d1 0000          .field  0,32                    ; _cslNandIdLookup[51]._bytesPerPage @ 11488
         0002d2 0000 
     450 0002d3 0000          .field  1024,32                 ; _cslNandIdLookup[51]._chipSize @ 11520
         0002d4 0400 
     451 0002d5 0000          .field  0,32                    ; _cslNandIdLookup[51]._eraseSize @ 11552
         0002d6 0000 
     452 0002d7 0000          .field  0,16                    ; _cslNandIdLookup[51]._nand8Bit @ 11584
     453 0002d8               .space  16
     454 0002d9 0000          .field  15,32                   ; _cslNandIdLookup[51]._nandOptions @ 11616
         0002da 000F 
     455 0002db 0000+         .field  $C$FSL18,32             ; _cslNandIdLookup[52]._name @ 11648
         0002dc 00CA 
TMS320C55x Assembler PC v4.4.1 Sat Sep 29 23:08:53 2018

Tools Copyright (c) 1996-2012 Texas Instruments Incorporated
csl_nand_intr_example.asm                                            PAGE   15

     456 0002dd 0000          .field  211,32                  ; _cslNandIdLookup[52]._id @ 11680
         0002de 00D3 
     457 0002df 0000          .field  0,32                    ; _cslNandIdLookup[52]._bytesPerPage @ 11712
         0002e0 0000 
     458 0002e1 0000          .field  1024,32                 ; _cslNandIdLookup[52]._chipSize @ 11744
         0002e2 0400 
     459 0002e3 0000          .field  0,32                    ; _cslNandIdLookup[52]._eraseSize @ 11776
         0002e4 0000 
     460 0002e5 0000          .field  0,16                    ; _cslNandIdLookup[52]._nand8Bit @ 11808
     461 0002e6               .space  16
     462 0002e7 0000          .field  31,32                   ; _cslNandIdLookup[52]._nandOptions @ 11840
         0002e8 001F 
     463 0002e9 0000+         .field  $C$FSL19,32             ; _cslNandIdLookup[53]._name @ 11872
         0002ea 00D4 
     464 0002eb 0000          .field  179,32                  ; _cslNandIdLookup[53]._id @ 11904
         0002ec 00B3 
     465 0002ed 0000          .field  0,32                    ; _cslNandIdLookup[53]._bytesPerPage @ 11936
         0002ee 0000 
     466 0002ef 0000          .field  1024,32                 ; _cslNandIdLookup[53]._chipSize @ 11968
         0002f0 0400 
     467 0002f1 0000          .field  0,32                    ; _cslNandIdLookup[53]._eraseSize @ 12000
         0002f2 0000 
     468 0002f3 0001          .field  1,16                    ; _cslNandIdLookup[53]._nand8Bit @ 12032
     469 0002f4               .space  16
     470 0002f5 0000          .field  15,32                   ; _cslNandIdLookup[53]._nandOptions @ 12064
         0002f6 000F 
     471 0002f7 0000+         .field  $C$FSL19,32             ; _cslNandIdLookup[54]._name @ 12096
         0002f8 00D4 
     472 0002f9 0000          .field  195,32                  ; _cslNandIdLookup[54]._id @ 12128
         0002fa 00C3 
     473 0002fb 0000          .field  0,32                    ; _cslNandIdLookup[54]._bytesPerPage @ 12160
         0002fc 0000 
     474 0002fd 0000          .field  1024,32                 ; _cslNandIdLookup[54]._chipSize @ 12192
         0002fe 0400 
     475 0002ff 0000          .field  0,32                    ; _cslNandIdLookup[54]._eraseSize @ 12224
         000300 0000 
     476 000301 0001          .field  1,16                    ; _cslNandIdLookup[54]._nand8Bit @ 12256
     477 000302               .space  16
     478 000303 0000          .field  15,32                   ; _cslNandIdLookup[54]._nandOptions @ 12288
         000304 000F 
     479 000305 0000+         .field  $C$FSL20,32             ; _cslNandIdLookup[55]._name @ 12320
         000306 00E0 
     480 000307 0000          .field  165,32                  ; _cslNandIdLookup[55]._id @ 12352
         000308 00A5 
     481 000309 0000          .field  0,32                    ; _cslNandIdLookup[55]._bytesPerPage @ 12384
         00030a 0000 
     482 00030b 0000          .field  2048,32                 ; _cslNandIdLookup[55]._chipSize @ 12416
         00030c 0800 
     483 00030d 0000          .field  0,32                    ; _cslNandIdLookup[55]._eraseSize @ 12448
         00030e 0000 
     484 00030f 0000          .field  0,16                    ; _cslNandIdLookup[55]._nand8Bit @ 12480
     485 000310               .space  16
     486 000311 0000          .field  15,32                   ; _cslNandIdLookup[55]._nandOptions @ 12512
         000312 000F 
     487 000313 0000+         .field  $C$FSL20,32             ; _cslNandIdLookup[56]._name @ 12544
TMS320C55x Assembler PC v4.4.1 Sat Sep 29 23:08:53 2018

Tools Copyright (c) 1996-2012 Texas Instruments Incorporated
csl_nand_intr_example.asm                                            PAGE   16

         000314 00E0 
     488 000315 0000          .field  213,32                  ; _cslNandIdLookup[56]._id @ 12576
         000316 00D5 
     489 000317 0000          .field  0,32                    ; _cslNandIdLookup[56]._bytesPerPage @ 12608
         000318 0000 
     490 000319 0000          .field  2048,32                 ; _cslNandIdLookup[56]._chipSize @ 12640
         00031a 0800 
     491 00031b 0000          .field  0,32                    ; _cslNandIdLookup[56]._eraseSize @ 12672
         00031c 0000 
     492 00031d 0000          .field  0,16                    ; _cslNandIdLookup[56]._nand8Bit @ 12704
     493 00031e               .space  16
     494 00031f 0000          .field  15,32                   ; _cslNandIdLookup[56]._nandOptions @ 12736
         000320 000F 
     495 000321 0000+         .field  $C$FSL21,32             ; _cslNandIdLookup[57]._name @ 12768
         000322 00EA 
     496 000323 0000          .field  181,32                  ; _cslNandIdLookup[57]._id @ 12800
         000324 00B5 
     497 000325 0000          .field  0,32                    ; _cslNandIdLookup[57]._bytesPerPage @ 12832
         000326 0000 
     498 000327 0000          .field  2048,32                 ; _cslNandIdLookup[57]._chipSize @ 12864
         000328 0800 
     499 000329 0000          .field  0,32                    ; _cslNandIdLookup[57]._eraseSize @ 12896
         00032a 0000 
     500 00032b 0001          .field  1,16                    ; _cslNandIdLookup[57]._nand8Bit @ 12928
     501 00032c               .space  16
     502 00032d 0000          .field  15,32                   ; _cslNandIdLookup[57]._nandOptions @ 12960
         00032e 000F 
     503 00032f 0000+         .field  $C$FSL21,32             ; _cslNandIdLookup[58]._name @ 12992
         000330 00EA 
     504 000331 0000          .field  197,32                  ; _cslNandIdLookup[58]._id @ 13024
         000332 00C5 
     505 000333 0000          .field  0,32                    ; _cslNandIdLookup[58]._bytesPerPage @ 13056
         000334 0000 
     506 000335 0000          .field  2048,32                 ; _cslNandIdLookup[58]._chipSize @ 13088
         000336 0800 
     507 000337 0000          .field  0,32                    ; _cslNandIdLookup[58]._eraseSize @ 13120
         000338 0000 
     508 000339 0001          .field  1,16                    ; _cslNandIdLookup[58]._nand8Bit @ 13152
     509 00033a               .space  16
     510 00033b 0000          .field  15,32                   ; _cslNandIdLookup[58]._nandOptions @ 13184
         00033c 000F 
     511 00033d 0000          .field  0,32                    ; _cslNandIdLookup[59]._name @ 13216
         00033e 0000 
     512              $C$IR_1:        .set    828
     513              
     514 00033f               .sect   ".cinit"
     515                      .align  1
     516 00033f 0001          .field          1,16
     517 000340 000B-         .field          _gNandType+0,24
         000341 4E00 
     518 000341 4E00          .field          0,8
     519 000342 0000          .field  0,16                    ; _gNandType @ 0
     520              
     521 000343               .sect   ".cinit"
     522                      .align  1
TMS320C55x Assembler PC v4.4.1 Sat Sep 29 23:08:53 2018

Tools Copyright (c) 1996-2012 Texas Instruments Incorporated
csl_nand_intr_example.asm                                            PAGE   17

     523 000343 0001          .field          1,16
     524 000344 000B-         .field          _gDevIndex+0,24
         000345 4F00 
     525 000345 4F00          .field          0,8
     526 000346 0000          .field  0,16                    ; _gDevIndex @ 0
     527              
     528 000347               .sect   ".cinit"
     529                      .align  1
     530 000347 0001          .field          1,16
     531 000348 000B-         .field          _gNandPageSize+0,24
         000349 5000 
     532 000349 5000          .field          0,8
     533 00034a 0000          .field  0,16                    ; _gNandPageSize @ 0
     534              
     535 00034b               .sect   ".cinit"
     536                      .align  1
     537 00034b 0001          .field          1,16
     538 00034c 000B-         .field          _gRowAddrCycles+0,24
         00034d 5100 
     539 00034d 5100          .field          0,8
     540 00034e 0000          .field  0,16                    ; _gRowAddrCycles @ 0
     541              
     542 00034f               .sect   ".cinit"
     543                      .align  1
     544 00034f 0001          .field          1,16
     545 000350 000B-         .field          _gColAddrCycles+0,24
         000351 5200 
     546 000351 5200          .field          0,8
     547 000352 0000          .field  0,16                    ; _gColAddrCycles @ 0
     548              
     549 000353               .sect   ".cinit"
     550                      .align  1
     551 000353 0002          .field          2,16
     552 000354 000B-         .field          _gTotalPages+0,24
         000355 5400 
     553 000355 5400          .field          0,8
     554 000356 0000          .field  0,32                    ; _gTotalPages @ 0
         000357 0000 
     555              
     556 000358               .sect   ".cinit"
     557                      .align  1
     558 000358 0002          .field          2,16
     559 000359 000B-         .field          _gRowAddress+0,24
         00035a 5600 
     560 00035a 5600          .field          0,8
     561 00035b 0000          .field  64,32                   ; _gRowAddress @ 0
         00035c 0040 
     562              
     563 00035d               .sect   ".cinit"
     564                      .align  1
     565 00035d 0001          .field          1,16
     566 00035e 000B-         .field          _PaSs_StAtE+0,24
         00035f 5800 
     567 00035f 5800          .field          0,8
     568 000360 0001          .field  1,16                    ; _PaSs_StAtE @ 0
TMS320C55x Assembler PC v4.4.1 Sat Sep 29 23:08:53 2018

Tools Copyright (c) 1996-2012 Texas Instruments Incorporated
csl_nand_intr_example.asm                                            PAGE   18

     569              
     570 000361               .sect   ".cinit"
     571                      .align  1
     572 000361 0001          .field          1,16
     573 000362 000B-         .field          _PaSs+0,24
         000363 5900 
     574 000363 5900          .field          0,8
     575 000364 0000          .field  0,16                    ; _PaSs @ 0
     576              
     577              
     578              $C$DW$1 .dwtag  DW_TAG_subprogram, DW_AT_name("NAND_init")
     579                      .dwattr $C$DW$1, DW_AT_TI_symbol_name("_NAND_init")
     580                      .dwattr $C$DW$1, DW_AT_type(*$C$DW$T$88)
     581                      .dwattr $C$DW$1, DW_AT_declaration
     582                      .dwattr $C$DW$1, DW_AT_external
     583              $C$DW$2 .dwtag  DW_TAG_formal_parameter
     584                      .dwattr $C$DW$2, DW_AT_type(*$C$DW$T$81)
     585              $C$DW$3 .dwtag  DW_TAG_formal_parameter
     586                      .dwattr $C$DW$3, DW_AT_type(*$C$DW$T$19)
     587                      .dwendtag $C$DW$1
     588              
     589              
     590              $C$DW$4 .dwtag  DW_TAG_subprogram, DW_AT_name("NAND_setup")
     591                      .dwattr $C$DW$4, DW_AT_TI_symbol_name("_NAND_setup")
     592                      .dwattr $C$DW$4, DW_AT_type(*$C$DW$T$88)
     593                      .dwattr $C$DW$4, DW_AT_declaration
     594                      .dwattr $C$DW$4, DW_AT_external
     595              $C$DW$5 .dwtag  DW_TAG_formal_parameter
     596                      .dwattr $C$DW$5, DW_AT_type(*$C$DW$T$82)
     597              $C$DW$6 .dwtag  DW_TAG_formal_parameter
     598                      .dwattr $C$DW$6, DW_AT_type(*$C$DW$T$79)
     599                      .dwendtag $C$DW$4
     600              
     601              
     602              $C$DW$7 .dwtag  DW_TAG_subprogram, DW_AT_name("NAND_getBankInfo")
     603                      .dwattr $C$DW$7, DW_AT_TI_symbol_name("_NAND_getBankInfo")
     604                      .dwattr $C$DW$7, DW_AT_type(*$C$DW$T$88)
     605                      .dwattr $C$DW$7, DW_AT_declaration
     606                      .dwattr $C$DW$7, DW_AT_external
     607              $C$DW$8 .dwtag  DW_TAG_formal_parameter
     608                      .dwattr $C$DW$8, DW_AT_type(*$C$DW$T$82)
     609              $C$DW$9 .dwtag  DW_TAG_formal_parameter
     610                      .dwattr $C$DW$9, DW_AT_type(*$C$DW$T$77)
     611              $C$DW$10        .dwtag  DW_TAG_formal_parameter
     612                      .dwattr $C$DW$10, DW_AT_type(*$C$DW$T$19)
     613                      .dwendtag $C$DW$7
     614              
     615              
     616              $C$DW$11        .dwtag  DW_TAG_subprogram, DW_AT_name("NAND_isStatusWriteProtected")
     617                      .dwattr $C$DW$11, DW_AT_TI_symbol_name("_NAND_isStatusWriteProtected")
     618                      .dwattr $C$DW$11, DW_AT_type(*$C$DW$T$88)
     619                      .dwattr $C$DW$11, DW_AT_declaration
     620                      .dwattr $C$DW$11, DW_AT_external
     621              $C$DW$12        .dwtag  DW_TAG_formal_parameter
     622                      .dwattr $C$DW$12, DW_AT_type(*$C$DW$T$82)
TMS320C55x Assembler PC v4.4.1 Sat Sep 29 23:08:53 2018

Tools Copyright (c) 1996-2012 Texas Instruments Incorporated
csl_nand_intr_example.asm                                            PAGE   19

     623              $C$DW$13        .dwtag  DW_TAG_formal_parameter
     624                      .dwattr $C$DW$13, DW_AT_type(*$C$DW$T$95)
     625                      .dwendtag $C$DW$11
     626              
     627              
     628              $C$DW$14        .dwtag  DW_TAG_subprogram, DW_AT_name("NAND_sendCommand")
     629                      .dwattr $C$DW$14, DW_AT_TI_symbol_name("_NAND_sendCommand")
     630                      .dwattr $C$DW$14, DW_AT_type(*$C$DW$T$88)
     631                      .dwattr $C$DW$14, DW_AT_declaration
     632                      .dwattr $C$DW$14, DW_AT_external
     633              $C$DW$15        .dwtag  DW_TAG_formal_parameter
     634                      .dwattr $C$DW$15, DW_AT_type(*$C$DW$T$82)
     635              $C$DW$16        .dwtag  DW_TAG_formal_parameter
     636                      .dwattr $C$DW$16, DW_AT_type(*$C$DW$T$99)
     637                      .dwendtag $C$DW$14
     638              
     639              
     640              $C$DW$17        .dwtag  DW_TAG_subprogram, DW_AT_name("NAND_checkCommandStatus")
     641                      .dwattr $C$DW$17, DW_AT_TI_symbol_name("_NAND_checkCommandStatus")
     642                      .dwattr $C$DW$17, DW_AT_type(*$C$DW$T$88)
     643                      .dwattr $C$DW$17, DW_AT_declaration
     644                      .dwattr $C$DW$17, DW_AT_external
     645              $C$DW$18        .dwtag  DW_TAG_formal_parameter
     646                      .dwattr $C$DW$18, DW_AT_type(*$C$DW$T$82)
     647                      .dwendtag $C$DW$17
     648              
     649              
     650              $C$DW$19        .dwtag  DW_TAG_subprogram, DW_AT_name("NAND_setAddress")
     651                      .dwattr $C$DW$19, DW_AT_TI_symbol_name("_NAND_setAddress")
     652                      .dwattr $C$DW$19, DW_AT_type(*$C$DW$T$88)
     653                      .dwattr $C$DW$19, DW_AT_declaration
     654                      .dwattr $C$DW$19, DW_AT_external
     655              $C$DW$20        .dwtag  DW_TAG_formal_parameter
     656                      .dwattr $C$DW$20, DW_AT_type(*$C$DW$T$82)
     657              $C$DW$21        .dwtag  DW_TAG_formal_parameter
     658                      .dwattr $C$DW$21, DW_AT_type(*$C$DW$T$19)
     659                      .dwendtag $C$DW$19
     660              
     661              
     662              $C$DW$22        .dwtag  DW_TAG_subprogram, DW_AT_name("NAND_enableHwECC")
     663                      .dwattr $C$DW$22, DW_AT_TI_symbol_name("_NAND_enableHwECC")
     664                      .dwattr $C$DW$22, DW_AT_type(*$C$DW$T$88)
     665                      .dwattr $C$DW$22, DW_AT_declaration
     666                      .dwattr $C$DW$22, DW_AT_external
     667              $C$DW$23        .dwtag  DW_TAG_formal_parameter
     668                      .dwattr $C$DW$23, DW_AT_type(*$C$DW$T$82)
     669              $C$DW$24        .dwtag  DW_TAG_formal_parameter
     670                      .dwattr $C$DW$24, DW_AT_type(*$C$DW$T$56)
     671                      .dwendtag $C$DW$22
     672              
     673              
     674              $C$DW$25        .dwtag  DW_TAG_subprogram, DW_AT_name("NAND_disableHwECC")
     675                      .dwattr $C$DW$25, DW_AT_TI_symbol_name("_NAND_disableHwECC")
     676                      .dwattr $C$DW$25, DW_AT_type(*$C$DW$T$88)
     677                      .dwattr $C$DW$25, DW_AT_declaration
TMS320C55x Assembler PC v4.4.1 Sat Sep 29 23:08:53 2018

Tools Copyright (c) 1996-2012 Texas Instruments Incorporated
csl_nand_intr_example.asm                                            PAGE   20

     678                      .dwattr $C$DW$25, DW_AT_external
     679              $C$DW$26        .dwtag  DW_TAG_formal_parameter
     680                      .dwattr $C$DW$26, DW_AT_type(*$C$DW$T$82)
     681              $C$DW$27        .dwtag  DW_TAG_formal_parameter
     682                      .dwattr $C$DW$27, DW_AT_type(*$C$DW$T$56)
     683                      .dwendtag $C$DW$25
     684              
     685              
     686              $C$DW$28        .dwtag  DW_TAG_subprogram, DW_AT_name("NAND_readECC")
     687                      .dwattr $C$DW$28, DW_AT_TI_symbol_name("_NAND_readECC")
     688                      .dwattr $C$DW$28, DW_AT_type(*$C$DW$T$88)
     689                      .dwattr $C$DW$28, DW_AT_declaration
     690                      .dwattr $C$DW$28, DW_AT_external
     691              $C$DW$29        .dwtag  DW_TAG_formal_parameter
     692                      .dwattr $C$DW$29, DW_AT_type(*$C$DW$T$82)
     693              $C$DW$30        .dwtag  DW_TAG_formal_parameter
     694                      .dwattr $C$DW$30, DW_AT_type(*$C$DW$T$95)
     695              $C$DW$31        .dwtag  DW_TAG_formal_parameter
     696                      .dwattr $C$DW$31, DW_AT_type(*$C$DW$T$56)
     697                      .dwendtag $C$DW$28
     698              
     699              
     700              $C$DW$32        .dwtag  DW_TAG_subprogram, DW_AT_name("NAND_readNBytes")
     701                      .dwattr $C$DW$32, DW_AT_TI_symbol_name("_NAND_readNBytes")
     702                      .dwattr $C$DW$32, DW_AT_type(*$C$DW$T$88)
     703                      .dwattr $C$DW$32, DW_AT_declaration
     704                      .dwattr $C$DW$32, DW_AT_external
     705              $C$DW$33        .dwtag  DW_TAG_formal_parameter
     706                      .dwattr $C$DW$33, DW_AT_type(*$C$DW$T$82)
     707              $C$DW$34        .dwtag  DW_TAG_formal_parameter
     708                      .dwattr $C$DW$34, DW_AT_type(*$C$DW$T$19)
     709              $C$DW$35        .dwtag  DW_TAG_formal_parameter
     710                      .dwattr $C$DW$35, DW_AT_type(*$C$DW$T$95)
     711              $C$DW$36        .dwtag  DW_TAG_formal_parameter
     712                      .dwattr $C$DW$36, DW_AT_type(*$C$DW$T$19)
     713              $C$DW$37        .dwtag  DW_TAG_formal_parameter
     714                      .dwattr $C$DW$37, DW_AT_type(*$C$DW$T$110)
     715                      .dwendtag $C$DW$32
     716              
     717              
     718              $C$DW$38        .dwtag  DW_TAG_subprogram, DW_AT_name("NAND_writeNBytes")
     719                      .dwattr $C$DW$38, DW_AT_TI_symbol_name("_NAND_writeNBytes")
     720                      .dwattr $C$DW$38, DW_AT_type(*$C$DW$T$88)
     721                      .dwattr $C$DW$38, DW_AT_declaration
     722                      .dwattr $C$DW$38, DW_AT_external
     723              $C$DW$39        .dwtag  DW_TAG_formal_parameter
     724                      .dwattr $C$DW$39, DW_AT_type(*$C$DW$T$82)
     725              $C$DW$40        .dwtag  DW_TAG_formal_parameter
     726                      .dwattr $C$DW$40, DW_AT_type(*$C$DW$T$19)
     727              $C$DW$41        .dwtag  DW_TAG_formal_parameter
     728                      .dwattr $C$DW$41, DW_AT_type(*$C$DW$T$95)
     729              $C$DW$42        .dwtag  DW_TAG_formal_parameter
     730                      .dwattr $C$DW$42, DW_AT_type(*$C$DW$T$19)
     731              $C$DW$43        .dwtag  DW_TAG_formal_parameter
     732                      .dwattr $C$DW$43, DW_AT_type(*$C$DW$T$110)
TMS320C55x Assembler PC v4.4.1 Sat Sep 29 23:08:53 2018

Tools Copyright (c) 1996-2012 Texas Instruments Incorporated
csl_nand_intr_example.asm                                            PAGE   21

     733                      .dwendtag $C$DW$38
     734              
     735              
     736              $C$DW$44        .dwtag  DW_TAG_subprogram, DW_AT_name("NAND_intrEnable")
     737                      .dwattr $C$DW$44, DW_AT_TI_symbol_name("_NAND_intrEnable")
     738                      .dwattr $C$DW$44, DW_AT_type(*$C$DW$T$88)
     739                      .dwattr $C$DW$44, DW_AT_declaration
     740                      .dwattr $C$DW$44, DW_AT_external
     741              $C$DW$45        .dwtag  DW_TAG_formal_parameter
     742                      .dwattr $C$DW$45, DW_AT_type(*$C$DW$T$82)
     743                      .dwendtag $C$DW$44
     744              
     745              
     746              $C$DW$46        .dwtag  DW_TAG_subprogram, DW_AT_name("NAND_intrDisable")
     747                      .dwattr $C$DW$46, DW_AT_TI_symbol_name("_NAND_intrDisable")
     748                      .dwattr $C$DW$46, DW_AT_type(*$C$DW$T$88)
     749                      .dwattr $C$DW$46, DW_AT_declaration
     750                      .dwattr $C$DW$46, DW_AT_external
     751              $C$DW$47        .dwtag  DW_TAG_formal_parameter
     752                      .dwattr $C$DW$47, DW_AT_type(*$C$DW$T$82)
     753                      .dwendtag $C$DW$46
     754              
     755              
     756              $C$DW$48        .dwtag  DW_TAG_subprogram, DW_AT_name("NAND_getIntrNum")
     757                      .dwattr $C$DW$48, DW_AT_TI_symbol_name("_NAND_getIntrNum")
     758                      .dwattr $C$DW$48, DW_AT_type(*$C$DW$T$87)
     759                      .dwattr $C$DW$48, DW_AT_declaration
     760                      .dwattr $C$DW$48, DW_AT_external
     761              $C$DW$49        .dwtag  DW_TAG_formal_parameter
     762                      .dwattr $C$DW$49, DW_AT_type(*$C$DW$T$19)
     763                      .dwendtag $C$DW$48
     764              
     765              
     766              $C$DW$50        .dwtag  DW_TAG_subprogram, DW_AT_name("NAND_intrReadAT")
     767                      .dwattr $C$DW$50, DW_AT_TI_symbol_name("_NAND_intrReadAT")
     768                      .dwattr $C$DW$50, DW_AT_type(*$C$DW$T$88)
     769                      .dwattr $C$DW$50, DW_AT_declaration
     770                      .dwattr $C$DW$50, DW_AT_external
     771              $C$DW$51        .dwtag  DW_TAG_formal_parameter
     772                      .dwattr $C$DW$51, DW_AT_type(*$C$DW$T$82)
     773              $C$DW$52        .dwtag  DW_TAG_formal_parameter
     774                      .dwattr $C$DW$52, DW_AT_type(*$C$DW$T$95)
     775                      .dwendtag $C$DW$50
     776              
     777              
     778              $C$DW$53        .dwtag  DW_TAG_subprogram, DW_AT_name("NAND_intrReadLT")
     779                      .dwattr $C$DW$53, DW_AT_TI_symbol_name("_NAND_intrReadLT")
     780                      .dwattr $C$DW$53, DW_AT_type(*$C$DW$T$88)
     781                      .dwattr $C$DW$53, DW_AT_declaration
     782                      .dwattr $C$DW$53, DW_AT_external
     783              $C$DW$54        .dwtag  DW_TAG_formal_parameter
     784                      .dwattr $C$DW$54, DW_AT_type(*$C$DW$T$82)
     785              $C$DW$55        .dwtag  DW_TAG_formal_parameter
     786                      .dwattr $C$DW$55, DW_AT_type(*$C$DW$T$95)
     787                      .dwendtag $C$DW$53
TMS320C55x Assembler PC v4.4.1 Sat Sep 29 23:08:53 2018

Tools Copyright (c) 1996-2012 Texas Instruments Incorporated
csl_nand_intr_example.asm                                            PAGE   22

     788              
     789              
     790              $C$DW$56        .dwtag  DW_TAG_subprogram, DW_AT_name("NAND_intrReadWR")
     791                      .dwattr $C$DW$56, DW_AT_TI_symbol_name("_NAND_intrReadWR")
     792                      .dwattr $C$DW$56, DW_AT_type(*$C$DW$T$88)
     793                      .dwattr $C$DW$56, DW_AT_declaration
     794                      .dwattr $C$DW$56, DW_AT_external
     795              $C$DW$57        .dwtag  DW_TAG_formal_parameter
     796                      .dwattr $C$DW$57, DW_AT_type(*$C$DW$T$82)
     797              $C$DW$58        .dwtag  DW_TAG_formal_parameter
     798                      .dwattr $C$DW$58, DW_AT_type(*$C$DW$T$95)
     799                      .dwendtag $C$DW$56
     800              
     801              
     802              $C$DW$59        .dwtag  DW_TAG_subprogram, DW_AT_name("NAND_intrClear")
     803                      .dwattr $C$DW$59, DW_AT_TI_symbol_name("_NAND_intrClear")
     804                      .dwattr $C$DW$59, DW_AT_type(*$C$DW$T$88)
     805                      .dwattr $C$DW$59, DW_AT_declaration
     806                      .dwattr $C$DW$59, DW_AT_external
     807              $C$DW$60        .dwtag  DW_TAG_formal_parameter
     808                      .dwattr $C$DW$60, DW_AT_type(*$C$DW$T$82)
     809                      .dwendtag $C$DW$59
     810              
     811              
     812              $C$DW$61        .dwtag  DW_TAG_subprogram, DW_AT_name("printf")
     813                      .dwattr $C$DW$61, DW_AT_TI_symbol_name("_printf")
     814                      .dwattr $C$DW$61, DW_AT_type(*$C$DW$T$10)
     815                      .dwattr $C$DW$61, DW_AT_declaration
     816                      .dwattr $C$DW$61, DW_AT_external
     817              $C$DW$62        .dwtag  DW_TAG_formal_parameter
     818                      .dwattr $C$DW$62, DW_AT_type(*$C$DW$T$127)
     819              $C$DW$63        .dwtag  DW_TAG_unspecified_parameters
     820                      .dwendtag $C$DW$61
     821              
     822                      .global _cslNandIdLookup
     823 000000               .bss    _cslNandIdLookup,840,0,2
     824              $C$DW$64        .dwtag  DW_TAG_variable, DW_AT_name("cslNandIdLookup")
     825                      .dwattr $C$DW$64, DW_AT_TI_symbol_name("_cslNandIdLookup")
     826                      .dwattr $C$DW$64, DW_AT_location[DW_OP_addr _cslNandIdLookup]
     827                      .dwattr $C$DW$64, DW_AT_type(*$C$DW$T$75)
     828                      .dwattr $C$DW$64, DW_AT_external
     829                      .global _gnandIntrReadBuf
     830 000348               .bss    _gnandIntrReadBuf,1024,0,0
     831              $C$DW$65        .dwtag  DW_TAG_variable, DW_AT_name("gnandIntrReadBuf")
     832                      .dwattr $C$DW$65, DW_AT_TI_symbol_name("_gnandIntrReadBuf")
     833                      .dwattr $C$DW$65, DW_AT_location[DW_OP_addr _gnandIntrReadBuf]
     834                      .dwattr $C$DW$65, DW_AT_type(*$C$DW$T$120)
     835                      .dwattr $C$DW$65, DW_AT_external
     836                      .global _gnandIntrWriteBuf
     837 000748               .bss    _gnandIntrWriteBuf,1024,0,0
     838              $C$DW$66        .dwtag  DW_TAG_variable, DW_AT_name("gnandIntrWriteBuf")
     839                      .dwattr $C$DW$66, DW_AT_TI_symbol_name("_gnandIntrWriteBuf")
     840                      .dwattr $C$DW$66, DW_AT_location[DW_OP_addr _gnandIntrWriteBuf]
     841                      .dwattr $C$DW$66, DW_AT_type(*$C$DW$T$120)
     842                      .dwattr $C$DW$66, DW_AT_external
TMS320C55x Assembler PC v4.4.1 Sat Sep 29 23:08:53 2018

Tools Copyright (c) 1996-2012 Texas Instruments Incorporated
csl_nand_intr_example.asm                                            PAGE   23

     843                      .global _hNand
     844 000b48               .bss    _hNand,2,0,2
     845              $C$DW$67        .dwtag  DW_TAG_variable, DW_AT_name("hNand")
     846                      .dwattr $C$DW$67, DW_AT_TI_symbol_name("_hNand")
     847                      .dwattr $C$DW$67, DW_AT_location[DW_OP_addr _hNand]
     848                      .dwattr $C$DW$67, DW_AT_type(*$C$DW$T$82)
     849                      .dwattr $C$DW$67, DW_AT_external
     850                      .global _intrNum
     851 000b4a               .bss    _intrNum,1,0,0
     852              $C$DW$68        .dwtag  DW_TAG_variable, DW_AT_name("intrNum")
     853                      .dwattr $C$DW$68, DW_AT_TI_symbol_name("_intrNum")
     854                      .dwattr $C$DW$68, DW_AT_location[DW_OP_addr _intrNum]
     855                      .dwattr $C$DW$68, DW_AT_type(*$C$DW$T$19)
     856                      .dwattr $C$DW$68, DW_AT_external
     857                      .global _ltStatus
     858 000b4b               .bss    _ltStatus,1,0,0
     859              $C$DW$69        .dwtag  DW_TAG_variable, DW_AT_name("ltStatus")
     860                      .dwattr $C$DW$69, DW_AT_TI_symbol_name("_ltStatus")
     861                      .dwattr $C$DW$69, DW_AT_location[DW_OP_addr _ltStatus]
     862                      .dwattr $C$DW$69, DW_AT_type(*$C$DW$T$19)
     863                      .dwattr $C$DW$69, DW_AT_external
     864                      .global _atStatus
     865 000b4c               .bss    _atStatus,1,0,0
     866              $C$DW$70        .dwtag  DW_TAG_variable, DW_AT_name("atStatus")
     867                      .dwattr $C$DW$70, DW_AT_TI_symbol_name("_atStatus")
     868                      .dwattr $C$DW$70, DW_AT_location[DW_OP_addr _atStatus]
     869                      .dwattr $C$DW$70, DW_AT_type(*$C$DW$T$19)
     870                      .dwattr $C$DW$70, DW_AT_external
     871                      .global _wrStatus
     872 000b4d               .bss    _wrStatus,1,0,0
     873              $C$DW$71        .dwtag  DW_TAG_variable, DW_AT_name("wrStatus")
     874                      .dwattr $C$DW$71, DW_AT_TI_symbol_name("_wrStatus")
     875                      .dwattr $C$DW$71, DW_AT_location[DW_OP_addr _wrStatus]
     876                      .dwattr $C$DW$71, DW_AT_type(*$C$DW$T$19)
     877                      .dwattr $C$DW$71, DW_AT_external
     878                      .global _gNandType
     879 000b4e               .bss    _gNandType,1,0,0
     880              $C$DW$72        .dwtag  DW_TAG_variable, DW_AT_name("gNandType")
     881                      .dwattr $C$DW$72, DW_AT_TI_symbol_name("_gNandType")
     882                      .dwattr $C$DW$72, DW_AT_location[DW_OP_addr _gNandType]
     883                      .dwattr $C$DW$72, DW_AT_type(*$C$DW$T$110)
     884                      .dwattr $C$DW$72, DW_AT_external
     885                      .global _gDevIndex
     886 000b4f               .bss    _gDevIndex,1,0,0
     887              $C$DW$73        .dwtag  DW_TAG_variable, DW_AT_name("gDevIndex")
     888                      .dwattr $C$DW$73, DW_AT_TI_symbol_name("_gDevIndex")
     889                      .dwattr $C$DW$73, DW_AT_location[DW_OP_addr _gDevIndex]
     890                      .dwattr $C$DW$73, DW_AT_type(*$C$DW$T$19)
     891                      .dwattr $C$DW$73, DW_AT_external
     892                      .global _gNandPageSize
     893 000b50               .bss    _gNandPageSize,1,0,0
     894              $C$DW$74        .dwtag  DW_TAG_variable, DW_AT_name("gNandPageSize")
     895                      .dwattr $C$DW$74, DW_AT_TI_symbol_name("_gNandPageSize")
     896                      .dwattr $C$DW$74, DW_AT_location[DW_OP_addr _gNandPageSize]
     897                      .dwattr $C$DW$74, DW_AT_type(*$C$DW$T$19)
TMS320C55x Assembler PC v4.4.1 Sat Sep 29 23:08:53 2018

Tools Copyright (c) 1996-2012 Texas Instruments Incorporated
csl_nand_intr_example.asm                                            PAGE   24

     898                      .dwattr $C$DW$74, DW_AT_external
     899                      .global _gRowAddrCycles
     900 000b51               .bss    _gRowAddrCycles,1,0,0
     901              $C$DW$75        .dwtag  DW_TAG_variable, DW_AT_name("gRowAddrCycles")
     902                      .dwattr $C$DW$75, DW_AT_TI_symbol_name("_gRowAddrCycles")
     903                      .dwattr $C$DW$75, DW_AT_location[DW_OP_addr _gRowAddrCycles]
     904                      .dwattr $C$DW$75, DW_AT_type(*$C$DW$T$19)
     905                      .dwattr $C$DW$75, DW_AT_external
     906                      .global _gColAddrCycles
     907 000b52               .bss    _gColAddrCycles,1,0,0
     908              $C$DW$76        .dwtag  DW_TAG_variable, DW_AT_name("gColAddrCycles")
     909                      .dwattr $C$DW$76, DW_AT_TI_symbol_name("_gColAddrCycles")
     910                      .dwattr $C$DW$76, DW_AT_location[DW_OP_addr _gColAddrCycles]
     911                      .dwattr $C$DW$76, DW_AT_type(*$C$DW$T$19)
     912                      .dwattr $C$DW$76, DW_AT_external
     913                      .global _gTotalPages
     914 000b54               .bss    _gTotalPages,2,0,2
     915              $C$DW$77        .dwtag  DW_TAG_variable, DW_AT_name("gTotalPages")
     916                      .dwattr $C$DW$77, DW_AT_TI_symbol_name("_gTotalPages")
     917                      .dwattr $C$DW$77, DW_AT_location[DW_OP_addr _gTotalPages]
     918                      .dwattr $C$DW$77, DW_AT_type(*$C$DW$T$33)
     919                      .dwattr $C$DW$77, DW_AT_external
     920                      .global _gRowAddress
     921 000b56               .bss    _gRowAddress,2,0,2
     922              $C$DW$78        .dwtag  DW_TAG_variable, DW_AT_name("gRowAddress")
     923                      .dwattr $C$DW$78, DW_AT_TI_symbol_name("_gRowAddress")
     924                      .dwattr $C$DW$78, DW_AT_location[DW_OP_addr _gRowAddress]
     925                      .dwattr $C$DW$78, DW_AT_type(*$C$DW$T$33)
     926                      .dwattr $C$DW$78, DW_AT_external
     927                      .global _chipSel
     928 000b53               .bss    _chipSel,1,0,0
     929              $C$DW$79        .dwtag  DW_TAG_variable, DW_AT_name("chipSel")
     930                      .dwattr $C$DW$79, DW_AT_TI_symbol_name("_chipSel")
     931                      .dwattr $C$DW$79, DW_AT_location[DW_OP_addr _chipSel]
     932                      .dwattr $C$DW$79, DW_AT_type(*$C$DW$T$56)
     933                      .dwattr $C$DW$79, DW_AT_external
     934                      .global _PaSs_StAtE
     935 000b58               .bss    _PaSs_StAtE,1,0,0
     936              $C$DW$80        .dwtag  DW_TAG_variable, DW_AT_name("PaSs_StAtE")
     937                      .dwattr $C$DW$80, DW_AT_TI_symbol_name("_PaSs_StAtE")
     938                      .dwattr $C$DW$80, DW_AT_location[DW_OP_addr _PaSs_StAtE]
     939                      .dwattr $C$DW$80, DW_AT_type(*$C$DW$T$117)
     940                      .dwattr $C$DW$80, DW_AT_external
     941                      .global _PaSs
     942 000b59               .bss    _PaSs,1,0,0
     943              $C$DW$81        .dwtag  DW_TAG_variable, DW_AT_name("PaSs")
     944                      .dwattr $C$DW$81, DW_AT_TI_symbol_name("_PaSs")
     945                      .dwattr $C$DW$81, DW_AT_location[DW_OP_addr _PaSs]
     946                      .dwattr $C$DW$81, DW_AT_type(*$C$DW$T$117)
     947                      .dwattr $C$DW$81, DW_AT_external
     948              ;       F:\t\cc5p5\ccsv5\tools\compiler\c5500_4.4.1\bin\acp55.exe -@f:\\AppData\\Local\\Temp\\2720412 
     949 000000               .sect   ".text"
     950                      .align 4
     951                      .global _main
     952              
TMS320C55x Assembler PC v4.4.1 Sat Sep 29 23:08:53 2018

Tools Copyright (c) 1996-2012 Texas Instruments Incorporated
csl_nand_intr_example.asm                                            PAGE   25

     953              $C$DW$82        .dwtag  DW_TAG_subprogram, DW_AT_name("main")
     954                      .dwattr $C$DW$82, DW_AT_low_pc(_main)
     955                      .dwattr $C$DW$82, DW_AT_high_pc(0x00)
     956                      .dwattr $C$DW$82, DW_AT_TI_symbol_name("_main")
     957                      .dwattr $C$DW$82, DW_AT_external
     958                      .dwattr $C$DW$82, DW_AT_TI_begin_file("../c5535_bsl_revc/ezdsp5535_v1/c55xx_csl/ccs_v4.0_examples/nan
     959                      .dwattr $C$DW$82, DW_AT_TI_begin_line(0x137)
     960                      .dwattr $C$DW$82, DW_AT_TI_begin_column(0x06)
     961                      .dwattr $C$DW$82, DW_AT_TI_max_frame_size(0x04)
     962                      .dwpsn  file "../c5535_bsl_revc/ezdsp5535_v1/c55xx_csl/ccs_v4.0_examples/nand/CSL_NAND_IntrExample/cs
     963              
     964                      .dwfde $C$DW$CIE, _main
     965              ;*******************************************************************************
     966              ;* FUNCTION NAME: main                                                         *
     967              ;*                                                                             *
     968              ;*   Function Uses Regs : T0,AR1,AR3,XAR3,SP,M40,SATA,SATD,RDM,FRCT,SMUL       *
     969              ;*   Stack Frame        : Compact (No Frame Pointer, w/ debug)                 *
     970              ;*   Total Frame Size   : 4 words                                              *
     971              ;*                        (1 return address/alignment)                         *
     972              ;*                        (2 function parameters)                              *
     973              ;*                        (1 local values)                                     *
     974              ;*   Min System Stack   : 1 word                                               *
     975              ;*******************************************************************************
     976 000000       _main:
     977                      .dwcfi  cfa_offset, 1
     978                      .dwcfi  save_reg_to_mem, 91, -1
     979 000000 4EFD          AADD #-3, SP
     980                      .dwcfi  cfa_offset, 4
     981              $C$DW$83        .dwtag  DW_TAG_variable, DW_AT_name("result")
     982                      .dwattr $C$DW$83, DW_AT_TI_symbol_name("_result")
     983                      .dwattr $C$DW$83, DW_AT_type(*$C$DW$T$88)
     984                      .dwattr $C$DW$83, DW_AT_location[DW_OP_bregx 0x24 2]
     985                      .dwpsn  file "../c5535_bsl_revc/ezdsp5535_v1/c55xx_csl/ccs_v4.0_examples/nand/CSL_NAND_IntrExample/cs
     986              $C$DW$84        .dwtag  DW_TAG_TI_branch
     987                      .dwattr $C$DW$84, DW_AT_low_pc(0x00)
     988                      .dwattr $C$DW$84, DW_AT_name("_CSL_nandIntrTest")
     989                      .dwattr $C$DW$84, DW_AT_TI_call
     990 000002 0800          CALL #_CSL_nandIntrTest ; |316| 
         000004 37   
     991                                                      ; call occurs [#_CSL_nandIntrTest] ; |316| 
     992 000005 C404          MOV T0, *SP(#2) ; |316| 
     993                      .dwpsn  file "../c5535_bsl_revc/ezdsp5535_v1/c55xx_csl/ccs_v4.0_examples/nand/CSL_NAND_IntrExample/cs
     994 000007 2249          MOV T0, AR1
     995 000009 0409          BCC $C$L1,AR1 == #0 ; |317| 
         00000b 15   
     996                                                      ; branchcc occurs ; |317| 
     997                      .dwpsn  file "../c5535_bsl_revc/ezdsp5535_v1/c55xx_csl/ccs_v4.0_examples/nand/CSL_NAND_IntrExample/cs
     998 00000c EC31          AMOV #$C$FSL22, XAR3 ; |319| 
         00000e BE00 
         000010 00F6+
     999 000012 EB00          MOV XAR3, dbl(*SP(#0))
         000014 B5   
    1000              $C$DW$85        .dwtag  DW_TAG_TI_branch
    1001                      .dwattr $C$DW$85, DW_AT_low_pc(0x00)
    1002                      .dwattr $C$DW$85, DW_AT_name("_printf")
TMS320C55x Assembler PC v4.4.1 Sat Sep 29 23:08:53 2018

Tools Copyright (c) 1996-2012 Texas Instruments Incorporated
csl_nand_intr_example.asm                                            PAGE   26

    1003                      .dwattr $C$DW$85, DW_AT_TI_call
    1004 000015 6C00          CALL #_printf ; |319| 
         000017 0000!
    1005                                                      ; call occurs [#_printf] ; |319| 
    1006                      .dwpsn  file "../c5535_bsl_revc/ezdsp5535_v1/c55xx_csl/ccs_v4.0_examples/nand/CSL_NAND_IntrExample/cs
    1007 000019 E631          MOV #0, *(#_PaSs_StAtE) ; |322| 
         00001b 0000 
         00001d 0B58-
    1008                      .dwpsn  file "../c5535_bsl_revc/ezdsp5535_v1/c55xx_csl/ccs_v4.0_examples/nand/CSL_NAND_IntrExample/cs
    1009 00001f 4A0D          B $C$L2   ; |324| 
    1010                                                      ; branch occurs ; |324| 
    1011 000021       $C$L1:    
    1012                      .dwpsn  file "../c5535_bsl_revc/ezdsp5535_v1/c55xx_csl/ccs_v4.0_examples/nand/CSL_NAND_IntrExample/cs
    1013 000021 EC31          AMOV #$C$FSL23, XAR3 ; |327| 
         000023 BE00 
         000025 0114+
    1014 000027 EB00          MOV XAR3, dbl(*SP(#0))
         000029 B5   
    1015              $C$DW$86        .dwtag  DW_TAG_TI_branch
    1016                      .dwattr $C$DW$86, DW_AT_low_pc(0x00)
    1017                      .dwattr $C$DW$86, DW_AT_name("_printf")
    1018                      .dwattr $C$DW$86, DW_AT_TI_call
    1019 00002a 6C00          CALL #_printf ; |327| 
         00002c 0000!
    1020                                                      ; call occurs [#_printf] ; |327| 
    1021 00002e       $C$L2:    
    1022                      .dwpsn  file "../c5535_bsl_revc/ezdsp5535_v1/c55xx_csl/ccs_v4.0_examples/nand/CSL_NAND_IntrExample/cs
    1023 00002e A931          MOV *(#_PaSs_StAtE), AR1 ; |331| 
         000030 000B 
         000032 58-  
    1024 000033 C931          MOV AR1, *(#_PaSs) ; |331| 
         000035 000B 
         000037 59-  
    1025                      .dwpsn  file "../c5535_bsl_revc/ezdsp5535_v1/c55xx_csl/ccs_v4.0_examples/nand/CSL_NAND_IntrExample/cs
    1026 000038 4E03          AADD #3, SP
    1027                      .dwcfi  cfa_offset, 1
    1028              $C$DW$87        .dwtag  DW_TAG_TI_branch
    1029                      .dwattr $C$DW$87, DW_AT_low_pc(0x00)
    1030                      .dwattr $C$DW$87, DW_AT_TI_return
    1031 00003a 4804          RET
    1032                                                      ; return occurs
    1033                      .dwattr $C$DW$82, DW_AT_TI_end_file("../c5535_bsl_revc/ezdsp5535_v1/c55xx_csl/ccs_v4.0_examples/nand/
    1034                      .dwattr $C$DW$82, DW_AT_TI_end_line(0x150)
    1035                      .dwattr $C$DW$82, DW_AT_TI_end_column(0x01)
    1036                      .dwendentry
    1037                      .dwendtag $C$DW$82
    1038              
    1039 00003c               .sect   ".text"
    1040                      .align 4
    1041                      .global _CSL_nandIntrTest
    1042              
    1043              $C$DW$88        .dwtag  DW_TAG_subprogram, DW_AT_name("CSL_nandIntrTest")
    1044                      .dwattr $C$DW$88, DW_AT_low_pc(_CSL_nandIntrTest)
    1045                      .dwattr $C$DW$88, DW_AT_high_pc(0x00)
    1046                      .dwattr $C$DW$88, DW_AT_TI_symbol_name("_CSL_nandIntrTest")
TMS320C55x Assembler PC v4.4.1 Sat Sep 29 23:08:53 2018

Tools Copyright (c) 1996-2012 Texas Instruments Incorporated
csl_nand_intr_example.asm                                            PAGE   27

    1047                      .dwattr $C$DW$88, DW_AT_external
    1048                      .dwattr $C$DW$88, DW_AT_type(*$C$DW$T$88)
    1049                      .dwattr $C$DW$88, DW_AT_TI_begin_file("../c5535_bsl_revc/ezdsp5535_v1/c55xx_csl/ccs_v4.0_examples/nan
    1050                      .dwattr $C$DW$88, DW_AT_TI_begin_line(0x159)
    1051                      .dwattr $C$DW$88, DW_AT_TI_begin_column(0x0d)
    1052                      .dwattr $C$DW$88, DW_AT_TI_max_frame_size(0x3c)
    1053                      .dwpsn  file "../c5535_bsl_revc/ezdsp5535_v1/c55xx_csl/ccs_v4.0_examples/nand/CSL_NAND_IntrExample/cs
    1054              
    1055                      .dwfde $C$DW$CIE, _CSL_nandIntrTest
    1056              ;*******************************************************************************
    1057              ;* FUNCTION NAME: CSL_nandIntrTest                                             *
    1058              ;*                                                                             *
    1059              ;*   Function Uses Regs : AC0,AC0,T0,AR0,XAR0,AR1,XAR1,AR2,AR3,XAR3,SP,CARRY,  *
    1060              ;*                        TC1,M40,SATA,SATD,RDM,FRCT,SMUL                      *
    1061              ;*   Stack Frame        : Compact (No Frame Pointer, w/ debug)                 *
    1062              ;*   Total Frame Size   : 60 words                                             *
    1063              ;*                        (1 return address/alignment)                         *
    1064              ;*                        (3 function parameters)                              *
    1065              ;*                        (56 local values)                                    *
    1066              ;*   Min System Stack   : 1 word                                               *
    1067              ;*******************************************************************************
    1068 00003c       _CSL_nandIntrTest:
    1069                      .dwcfi  cfa_offset, 1
    1070                      .dwcfi  save_reg_to_mem, 91, -1
    1071 00003c 4EC5          AADD #-59, SP
    1072                      .dwcfi  cfa_offset, 60
    1073              $C$DW$89        .dwtag  DW_TAG_variable, DW_AT_name("asyncWaitConfig")
    1074                      .dwattr $C$DW$89, DW_AT_TI_symbol_name("_asyncWaitConfig")
    1075                      .dwattr $C$DW$89, DW_AT_type(*$C$DW$T$57)
    1076                      .dwattr $C$DW$89, DW_AT_location[DW_OP_bregx 0x24 3]
    1077              $C$DW$90        .dwtag  DW_TAG_variable, DW_AT_name("asyncConfig")
    1078                      .dwattr $C$DW$90, DW_AT_TI_symbol_name("_asyncConfig")
    1079                      .dwattr $C$DW$90, DW_AT_type(*$C$DW$T$59)
    1080                      .dwattr $C$DW$90, DW_AT_location[DW_OP_bregx 0x24 6]
    1081              $C$DW$91        .dwtag  DW_TAG_variable, DW_AT_name("nandCfg")
    1082                      .dwattr $C$DW$91, DW_AT_TI_symbol_name("_nandCfg")
    1083                      .dwattr $C$DW$91, DW_AT_type(*$C$DW$T$78)
    1084                      .dwattr $C$DW$91, DW_AT_location[DW_OP_bregx 0x24 16]
    1085              $C$DW$92        .dwtag  DW_TAG_variable, DW_AT_name("nandPort")
    1086                      .dwattr $C$DW$92, DW_AT_TI_symbol_name("_nandPort")
    1087                      .dwattr $C$DW$92, DW_AT_type(*$C$DW$T$43)
    1088                      .dwattr $C$DW$92, DW_AT_location[DW_OP_bregx 0x24 28]
    1089              $C$DW$93        .dwtag  DW_TAG_variable, DW_AT_name("nandObj")
    1090                      .dwattr $C$DW$93, DW_AT_TI_symbol_name("_nandObj")
    1091                      .dwattr $C$DW$93, DW_AT_type(*$C$DW$T$80)
    1092                      .dwattr $C$DW$93, DW_AT_location[DW_OP_bregx 0x24 30]
    1093              $C$DW$94        .dwtag  DW_TAG_variable, DW_AT_name("status")
    1094                      .dwattr $C$DW$94, DW_AT_TI_symbol_name("_status")
    1095                      .dwattr $C$DW$94, DW_AT_type(*$C$DW$T$88)
    1096                      .dwattr $C$DW$94, DW_AT_location[DW_OP_bregx 0x24 50]
    1097              $C$DW$95        .dwtag  DW_TAG_variable, DW_AT_name("result")
    1098                      .dwattr $C$DW$95, DW_AT_TI_symbol_name("_result")
    1099                      .dwattr $C$DW$95, DW_AT_type(*$C$DW$T$88)
    1100                      .dwattr $C$DW$95, DW_AT_location[DW_OP_bregx 0x24 51]
    1101              $C$DW$96        .dwtag  DW_TAG_variable, DW_AT_name("instId")
TMS320C55x Assembler PC v4.4.1 Sat Sep 29 23:08:53 2018

Tools Copyright (c) 1996-2012 Texas Instruments Incorporated
csl_nand_intr_example.asm                                            PAGE   28

    1102                      .dwattr $C$DW$96, DW_AT_TI_symbol_name("_instId")
    1103                      .dwattr $C$DW$96, DW_AT_type(*$C$DW$T$19)
    1104                      .dwattr $C$DW$96, DW_AT_location[DW_OP_bregx 0x24 52]
    1105              $C$DW$97        .dwtag  DW_TAG_variable, DW_AT_name("bankNum")
    1106                      .dwattr $C$DW$97, DW_AT_TI_symbol_name("_bankNum")
    1107                      .dwattr $C$DW$97, DW_AT_type(*$C$DW$T$19)
    1108                      .dwattr $C$DW$97, DW_AT_location[DW_OP_bregx 0x24 53]
    1109              $C$DW$98        .dwtag  DW_TAG_variable, DW_AT_name("looper")
    1110                      .dwattr $C$DW$98, DW_AT_TI_symbol_name("_looper")
    1111                      .dwattr $C$DW$98, DW_AT_type(*$C$DW$T$19)
    1112                      .dwattr $C$DW$98, DW_AT_location[DW_OP_bregx 0x24 54]
    1113              $C$DW$99        .dwtag  DW_TAG_variable, DW_AT_name("testCycle")
    1114                      .dwattr $C$DW$99, DW_AT_TI_symbol_name("_testCycle")
    1115                      .dwattr $C$DW$99, DW_AT_type(*$C$DW$T$19)
    1116                      .dwattr $C$DW$99, DW_AT_location[DW_OP_bregx 0x24 55]
    1117              $C$DW$100       .dwtag  DW_TAG_variable, DW_AT_name("rowAddress")
    1118                      .dwattr $C$DW$100, DW_AT_TI_symbol_name("_rowAddress")
    1119                      .dwattr $C$DW$100, DW_AT_type(*$C$DW$T$19)
    1120                      .dwattr $C$DW$100, DW_AT_location[DW_OP_bregx 0x24 56]
    1121              $C$DW$101       .dwtag  DW_TAG_variable, DW_AT_name("colAddress")
    1122                      .dwattr $C$DW$101, DW_AT_TI_symbol_name("_colAddress")
    1123                      .dwattr $C$DW$101, DW_AT_type(*$C$DW$T$19)
    1124                      .dwattr $C$DW$101, DW_AT_location[DW_OP_bregx 0x24 57]
    1125              $C$DW$102       .dwtag  DW_TAG_variable, DW_AT_name("WpStatus")
    1126                      .dwattr $C$DW$102, DW_AT_TI_symbol_name("_WpStatus")
    1127                      .dwattr $C$DW$102, DW_AT_type(*$C$DW$T$19)
    1128                      .dwattr $C$DW$102, DW_AT_location[DW_OP_bregx 0x24 58]
    1129                      .dwpsn  file "../c5535_bsl_revc/ezdsp5535_v1/c55xx_csl/ccs_v4.0_examples/nand/CSL_NAND_IntrExample/cs
    1130 00003e E631          MOV #2, *(#_chipSel) ; |364| 
         000040 0200 
         000042 0B53-
    1131                      .dwpsn  file "../c5535_bsl_revc/ezdsp5535_v1/c55xx_csl/ccs_v4.0_examples/nand/CSL_NAND_IntrExample/cs
    1132 000044 E66A          MOV #2, *SP(#53) ; |365| 
         000046 02   
    1133                      .dwpsn  file "../c5535_bsl_revc/ezdsp5535_v1/c55xx_csl/ccs_v4.0_examples/nand/CSL_NAND_IntrExample/cs
    1134 000047 E638          MOV #2, *SP(#28) ; |366| 
         000049 02   
    1135                      .dwpsn  file "../c5535_bsl_revc/ezdsp5535_v1/c55xx_csl/ccs_v4.0_examples/nand/CSL_NAND_IntrExample/cs
    1136 00004a E666          MOV #1, *SP(#51) ; |373| 
         00004c 01   
    1137                      .dwpsn  file "../c5535_bsl_revc/ezdsp5535_v1/c55xx_csl/ccs_v4.0_examples/nand/CSL_NAND_IntrExample/cs
    1138 00004d E668          MOV #0, *SP(#52) ; |374| 
         00004f 00   
    1139                      .dwpsn  file "../c5535_bsl_revc/ezdsp5535_v1/c55xx_csl/ccs_v4.0_examples/nand/CSL_NAND_IntrExample/cs
    1140 000050 EC3C          AMAR *SP(#30), XAR3
         000052 BE   
    1141 000053 EB31          MOV XAR3, dbl(*(#_hNand))
         000055 B500 
         000057 0B48-
    1142                      .dwpsn  file "../c5535_bsl_revc/ezdsp5535_v1/c55xx_csl/ccs_v4.0_examples/nand/CSL_NAND_IntrExample/cs
    1143 000059 E66C          MOV #0, *SP(#54) ; |377| 
         00005b 00   
    1144                      .dwpsn  file "../c5535_bsl_revc/ezdsp5535_v1/c55xx_csl/ccs_v4.0_examples/nand/CSL_NAND_IntrExample/cs
    1145 00005c 7604          MOV #1024, AR2 ; |377| 
         00005e 00A8 
TMS320C55x Assembler PC v4.4.1 Sat Sep 29 23:08:53 2018

Tools Copyright (c) 1996-2012 Texas Instruments Incorporated
csl_nand_intr_example.asm                                            PAGE   29

    1146 000060 A96C          MOV *SP(#54), AR1 ; |377| 
    1147 000062 1298          CMPU AR1 >= AR2, TC1 ; |377| 
         000064 A4   
    1148 000065 0464          BCC $C$L4,TC1 ; |377| 
         000067 21   
    1149                                                      ; branchcc occurs ; |377| 
    1150 000068       $C$L3:    
    1151 000068       $C$DW$L$_CSL_nandIntrTest$2$B:
    1152                      .dwpsn  file "../c5535_bsl_revc/ezdsp5535_v1/c55xx_csl/ccs_v4.0_examples/nand/CSL_NAND_IntrExample/cs
    1153 000068 A46C          MOV *SP(#54), T0 ; |379| 
    1154 00006a EC31          AMOV #_gnandIntrWriteBuf, XAR3 ; |379| 
         00006c BE00 
         00006e 0748-
    1155 000070 C96B          MOV AR1, *AR3(T0) ; |379| 
    1156                      .dwpsn  file "../c5535_bsl_revc/ezdsp5535_v1/c55xx_csl/ccs_v4.0_examples/nand/CSL_NAND_IntrExample/cs
    1157 000072 A46C          MOV *SP(#54), T0 ; |380| 
    1158 000074 EC31          AMOV #_gnandIntrReadBuf, XAR3 ; |380| 
         000076 BE00 
         000078 0348-
    1159 00007a E66B          MOV #0, *AR3(T0) ; |380| 
         00007c 00   
    1160                      .dwpsn  file "../c5535_bsl_revc/ezdsp5535_v1/c55xx_csl/ccs_v4.0_examples/nand/CSL_NAND_IntrExample/cs
    1161 00007d F76C          ADD #1, *SP(#54) ; |377| 
         00007f 0001 
    1162                      .dwpsn  file "../c5535_bsl_revc/ezdsp5535_v1/c55xx_csl/ccs_v4.0_examples/nand/CSL_NAND_IntrExample/cs
    1163 000081 A96C          MOV *SP(#54), AR1 ; |377| 
    1164 000083 1294          CMPU AR1 < AR2, TC1 ; |377| 
         000085 A4   
    1165 000086 0464          BCC $C$L3,TC1 ; |377| 
         000088 DF   
    1166                                                      ; branchcc occurs ; |377| 
    1167 000089       $C$DW$L$_CSL_nandIntrTest$2$E:
    1168 000089       $C$L4:    
    1169                      .dwpsn  file "../c5535_bsl_revc/ezdsp5535_v1/c55xx_csl/ccs_v4.0_examples/nand/CSL_NAND_IntrExample/cs
    1170 000089 EC31          AMOV #$C$FSL24, XAR3 ; |383| 
         00008b BE00 
         00008d 0132+
    1171 00008f EB00          MOV XAR3, dbl(*SP(#0))
         000091 B5   
    1172              $C$DW$103       .dwtag  DW_TAG_TI_branch
    1173                      .dwattr $C$DW$103, DW_AT_low_pc(0x00)
    1174                      .dwattr $C$DW$103, DW_AT_name("_printf")
    1175                      .dwattr $C$DW$103, DW_AT_TI_call
    1176 000092 6C00          CALL #_printf ; |383| 
         000094 0000!
    1177                                                      ; call occurs [#_printf] ; |383| 
    1178                      .dwpsn  file "../c5535_bsl_revc/ezdsp5535_v1/c55xx_csl/ccs_v4.0_examples/nand/CSL_NAND_IntrExample/cs
    1179 000096 EC3C          AMAR *SP(#30), XAR0
         000098 8E   
    1180 000099 A468          MOV *SP(#52), T0 ; |385| 
    1181              $C$DW$104       .dwtag  DW_TAG_TI_branch
    1182                      .dwattr $C$DW$104, DW_AT_low_pc(0x00)
    1183                      .dwattr $C$DW$104, DW_AT_name("_NAND_init")
    1184                      .dwattr $C$DW$104, DW_AT_TI_call
    1185 00009b 6C00          CALL #_NAND_init ; |385| 
TMS320C55x Assembler PC v4.4.1 Sat Sep 29 23:08:53 2018

Tools Copyright (c) 1996-2012 Texas Instruments Incorporated
csl_nand_intr_example.asm                                            PAGE   30

         00009d 0000!
    1186                                                      ; call occurs [#_NAND_init] ; |385| 
    1187 00009f C464          MOV T0, *SP(#50) ; |385| 
    1188                      .dwpsn  file "../c5535_bsl_revc/ezdsp5535_v1/c55xx_csl/ccs_v4.0_examples/nand/CSL_NAND_IntrExample/cs
    1189 0000a1 2249          MOV T0, AR1
    1190 0000a3 0409          BCC $C$L5,AR1 == #0 ; |386| 
         0000a5 12   
    1191                                                      ; branchcc occurs ; |386| 
    1192                      .dwpsn  file "../c5535_bsl_revc/ezdsp5535_v1/c55xx_csl/ccs_v4.0_examples/nand/CSL_NAND_IntrExample/cs
    1193 0000a6 EC31          AMOV #$C$FSL25, XAR3 ; |388| 
         0000a8 BE00 
         0000aa 014A+
    1194 0000ac EB00          MOV XAR3, dbl(*SP(#0))
         0000ae B5   
    1195              $C$DW$105       .dwtag  DW_TAG_TI_branch
    1196                      .dwattr $C$DW$105, DW_AT_low_pc(0x00)
    1197                      .dwattr $C$DW$105, DW_AT_name("_printf")
    1198                      .dwattr $C$DW$105, DW_AT_TI_call
    1199 0000af 6C00          CALL #_printf ; |388| 
         0000b1 0000!
    1200                                                      ; call occurs [#_printf] ; |388| 
    1201                      .dwpsn  file "../c5535_bsl_revc/ezdsp5535_v1/c55xx_csl/ccs_v4.0_examples/nand/CSL_NAND_IntrExample/cs
    1202 0000b3 A466          MOV *SP(#51), T0 ; |389| 
    1203 0000b5 0603          B $C$L30  ; |389| 
         0000b7 07   
    1204                                                      ; branch occurs ; |389| 
    1205 0000b8       $C$L5:    
    1206                      .dwpsn  file "../c5535_bsl_revc/ezdsp5535_v1/c55xx_csl/ccs_v4.0_examples/nand/CSL_NAND_IntrExample/cs
    1207 0000b8 E606          MOV #0, *SP(#3) ; |393| 
         0000ba 00   
    1208                      .dwpsn  file "../c5535_bsl_revc/ezdsp5535_v1/c55xx_csl/ccs_v4.0_examples/nand/CSL_NAND_IntrExample/cs
    1209 0000bb A938          MOV *SP(#28), AR1 ; |394| 
    1210 0000bd C908          MOV AR1, *SP(#4) ; |394| 
    1211                      .dwpsn  file "../c5535_bsl_revc/ezdsp5535_v1/c55xx_csl/ccs_v4.0_examples/nand/CSL_NAND_IntrExample/cs
    1212 0000bf FB0A          MOV #128, *SP(#5) ; |395| 
         0000c1 0080 
    1213                      .dwpsn  file "../c5535_bsl_revc/ezdsp5535_v1/c55xx_csl/ccs_v4.0_examples/nand/CSL_NAND_IntrExample/cs
    1214 0000c3 E60C          MOV #0, *SP(#6) ; |398| 
         0000c5 00   
    1215                      .dwpsn  file "../c5535_bsl_revc/ezdsp5535_v1/c55xx_csl/ccs_v4.0_examples/nand/CSL_NAND_IntrExample/cs
    1216 0000c6 E60E          MOV #0, *SP(#7) ; |399| 
         0000c8 00   
    1217                      .dwpsn  file "../c5535_bsl_revc/ezdsp5535_v1/c55xx_csl/ccs_v4.0_examples/nand/CSL_NAND_IntrExample/cs
    1218 0000c9 E610          MOV #15, *SP(#8) ; |400| 
         0000cb 0F   
    1219                      .dwpsn  file "../c5535_bsl_revc/ezdsp5535_v1/c55xx_csl/ccs_v4.0_examples/nand/CSL_NAND_IntrExample/cs
    1220 0000cc E612          MOV #31, *SP(#9) ; |401| 
         0000ce 1F   
    1221                      .dwpsn  file "../c5535_bsl_revc/ezdsp5535_v1/c55xx_csl/ccs_v4.0_examples/nand/CSL_NAND_IntrExample/cs
    1222 0000cf E614          MOV #7, *SP(#10) ; |402| 
         0000d1 07   
    1223                      .dwpsn  file "../c5535_bsl_revc/ezdsp5535_v1/c55xx_csl/ccs_v4.0_examples/nand/CSL_NAND_IntrExample/cs
    1224 0000d2 E616          MOV #15, *SP(#11) ; |403| 
         0000d4 0F   
    1225                      .dwpsn  file "../c5535_bsl_revc/ezdsp5535_v1/c55xx_csl/ccs_v4.0_examples/nand/CSL_NAND_IntrExample/cs
TMS320C55x Assembler PC v4.4.1 Sat Sep 29 23:08:53 2018

Tools Copyright (c) 1996-2012 Texas Instruments Incorporated
csl_nand_intr_example.asm                                            PAGE   31

    1226 0000d5 E618          MOV #63, *SP(#12) ; |404| 
         0000d7 3F   
    1227                      .dwpsn  file "../c5535_bsl_revc/ezdsp5535_v1/c55xx_csl/ccs_v4.0_examples/nand/CSL_NAND_IntrExample/cs
    1228 0000d8 E61A          MOV #7, *SP(#13) ; |405| 
         0000da 07   
    1229                      .dwpsn  file "../c5535_bsl_revc/ezdsp5535_v1/c55xx_csl/ccs_v4.0_examples/nand/CSL_NAND_IntrExample/cs
    1230 0000db E61C          MOV #3, *SP(#14) ; |406| 
         0000dd 03   
    1231                      .dwpsn  file "../c5535_bsl_revc/ezdsp5535_v1/c55xx_csl/ccs_v4.0_examples/nand/CSL_NAND_IntrExample/cs
    1232 0000de E61E          MOV #0, *SP(#15) ; |407| 
         0000e0 00   
    1233                      .dwpsn  file "../c5535_bsl_revc/ezdsp5535_v1/c55xx_csl/ccs_v4.0_examples/nand/CSL_NAND_IntrExample/cs
    1234 0000e1 A931          MOV *(#_chipSel), AR1 ; |410| 
         0000e3 000B 
         0000e5 53-  
    1235 0000e6 C92C          MOV AR1, *SP(#22) ; |410| 
    1236                      .dwpsn  file "../c5535_bsl_revc/ezdsp5535_v1/c55xx_csl/ccs_v4.0_examples/nand/CSL_NAND_IntrExample/cs
    1237 0000e8 E620          MOV #0, *SP(#16) ; |411| 
         0000ea 00   
    1238                      .dwpsn  file "../c5535_bsl_revc/ezdsp5535_v1/c55xx_csl/ccs_v4.0_examples/nand/CSL_NAND_IntrExample/cs
    1239 0000eb E622          MOV #1, *SP(#17) ; |412| 
         0000ed 01   
    1240                      .dwpsn  file "../c5535_bsl_revc/ezdsp5535_v1/c55xx_csl/ccs_v4.0_examples/nand/CSL_NAND_IntrExample/cs
    1241 0000ee E626          MOV #2, *SP(#19) ; |413| 
         0000f0 02   
    1242                      .dwpsn  file "../c5535_bsl_revc/ezdsp5535_v1/c55xx_csl/ccs_v4.0_examples/nand/CSL_NAND_IntrExample/cs
    1243 0000f1 E628          MOV #0, *SP(#20) ; |414| 
         0000f3 00   
    1244                      .dwpsn  file "../c5535_bsl_revc/ezdsp5535_v1/c55xx_csl/ccs_v4.0_examples/nand/CSL_NAND_IntrExample/cs
    1245 0000f4 E62A          MOV #2, *SP(#21) ; |415| 
         0000f6 02   
    1246                      .dwpsn  file "../c5535_bsl_revc/ezdsp5535_v1/c55xx_csl/ccs_v4.0_examples/nand/CSL_NAND_IntrExample/cs
    1247 0000f7 EC06          AMAR *SP(#3), XAR3
         0000f9 BE   
    1248 0000fa EB30          MOV XAR3, dbl(*SP(#24))
         0000fc B5   
    1249                      .dwpsn  file "../c5535_bsl_revc/ezdsp5535_v1/c55xx_csl/ccs_v4.0_examples/nand/CSL_NAND_IntrExample/cs
    1250 0000fd EC0C          AMAR *SP(#6), XAR3
         0000ff BE   
    1251 000100 EB34          MOV XAR3, dbl(*SP(#26))
         000102 B5   
    1252                      .dwpsn  file "../c5535_bsl_revc/ezdsp5535_v1/c55xx_csl/ccs_v4.0_examples/nand/CSL_NAND_IntrExample/cs
    1253 000103 ED31          MOV dbl(*(#_hNand)), XAR0
         000105 8F00 
         000107 0B48-
    1254 000109 EC20          AMAR *SP(#16), XAR1
         00010b 9E   
    1255              $C$DW$106       .dwtag  DW_TAG_TI_branch
    1256                      .dwattr $C$DW$106, DW_AT_low_pc(0x00)
    1257                      .dwattr $C$DW$106, DW_AT_name("_NAND_setup")
    1258                      .dwattr $C$DW$106, DW_AT_TI_call
    1259 00010c 6C00          CALL #_NAND_setup ; |420| 
         00010e 0000!
    1260                                                      ; call occurs [#_NAND_setup] ; |420| 
    1261 000110 C464          MOV T0, *SP(#50) ; |420| 
TMS320C55x Assembler PC v4.4.1 Sat Sep 29 23:08:53 2018

Tools Copyright (c) 1996-2012 Texas Instruments Incorporated
csl_nand_intr_example.asm                                            PAGE   32

    1262                      .dwpsn  file "../c5535_bsl_revc/ezdsp5535_v1/c55xx_csl/ccs_v4.0_examples/nand/CSL_NAND_IntrExample/cs
    1263 000112 2249          MOV T0, AR1
    1264 000114 0409          BCC $C$L6,AR1 == #0 ; |421| 
         000116 12   
    1265                                                      ; branchcc occurs ; |421| 
    1266                      .dwpsn  file "../c5535_bsl_revc/ezdsp5535_v1/c55xx_csl/ccs_v4.0_examples/nand/CSL_NAND_IntrExample/cs
    1267 000117 EC31          AMOV #$C$FSL26, XAR3 ; |423| 
         000119 BE00 
         00011b 015E+
    1268 00011d EB00          MOV XAR3, dbl(*SP(#0))
         00011f B5   
    1269              $C$DW$107       .dwtag  DW_TAG_TI_branch
    1270                      .dwattr $C$DW$107, DW_AT_low_pc(0x00)
    1271                      .dwattr $C$DW$107, DW_AT_name("_printf")
    1272                      .dwattr $C$DW$107, DW_AT_TI_call
    1273 000120 6C00          CALL #_printf ; |423| 
         000122 0000!
    1274                                                      ; call occurs [#_printf] ; |423| 
    1275                      .dwpsn  file "../c5535_bsl_revc/ezdsp5535_v1/c55xx_csl/ccs_v4.0_examples/nand/CSL_NAND_IntrExample/cs
    1276 000124 A466          MOV *SP(#51), T0 ; |424| 
    1277 000126 0602          B $C$L30  ; |424| 
         000128 96   
    1278                                                      ; branch occurs ; |424| 
    1279 000129       $C$L6:    
    1280                      .dwpsn  file "../c5535_bsl_revc/ezdsp5535_v1/c55xx_csl/ccs_v4.0_examples/nand/CSL_NAND_IntrExample/cs
    1281 000129 ED31          MOV dbl(*(#_hNand)), XAR1
         00012b 9F00 
         00012d 0B48-
    1282 00012f ED31          MOV dbl(*(#_hNand)), XAR0
         000131 8F00 
         000133 0B48-
    1283              
    1284                      AADD #6, AR1 ; |428| 
    1285 000135 8A6A  ||      MOV *SP(#53), T0 ; |428| 
         000137 941C 
         000139 06   
    1286              
    1287              $C$DW$108       .dwtag  DW_TAG_TI_branch
    1288                      .dwattr $C$DW$108, DW_AT_low_pc(0x00)
    1289                      .dwattr $C$DW$108, DW_AT_name("_NAND_getBankInfo")
    1290                      .dwattr $C$DW$108, DW_AT_TI_call
    1291 00013a 6C00          CALL #_NAND_getBankInfo ; |428| 
         00013c 0000!
    1292                                                      ; call occurs [#_NAND_getBankInfo] ; |428| 
    1293 00013e C464          MOV T0, *SP(#50) ; |428| 
    1294                      .dwpsn  file "../c5535_bsl_revc/ezdsp5535_v1/c55xx_csl/ccs_v4.0_examples/nand/CSL_NAND_IntrExample/cs
    1295 000140 2249          MOV T0, AR1
    1296 000142 0409          BCC $C$L7,AR1 == #0 ; |429| 
         000144 12   
    1297                                                      ; branchcc occurs ; |429| 
    1298                      .dwpsn  file "../c5535_bsl_revc/ezdsp5535_v1/c55xx_csl/ccs_v4.0_examples/nand/CSL_NAND_IntrExample/cs
    1299 000145 EC31          AMOV #$C$FSL27, XAR3 ; |431| 
         000147 BE00 
         000149 0174+
    1300 00014b EB00          MOV XAR3, dbl(*SP(#0))
TMS320C55x Assembler PC v4.4.1 Sat Sep 29 23:08:53 2018

Tools Copyright (c) 1996-2012 Texas Instruments Incorporated
csl_nand_intr_example.asm                                            PAGE   33

         00014d B5   
    1301              $C$DW$109       .dwtag  DW_TAG_TI_branch
    1302                      .dwattr $C$DW$109, DW_AT_low_pc(0x00)
    1303                      .dwattr $C$DW$109, DW_AT_name("_printf")
    1304                      .dwattr $C$DW$109, DW_AT_TI_call
    1305 00014e 6C00          CALL #_printf ; |431| 
         000150 0000!
    1306                                                      ; call occurs [#_printf] ; |431| 
    1307                      .dwpsn  file "../c5535_bsl_revc/ezdsp5535_v1/c55xx_csl/ccs_v4.0_examples/nand/CSL_NAND_IntrExample/cs
    1308 000152 A466          MOV *SP(#51), T0 ; |432| 
    1309 000154 0602          B $C$L30  ; |432| 
         000156 68   
    1310                                                      ; branch occurs ; |432| 
    1311 000157       $C$L7:    
    1312                      .dwpsn  file "../c5535_bsl_revc/ezdsp5535_v1/c55xx_csl/ccs_v4.0_examples/nand/CSL_NAND_IntrExample/cs
    1313 000157 ED31          MOV dbl(*(#_hNand)), XAR0
         000159 8F00 
         00015b 0B48-
    1314              $C$DW$110       .dwtag  DW_TAG_TI_branch
    1315                      .dwattr $C$DW$110, DW_AT_low_pc(0x00)
    1316                      .dwattr $C$DW$110, DW_AT_name("_CSL_checkNandType")
    1317                      .dwattr $C$DW$110, DW_AT_TI_call
    1318 00015d 0807          CALL #_CSL_checkNandType ; |436| 
         00015f D0   
    1319                                                      ; call occurs [#_CSL_checkNandType] ; |436| 
    1320 000160 C464          MOV T0, *SP(#50) ; |436| 
    1321                      .dwpsn  file "../c5535_bsl_revc/ezdsp5535_v1/c55xx_csl/ccs_v4.0_examples/nand/CSL_NAND_IntrExample/cs
    1322 000162 2249          MOV T0, AR1
    1323 000164 0409          BCC $C$L8,AR1 == #0 ; |437| 
         000166 12   
    1324                                                      ; branchcc occurs ; |437| 
    1325                      .dwpsn  file "../c5535_bsl_revc/ezdsp5535_v1/c55xx_csl/ccs_v4.0_examples/nand/CSL_NAND_IntrExample/cs
    1326 000167 EC31          AMOV #$C$FSL28, XAR3 ; |439| 
         000169 BE00 
         00016b 0192+
    1327 00016d EB00          MOV XAR3, dbl(*SP(#0))
         00016f B5   
    1328              $C$DW$111       .dwtag  DW_TAG_TI_branch
    1329                      .dwattr $C$DW$111, DW_AT_low_pc(0x00)
    1330                      .dwattr $C$DW$111, DW_AT_name("_printf")
    1331                      .dwattr $C$DW$111, DW_AT_TI_call
    1332 000170 6C00          CALL #_printf ; |439| 
         000172 0000!
    1333                                                      ; call occurs [#_printf] ; |439| 
    1334                      .dwpsn  file "../c5535_bsl_revc/ezdsp5535_v1/c55xx_csl/ccs_v4.0_examples/nand/CSL_NAND_IntrExample/cs
    1335 000174 A466          MOV *SP(#51), T0 ; |440| 
    1336 000176 0602          B $C$L30  ; |440| 
         000178 46   
    1337                                                      ; branch occurs ; |440| 
    1338 000179       $C$L8:    
    1339                      .dwpsn  file "../c5535_bsl_revc/ezdsp5535_v1/c55xx_csl/ccs_v4.0_examples/nand/CSL_NAND_IntrExample/cs
    1340 000179 F031          CMP *(#_gNandType) == #1, TC1 ; |443| 
         00017b 0001 
         00017d 000B 
         00017f 4E-  
TMS320C55x Assembler PC v4.4.1 Sat Sep 29 23:08:53 2018

Tools Copyright (c) 1996-2012 Texas Instruments Incorporated
csl_nand_intr_example.asm                                            PAGE   34

    1341 000180 67F4          BCC $C$L9,!TC1 ; |443| 
    1342                                                      ; branchcc occurs ; |443| 
    1343                      .dwpsn  file "../c5535_bsl_revc/ezdsp5535_v1/c55xx_csl/ccs_v4.0_examples/nand/CSL_NAND_IntrExample/cs
    1344 000182 EC31          AMOV #$C$FSL29, XAR3 ; |445| 
         000184 BE00 
         000186 01A6+
    1345 000188 EB00          MOV XAR3, dbl(*SP(#0))
         00018a B5   
    1346              $C$DW$112       .dwtag  DW_TAG_TI_branch
    1347                      .dwattr $C$DW$112, DW_AT_low_pc(0x00)
    1348                      .dwattr $C$DW$112, DW_AT_name("_printf")
    1349                      .dwattr $C$DW$112, DW_AT_TI_call
    1350 00018b 6C00          CALL #_printf ; |445| 
         00018d 0000!
    1351                                                      ; call occurs [#_printf] ; |445| 
    1352                      .dwpsn  file "../c5535_bsl_revc/ezdsp5535_v1/c55xx_csl/ccs_v4.0_examples/nand/CSL_NAND_IntrExample/cs
    1353 00018f 4A0D          B $C$L10  ; |446| 
    1354                                                      ; branch occurs ; |446| 
    1355 000191       $C$L9:    
    1356                      .dwpsn  file "../c5535_bsl_revc/ezdsp5535_v1/c55xx_csl/ccs_v4.0_examples/nand/CSL_NAND_IntrExample/cs
    1357 000191 EC31          AMOV #$C$FSL30, XAR3 ; |449| 
         000193 BE00 
         000195 01D2+
    1358 000197 EB00          MOV XAR3, dbl(*SP(#0))
         000199 B5   
    1359              $C$DW$113       .dwtag  DW_TAG_TI_branch
    1360                      .dwattr $C$DW$113, DW_AT_low_pc(0x00)
    1361                      .dwattr $C$DW$113, DW_AT_name("_printf")
    1362                      .dwattr $C$DW$113, DW_AT_TI_call
    1363 00019a 6C00          CALL #_printf ; |449| 
         00019c 0000!
    1364                                                      ; call occurs [#_printf] ; |449| 
    1365 00019e       $C$L10:    
    1366                      .dwpsn  file "../c5535_bsl_revc/ezdsp5535_v1/c55xx_csl/ccs_v4.0_examples/nand/CSL_NAND_IntrExample/cs
    1367 00019e A931          MOV *(#_gNandType), AR1 ; |452| 
         0001a0 000B 
         0001a2 4E-  
    1368 0001a3 6519          BCC $C$L11,AR1 != #0 ; |452| 
    1369                                                      ; branchcc occurs ; |452| 
    1370 0001a5 F031          CMP *(#_gNandPageSize) == #512, TC1 ; |452| 
         0001a7 0200 
         0001a9 000B 
         0001ab 50-  
    1371 0001ac 0464          BCC $C$L15,TC1 ; |452| 
         0001ae 49   
    1372                                                      ; branchcc occurs ; |452| 
    1373 0001af       $C$L11:    
    1374                      .dwpsn  file "../c5535_bsl_revc/ezdsp5535_v1/c55xx_csl/ccs_v4.0_examples/nand/CSL_NAND_IntrExample/cs
    1375 0001af F031          CMP *(#_gNandType) == #1, TC1 ; |457| 
         0001b1 0001 
         0001b3 000B 
         0001b5 4E-  
    1376 0001b6 0474          BCC $C$L13,!TC1 ; |457| 
         0001b8 16   
    1377                                                      ; branchcc occurs ; |457| 
TMS320C55x Assembler PC v4.4.1 Sat Sep 29 23:08:53 2018

Tools Copyright (c) 1996-2012 Texas Instruments Incorporated
csl_nand_intr_example.asm                                            PAGE   35

    1378                      .dwpsn  file "../c5535_bsl_revc/ezdsp5535_v1/c55xx_csl/ccs_v4.0_examples/nand/CSL_NAND_IntrExample/cs
    1379 0001b9 E62A          MOV #1, *SP(#21) ; |459| 
         0001bb 01   
    1380                      .dwpsn  file "../c5535_bsl_revc/ezdsp5535_v1/c55xx_csl/ccs_v4.0_examples/nand/CSL_NAND_IntrExample/cs
    1381 0001bc F031          CMP *(#_gNandPageSize) == #1024, TC1 ; |461| 
         0001be 0400 
         0001c0 000B 
         0001c2 50-  
    1382 0001c3 62F4          BCC $C$L12,!TC1 ; |461| 
    1383                                                      ; branchcc occurs ; |461| 
    1384                      .dwpsn  file "../c5535_bsl_revc/ezdsp5535_v1/c55xx_csl/ccs_v4.0_examples/nand/CSL_NAND_IntrExample/cs
    1385 0001c5 E622          MOV #2, *SP(#17) ; |463| 
         0001c7 02   
    1386                      .dwpsn  file "../c5535_bsl_revc/ezdsp5535_v1/c55xx_csl/ccs_v4.0_examples/nand/CSL_NAND_IntrExample/cs
    1387 0001c8 4A08          B $C$L14  ; |464| 
    1388                                                      ; branch occurs ; |464| 
    1389 0001ca       $C$L12:    
    1390                      .dwpsn  file "../c5535_bsl_revc/ezdsp5535_v1/c55xx_csl/ccs_v4.0_examples/nand/CSL_NAND_IntrExample/cs
    1391 0001ca E622          MOV #3, *SP(#17) ; |467| 
         0001cc 03   
    1392                      .dwpsn  file "../c5535_bsl_revc/ezdsp5535_v1/c55xx_csl/ccs_v4.0_examples/nand/CSL_NAND_IntrExample/cs
    1393 0001cd 4A03          B $C$L14  ; |469| 
    1394                                                      ; branch occurs ; |469| 
    1395 0001cf       $C$L13:    
    1396                      .dwpsn  file "../c5535_bsl_revc/ezdsp5535_v1/c55xx_csl/ccs_v4.0_examples/nand/CSL_NAND_IntrExample/cs
    1397 0001cf E622          MOV #0, *SP(#17) ; |472| 
         0001d1 00   
    1398 0001d2       $C$L14:    
    1399                      .dwpsn  file "../c5535_bsl_revc/ezdsp5535_v1/c55xx_csl/ccs_v4.0_examples/nand/CSL_NAND_IntrExample/cs
    1400 0001d2 EC20          AMAR *SP(#16), XAR1
         0001d4 9E   
    1401 0001d5 ED31          MOV dbl(*(#_hNand)), XAR0
         0001d7 8F00 
         0001d9 0B48-
    1402              $C$DW$114       .dwtag  DW_TAG_TI_branch
    1403                      .dwattr $C$DW$114, DW_AT_low_pc(0x00)
    1404                      .dwattr $C$DW$114, DW_AT_name("_NAND_setup")
    1405                      .dwattr $C$DW$114, DW_AT_TI_call
    1406 0001db 6C00          CALL #_NAND_setup ; |476| 
         0001dd 0000!
    1407                                                      ; call occurs [#_NAND_setup] ; |476| 
    1408 0001df C464          MOV T0, *SP(#50) ; |476| 
    1409                      .dwpsn  file "../c5535_bsl_revc/ezdsp5535_v1/c55xx_csl/ccs_v4.0_examples/nand/CSL_NAND_IntrExample/cs
    1410 0001e1 2249          MOV T0, AR1
    1411 0001e3 0409          BCC $C$L15,AR1 == #0 ; |477| 
         0001e5 12   
    1412                                                      ; branchcc occurs ; |477| 
    1413                      .dwpsn  file "../c5535_bsl_revc/ezdsp5535_v1/c55xx_csl/ccs_v4.0_examples/nand/CSL_NAND_IntrExample/cs
    1414 0001e6 EC31          AMOV #$C$FSL26, XAR3 ; |479| 
         0001e8 BE00 
         0001ea 015E+
    1415 0001ec EB00          MOV XAR3, dbl(*SP(#0))
         0001ee B5   
    1416              $C$DW$115       .dwtag  DW_TAG_TI_branch
    1417                      .dwattr $C$DW$115, DW_AT_low_pc(0x00)
TMS320C55x Assembler PC v4.4.1 Sat Sep 29 23:08:53 2018

Tools Copyright (c) 1996-2012 Texas Instruments Incorporated
csl_nand_intr_example.asm                                            PAGE   36

    1418                      .dwattr $C$DW$115, DW_AT_name("_printf")
    1419                      .dwattr $C$DW$115, DW_AT_TI_call
    1420 0001ef 6C00          CALL #_printf ; |479| 
         0001f1 0000!
    1421                                                      ; call occurs [#_printf] ; |479| 
    1422                      .dwpsn  file "../c5535_bsl_revc/ezdsp5535_v1/c55xx_csl/ccs_v4.0_examples/nand/CSL_NAND_IntrExample/cs
    1423 0001f3 A466          MOV *SP(#51), T0 ; |480| 
    1424 0001f5 0601          B $C$L30  ; |480| 
         0001f7 C7   
    1425                                                      ; branch occurs ; |480| 
    1426 0001f8       $C$L15:    
    1427                      .dwpsn  file "../c5535_bsl_revc/ezdsp5535_v1/c55xx_csl/ccs_v4.0_examples/nand/CSL_NAND_IntrExample/cs
    1428 0001f8 ED31          MOV dbl(*(#_hNand)), XAR0
         0001fa 8F00 
         0001fc 0B48-
    1429 0001fe 7600          MOV #255, T0 ; |485| 
         000200 FF48 
    1430              $C$DW$116       .dwtag  DW_TAG_TI_branch
    1431                      .dwattr $C$DW$116, DW_AT_low_pc(0x00)
    1432                      .dwattr $C$DW$116, DW_AT_name("_NAND_sendCommand")
    1433                      .dwattr $C$DW$116, DW_AT_TI_call
    1434 000202 6C00          CALL #_NAND_sendCommand ; |485| 
         000204 0000!
    1435                                                      ; call occurs [#_NAND_sendCommand] ; |485| 
    1436 000206 C464          MOV T0, *SP(#50) ; |485| 
    1437                      .dwpsn  file "../c5535_bsl_revc/ezdsp5535_v1/c55xx_csl/ccs_v4.0_examples/nand/CSL_NAND_IntrExample/cs
    1438 000208 2249          MOV T0, AR1
    1439 00020a 0409          BCC $C$L16,AR1 == #0 ; |486| 
         00020c 12   
    1440                                                      ; branchcc occurs ; |486| 
    1441                      .dwpsn  file "../c5535_bsl_revc/ezdsp5535_v1/c55xx_csl/ccs_v4.0_examples/nand/CSL_NAND_IntrExample/cs
    1442 00020d EC31          AMOV #$C$FSL31, XAR3 ; |488| 
         00020f BE00 
         000211 0200+
    1443 000213 EB00          MOV XAR3, dbl(*SP(#0))
         000215 B5   
    1444              $C$DW$117       .dwtag  DW_TAG_TI_branch
    1445                      .dwattr $C$DW$117, DW_AT_low_pc(0x00)
    1446                      .dwattr $C$DW$117, DW_AT_name("_printf")
    1447                      .dwattr $C$DW$117, DW_AT_TI_call
    1448 000216 6C00          CALL #_printf ; |488| 
         000218 0000!
    1449                                                      ; call occurs [#_printf] ; |488| 
    1450                      .dwpsn  file "../c5535_bsl_revc/ezdsp5535_v1/c55xx_csl/ccs_v4.0_examples/nand/CSL_NAND_IntrExample/cs
    1451 00021a A466          MOV *SP(#51), T0 ; |489| 
    1452 00021c 0601          B $C$L30  ; |489| 
         00021e A0   
    1453                                                      ; branch occurs ; |489| 
    1454 00021f       $C$L16:    
    1455                      .dwpsn  file "../c5535_bsl_revc/ezdsp5535_v1/c55xx_csl/ccs_v4.0_examples/nand/CSL_NAND_IntrExample/cs
    1456 00021f ED31          MOV dbl(*(#_hNand)), XAR0
         000221 8F00 
         000223 0B48-
    1457              $C$DW$118       .dwtag  DW_TAG_TI_branch
    1458                      .dwattr $C$DW$118, DW_AT_low_pc(0x00)
TMS320C55x Assembler PC v4.4.1 Sat Sep 29 23:08:53 2018

Tools Copyright (c) 1996-2012 Texas Instruments Incorporated
csl_nand_intr_example.asm                                            PAGE   37

    1459                      .dwattr $C$DW$118, DW_AT_name("_NAND_checkCommandStatus")
    1460                      .dwattr $C$DW$118, DW_AT_TI_call
    1461 000225 6C00          CALL #_NAND_checkCommandStatus ; |493| 
         000227 0000!
    1462                                                      ; call occurs [#_NAND_checkCommandStatus] ; |493| 
    1463 000229 C464          MOV T0, *SP(#50) ; |493| 
    1464                      .dwpsn  file "../c5535_bsl_revc/ezdsp5535_v1/c55xx_csl/ccs_v4.0_examples/nand/CSL_NAND_IntrExample/cs
    1465 00022b 2249          MOV T0, AR1
    1466 00022d 0409          BCC $C$L17,AR1 == #0 ; |494| 
         00022f 12   
    1467                                                      ; branchcc occurs ; |494| 
    1468                      .dwpsn  file "../c5535_bsl_revc/ezdsp5535_v1/c55xx_csl/ccs_v4.0_examples/nand/CSL_NAND_IntrExample/cs
    1469 000230 EC31          AMOV #$C$FSL32, XAR3 ; |496| 
         000232 BE00 
         000234 021C+
    1470 000236 EB00          MOV XAR3, dbl(*SP(#0))
         000238 B5   
    1471              $C$DW$119       .dwtag  DW_TAG_TI_branch
    1472                      .dwattr $C$DW$119, DW_AT_low_pc(0x00)
    1473                      .dwattr $C$DW$119, DW_AT_name("_printf")
    1474                      .dwattr $C$DW$119, DW_AT_TI_call
    1475 000239 6C00          CALL #_printf ; |496| 
         00023b 0000!
    1476                                                      ; call occurs [#_printf] ; |496| 
    1477                      .dwpsn  file "../c5535_bsl_revc/ezdsp5535_v1/c55xx_csl/ccs_v4.0_examples/nand/CSL_NAND_IntrExample/cs
    1478 00023d A466          MOV *SP(#51), T0 ; |497| 
    1479 00023f 0601          B $C$L30  ; |497| 
         000241 7D   
    1480                                                      ; branch occurs ; |497| 
    1481 000242       $C$L17:    
    1482                      .dwpsn  file "../c5535_bsl_revc/ezdsp5535_v1/c55xx_csl/ccs_v4.0_examples/nand/CSL_NAND_IntrExample/cs
    1483 000242 EC74          AMAR *SP(#58), XAR1
         000244 9E   
    1484 000245 ED31          MOV dbl(*(#_hNand)), XAR0
         000247 8F00 
         000249 0B48-
    1485              $C$DW$120       .dwtag  DW_TAG_TI_branch
    1486                      .dwattr $C$DW$120, DW_AT_low_pc(0x00)
    1487                      .dwattr $C$DW$120, DW_AT_name("_NAND_isStatusWriteProtected")
    1488                      .dwattr $C$DW$120, DW_AT_TI_call
    1489 00024b 6C00          CALL #_NAND_isStatusWriteProtected ; |501| 
         00024d 0000!
    1490                                                      ; call occurs [#_NAND_isStatusWriteProtected] ; |501| 
    1491 00024f C464          MOV T0, *SP(#50) ; |501| 
    1492                      .dwpsn  file "../c5535_bsl_revc/ezdsp5535_v1/c55xx_csl/ccs_v4.0_examples/nand/CSL_NAND_IntrExample/cs
    1493 000251 F074          CMP *SP(#58) == #1, TC1 ; |502| 
         000253 0001 
    1494 000255 0474          BCC $C$L18,!TC1 ; |502| 
         000257 12   
    1495                                                      ; branchcc occurs ; |502| 
    1496                      .dwpsn  file "../c5535_bsl_revc/ezdsp5535_v1/c55xx_csl/ccs_v4.0_examples/nand/CSL_NAND_IntrExample/cs
    1497 000258 EC31          AMOV #$C$FSL33, XAR3 ; |504| 
         00025a BE00 
         00025c 0240+
    1498 00025e EB00          MOV XAR3, dbl(*SP(#0))
TMS320C55x Assembler PC v4.4.1 Sat Sep 29 23:08:53 2018

Tools Copyright (c) 1996-2012 Texas Instruments Incorporated
csl_nand_intr_example.asm                                            PAGE   38

         000260 B5   
    1499              $C$DW$121       .dwtag  DW_TAG_TI_branch
    1500                      .dwattr $C$DW$121, DW_AT_low_pc(0x00)
    1501                      .dwattr $C$DW$121, DW_AT_name("_printf")
    1502                      .dwattr $C$DW$121, DW_AT_TI_call
    1503 000261 6C00          CALL #_printf ; |504| 
         000263 0000!
    1504                                                      ; call occurs [#_printf] ; |504| 
    1505                      .dwpsn  file "../c5535_bsl_revc/ezdsp5535_v1/c55xx_csl/ccs_v4.0_examples/nand/CSL_NAND_IntrExample/cs
    1506 000265 A466          MOV *SP(#51), T0 ; |505| 
    1507 000267 0601          B $C$L30  ; |505| 
         000269 55   
    1508                                                      ; branch occurs ; |505| 
    1509 00026a       $C$L18:    
    1510                      .dwpsn  file "../c5535_bsl_revc/ezdsp5535_v1/c55xx_csl/ccs_v4.0_examples/nand/CSL_NAND_IntrExample/cs
    1511 00026a A468          MOV *SP(#52), T0 ; |509| 
    1512              $C$DW$122       .dwtag  DW_TAG_TI_branch
    1513                      .dwattr $C$DW$122, DW_AT_low_pc(0x00)
    1514                      .dwattr $C$DW$122, DW_AT_name("_NAND_getIntrNum")
    1515                      .dwattr $C$DW$122, DW_AT_TI_call
    1516 00026c 6C00          CALL #_NAND_getIntrNum ; |509| 
         00026e 0000!
    1517                                                      ; call occurs [#_NAND_getIntrNum] ; |509| 
    1518 000270 C431          MOV T0, *(#_intrNum) ; |509| 
         000272 000B 
         000274 4A-  
    1519                      .dwpsn  file "../c5535_bsl_revc/ezdsp5535_v1/c55xx_csl/ccs_v4.0_examples/nand/CSL_NAND_IntrExample/cs
    1520              
    1521 000279 2349          MOV T0, AR1 ; |510| 
    1522 000275 76FF  ||      MOV #65535, AR2 ; |510| 
         000277 FFA8 
    1523              
    1524 00027b 129C          CMPU AR1 != AR2, TC1 ; |510| 
         00027d A4   
    1525 00027e 0464          BCC $C$L19,TC1 ; |510| 
         000280 12   
    1526                                                      ; branchcc occurs ; |510| 
    1527                      .dwpsn  file "../c5535_bsl_revc/ezdsp5535_v1/c55xx_csl/ccs_v4.0_examples/nand/CSL_NAND_IntrExample/cs
    1528 000281 EC31          AMOV #$C$FSL34, XAR3 ; |512| 
         000283 BE00 
         000285 025C+
    1529 000287 EB00          MOV XAR3, dbl(*SP(#0))
         000289 B5   
    1530              $C$DW$123       .dwtag  DW_TAG_TI_branch
    1531                      .dwattr $C$DW$123, DW_AT_low_pc(0x00)
    1532                      .dwattr $C$DW$123, DW_AT_name("_printf")
    1533                      .dwattr $C$DW$123, DW_AT_TI_call
    1534 00028a 6C00          CALL #_printf ; |512| 
         00028c 0000!
    1535                                                      ; call occurs [#_printf] ; |512| 
    1536                      .dwpsn  file "../c5535_bsl_revc/ezdsp5535_v1/c55xx_csl/ccs_v4.0_examples/nand/CSL_NAND_IntrExample/cs
    1537 00028e A466          MOV *SP(#51), T0 ; |513| 
    1538 000290 0601          B $C$L30  ; |513| 
         000292 2C   
    1539                                                      ; branch occurs ; |513| 
TMS320C55x Assembler PC v4.4.1 Sat Sep 29 23:08:53 2018

Tools Copyright (c) 1996-2012 Texas Instruments Incorporated
csl_nand_intr_example.asm                                            PAGE   39

    1540 000293       $C$L19:    
    1541                      .dwpsn  file "../c5535_bsl_revc/ezdsp5535_v1/c55xx_csl/ccs_v4.0_examples/nand/CSL_NAND_IntrExample/cs
    1542 000293 ED31          MOV dbl(*(#_hNand)), XAR0
         000295 8F00 
         000297 0B48-
    1543              $C$DW$124       .dwtag  DW_TAG_TI_branch
    1544                      .dwattr $C$DW$124, DW_AT_low_pc(0x00)
    1545                      .dwattr $C$DW$124, DW_AT_name("_NAND_intrEnable")
    1546                      .dwattr $C$DW$124, DW_AT_TI_call
    1547 000299 6C00          CALL #_NAND_intrEnable ; |517| 
         00029b 0000!
    1548                                                      ; call occurs [#_NAND_intrEnable] ; |517| 
    1549 00029d C464          MOV T0, *SP(#50) ; |517| 
    1550                      .dwpsn  file "../c5535_bsl_revc/ezdsp5535_v1/c55xx_csl/ccs_v4.0_examples/nand/CSL_NAND_IntrExample/cs
    1551 00029f 2249          MOV T0, AR1
    1552 0002a1 0409          BCC $C$L20,AR1 == #0 ; |518| 
         0002a3 12   
    1553                                                      ; branchcc occurs ; |518| 
    1554                      .dwpsn  file "../c5535_bsl_revc/ezdsp5535_v1/c55xx_csl/ccs_v4.0_examples/nand/CSL_NAND_IntrExample/cs
    1555 0002a4 EC31          AMOV #$C$FSL35, XAR3 ; |520| 
         0002a6 BE00 
         0002a8 027E+
    1556 0002aa EB00          MOV XAR3, dbl(*SP(#0))
         0002ac B5   
    1557              $C$DW$125       .dwtag  DW_TAG_TI_branch
    1558                      .dwattr $C$DW$125, DW_AT_low_pc(0x00)
    1559                      .dwattr $C$DW$125, DW_AT_name("_printf")
    1560                      .dwattr $C$DW$125, DW_AT_TI_call
    1561 0002ad 6C00          CALL #_printf ; |520| 
         0002af 0000!
    1562                                                      ; call occurs [#_printf] ; |520| 
    1563                      .dwpsn  file "../c5535_bsl_revc/ezdsp5535_v1/c55xx_csl/ccs_v4.0_examples/nand/CSL_NAND_IntrExample/cs
    1564 0002b1 A466          MOV *SP(#51), T0 ; |521| 
    1565 0002b3 0601          B $C$L30  ; |521| 
         0002b5 09   
    1566                                                      ; branch occurs ; |521| 
    1567 0002b6       $C$L20:    
    1568                      .dwpsn  file "../c5535_bsl_revc/ezdsp5535_v1/c55xx_csl/ccs_v4.0_examples/nand/CSL_NAND_IntrExample/cs
    1569 0002b6 E670          MOV #64, *SP(#56) ; |524| 
         0002b8 40   
    1570                      .dwpsn  file "../c5535_bsl_revc/ezdsp5535_v1/c55xx_csl/ccs_v4.0_examples/nand/CSL_NAND_IntrExample/cs
    1571 0002b9 E672          MOV #0, *SP(#57) ; |525| 
         0002bb 00   
    1572                      .dwpsn  file "../c5535_bsl_revc/ezdsp5535_v1/c55xx_csl/ccs_v4.0_examples/nand/CSL_NAND_IntrExample/cs
    1573 0002bc E66E          MOV #0, *SP(#55) ; |526| 
         0002be 00   
    1574                      .dwpsn  file "../c5535_bsl_revc/ezdsp5535_v1/c55xx_csl/ccs_v4.0_examples/nand/CSL_NAND_IntrExample/cs
    1575              
    1576 0002bf A96E          MOV *SP(#55), AR1 ; |526| 
    1577 0002c1 3D4A  ||      MOV #4, AR2
    1578              
    1579 0002c3 1298          CMPU AR1 >= AR2, TC1 ; |526| 
         0002c5 A4   
    1580 0002c6 6D64          BCC $C$L28,TC1 ; |526| 
         0002c8 00CE 
TMS320C55x Assembler PC v4.4.1 Sat Sep 29 23:08:53 2018

Tools Copyright (c) 1996-2012 Texas Instruments Incorporated
csl_nand_intr_example.asm                                            PAGE   40

    1581                                                      ; branchcc occurs ; |526| 
    1582 0002ca       $C$L21:    
    1583 0002ca       $C$DW$L$_CSL_nandIntrTest$34$B:
    1584                      .dwpsn  file "../c5535_bsl_revc/ezdsp5535_v1/c55xx_csl/ccs_v4.0_examples/nand/CSL_NAND_IntrExample/cs
    1585 0002ca EC31          AMOV #$C$FSL36, XAR3 ; |528| 
         0002cc BE00 
         0002ce 029E+
    1586              
    1587 0002d0 EB00          MOV XAR3, dbl(*SP(#0))
         0002d2 B5   
    1588 0002d3 4119  ||      ADD #1, AR1 ; |528| 
    1589              
    1590 0002d5 C904          MOV AR1, *SP(#2) ; |528| 
    1591              $C$DW$126       .dwtag  DW_TAG_TI_branch
    1592                      .dwattr $C$DW$126, DW_AT_low_pc(0x00)
    1593                      .dwattr $C$DW$126, DW_AT_name("_printf")
    1594                      .dwattr $C$DW$126, DW_AT_TI_call
    1595 0002d7 6C00          CALL #_printf ; |528| 
         0002d9 0000!
    1596                                                      ; call occurs [#_printf] ; |528| 
    1597                      .dwpsn  file "../c5535_bsl_revc/ezdsp5535_v1/c55xx_csl/ccs_v4.0_examples/nand/CSL_NAND_IntrExample/cs
    1598 0002db A472          MOV *SP(#57), T0 ; |530| 
    1599 0002dd DF70          MOV uns(*SP(#56)), AC0 ; |530| 
         0002df 05   
    1600              $C$DW$127       .dwtag  DW_TAG_TI_branch
    1601                      .dwattr $C$DW$127, DW_AT_low_pc(0x00)
    1602                      .dwattr $C$DW$127, DW_AT_name("_CSL_nandReadWrite")
    1603                      .dwattr $C$DW$127, DW_AT_TI_call
    1604 0002e0 0800          CALL #_CSL_nandReadWrite ; |530| 
         0002e2 E1   
    1605                                                      ; call occurs [#_CSL_nandReadWrite] ; |530| 
    1606 0002e3 C464          MOV T0, *SP(#50) ; |530| 
    1607                      .dwpsn  file "../c5535_bsl_revc/ezdsp5535_v1/c55xx_csl/ccs_v4.0_examples/nand/CSL_NAND_IntrExample/cs
    1608 0002e5 2249          MOV T0, AR1
    1609 0002e7 6289          BCC $C$L22,AR1 == #0 ; |531| 
    1610                                                      ; branchcc occurs ; |531| 
    1611 0002e9       $C$DW$L$_CSL_nandIntrTest$34$E:
    1612                      .dwpsn  file "../c5535_bsl_revc/ezdsp5535_v1/c55xx_csl/ccs_v4.0_examples/nand/CSL_NAND_IntrExample/cs
    1613 0002e9 A466          MOV *SP(#51), T0 ; |533| 
    1614 0002eb 0600          B $C$L30  ; |533| 
         0002ed D1   
    1615                                                      ; branch occurs ; |533| 
    1616 0002ee       $C$L22:    
    1617 0002ee       $C$DW$L$_CSL_nandIntrTest$36$B:
    1618                      .dwpsn  file "../c5535_bsl_revc/ezdsp5535_v1/c55xx_csl/ccs_v4.0_examples/nand/CSL_NAND_IntrExample/cs
    1619 0002ee E631          MOV #0, *(#_wrStatus) ; |536| 
         0002f0 0000 
         0002f2 0B4D-
    1620 0002f4       $C$DW$L$_CSL_nandIntrTest$36$E:
    1621 0002f4       $C$L23:    
    1622 0002f4       $C$DW$L$_CSL_nandIntrTest$37$B:
    1623                      .dwpsn  file "../c5535_bsl_revc/ezdsp5535_v1/c55xx_csl/ccs_v4.0_examples/nand/CSL_NAND_IntrExample/cs
    1624 0002f4 ED31          MOV dbl(*(#_hNand)), XAR0
         0002f6 8F00 
         0002f8 0B48-
TMS320C55x Assembler PC v4.4.1 Sat Sep 29 23:08:53 2018

Tools Copyright (c) 1996-2012 Texas Instruments Incorporated
csl_nand_intr_example.asm                                            PAGE   41

    1625 0002fa EC31          AMOV #_atStatus, XAR1 ; |541| 
         0002fc 9E00 
         0002fe 0B4C-
    1626              $C$DW$128       .dwtag  DW_TAG_TI_branch
    1627                      .dwattr $C$DW$128, DW_AT_low_pc(0x00)
    1628                      .dwattr $C$DW$128, DW_AT_name("_NAND_intrReadAT")
    1629                      .dwattr $C$DW$128, DW_AT_TI_call
    1630 000300 6C00          CALL #_NAND_intrReadAT ; |541| 
         000302 0000!
    1631                                                      ; call occurs [#_NAND_intrReadAT] ; |541| 
    1632 000304 C464          MOV T0, *SP(#50) ; |541| 
    1633                      .dwpsn  file "../c5535_bsl_revc/ezdsp5535_v1/c55xx_csl/ccs_v4.0_examples/nand/CSL_NAND_IntrExample/cs
    1634 000306 F031          CMP *(#_atStatus) == #1, TC1 ; |542| 
         000308 0001 
         00030a 000B 
         00030c 4C-  
    1635 00030d 0474          BCC $C$L24,!TC1 ; |542| 
         00030f 12   
    1636                                                      ; branchcc occurs ; |542| 
    1637 000310       $C$DW$L$_CSL_nandIntrTest$37$E:
    1638                      .dwpsn  file "../c5535_bsl_revc/ezdsp5535_v1/c55xx_csl/ccs_v4.0_examples/nand/CSL_NAND_IntrExample/cs
    1639 000310 EC31          AMOV #$C$FSL37, XAR3 ; |544| 
         000312 BE00 
         000314 02AE+
    1640 000316 EB00          MOV XAR3, dbl(*SP(#0))
         000318 B5   
    1641              $C$DW$129       .dwtag  DW_TAG_TI_branch
    1642                      .dwattr $C$DW$129, DW_AT_low_pc(0x00)
    1643                      .dwattr $C$DW$129, DW_AT_name("_printf")
    1644                      .dwattr $C$DW$129, DW_AT_TI_call
    1645 000319 6C00          CALL #_printf ; |544| 
         00031b 0000!
    1646                                                      ; call occurs [#_printf] ; |544| 
    1647                      .dwpsn  file "../c5535_bsl_revc/ezdsp5535_v1/c55xx_csl/ccs_v4.0_examples/nand/CSL_NAND_IntrExample/cs
    1648 00031d 3C34          MOV #3, T0
    1649 00031f 0600          B $C$L30  ; |545| 
         000321 9D   
    1650                                                      ; branch occurs ; |545| 
    1651 000322       $C$L24:    
    1652 000322       $C$DW$L$_CSL_nandIntrTest$39$B:
    1653                      .dwpsn  file "../c5535_bsl_revc/ezdsp5535_v1/c55xx_csl/ccs_v4.0_examples/nand/CSL_NAND_IntrExample/cs
    1654 000322 ED31          MOV dbl(*(#_hNand)), XAR0
         000324 8F00 
         000326 0B48-
    1655 000328 EC31          AMOV #_wrStatus, XAR1 ; |548| 
         00032a 9E00 
         00032c 0B4D-
    1656              $C$DW$130       .dwtag  DW_TAG_TI_branch
    1657                      .dwattr $C$DW$130, DW_AT_low_pc(0x00)
    1658                      .dwattr $C$DW$130, DW_AT_name("_NAND_intrReadWR")
    1659                      .dwattr $C$DW$130, DW_AT_TI_call
    1660 00032e 6C00          CALL #_NAND_intrReadWR ; |548| 
         000330 0000!
    1661                                                      ; call occurs [#_NAND_intrReadWR] ; |548| 
    1662 000332 C464          MOV T0, *SP(#50) ; |548| 
TMS320C55x Assembler PC v4.4.1 Sat Sep 29 23:08:53 2018

Tools Copyright (c) 1996-2012 Texas Instruments Incorporated
csl_nand_intr_example.asm                                            PAGE   42

    1663                      .dwpsn  file "../c5535_bsl_revc/ezdsp5535_v1/c55xx_csl/ccs_v4.0_examples/nand/CSL_NAND_IntrExample/cs
    1664 000334 A931          MOV *(#_wrStatus), AR1 ; |549| 
         000336 000B 
         000338 4D-  
    1665 000339 0409          BCC $C$L23,AR1 == #0 ; |549| 
         00033b B8   
    1666                                                      ; branchcc occurs ; |549| 
    1667 00033c       $C$DW$L$_CSL_nandIntrTest$39$E:
    1668 00033c       $C$DW$L$_CSL_nandIntrTest$40$B:
    1669                      .dwpsn  file "../c5535_bsl_revc/ezdsp5535_v1/c55xx_csl/ccs_v4.0_examples/nand/CSL_NAND_IntrExample/cs
    1670 00033c ED31          MOV dbl(*(#_hNand)), XAR0
         00033e 8F00 
         000340 0B48-
    1671              $C$DW$131       .dwtag  DW_TAG_TI_branch
    1672                      .dwattr $C$DW$131, DW_AT_low_pc(0x00)
    1673                      .dwattr $C$DW$131, DW_AT_name("_NAND_intrClear")
    1674                      .dwattr $C$DW$131, DW_AT_TI_call
    1675 000342 6C00          CALL #_NAND_intrClear ; |552| 
         000344 0000!
    1676                                                      ; call occurs [#_NAND_intrClear] ; |552| 
    1677 000346 C464          MOV T0, *SP(#50) ; |552| 
    1678                      .dwpsn  file "../c5535_bsl_revc/ezdsp5535_v1/c55xx_csl/ccs_v4.0_examples/nand/CSL_NAND_IntrExample/cs
    1679 000348 2249          MOV T0, AR1
    1680 00034a 0409          BCC $C$L25,AR1 == #0 ; |553| 
         00034c 12   
    1681                                                      ; branchcc occurs ; |553| 
    1682 00034d       $C$DW$L$_CSL_nandIntrTest$40$E:
    1683                      .dwpsn  file "../c5535_bsl_revc/ezdsp5535_v1/c55xx_csl/ccs_v4.0_examples/nand/CSL_NAND_IntrExample/cs
    1684 00034d EC31          AMOV #$C$FSL38, XAR3 ; |555| 
         00034f BE00 
         000351 02CC+
    1685 000353 EB00          MOV XAR3, dbl(*SP(#0))
         000355 B5   
    1686              $C$DW$132       .dwtag  DW_TAG_TI_branch
    1687                      .dwattr $C$DW$132, DW_AT_low_pc(0x00)
    1688                      .dwattr $C$DW$132, DW_AT_name("_printf")
    1689                      .dwattr $C$DW$132, DW_AT_TI_call
    1690 000356 6C00          CALL #_printf ; |555| 
         000358 0000!
    1691                                                      ; call occurs [#_printf] ; |555| 
    1692                      .dwpsn  file "../c5535_bsl_revc/ezdsp5535_v1/c55xx_csl/ccs_v4.0_examples/nand/CSL_NAND_IntrExample/cs
    1693 00035a A466          MOV *SP(#51), T0 ; |556| 
    1694 00035c 0600          B $C$L30  ; |556| 
         00035e 60   
    1695                                                      ; branch occurs ; |556| 
    1696 00035f       $C$L25:    
    1697 00035f       $C$DW$L$_CSL_nandIntrTest$42$B:
    1698                      .dwpsn  file "../c5535_bsl_revc/ezdsp5535_v1/c55xx_csl/ccs_v4.0_examples/nand/CSL_NAND_IntrExample/cs
    1699 00035f E66C          MOV #0, *SP(#54) ; |560| 
         000361 00   
    1700                      .dwpsn  file "../c5535_bsl_revc/ezdsp5535_v1/c55xx_csl/ccs_v4.0_examples/nand/CSL_NAND_IntrExample/cs
    1701 000362 7604          MOV #1024, AR2 ; |560| 
         000364 00A8 
    1702 000366 A96C          MOV *SP(#54), AR1 ; |560| 
    1703 000368 1298          CMPU AR1 >= AR2, TC1 ; |560| 
TMS320C55x Assembler PC v4.4.1 Sat Sep 29 23:08:53 2018

Tools Copyright (c) 1996-2012 Texas Instruments Incorporated
csl_nand_intr_example.asm                                            PAGE   43

         00036a A4   
    1704 00036b 0464          BCC $C$L27,TC1 ; |560| 
         00036d 17   
    1705                                                      ; branchcc occurs ; |560| 
    1706 00036e       $C$DW$L$_CSL_nandIntrTest$42$E:
    1707 00036e       $C$L26:    
    1708 00036e       $C$DW$L$_CSL_nandIntrTest$43$B:
    1709                      .dwpsn  file "../c5535_bsl_revc/ezdsp5535_v1/c55xx_csl/ccs_v4.0_examples/nand/CSL_NAND_IntrExample/cs
    1710 00036e A46C          MOV *SP(#54), T0 ; |562| 
    1711 000370 EC31          AMOV #_gnandIntrReadBuf, XAR3 ; |562| 
         000372 BE00 
         000374 0348-
    1712 000376 E66B          MOV #0, *AR3(T0) ; |562| 
         000378 00   
    1713                      .dwpsn  file "../c5535_bsl_revc/ezdsp5535_v1/c55xx_csl/ccs_v4.0_examples/nand/CSL_NAND_IntrExample/cs
    1714 000379 F76C          ADD #1, *SP(#54) ; |560| 
         00037b 0001 
    1715                      .dwpsn  file "../c5535_bsl_revc/ezdsp5535_v1/c55xx_csl/ccs_v4.0_examples/nand/CSL_NAND_IntrExample/cs
    1716 00037d A96C          MOV *SP(#54), AR1 ; |560| 
    1717 00037f 1294          CMPU AR1 < AR2, TC1 ; |560| 
         000381 A4   
    1718 000382 0464          BCC $C$L26,TC1 ; |560| 
         000384 E9   
    1719                                                      ; branchcc occurs ; |560| 
    1720 000385       $C$DW$L$_CSL_nandIntrTest$43$E:
    1721 000385       $C$L27:    
    1722 000385       $C$DW$L$_CSL_nandIntrTest$44$B:
    1723                      .dwpsn  file "../c5535_bsl_revc/ezdsp5535_v1/c55xx_csl/ccs_v4.0_examples/nand/CSL_NAND_IntrExample/cs
    1724 000385 F770          ADD #1, *SP(#56) ; |565| 
         000387 0001 
    1725                      .dwpsn  file "../c5535_bsl_revc/ezdsp5535_v1/c55xx_csl/ccs_v4.0_examples/nand/CSL_NAND_IntrExample/cs
    1726 000389 F76E          ADD #1, *SP(#55) ; |526| 
         00038b 0001 
    1727                      .dwpsn  file "../c5535_bsl_revc/ezdsp5535_v1/c55xx_csl/ccs_v4.0_examples/nand/CSL_NAND_IntrExample/cs
    1728              
    1729 00038d A96E          MOV *SP(#55), AR1 ; |526| 
    1730 00038f 3D4A  ||      MOV #4, AR2
    1731              
    1732 000391 1294          CMPU AR1 < AR2, TC1 ; |526| 
         000393 A4   
    1733 000394 6D64          BCC $C$L21,TC1 ; |526| 
         000396 FF32 
    1734                                                      ; branchcc occurs ; |526| 
    1735 000398       $C$DW$L$_CSL_nandIntrTest$44$E:
    1736 000398       $C$L28:    
    1737                      .dwpsn  file "../c5535_bsl_revc/ezdsp5535_v1/c55xx_csl/ccs_v4.0_examples/nand/CSL_NAND_IntrExample/cs
    1738 000398 ED31          MOV dbl(*(#_hNand)), XAR0
         00039a 8F00 
         00039c 0B48-
    1739              $C$DW$133       .dwtag  DW_TAG_TI_branch
    1740                      .dwattr $C$DW$133, DW_AT_low_pc(0x00)
    1741                      .dwattr $C$DW$133, DW_AT_name("_NAND_intrDisable")
    1742                      .dwattr $C$DW$133, DW_AT_TI_call
    1743 00039e 6C00          CALL #_NAND_intrDisable ; |569| 
         0003a0 0000!
TMS320C55x Assembler PC v4.4.1 Sat Sep 29 23:08:53 2018

Tools Copyright (c) 1996-2012 Texas Instruments Incorporated
csl_nand_intr_example.asm                                            PAGE   44

    1744                                                      ; call occurs [#_NAND_intrDisable] ; |569| 
    1745 0003a2 C464          MOV T0, *SP(#50) ; |569| 
    1746                      .dwpsn  file "../c5535_bsl_revc/ezdsp5535_v1/c55xx_csl/ccs_v4.0_examples/nand/CSL_NAND_IntrExample/cs
    1747 0003a4 2249          MOV T0, AR1
    1748 0003a6 0409          BCC $C$L29,AR1 == #0 ; |570| 
         0003a8 11   
    1749                                                      ; branchcc occurs ; |570| 
    1750                      .dwpsn  file "../c5535_bsl_revc/ezdsp5535_v1/c55xx_csl/ccs_v4.0_examples/nand/CSL_NAND_IntrExample/cs
    1751 0003a9 EC31          AMOV #$C$FSL39, XAR3 ; |572| 
         0003ab BE00 
         0003ad 02EC+
    1752 0003af EB00          MOV XAR3, dbl(*SP(#0))
         0003b1 B5   
    1753              $C$DW$134       .dwtag  DW_TAG_TI_branch
    1754                      .dwattr $C$DW$134, DW_AT_low_pc(0x00)
    1755                      .dwattr $C$DW$134, DW_AT_name("_printf")
    1756                      .dwattr $C$DW$134, DW_AT_TI_call
    1757 0003b2 6C00          CALL #_printf ; |572| 
         0003b4 0000!
    1758                                                      ; call occurs [#_printf] ; |572| 
    1759                      .dwpsn  file "../c5535_bsl_revc/ezdsp5535_v1/c55xx_csl/ccs_v4.0_examples/nand/CSL_NAND_IntrExample/cs
    1760 0003b6 A466          MOV *SP(#51), T0 ; |573| 
    1761 0003b8 4A05          B $C$L30  ; |573| 
    1762                                                      ; branch occurs ; |573| 
    1763 0003ba       $C$L29:    
    1764                      .dwpsn  file "../c5535_bsl_revc/ezdsp5535_v1/c55xx_csl/ccs_v4.0_examples/nand/CSL_NAND_IntrExample/cs
    1765 0003ba E666          MOV #0, *SP(#51) ; |576| 
         0003bc 00   
    1766                      .dwpsn  file "../c5535_bsl_revc/ezdsp5535_v1/c55xx_csl/ccs_v4.0_examples/nand/CSL_NAND_IntrExample/cs
    1767 0003bd A466          MOV *SP(#51), T0 ; |577| 
    1768 0003bf       $C$L30:    
    1769                      .dwpsn  file "../c5535_bsl_revc/ezdsp5535_v1/c55xx_csl/ccs_v4.0_examples/nand/CSL_NAND_IntrExample/cs
    1770 0003bf 4E3B          AADD #59, SP
    1771                      .dwcfi  cfa_offset, 1
    1772              $C$DW$135       .dwtag  DW_TAG_TI_branch
    1773                      .dwattr $C$DW$135, DW_AT_low_pc(0x00)
    1774                      .dwattr $C$DW$135, DW_AT_TI_return
    1775 0003c1 4804          RET
    1776                                                      ; return occurs
    1777              
    1778              $C$DW$136       .dwtag  DW_TAG_TI_loop
    1779                      .dwattr $C$DW$136, DW_AT_name("F:\eZdsp_DBG\tmp1\c55x-sim2\foo\Debug\csl_nand_intr_example.asm:$C$L21
    1780                      .dwattr $C$DW$136, DW_AT_TI_begin_file("../c5535_bsl_revc/ezdsp5535_v1/c55xx_csl/ccs_v4.0_examples/na
    1781                      .dwattr $C$DW$136, DW_AT_TI_begin_line(0x20e)
    1782                      .dwattr $C$DW$136, DW_AT_TI_end_line(0x236)
    1783              $C$DW$137       .dwtag  DW_TAG_TI_loop_range
    1784                      .dwattr $C$DW$137, DW_AT_low_pc($C$DW$L$_CSL_nandIntrTest$34$B)
    1785                      .dwattr $C$DW$137, DW_AT_high_pc($C$DW$L$_CSL_nandIntrTest$34$E)
    1786              $C$DW$138       .dwtag  DW_TAG_TI_loop_range
    1787                      .dwattr $C$DW$138, DW_AT_low_pc($C$DW$L$_CSL_nandIntrTest$36$B)
    1788                      .dwattr $C$DW$138, DW_AT_high_pc($C$DW$L$_CSL_nandIntrTest$36$E)
    1789              $C$DW$139       .dwtag  DW_TAG_TI_loop_range
    1790                      .dwattr $C$DW$139, DW_AT_low_pc($C$DW$L$_CSL_nandIntrTest$40$B)
    1791                      .dwattr $C$DW$139, DW_AT_high_pc($C$DW$L$_CSL_nandIntrTest$40$E)
    1792              $C$DW$140       .dwtag  DW_TAG_TI_loop_range
TMS320C55x Assembler PC v4.4.1 Sat Sep 29 23:08:53 2018

Tools Copyright (c) 1996-2012 Texas Instruments Incorporated
csl_nand_intr_example.asm                                            PAGE   45

    1793                      .dwattr $C$DW$140, DW_AT_low_pc($C$DW$L$_CSL_nandIntrTest$42$B)
    1794                      .dwattr $C$DW$140, DW_AT_high_pc($C$DW$L$_CSL_nandIntrTest$42$E)
    1795              $C$DW$141       .dwtag  DW_TAG_TI_loop_range
    1796                      .dwattr $C$DW$141, DW_AT_low_pc($C$DW$L$_CSL_nandIntrTest$44$B)
    1797                      .dwattr $C$DW$141, DW_AT_high_pc($C$DW$L$_CSL_nandIntrTest$44$E)
    1798              
    1799              $C$DW$142       .dwtag  DW_TAG_TI_loop
    1800                      .dwattr $C$DW$142, DW_AT_name("F:\eZdsp_DBG\tmp1\c55x-sim2\foo\Debug\csl_nand_intr_example.asm:$C$L23
    1801                      .dwattr $C$DW$142, DW_AT_TI_begin_file("../c5535_bsl_revc/ezdsp5535_v1/c55xx_csl/ccs_v4.0_examples/na
    1802                      .dwattr $C$DW$142, DW_AT_TI_begin_line(0x21b)
    1803                      .dwattr $C$DW$142, DW_AT_TI_end_line(0x225)
    1804              $C$DW$143       .dwtag  DW_TAG_TI_loop_range
    1805                      .dwattr $C$DW$143, DW_AT_low_pc($C$DW$L$_CSL_nandIntrTest$37$B)
    1806                      .dwattr $C$DW$143, DW_AT_high_pc($C$DW$L$_CSL_nandIntrTest$37$E)
    1807              $C$DW$144       .dwtag  DW_TAG_TI_loop_range
    1808                      .dwattr $C$DW$144, DW_AT_low_pc($C$DW$L$_CSL_nandIntrTest$39$B)
    1809                      .dwattr $C$DW$144, DW_AT_high_pc($C$DW$L$_CSL_nandIntrTest$39$E)
    1810                      .dwendtag $C$DW$142
    1811              
    1812              
    1813              $C$DW$145       .dwtag  DW_TAG_TI_loop
    1814                      .dwattr $C$DW$145, DW_AT_name("F:\eZdsp_DBG\tmp1\c55x-sim2\foo\Debug\csl_nand_intr_example.asm:$C$L26
    1815                      .dwattr $C$DW$145, DW_AT_TI_begin_file("../c5535_bsl_revc/ezdsp5535_v1/c55xx_csl/ccs_v4.0_examples/na
    1816                      .dwattr $C$DW$145, DW_AT_TI_begin_line(0x230)
    1817                      .dwattr $C$DW$145, DW_AT_TI_end_line(0x233)
    1818              $C$DW$146       .dwtag  DW_TAG_TI_loop_range
    1819                      .dwattr $C$DW$146, DW_AT_low_pc($C$DW$L$_CSL_nandIntrTest$43$B)
    1820                      .dwattr $C$DW$146, DW_AT_high_pc($C$DW$L$_CSL_nandIntrTest$43$E)
    1821                      .dwendtag $C$DW$145
    1822              
    1823                      .dwendtag $C$DW$136
    1824              
    1825              
    1826              $C$DW$147       .dwtag  DW_TAG_TI_loop
    1827                      .dwattr $C$DW$147, DW_AT_name("F:\eZdsp_DBG\tmp1\c55x-sim2\foo\Debug\csl_nand_intr_example.asm:$C$L3:
    1828                      .dwattr $C$DW$147, DW_AT_TI_begin_file("../c5535_bsl_revc/ezdsp5535_v1/c55xx_csl/ccs_v4.0_examples/na
    1829                      .dwattr $C$DW$147, DW_AT_TI_begin_line(0x179)
    1830                      .dwattr $C$DW$147, DW_AT_TI_end_line(0x17d)
    1831              $C$DW$148       .dwtag  DW_TAG_TI_loop_range
    1832                      .dwattr $C$DW$148, DW_AT_low_pc($C$DW$L$_CSL_nandIntrTest$2$B)
    1833                      .dwattr $C$DW$148, DW_AT_high_pc($C$DW$L$_CSL_nandIntrTest$2$E)
    1834                      .dwendtag $C$DW$147
    1835              
    1836                      .dwattr $C$DW$88, DW_AT_TI_end_file("../c5535_bsl_revc/ezdsp5535_v1/c55xx_csl/ccs_v4.0_examples/nand/
    1837                      .dwattr $C$DW$88, DW_AT_TI_end_line(0x242)
    1838                      .dwattr $C$DW$88, DW_AT_TI_end_column(0x01)
    1839                      .dwendentry
    1840                      .dwendtag $C$DW$88
    1841              
    1842 0003c3               .sect   ".text"
    1843                      .align 4
    1844                      .global _CSL_nandReadWrite
    1845              
    1846              $C$DW$149       .dwtag  DW_TAG_subprogram, DW_AT_name("CSL_nandReadWrite")
    1847                      .dwattr $C$DW$149, DW_AT_low_pc(_CSL_nandReadWrite)
TMS320C55x Assembler PC v4.4.1 Sat Sep 29 23:08:53 2018

Tools Copyright (c) 1996-2012 Texas Instruments Incorporated
csl_nand_intr_example.asm                                            PAGE   46

    1848                      .dwattr $C$DW$149, DW_AT_high_pc(0x00)
    1849                      .dwattr $C$DW$149, DW_AT_TI_symbol_name("_CSL_nandReadWrite")
    1850                      .dwattr $C$DW$149, DW_AT_external
    1851                      .dwattr $C$DW$149, DW_AT_type(*$C$DW$T$88)
    1852                      .dwattr $C$DW$149, DW_AT_TI_begin_file("../c5535_bsl_revc/ezdsp5535_v1/c55xx_csl/ccs_v4.0_examples/na
    1853                      .dwattr $C$DW$149, DW_AT_TI_begin_line(0x24c)
    1854                      .dwattr $C$DW$149, DW_AT_TI_begin_column(0x0c)
    1855                      .dwattr $C$DW$149, DW_AT_TI_max_frame_size(0x12)
    1856                      .dwpsn  file "../c5535_bsl_revc/ezdsp5535_v1/c55xx_csl/ccs_v4.0_examples/nand/CSL_NAND_IntrExample/cs
    1857              
    1858                      .dwfde $C$DW$CIE, _CSL_nandReadWrite
    1859              $C$DW$150       .dwtag  DW_TAG_formal_parameter, DW_AT_name("columnAddr")
    1860                      .dwattr $C$DW$150, DW_AT_TI_symbol_name("_columnAddr")
    1861                      .dwattr $C$DW$150, DW_AT_type(*$C$DW$T$19)
    1862                      .dwattr $C$DW$150, DW_AT_location[DW_OP_reg12]
    1863              $C$DW$151       .dwtag  DW_TAG_formal_parameter, DW_AT_name("rowAddr")
    1864                      .dwattr $C$DW$151, DW_AT_TI_symbol_name("_rowAddr")
    1865                      .dwattr $C$DW$151, DW_AT_type(*$C$DW$T$33)
    1866                      .dwattr $C$DW$151, DW_AT_location[DW_OP_reg0]
    1867              ;*******************************************************************************
    1868              ;* FUNCTION NAME: CSL_nandReadWrite                                            *
    1869              ;*                                                                             *
    1870              ;*   Function Uses Regs : AC0,AC0,T0,T1,AR0,XAR0,AR1,XAR1,AR2,AR3,XAR3,SP,     *
    1871              ;*                        CARRY,TC1,M40,SATA,SATD,RDM,FRCT,SMUL                *
    1872              ;*   Stack Frame        : Compact (No Frame Pointer, w/ debug)                 *
    1873              ;*   Total Frame Size   : 18 words                                             *
    1874              ;*                        (1 return address/alignment)                         *
    1875              ;*                        (2 function parameters)                              *
    1876              ;*                        (15 local values)                                    *
    1877              ;*   Min System Stack   : 1 word                                               *
    1878              ;*******************************************************************************
    1879 0003c4       _CSL_nandReadWrite:
    1880                      .dwcfi  cfa_offset, 1
    1881                      .dwcfi  save_reg_to_mem, 91, -1
    1882 0003c4 4EEF          AADD #-17, SP
    1883                      .dwcfi  cfa_offset, 18
    1884              $C$DW$152       .dwtag  DW_TAG_variable, DW_AT_name("columnAddr")
    1885                      .dwattr $C$DW$152, DW_AT_TI_symbol_name("_columnAddr")
    1886                      .dwattr $C$DW$152, DW_AT_type(*$C$DW$T$19)
    1887                      .dwattr $C$DW$152, DW_AT_location[DW_OP_bregx 0x24 2]
    1888              $C$DW$153       .dwtag  DW_TAG_variable, DW_AT_name("rowAddr")
    1889                      .dwattr $C$DW$153, DW_AT_TI_symbol_name("_rowAddr")
    1890                      .dwattr $C$DW$153, DW_AT_type(*$C$DW$T$33)
    1891                      .dwattr $C$DW$153, DW_AT_location[DW_OP_bregx 0x24 4]
    1892              $C$DW$154       .dwtag  DW_TAG_variable, DW_AT_name("status")
    1893                      .dwattr $C$DW$154, DW_AT_TI_symbol_name("_status")
    1894                      .dwattr $C$DW$154, DW_AT_type(*$C$DW$T$88)
    1895                      .dwattr $C$DW$154, DW_AT_location[DW_OP_bregx 0x24 6]
    1896              $C$DW$155       .dwtag  DW_TAG_variable, DW_AT_name("looper")
    1897                      .dwattr $C$DW$155, DW_AT_TI_symbol_name("_looper")
    1898                      .dwattr $C$DW$155, DW_AT_type(*$C$DW$T$19)
    1899                      .dwattr $C$DW$155, DW_AT_location[DW_OP_bregx 0x24 7]
    1900              $C$DW$156       .dwtag  DW_TAG_variable, DW_AT_name("tempAddr")
    1901                      .dwattr $C$DW$156, DW_AT_TI_symbol_name("_tempAddr")
    1902                      .dwattr $C$DW$156, DW_AT_type(*$C$DW$T$19)
TMS320C55x Assembler PC v4.4.1 Sat Sep 29 23:08:53 2018

Tools Copyright (c) 1996-2012 Texas Instruments Incorporated
csl_nand_intr_example.asm                                            PAGE   47

    1903                      .dwattr $C$DW$156, DW_AT_location[DW_OP_bregx 0x24 8]
    1904              $C$DW$157       .dwtag  DW_TAG_variable, DW_AT_name("eccBuf")
    1905                      .dwattr $C$DW$157, DW_AT_TI_symbol_name("_eccBuf")
    1906                      .dwattr $C$DW$157, DW_AT_type(*$C$DW$T$121)
    1907                      .dwattr $C$DW$157, DW_AT_location[DW_OP_bregx 0x24 9]
    1908 0003c6 EB08          MOV AC0, dbl(*SP(#4)) ; |589| 
         0003c8 08   
    1909 0003c9 C404          MOV T0, *SP(#2) ; |589| 
    1910                      .dwpsn  file "../c5535_bsl_revc/ezdsp5535_v1/c55xx_csl/ccs_v4.0_examples/nand/CSL_NAND_IntrExample/cs
    1911 0003cb E60C          MOV #0, *SP(#6) ; |595| 
         0003cd 00   
    1912                      .dwpsn  file "../c5535_bsl_revc/ezdsp5535_v1/c55xx_csl/ccs_v4.0_examples/nand/CSL_NAND_IntrExample/cs
    1913 0003ce ED31          MOV dbl(*(#_hNand)), XAR0
         0003d0 8F00 
         0003d2 0B48-
    1914 0003d4 7600          MOV #96, T0 ; |598| 
         0003d6 6048 
    1915              $C$DW$158       .dwtag  DW_TAG_TI_branch
    1916                      .dwattr $C$DW$158, DW_AT_low_pc(0x00)
    1917                      .dwattr $C$DW$158, DW_AT_name("_NAND_sendCommand")
    1918                      .dwattr $C$DW$158, DW_AT_TI_call
    1919 0003d8 6C00          CALL #_NAND_sendCommand ; |598| 
         0003da 0000!
    1920                                                      ; call occurs [#_NAND_sendCommand] ; |598| 
    1921 0003dc C40C          MOV T0, *SP(#6) ; |598| 
    1922                      .dwpsn  file "../c5535_bsl_revc/ezdsp5535_v1/c55xx_csl/ccs_v4.0_examples/nand/CSL_NAND_IntrExample/cs
    1923 0003de 2249          MOV T0, AR1
    1924 0003e0 0409          BCC $C$L31,AR1 == #0 ; |599| 
         0003e2 12   
    1925                                                      ; branchcc occurs ; |599| 
    1926                      .dwpsn  file "../c5535_bsl_revc/ezdsp5535_v1/c55xx_csl/ccs_v4.0_examples/nand/CSL_NAND_IntrExample/cs
    1927 0003e3 EC31          AMOV #$C$FSL31, XAR3 ; |601| 
         0003e5 BE00 
         0003e7 0200+
    1928 0003e9 EB00          MOV XAR3, dbl(*SP(#0))
         0003eb B5   
    1929              $C$DW$159       .dwtag  DW_TAG_TI_branch
    1930                      .dwattr $C$DW$159, DW_AT_low_pc(0x00)
    1931                      .dwattr $C$DW$159, DW_AT_name("_printf")
    1932                      .dwattr $C$DW$159, DW_AT_TI_call
    1933 0003ec 6C00          CALL #_printf ; |601| 
         0003ee 0000!
    1934                                                      ; call occurs [#_printf] ; |601| 
    1935                      .dwpsn  file "../c5535_bsl_revc/ezdsp5535_v1/c55xx_csl/ccs_v4.0_examples/nand/CSL_NAND_IntrExample/cs
    1936 0003f0 A40C          MOV *SP(#6), T0 ; |602| 
    1937 0003f2 0605          B $C$L68  ; |602| 
         0003f4 36   
    1938                                                      ; branch occurs ; |602| 
    1939 0003f5       $C$L31:    
    1940                      .dwpsn  file "../c5535_bsl_revc/ezdsp5535_v1/c55xx_csl/ccs_v4.0_examples/nand/CSL_NAND_IntrExample/cs
    1941 0003f5 ED31          MOV dbl(*(#_hNand)), XAR0
         0003f7 8F00 
         0003f9 0B48-
    1942              $C$DW$160       .dwtag  DW_TAG_TI_branch
    1943                      .dwattr $C$DW$160, DW_AT_low_pc(0x00)
TMS320C55x Assembler PC v4.4.1 Sat Sep 29 23:08:53 2018

Tools Copyright (c) 1996-2012 Texas Instruments Incorporated
csl_nand_intr_example.asm                                            PAGE   48

    1944                      .dwattr $C$DW$160, DW_AT_name("_NAND_checkCommandStatus")
    1945                      .dwattr $C$DW$160, DW_AT_TI_call
    1946 0003fb 6C00          CALL #_NAND_checkCommandStatus ; |606| 
         0003fd 0000!
    1947                                                      ; call occurs [#_NAND_checkCommandStatus] ; |606| 
    1948 0003ff C40C          MOV T0, *SP(#6) ; |606| 
    1949                      .dwpsn  file "../c5535_bsl_revc/ezdsp5535_v1/c55xx_csl/ccs_v4.0_examples/nand/CSL_NAND_IntrExample/cs
    1950 000401 2249          MOV T0, AR1
    1951 000403 0409          BCC $C$L32,AR1 == #0 ; |607| 
         000405 12   
    1952                                                      ; branchcc occurs ; |607| 
    1953                      .dwpsn  file "../c5535_bsl_revc/ezdsp5535_v1/c55xx_csl/ccs_v4.0_examples/nand/CSL_NAND_IntrExample/cs
    1954 000406 EC31          AMOV #$C$FSL32, XAR3 ; |609| 
         000408 BE00 
         00040a 021C+
    1955 00040c EB00          MOV XAR3, dbl(*SP(#0))
         00040e B5   
    1956              $C$DW$161       .dwtag  DW_TAG_TI_branch
    1957                      .dwattr $C$DW$161, DW_AT_low_pc(0x00)
    1958                      .dwattr $C$DW$161, DW_AT_name("_printf")
    1959                      .dwattr $C$DW$161, DW_AT_TI_call
    1960 00040f 6C00          CALL #_printf ; |609| 
         000411 0000!
    1961                                                      ; call occurs [#_printf] ; |609| 
    1962                      .dwpsn  file "../c5535_bsl_revc/ezdsp5535_v1/c55xx_csl/ccs_v4.0_examples/nand/CSL_NAND_IntrExample/cs
    1963 000413 A40C          MOV *SP(#6), T0 ; |610| 
    1964 000415 0605          B $C$L68  ; |610| 
         000417 13   
    1965                                                      ; branch occurs ; |610| 
    1966 000418       $C$L32:    
    1967                      .dwpsn  file "../c5535_bsl_revc/ezdsp5535_v1/c55xx_csl/ccs_v4.0_examples/nand/CSL_NAND_IntrExample/cs
    1968 000418 A90A          MOV *SP(#5), AR1 ; |614| 
    1969 00041a C910          MOV AR1, *SP(#8) ; |614| 
    1970                      .dwpsn  file "../c5535_bsl_revc/ezdsp5535_v1/c55xx_csl/ccs_v4.0_examples/nand/CSL_NAND_IntrExample/cs
    1971 00041c E60E          MOV #0, *SP(#7) ; |615| 
         00041e 00   
    1972                      .dwpsn  file "../c5535_bsl_revc/ezdsp5535_v1/c55xx_csl/ccs_v4.0_examples/nand/CSL_NAND_IntrExample/cs
    1973 00041f A931          MOV *(#_gRowAddrCycles), AR1 ; |615| 
         000421 000B 
         000423 51-  
    1974 000424 AA0E          MOV *SP(#7), AR2 ; |615| 
    1975 000426 12A8          CMPU AR2 >= AR1, TC1 ; |615| 
         000428 94   
    1976 000429 0464          BCC $C$L34,TC1 ; |615| 
         00042b 25   
    1977                                                      ; branchcc occurs ; |615| 
    1978 00042c       $C$L33:    
    1979 00042c       $C$DW$L$_CSL_nandReadWrite$6$B:
    1980                      .dwpsn  file "../c5535_bsl_revc/ezdsp5535_v1/c55xx_csl/ccs_v4.0_examples/nand/CSL_NAND_IntrExample/cs
    1981 00042c DF10          MOV uns(low_byte(*SP(#8))), T0 ; |617| 
         00042e 43   
    1982 00042f ED31          MOV dbl(*(#_hNand)), XAR0
         000431 8F00 
         000433 0B48-
    1983              $C$DW$162       .dwtag  DW_TAG_TI_branch
TMS320C55x Assembler PC v4.4.1 Sat Sep 29 23:08:53 2018

Tools Copyright (c) 1996-2012 Texas Instruments Incorporated
csl_nand_intr_example.asm                                            PAGE   49

    1984                      .dwattr $C$DW$162, DW_AT_low_pc(0x00)
    1985                      .dwattr $C$DW$162, DW_AT_name("_NAND_setAddress")
    1986                      .dwattr $C$DW$162, DW_AT_TI_call
    1987 000435 6C00          CALL #_NAND_setAddress ; |617| 
         000437 0000!
    1988                                                      ; call occurs [#_NAND_setAddress] ; |617| 
    1989 000439 C40C          MOV T0, *SP(#6) ; |617| 
    1990                      .dwpsn  file "../c5535_bsl_revc/ezdsp5535_v1/c55xx_csl/ccs_v4.0_examples/nand/CSL_NAND_IntrExample/cs
    1991 00043b DF10          MOV uns(high_byte(*SP(#8))), AR1 ; |618| 
         00043d 91   
    1992 00043e C910          MOV AR1, *SP(#8) ; |618| 
    1993                      .dwpsn  file "../c5535_bsl_revc/ezdsp5535_v1/c55xx_csl/ccs_v4.0_examples/nand/CSL_NAND_IntrExample/cs
    1994 000440 F70E          ADD #1, *SP(#7) ; |615| 
         000442 0001 
    1995                      .dwpsn  file "../c5535_bsl_revc/ezdsp5535_v1/c55xx_csl/ccs_v4.0_examples/nand/CSL_NAND_IntrExample/cs
    1996 000444 A931          MOV *(#_gRowAddrCycles), AR1 ; |615| 
         000446 000B 
         000448 51-  
    1997 000449 AA0E          MOV *SP(#7), AR2 ; |615| 
    1998 00044b 12A4          CMPU AR2 < AR1, TC1 ; |615| 
         00044d 94   
    1999 00044e 0464          BCC $C$L33,TC1 ; |615| 
         000450 DB   
    2000                                                      ; branchcc occurs ; |615| 
    2001 000451       $C$DW$L$_CSL_nandReadWrite$6$E:
    2002 000451       $C$L34:    
    2003                      .dwpsn  file "../c5535_bsl_revc/ezdsp5535_v1/c55xx_csl/ccs_v4.0_examples/nand/CSL_NAND_IntrExample/cs
    2004 000451 ED31          MOV dbl(*(#_hNand)), XAR0
         000453 8F00 
         000455 0B48-
    2005 000457 7600          MOV #208, T0 ; |622| 
         000459 D048 
    2006              $C$DW$163       .dwtag  DW_TAG_TI_branch
    2007                      .dwattr $C$DW$163, DW_AT_low_pc(0x00)
    2008                      .dwattr $C$DW$163, DW_AT_name("_NAND_sendCommand")
    2009                      .dwattr $C$DW$163, DW_AT_TI_call
    2010 00045b 6C00          CALL #_NAND_sendCommand ; |622| 
         00045d 0000!
    2011                                                      ; call occurs [#_NAND_sendCommand] ; |622| 
    2012 00045f C40C          MOV T0, *SP(#6) ; |622| 
    2013                      .dwpsn  file "../c5535_bsl_revc/ezdsp5535_v1/c55xx_csl/ccs_v4.0_examples/nand/CSL_NAND_IntrExample/cs
    2014 000461 2249          MOV T0, AR1
    2015 000463 0409          BCC $C$L35,AR1 == #0 ; |623| 
         000465 12   
    2016                                                      ; branchcc occurs ; |623| 
    2017                      .dwpsn  file "../c5535_bsl_revc/ezdsp5535_v1/c55xx_csl/ccs_v4.0_examples/nand/CSL_NAND_IntrExample/cs
    2018 000466 EC31          AMOV #$C$FSL31, XAR3 ; |625| 
         000468 BE00 
         00046a 0200+
    2019 00046c EB00          MOV XAR3, dbl(*SP(#0))
         00046e B5   
    2020              $C$DW$164       .dwtag  DW_TAG_TI_branch
    2021                      .dwattr $C$DW$164, DW_AT_low_pc(0x00)
    2022                      .dwattr $C$DW$164, DW_AT_name("_printf")
    2023                      .dwattr $C$DW$164, DW_AT_TI_call
TMS320C55x Assembler PC v4.4.1 Sat Sep 29 23:08:53 2018

Tools Copyright (c) 1996-2012 Texas Instruments Incorporated
csl_nand_intr_example.asm                                            PAGE   50

    2024 00046f 6C00          CALL #_printf ; |625| 
         000471 0000!
    2025                                                      ; call occurs [#_printf] ; |625| 
    2026                      .dwpsn  file "../c5535_bsl_revc/ezdsp5535_v1/c55xx_csl/ccs_v4.0_examples/nand/CSL_NAND_IntrExample/cs
    2027 000473 A40C          MOV *SP(#6), T0 ; |626| 
    2028 000475 0604          B $C$L68  ; |626| 
         000477 B3   
    2029                                                      ; branch occurs ; |626| 
    2030 000478       $C$L35:    
    2031                      .dwpsn  file "../c5535_bsl_revc/ezdsp5535_v1/c55xx_csl/ccs_v4.0_examples/nand/CSL_NAND_IntrExample/cs
    2032 000478 ED31          MOV dbl(*(#_hNand)), XAR0
         00047a 8F00 
         00047c 0B48-
    2033              $C$DW$165       .dwtag  DW_TAG_TI_branch
    2034                      .dwattr $C$DW$165, DW_AT_low_pc(0x00)
    2035                      .dwattr $C$DW$165, DW_AT_name("_NAND_checkCommandStatus")
    2036                      .dwattr $C$DW$165, DW_AT_TI_call
    2037 00047e 6C00          CALL #_NAND_checkCommandStatus ; |630| 
         000480 0000!
    2038                                                      ; call occurs [#_NAND_checkCommandStatus] ; |630| 
    2039 000482 C40C          MOV T0, *SP(#6) ; |630| 
    2040                      .dwpsn  file "../c5535_bsl_revc/ezdsp5535_v1/c55xx_csl/ccs_v4.0_examples/nand/CSL_NAND_IntrExample/cs
    2041 000484 2249          MOV T0, AR1
    2042 000486 0409          BCC $C$L36,AR1 == #0 ; |631| 
         000488 12   
    2043                                                      ; branchcc occurs ; |631| 
    2044                      .dwpsn  file "../c5535_bsl_revc/ezdsp5535_v1/c55xx_csl/ccs_v4.0_examples/nand/CSL_NAND_IntrExample/cs
    2045 000489 EC31          AMOV #$C$FSL32, XAR3 ; |633| 
         00048b BE00 
         00048d 021C+
    2046 00048f EB00          MOV XAR3, dbl(*SP(#0))
         000491 B5   
    2047              $C$DW$166       .dwtag  DW_TAG_TI_branch
    2048                      .dwattr $C$DW$166, DW_AT_low_pc(0x00)
    2049                      .dwattr $C$DW$166, DW_AT_name("_printf")
    2050                      .dwattr $C$DW$166, DW_AT_TI_call
    2051 000492 6C00          CALL #_printf ; |633| 
         000494 0000!
    2052                                                      ; call occurs [#_printf] ; |633| 
    2053                      .dwpsn  file "../c5535_bsl_revc/ezdsp5535_v1/c55xx_csl/ccs_v4.0_examples/nand/CSL_NAND_IntrExample/cs
    2054 000496 A40C          MOV *SP(#6), T0 ; |634| 
    2055 000498 0604          B $C$L68  ; |634| 
         00049a 90   
    2056                                                      ; branch occurs ; |634| 
    2057 00049b       $C$L36:    
    2058                      .dwpsn  file "../c5535_bsl_revc/ezdsp5535_v1/c55xx_csl/ccs_v4.0_examples/nand/CSL_NAND_IntrExample/cs
    2059 00049b ED31          MOV dbl(*(#_hNand)), XAR0
         00049d 8F00 
         00049f 0B48-
    2060 0004a1 7600          MOV #128, T0 ; |638| 
         0004a3 8048 
    2061              $C$DW$167       .dwtag  DW_TAG_TI_branch
    2062                      .dwattr $C$DW$167, DW_AT_low_pc(0x00)
    2063                      .dwattr $C$DW$167, DW_AT_name("_NAND_sendCommand")
    2064                      .dwattr $C$DW$167, DW_AT_TI_call
TMS320C55x Assembler PC v4.4.1 Sat Sep 29 23:08:53 2018

Tools Copyright (c) 1996-2012 Texas Instruments Incorporated
csl_nand_intr_example.asm                                            PAGE   51

    2065 0004a5 6C00          CALL #_NAND_sendCommand ; |638| 
         0004a7 0000!
    2066                                                      ; call occurs [#_NAND_sendCommand] ; |638| 
    2067 0004a9 C40C          MOV T0, *SP(#6) ; |638| 
    2068                      .dwpsn  file "../c5535_bsl_revc/ezdsp5535_v1/c55xx_csl/ccs_v4.0_examples/nand/CSL_NAND_IntrExample/cs
    2069 0004ab 2249          MOV T0, AR1
    2070 0004ad 0409          BCC $C$L37,AR1 == #0 ; |639| 
         0004af 12   
    2071                                                      ; branchcc occurs ; |639| 
    2072                      .dwpsn  file "../c5535_bsl_revc/ezdsp5535_v1/c55xx_csl/ccs_v4.0_examples/nand/CSL_NAND_IntrExample/cs
    2073 0004b0 EC31          AMOV #$C$FSL31, XAR3 ; |641| 
         0004b2 BE00 
         0004b4 0200+
    2074 0004b6 EB00          MOV XAR3, dbl(*SP(#0))
         0004b8 B5   
    2075              $C$DW$168       .dwtag  DW_TAG_TI_branch
    2076                      .dwattr $C$DW$168, DW_AT_low_pc(0x00)
    2077                      .dwattr $C$DW$168, DW_AT_name("_printf")
    2078                      .dwattr $C$DW$168, DW_AT_TI_call
    2079 0004b9 6C00          CALL #_printf ; |641| 
         0004bb 0000!
    2080                                                      ; call occurs [#_printf] ; |641| 
    2081                      .dwpsn  file "../c5535_bsl_revc/ezdsp5535_v1/c55xx_csl/ccs_v4.0_examples/nand/CSL_NAND_IntrExample/cs
    2082 0004bd A40C          MOV *SP(#6), T0 ; |642| 
    2083 0004bf 0604          B $C$L68  ; |642| 
         0004c1 69   
    2084                                                      ; branch occurs ; |642| 
    2085 0004c2       $C$L37:    
    2086                      .dwpsn  file "../c5535_bsl_revc/ezdsp5535_v1/c55xx_csl/ccs_v4.0_examples/nand/CSL_NAND_IntrExample/cs
    2087 0004c2 ED31          MOV dbl(*(#_hNand)), XAR0
         0004c4 8F00 
         0004c6 0B48-
    2088              $C$DW$169       .dwtag  DW_TAG_TI_branch
    2089                      .dwattr $C$DW$169, DW_AT_low_pc(0x00)
    2090                      .dwattr $C$DW$169, DW_AT_name("_NAND_checkCommandStatus")
    2091                      .dwattr $C$DW$169, DW_AT_TI_call
    2092 0004c8 6C00          CALL #_NAND_checkCommandStatus ; |646| 
         0004ca 0000!
    2093                                                      ; call occurs [#_NAND_checkCommandStatus] ; |646| 
    2094 0004cc C40C          MOV T0, *SP(#6) ; |646| 
    2095                      .dwpsn  file "../c5535_bsl_revc/ezdsp5535_v1/c55xx_csl/ccs_v4.0_examples/nand/CSL_NAND_IntrExample/cs
    2096 0004ce 2249          MOV T0, AR1
    2097 0004d0 0409          BCC $C$L38,AR1 == #0 ; |647| 
         0004d2 12   
    2098                                                      ; branchcc occurs ; |647| 
    2099                      .dwpsn  file "../c5535_bsl_revc/ezdsp5535_v1/c55xx_csl/ccs_v4.0_examples/nand/CSL_NAND_IntrExample/cs
    2100 0004d3 EC31          AMOV #$C$FSL32, XAR3 ; |649| 
         0004d5 BE00 
         0004d7 021C+
    2101 0004d9 EB00          MOV XAR3, dbl(*SP(#0))
         0004db B5   
    2102              $C$DW$170       .dwtag  DW_TAG_TI_branch
    2103                      .dwattr $C$DW$170, DW_AT_low_pc(0x00)
    2104                      .dwattr $C$DW$170, DW_AT_name("_printf")
    2105                      .dwattr $C$DW$170, DW_AT_TI_call
TMS320C55x Assembler PC v4.4.1 Sat Sep 29 23:08:53 2018

Tools Copyright (c) 1996-2012 Texas Instruments Incorporated
csl_nand_intr_example.asm                                            PAGE   52

    2106 0004dc 6C00          CALL #_printf ; |649| 
         0004de 0000!
    2107                                                      ; call occurs [#_printf] ; |649| 
    2108                      .dwpsn  file "../c5535_bsl_revc/ezdsp5535_v1/c55xx_csl/ccs_v4.0_examples/nand/CSL_NAND_IntrExample/cs
    2109 0004e0 A40C          MOV *SP(#6), T0 ; |650| 
    2110 0004e2 0604          B $C$L68  ; |650| 
         0004e4 46   
    2111                                                      ; branch occurs ; |650| 
    2112 0004e5       $C$L38:    
    2113                      .dwpsn  file "../c5535_bsl_revc/ezdsp5535_v1/c55xx_csl/ccs_v4.0_examples/nand/CSL_NAND_IntrExample/cs
    2114 0004e5 A904          MOV *SP(#2), AR1 ; |654| 
    2115 0004e7 C910          MOV AR1, *SP(#8) ; |654| 
    2116                      .dwpsn  file "../c5535_bsl_revc/ezdsp5535_v1/c55xx_csl/ccs_v4.0_examples/nand/CSL_NAND_IntrExample/cs
    2117 0004e9 E60E          MOV #0, *SP(#7) ; |655| 
         0004eb 00   
    2118                      .dwpsn  file "../c5535_bsl_revc/ezdsp5535_v1/c55xx_csl/ccs_v4.0_examples/nand/CSL_NAND_IntrExample/cs
    2119 0004ec A931          MOV *(#_gColAddrCycles), AR1 ; |655| 
         0004ee 000B 
         0004f0 52-  
    2120 0004f1 AA0E          MOV *SP(#7), AR2 ; |655| 
    2121 0004f3 12A8          CMPU AR2 >= AR1, TC1 ; |655| 
         0004f5 94   
    2122 0004f6 0464          BCC $C$L40,TC1 ; |655| 
         0004f8 25   
    2123                                                      ; branchcc occurs ; |655| 
    2124 0004f9       $C$L39:    
    2125 0004f9       $C$DW$L$_CSL_nandReadWrite$16$B:
    2126                      .dwpsn  file "../c5535_bsl_revc/ezdsp5535_v1/c55xx_csl/ccs_v4.0_examples/nand/CSL_NAND_IntrExample/cs
    2127 0004f9 DF10          MOV uns(low_byte(*SP(#8))), T0 ; |657| 
         0004fb 43   
    2128 0004fc ED31          MOV dbl(*(#_hNand)), XAR0
         0004fe 8F00 
         000500 0B48-
    2129              $C$DW$171       .dwtag  DW_TAG_TI_branch
    2130                      .dwattr $C$DW$171, DW_AT_low_pc(0x00)
    2131                      .dwattr $C$DW$171, DW_AT_name("_NAND_setAddress")
    2132                      .dwattr $C$DW$171, DW_AT_TI_call
    2133 000502 6C00          CALL #_NAND_setAddress ; |657| 
         000504 0000!
    2134                                                      ; call occurs [#_NAND_setAddress] ; |657| 
    2135 000506 C40C          MOV T0, *SP(#6) ; |657| 
    2136                      .dwpsn  file "../c5535_bsl_revc/ezdsp5535_v1/c55xx_csl/ccs_v4.0_examples/nand/CSL_NAND_IntrExample/cs
    2137 000508 DF10          MOV uns(high_byte(*SP(#8))), AR1 ; |658| 
         00050a 91   
    2138 00050b C910          MOV AR1, *SP(#8) ; |658| 
    2139                      .dwpsn  file "../c5535_bsl_revc/ezdsp5535_v1/c55xx_csl/ccs_v4.0_examples/nand/CSL_NAND_IntrExample/cs
    2140 00050d F70E          ADD #1, *SP(#7) ; |655| 
         00050f 0001 
    2141                      .dwpsn  file "../c5535_bsl_revc/ezdsp5535_v1/c55xx_csl/ccs_v4.0_examples/nand/CSL_NAND_IntrExample/cs
    2142 000511 A931          MOV *(#_gColAddrCycles), AR1 ; |655| 
         000513 000B 
         000515 52-  
    2143 000516 AA0E          MOV *SP(#7), AR2 ; |655| 
    2144 000518 12A4          CMPU AR2 < AR1, TC1 ; |655| 
         00051a 94   
TMS320C55x Assembler PC v4.4.1 Sat Sep 29 23:08:53 2018

Tools Copyright (c) 1996-2012 Texas Instruments Incorporated
csl_nand_intr_example.asm                                            PAGE   53

    2145 00051b 0464          BCC $C$L39,TC1 ; |655| 
         00051d DB   
    2146                                                      ; branchcc occurs ; |655| 
    2147 00051e       $C$DW$L$_CSL_nandReadWrite$16$E:
    2148 00051e       $C$L40:    
    2149                      .dwpsn  file "../c5535_bsl_revc/ezdsp5535_v1/c55xx_csl/ccs_v4.0_examples/nand/CSL_NAND_IntrExample/cs
    2150 00051e A90A          MOV *SP(#5), AR1 ; |662| 
    2151 000520 C910          MOV AR1, *SP(#8) ; |662| 
    2152                      .dwpsn  file "../c5535_bsl_revc/ezdsp5535_v1/c55xx_csl/ccs_v4.0_examples/nand/CSL_NAND_IntrExample/cs
    2153 000522 E60E          MOV #0, *SP(#7) ; |663| 
         000524 00   
    2154                      .dwpsn  file "../c5535_bsl_revc/ezdsp5535_v1/c55xx_csl/ccs_v4.0_examples/nand/CSL_NAND_IntrExample/cs
    2155 000525 A931          MOV *(#_gRowAddrCycles), AR1 ; |663| 
         000527 000B 
         000529 51-  
    2156 00052a AA0E          MOV *SP(#7), AR2 ; |663| 
    2157 00052c 12A8          CMPU AR2 >= AR1, TC1 ; |663| 
         00052e 94   
    2158 00052f 0464          BCC $C$L42,TC1 ; |663| 
         000531 25   
    2159                                                      ; branchcc occurs ; |663| 
    2160 000532       $C$L41:    
    2161 000532       $C$DW$L$_CSL_nandReadWrite$18$B:
    2162                      .dwpsn  file "../c5535_bsl_revc/ezdsp5535_v1/c55xx_csl/ccs_v4.0_examples/nand/CSL_NAND_IntrExample/cs
    2163 000532 DF10          MOV uns(low_byte(*SP(#8))), T0 ; |665| 
         000534 43   
    2164 000535 ED31          MOV dbl(*(#_hNand)), XAR0
         000537 8F00 
         000539 0B48-
    2165              $C$DW$172       .dwtag  DW_TAG_TI_branch
    2166                      .dwattr $C$DW$172, DW_AT_low_pc(0x00)
    2167                      .dwattr $C$DW$172, DW_AT_name("_NAND_setAddress")
    2168                      .dwattr $C$DW$172, DW_AT_TI_call
    2169 00053b 6C00          CALL #_NAND_setAddress ; |665| 
         00053d 0000!
    2170                                                      ; call occurs [#_NAND_setAddress] ; |665| 
    2171 00053f C40C          MOV T0, *SP(#6) ; |665| 
    2172                      .dwpsn  file "../c5535_bsl_revc/ezdsp5535_v1/c55xx_csl/ccs_v4.0_examples/nand/CSL_NAND_IntrExample/cs
    2173 000541 DF10          MOV uns(high_byte(*SP(#8))), AR1 ; |666| 
         000543 91   
    2174 000544 C910          MOV AR1, *SP(#8) ; |666| 
    2175                      .dwpsn  file "../c5535_bsl_revc/ezdsp5535_v1/c55xx_csl/ccs_v4.0_examples/nand/CSL_NAND_IntrExample/cs
    2176 000546 F70E          ADD #1, *SP(#7) ; |663| 
         000548 0001 
    2177                      .dwpsn  file "../c5535_bsl_revc/ezdsp5535_v1/c55xx_csl/ccs_v4.0_examples/nand/CSL_NAND_IntrExample/cs
    2178 00054a A931          MOV *(#_gRowAddrCycles), AR1 ; |663| 
         00054c 000B 
         00054e 51-  
    2179 00054f AA0E          MOV *SP(#7), AR2 ; |663| 
    2180 000551 12A4          CMPU AR2 < AR1, TC1 ; |663| 
         000553 94   
    2181 000554 0464          BCC $C$L41,TC1 ; |663| 
         000556 DB   
    2182                                                      ; branchcc occurs ; |663| 
    2183 000557       $C$DW$L$_CSL_nandReadWrite$18$E:
TMS320C55x Assembler PC v4.4.1 Sat Sep 29 23:08:53 2018

Tools Copyright (c) 1996-2012 Texas Instruments Incorporated
csl_nand_intr_example.asm                                            PAGE   54

    2184 000557       $C$L42:    
    2185                      .dwpsn  file "../c5535_bsl_revc/ezdsp5535_v1/c55xx_csl/ccs_v4.0_examples/nand/CSL_NAND_IntrExample/cs
    2186 000557 ED31          MOV dbl(*(#_hNand)), XAR0
         000559 8F00 
         00055b 0B48-
    2187 00055d A431          MOV *(#_chipSel), T0 ; |670| 
         00055f 000B 
         000561 53-  
    2188              $C$DW$173       .dwtag  DW_TAG_TI_branch
    2189                      .dwattr $C$DW$173, DW_AT_low_pc(0x00)
    2190                      .dwattr $C$DW$173, DW_AT_name("_NAND_enableHwECC")
    2191                      .dwattr $C$DW$173, DW_AT_TI_call
    2192 000562 6C00          CALL #_NAND_enableHwECC ; |670| 
         000564 0000!
    2193                                                      ; call occurs [#_NAND_enableHwECC] ; |670| 
    2194 000566 C40C          MOV T0, *SP(#6) ; |670| 
    2195                      .dwpsn  file "../c5535_bsl_revc/ezdsp5535_v1/c55xx_csl/ccs_v4.0_examples/nand/CSL_NAND_IntrExample/cs
    2196 000568 2249          MOV T0, AR1
    2197 00056a 0409          BCC $C$L43,AR1 == #0 ; |671| 
         00056c 12   
    2198                                                      ; branchcc occurs ; |671| 
    2199                      .dwpsn  file "../c5535_bsl_revc/ezdsp5535_v1/c55xx_csl/ccs_v4.0_examples/nand/CSL_NAND_IntrExample/cs
    2200 00056d EC31          AMOV #$C$FSL40, XAR3 ; |673| 
         00056f BE00 
         000571 030E+
    2201 000573 EB00          MOV XAR3, dbl(*SP(#0))
         000575 B5   
    2202              $C$DW$174       .dwtag  DW_TAG_TI_branch
    2203                      .dwattr $C$DW$174, DW_AT_low_pc(0x00)
    2204                      .dwattr $C$DW$174, DW_AT_name("_printf")
    2205                      .dwattr $C$DW$174, DW_AT_TI_call
    2206 000576 6C00          CALL #_printf ; |673| 
         000578 0000!
    2207                                                      ; call occurs [#_printf] ; |673| 
    2208                      .dwpsn  file "../c5535_bsl_revc/ezdsp5535_v1/c55xx_csl/ccs_v4.0_examples/nand/CSL_NAND_IntrExample/cs
    2209 00057a A40C          MOV *SP(#6), T0 ; |674| 
    2210 00057c 0603          B $C$L68  ; |674| 
         00057e AC   
    2211                                                      ; branch occurs ; |674| 
    2212 00057f       $C$L43:    
    2213                      .dwpsn  file "../c5535_bsl_revc/ezdsp5535_v1/c55xx_csl/ccs_v4.0_examples/nand/CSL_NAND_IntrExample/cs
    2214 00057f ED31          MOV dbl(*(#_hNand)), XAR0
         000581 8F00 
         000583 0B48-
    2215 000585 A431          MOV *(#_gNandPageSize), T0 ; |678| 
         000587 000B 
         000589 50-  
    2216 00058a EC31          AMOV #_gnandIntrWriteBuf, XAR1 ; |678| 
         00058c 9E00 
         00058e 0748-
    2217 000590 3C05          MOV #0, T1
    2218              $C$DW$175       .dwtag  DW_TAG_TI_branch
    2219                      .dwattr $C$DW$175, DW_AT_low_pc(0x00)
    2220                      .dwattr $C$DW$175, DW_AT_name("_NAND_writeNBytes")
    2221                      .dwattr $C$DW$175, DW_AT_TI_call
TMS320C55x Assembler PC v4.4.1 Sat Sep 29 23:08:53 2018

Tools Copyright (c) 1996-2012 Texas Instruments Incorporated
csl_nand_intr_example.asm                                            PAGE   55

    2222              
    2223 000592 6C00          CALL #_NAND_writeNBytes ; |678| 
         000594 0000!
    2224 000596 3D0A  ||      MOV #0, AR2
    2225              
    2226                                                      ; call occurs [#_NAND_writeNBytes] ; |678| 
    2227 000598 C40C          MOV T0, *SP(#6) ; |678| 
    2228                      .dwpsn  file "../c5535_bsl_revc/ezdsp5535_v1/c55xx_csl/ccs_v4.0_examples/nand/CSL_NAND_IntrExample/cs
    2229 00059a 2249          MOV T0, AR1
    2230 00059c 0409          BCC $C$L44,AR1 == #0 ; |679| 
         00059e 12   
    2231                                                      ; branchcc occurs ; |679| 
    2232                      .dwpsn  file "../c5535_bsl_revc/ezdsp5535_v1/c55xx_csl/ccs_v4.0_examples/nand/CSL_NAND_IntrExample/cs
    2233 00059f EC31          AMOV #$C$FSL41, XAR3 ; |681| 
         0005a1 BE00 
         0005a3 0328+
    2234 0005a5 EB00          MOV XAR3, dbl(*SP(#0))
         0005a7 B5   
    2235              $C$DW$176       .dwtag  DW_TAG_TI_branch
    2236                      .dwattr $C$DW$176, DW_AT_low_pc(0x00)
    2237                      .dwattr $C$DW$176, DW_AT_name("_printf")
    2238                      .dwattr $C$DW$176, DW_AT_TI_call
    2239 0005a8 6C00          CALL #_printf ; |681| 
         0005aa 0000!
    2240                                                      ; call occurs [#_printf] ; |681| 
    2241                      .dwpsn  file "../c5535_bsl_revc/ezdsp5535_v1/c55xx_csl/ccs_v4.0_examples/nand/CSL_NAND_IntrExample/cs
    2242 0005ac A40C          MOV *SP(#6), T0 ; |682| 
    2243 0005ae 0603          B $C$L68  ; |682| 
         0005b0 7A   
    2244                                                      ; branch occurs ; |682| 
    2245 0005b1       $C$L44:    
    2246                      .dwpsn  file "../c5535_bsl_revc/ezdsp5535_v1/c55xx_csl/ccs_v4.0_examples/nand/CSL_NAND_IntrExample/cs
    2247 0005b1 EC31          AMOV #$C$FSL42, XAR3 ; |686| 
         0005b3 BE00 
         0005b5 033E+
    2248 0005b7 EB00          MOV XAR3, dbl(*SP(#0))
         0005b9 B5   
    2249              $C$DW$177       .dwtag  DW_TAG_TI_branch
    2250                      .dwattr $C$DW$177, DW_AT_low_pc(0x00)
    2251                      .dwattr $C$DW$177, DW_AT_name("_printf")
    2252                      .dwattr $C$DW$177, DW_AT_TI_call
    2253 0005ba 6C00          CALL #_printf ; |686| 
         0005bc 0000!
    2254                                                      ; call occurs [#_printf] ; |686| 
    2255                      .dwpsn  file "../c5535_bsl_revc/ezdsp5535_v1/c55xx_csl/ccs_v4.0_examples/nand/CSL_NAND_IntrExample/cs
    2256 0005be A431          MOV *(#_chipSel), T0 ; |690| 
         0005c0 000B 
         0005c2 53-  
    2257 0005c3 EC12          AMAR *SP(#9), XAR1
         0005c5 9E   
    2258 0005c6 ED31          MOV dbl(*(#_hNand)), XAR0
         0005c8 8F00 
         0005ca 0B48-
    2259              $C$DW$178       .dwtag  DW_TAG_TI_branch
    2260                      .dwattr $C$DW$178, DW_AT_low_pc(0x00)
TMS320C55x Assembler PC v4.4.1 Sat Sep 29 23:08:53 2018

Tools Copyright (c) 1996-2012 Texas Instruments Incorporated
csl_nand_intr_example.asm                                            PAGE   56

    2261                      .dwattr $C$DW$178, DW_AT_name("_NAND_readECC")
    2262                      .dwattr $C$DW$178, DW_AT_TI_call
    2263 0005cc 6C00          CALL #_NAND_readECC ; |690| 
         0005ce 0000!
    2264                                                      ; call occurs [#_NAND_readECC] ; |690| 
    2265 0005d0 C40C          MOV T0, *SP(#6) ; |690| 
    2266                      .dwpsn  file "../c5535_bsl_revc/ezdsp5535_v1/c55xx_csl/ccs_v4.0_examples/nand/CSL_NAND_IntrExample/cs
    2267 0005d2 2249          MOV T0, AR1
    2268 0005d4 0409          BCC $C$L45,AR1 == #0 ; |691| 
         0005d6 12   
    2269                                                      ; branchcc occurs ; |691| 
    2270                      .dwpsn  file "../c5535_bsl_revc/ezdsp5535_v1/c55xx_csl/ccs_v4.0_examples/nand/CSL_NAND_IntrExample/cs
    2271 0005d7 EC31          AMOV #$C$FSL43, XAR3 ; |693| 
         0005d9 BE00 
         0005db 0356+
    2272 0005dd EB00          MOV XAR3, dbl(*SP(#0))
         0005df B5   
    2273              $C$DW$179       .dwtag  DW_TAG_TI_branch
    2274                      .dwattr $C$DW$179, DW_AT_low_pc(0x00)
    2275                      .dwattr $C$DW$179, DW_AT_name("_printf")
    2276                      .dwattr $C$DW$179, DW_AT_TI_call
    2277 0005e0 6C00          CALL #_printf ; |693| 
         0005e2 0000!
    2278                                                      ; call occurs [#_printf] ; |693| 
    2279                      .dwpsn  file "../c5535_bsl_revc/ezdsp5535_v1/c55xx_csl/ccs_v4.0_examples/nand/CSL_NAND_IntrExample/cs
    2280 0005e4 A40C          MOV *SP(#6), T0 ; |694| 
    2281 0005e6 0603          B $C$L68  ; |694| 
         0005e8 42   
    2282                                                      ; branch occurs ; |694| 
    2283 0005e9       $C$L45:    
    2284                      .dwpsn  file "../c5535_bsl_revc/ezdsp5535_v1/c55xx_csl/ccs_v4.0_examples/nand/CSL_NAND_IntrExample/cs
    2285 0005e9 ED31          MOV dbl(*(#_hNand)), XAR0
         0005eb 8F00 
         0005ed 0B48-
    2286 0005ef A431          MOV *(#_chipSel), T0 ; |698| 
         0005f1 000B 
         0005f3 53-  
    2287              $C$DW$180       .dwtag  DW_TAG_TI_branch
    2288                      .dwattr $C$DW$180, DW_AT_low_pc(0x00)
    2289                      .dwattr $C$DW$180, DW_AT_name("_NAND_disableHwECC")
    2290                      .dwattr $C$DW$180, DW_AT_TI_call
    2291 0005f4 6C00          CALL #_NAND_disableHwECC ; |698| 
         0005f6 0000!
    2292                                                      ; call occurs [#_NAND_disableHwECC] ; |698| 
    2293 0005f8 C40C          MOV T0, *SP(#6) ; |698| 
    2294                      .dwpsn  file "../c5535_bsl_revc/ezdsp5535_v1/c55xx_csl/ccs_v4.0_examples/nand/CSL_NAND_IntrExample/cs
    2295 0005fa 2249          MOV T0, AR1
    2296 0005fc 0409          BCC $C$L46,AR1 == #0 ; |699| 
         0005fe 12   
    2297                                                      ; branchcc occurs ; |699| 
    2298                      .dwpsn  file "../c5535_bsl_revc/ezdsp5535_v1/c55xx_csl/ccs_v4.0_examples/nand/CSL_NAND_IntrExample/cs
    2299 0005ff EC31          AMOV #$C$FSL44, XAR3 ; |701| 
         000601 BE00 
         000603 036E+
    2300 000605 EB00          MOV XAR3, dbl(*SP(#0))
TMS320C55x Assembler PC v4.4.1 Sat Sep 29 23:08:53 2018

Tools Copyright (c) 1996-2012 Texas Instruments Incorporated
csl_nand_intr_example.asm                                            PAGE   57

         000607 B5   
    2301              $C$DW$181       .dwtag  DW_TAG_TI_branch
    2302                      .dwattr $C$DW$181, DW_AT_low_pc(0x00)
    2303                      .dwattr $C$DW$181, DW_AT_name("_printf")
    2304                      .dwattr $C$DW$181, DW_AT_TI_call
    2305 000608 6C00          CALL #_printf ; |701| 
         00060a 0000!
    2306                                                      ; call occurs [#_printf] ; |701| 
    2307                      .dwpsn  file "../c5535_bsl_revc/ezdsp5535_v1/c55xx_csl/ccs_v4.0_examples/nand/CSL_NAND_IntrExample/cs
    2308 00060c A40C          MOV *SP(#6), T0 ; |702| 
    2309 00060e 0603          B $C$L68  ; |702| 
         000610 1A   
    2310                                                      ; branch occurs ; |702| 
    2311 000611       $C$L46:    
    2312                      .dwpsn  file "../c5535_bsl_revc/ezdsp5535_v1/c55xx_csl/ccs_v4.0_examples/nand/CSL_NAND_IntrExample/cs
    2313 000611 ED31          MOV dbl(*(#_hNand)), XAR0
         000613 8F00 
         000615 0B48-
    2314 000617 7600          MOV #16, T0 ; |706| 
         000619 1048 
    2315              $C$DW$182       .dwtag  DW_TAG_TI_branch
    2316                      .dwattr $C$DW$182, DW_AT_low_pc(0x00)
    2317                      .dwattr $C$DW$182, DW_AT_name("_NAND_sendCommand")
    2318                      .dwattr $C$DW$182, DW_AT_TI_call
    2319 00061b 6C00          CALL #_NAND_sendCommand ; |706| 
         00061d 0000!
    2320                                                      ; call occurs [#_NAND_sendCommand] ; |706| 
    2321 00061f C40C          MOV T0, *SP(#6) ; |706| 
    2322                      .dwpsn  file "../c5535_bsl_revc/ezdsp5535_v1/c55xx_csl/ccs_v4.0_examples/nand/CSL_NAND_IntrExample/cs
    2323 000621 2249          MOV T0, AR1
    2324 000623 0409          BCC $C$L47,AR1 == #0 ; |707| 
         000625 12   
    2325                                                      ; branchcc occurs ; |707| 
    2326                      .dwpsn  file "../c5535_bsl_revc/ezdsp5535_v1/c55xx_csl/ccs_v4.0_examples/nand/CSL_NAND_IntrExample/cs
    2327 000626 EC31          AMOV #$C$FSL31, XAR3 ; |709| 
         000628 BE00 
         00062a 0200+
    2328 00062c EB00          MOV XAR3, dbl(*SP(#0))
         00062e B5   
    2329              $C$DW$183       .dwtag  DW_TAG_TI_branch
    2330                      .dwattr $C$DW$183, DW_AT_low_pc(0x00)
    2331                      .dwattr $C$DW$183, DW_AT_name("_printf")
    2332                      .dwattr $C$DW$183, DW_AT_TI_call
    2333 00062f 6C00          CALL #_printf ; |709| 
         000631 0000!
    2334                                                      ; call occurs [#_printf] ; |709| 
    2335                      .dwpsn  file "../c5535_bsl_revc/ezdsp5535_v1/c55xx_csl/ccs_v4.0_examples/nand/CSL_NAND_IntrExample/cs
    2336 000633 A40C          MOV *SP(#6), T0 ; |710| 
    2337 000635 0602          B $C$L68  ; |710| 
         000637 F3   
    2338                                                      ; branch occurs ; |710| 
    2339 000638       $C$L47:    
    2340                      .dwpsn  file "../c5535_bsl_revc/ezdsp5535_v1/c55xx_csl/ccs_v4.0_examples/nand/CSL_NAND_IntrExample/cs
    2341 000638 ED31          MOV dbl(*(#_hNand)), XAR0
         00063a 8F00 
TMS320C55x Assembler PC v4.4.1 Sat Sep 29 23:08:53 2018

Tools Copyright (c) 1996-2012 Texas Instruments Incorporated
csl_nand_intr_example.asm                                            PAGE   58

         00063c 0B48-
    2342              $C$DW$184       .dwtag  DW_TAG_TI_branch
    2343                      .dwattr $C$DW$184, DW_AT_low_pc(0x00)
    2344                      .dwattr $C$DW$184, DW_AT_name("_NAND_checkCommandStatus")
    2345                      .dwattr $C$DW$184, DW_AT_TI_call
    2346 00063e 6C00          CALL #_NAND_checkCommandStatus ; |714| 
         000640 0000!
    2347                                                      ; call occurs [#_NAND_checkCommandStatus] ; |714| 
    2348 000642 C40C          MOV T0, *SP(#6) ; |714| 
    2349                      .dwpsn  file "../c5535_bsl_revc/ezdsp5535_v1/c55xx_csl/ccs_v4.0_examples/nand/CSL_NAND_IntrExample/cs
    2350 000644 2249          MOV T0, AR1
    2351 000646 0409          BCC $C$L48,AR1 == #0 ; |715| 
         000648 12   
    2352                                                      ; branchcc occurs ; |715| 
    2353                      .dwpsn  file "../c5535_bsl_revc/ezdsp5535_v1/c55xx_csl/ccs_v4.0_examples/nand/CSL_NAND_IntrExample/cs
    2354 000649 EC31          AMOV #$C$FSL32, XAR3 ; |717| 
         00064b BE00 
         00064d 021C+
    2355 00064f EB00          MOV XAR3, dbl(*SP(#0))
         000651 B5   
    2356              $C$DW$185       .dwtag  DW_TAG_TI_branch
    2357                      .dwattr $C$DW$185, DW_AT_low_pc(0x00)
    2358                      .dwattr $C$DW$185, DW_AT_name("_printf")
    2359                      .dwattr $C$DW$185, DW_AT_TI_call
    2360 000652 6C00          CALL #_printf ; |717| 
         000654 0000!
    2361                                                      ; call occurs [#_printf] ; |717| 
    2362                      .dwpsn  file "../c5535_bsl_revc/ezdsp5535_v1/c55xx_csl/ccs_v4.0_examples/nand/CSL_NAND_IntrExample/cs
    2363 000656 A40C          MOV *SP(#6), T0 ; |718| 
    2364 000658 0602          B $C$L68  ; |718| 
         00065a D0   
    2365                                                      ; branch occurs ; |718| 
    2366 00065b       $C$L48:    
    2367                      .dwpsn  file "../c5535_bsl_revc/ezdsp5535_v1/c55xx_csl/ccs_v4.0_examples/nand/CSL_NAND_IntrExample/cs
    2368 00065b ED31          MOV dbl(*(#_hNand)), XAR0
         00065d 8F00 
         00065f 0B48-
    2369 000661 EC31          AMOV #_ltStatus, XAR1 ; |722| 
         000663 9E00 
         000665 0B4B-
    2370              $C$DW$186       .dwtag  DW_TAG_TI_branch
    2371                      .dwattr $C$DW$186, DW_AT_low_pc(0x00)
    2372                      .dwattr $C$DW$186, DW_AT_name("_NAND_intrReadLT")
    2373                      .dwattr $C$DW$186, DW_AT_TI_call
    2374 000667 6C00          CALL #_NAND_intrReadLT ; |722| 
         000669 0000!
    2375                                                      ; call occurs [#_NAND_intrReadLT] ; |722| 
    2376 00066b C40C          MOV T0, *SP(#6) ; |722| 
    2377                      .dwpsn  file "../c5535_bsl_revc/ezdsp5535_v1/c55xx_csl/ccs_v4.0_examples/nand/CSL_NAND_IntrExample/cs
    2378 00066d F031          CMP *(#_ltStatus) == #1, TC1 ; |723| 
         00066f 0001 
         000671 000B 
         000673 4B-  
    2379 000674 0474          BCC $C$L49,!TC1 ; |723| 
         000676 1E   
TMS320C55x Assembler PC v4.4.1 Sat Sep 29 23:08:53 2018

Tools Copyright (c) 1996-2012 Texas Instruments Incorporated
csl_nand_intr_example.asm                                            PAGE   59

    2380                                                      ; branchcc occurs ; |723| 
    2381                      .dwpsn  file "../c5535_bsl_revc/ezdsp5535_v1/c55xx_csl/ccs_v4.0_examples/nand/CSL_NAND_IntrExample/cs
    2382 000677 ED31          MOV dbl(*(#_hNand)), XAR0
         000679 8F00 
         00067b 0B48-
    2383              $C$DW$187       .dwtag  DW_TAG_TI_branch
    2384                      .dwattr $C$DW$187, DW_AT_low_pc(0x00)
    2385                      .dwattr $C$DW$187, DW_AT_name("_NAND_intrClear")
    2386                      .dwattr $C$DW$187, DW_AT_TI_call
    2387 00067d 6C00          CALL #_NAND_intrClear ; |725| 
         00067f 0000!
    2388                                                      ; call occurs [#_NAND_intrClear] ; |725| 
    2389 000681 C40C          MOV T0, *SP(#6) ; |725| 
    2390                      .dwpsn  file "../c5535_bsl_revc/ezdsp5535_v1/c55xx_csl/ccs_v4.0_examples/nand/CSL_NAND_IntrExample/cs
    2391 000683 EC31          AMOV #$C$FSL45, XAR3 ; |726| 
         000685 BE00 
         000687 038A+
    2392 000689 EB00          MOV XAR3, dbl(*SP(#0))
         00068b B5   
    2393              $C$DW$188       .dwtag  DW_TAG_TI_branch
    2394                      .dwattr $C$DW$188, DW_AT_low_pc(0x00)
    2395                      .dwattr $C$DW$188, DW_AT_name("_printf")
    2396                      .dwattr $C$DW$188, DW_AT_TI_call
    2397 00068c 6C00          CALL #_printf ; |726| 
         00068e 0000!
    2398                                                      ; call occurs [#_printf] ; |726| 
    2399                      .dwpsn  file "../c5535_bsl_revc/ezdsp5535_v1/c55xx_csl/ccs_v4.0_examples/nand/CSL_NAND_IntrExample/cs
    2400 000690 3C24          MOV #2, T0
    2401 000692 0602          B $C$L68  ; |727| 
         000694 96   
    2402                                                      ; branch occurs ; |727| 
    2403 000695       $C$L49:    
    2404                      .dwpsn  file "../c5535_bsl_revc/ezdsp5535_v1/c55xx_csl/ccs_v4.0_examples/nand/CSL_NAND_IntrExample/cs
    2405 000695 E631          MOV #0, *(#_wrStatus) ; |731| 
         000697 0000 
         000699 0B4D-
    2406 00069b       $C$L50:    
    2407 00069b       $C$DW$L$_CSL_nandReadWrite$35$B:
    2408                      .dwpsn  file "../c5535_bsl_revc/ezdsp5535_v1/c55xx_csl/ccs_v4.0_examples/nand/CSL_NAND_IntrExample/cs
    2409 00069b ED31          MOV dbl(*(#_hNand)), XAR0
         00069d 8F00 
         00069f 0B48-
    2410 0006a1 EC31          AMOV #_atStatus, XAR1 ; |734| 
         0006a3 9E00 
         0006a5 0B4C-
    2411              $C$DW$189       .dwtag  DW_TAG_TI_branch
    2412                      .dwattr $C$DW$189, DW_AT_low_pc(0x00)
    2413                      .dwattr $C$DW$189, DW_AT_name("_NAND_intrReadAT")
    2414                      .dwattr $C$DW$189, DW_AT_TI_call
    2415 0006a7 6C00          CALL #_NAND_intrReadAT ; |734| 
         0006a9 0000!
    2416                                                      ; call occurs [#_NAND_intrReadAT] ; |734| 
    2417 0006ab C40C          MOV T0, *SP(#6) ; |734| 
    2418                      .dwpsn  file "../c5535_bsl_revc/ezdsp5535_v1/c55xx_csl/ccs_v4.0_examples/nand/CSL_NAND_IntrExample/cs
    2419 0006ad F031          CMP *(#_atStatus) == #1, TC1 ; |735| 
TMS320C55x Assembler PC v4.4.1 Sat Sep 29 23:08:53 2018

Tools Copyright (c) 1996-2012 Texas Instruments Incorporated
csl_nand_intr_example.asm                                            PAGE   60

         0006af 0001 
         0006b1 000B 
         0006b3 4C-  
    2420 0006b4 0474          BCC $C$L51,!TC1 ; |735| 
         0006b6 12   
    2421                                                      ; branchcc occurs ; |735| 
    2422 0006b7       $C$DW$L$_CSL_nandReadWrite$35$E:
    2423                      .dwpsn  file "../c5535_bsl_revc/ezdsp5535_v1/c55xx_csl/ccs_v4.0_examples/nand/CSL_NAND_IntrExample/cs
    2424 0006b7 EC31          AMOV #$C$FSL37, XAR3 ; |737| 
         0006b9 BE00 
         0006bb 02AE+
    2425 0006bd EB00          MOV XAR3, dbl(*SP(#0))
         0006bf B5   
    2426              $C$DW$190       .dwtag  DW_TAG_TI_branch
    2427                      .dwattr $C$DW$190, DW_AT_low_pc(0x00)
    2428                      .dwattr $C$DW$190, DW_AT_name("_printf")
    2429                      .dwattr $C$DW$190, DW_AT_TI_call
    2430 0006c0 6C00          CALL #_printf ; |737| 
         0006c2 0000!
    2431                                                      ; call occurs [#_printf] ; |737| 
    2432                      .dwpsn  file "../c5535_bsl_revc/ezdsp5535_v1/c55xx_csl/ccs_v4.0_examples/nand/CSL_NAND_IntrExample/cs
    2433 0006c4 3C34          MOV #3, T0
    2434 0006c6 0602          B $C$L68  ; |738| 
         0006c8 62   
    2435                                                      ; branch occurs ; |738| 
    2436 0006c9       $C$L51:    
    2437 0006c9       $C$DW$L$_CSL_nandReadWrite$37$B:
    2438                      .dwpsn  file "../c5535_bsl_revc/ezdsp5535_v1/c55xx_csl/ccs_v4.0_examples/nand/CSL_NAND_IntrExample/cs
    2439 0006c9 ED31          MOV dbl(*(#_hNand)), XAR0
         0006cb 8F00 
         0006cd 0B48-
    2440 0006cf EC31          AMOV #_wrStatus, XAR1 ; |741| 
         0006d1 9E00 
         0006d3 0B4D-
    2441              $C$DW$191       .dwtag  DW_TAG_TI_branch
    2442                      .dwattr $C$DW$191, DW_AT_low_pc(0x00)
    2443                      .dwattr $C$DW$191, DW_AT_name("_NAND_intrReadWR")
    2444                      .dwattr $C$DW$191, DW_AT_TI_call
    2445 0006d5 6C00          CALL #_NAND_intrReadWR ; |741| 
         0006d7 0000!
    2446                                                      ; call occurs [#_NAND_intrReadWR] ; |741| 
    2447 0006d9 C40C          MOV T0, *SP(#6) ; |741| 
    2448                      .dwpsn  file "../c5535_bsl_revc/ezdsp5535_v1/c55xx_csl/ccs_v4.0_examples/nand/CSL_NAND_IntrExample/cs
    2449 0006db A931          MOV *(#_wrStatus), AR1 ; |742| 
         0006dd 000B 
         0006df 4D-  
    2450 0006e0 0409          BCC $C$L50,AR1 == #0 ; |742| 
         0006e2 B8   
    2451                                                      ; branchcc occurs ; |742| 
    2452 0006e3       $C$DW$L$_CSL_nandReadWrite$37$E:
    2453                      .dwpsn  file "../c5535_bsl_revc/ezdsp5535_v1/c55xx_csl/ccs_v4.0_examples/nand/CSL_NAND_IntrExample/cs
    2454 0006e3 ED31          MOV dbl(*(#_hNand)), XAR0
         0006e5 8F00 
         0006e7 0B48-
    2455              $C$DW$192       .dwtag  DW_TAG_TI_branch
TMS320C55x Assembler PC v4.4.1 Sat Sep 29 23:08:53 2018

Tools Copyright (c) 1996-2012 Texas Instruments Incorporated
csl_nand_intr_example.asm                                            PAGE   61

    2456                      .dwattr $C$DW$192, DW_AT_low_pc(0x00)
    2457                      .dwattr $C$DW$192, DW_AT_name("_NAND_intrClear")
    2458                      .dwattr $C$DW$192, DW_AT_TI_call
    2459 0006e9 6C00          CALL #_NAND_intrClear ; |745| 
         0006eb 0000!
    2460                                                      ; call occurs [#_NAND_intrClear] ; |745| 
    2461 0006ed C40C          MOV T0, *SP(#6) ; |745| 
    2462                      .dwpsn  file "../c5535_bsl_revc/ezdsp5535_v1/c55xx_csl/ccs_v4.0_examples/nand/CSL_NAND_IntrExample/cs
    2463 0006ef 2249          MOV T0, AR1
    2464 0006f1 0409          BCC $C$L52,AR1 == #0 ; |746| 
         0006f3 12   
    2465                                                      ; branchcc occurs ; |746| 
    2466                      .dwpsn  file "../c5535_bsl_revc/ezdsp5535_v1/c55xx_csl/ccs_v4.0_examples/nand/CSL_NAND_IntrExample/cs
    2467 0006f4 EC31          AMOV #$C$FSL38, XAR3 ; |748| 
         0006f6 BE00 
         0006f8 02CC+
    2468 0006fa EB00          MOV XAR3, dbl(*SP(#0))
         0006fc B5   
    2469              $C$DW$193       .dwtag  DW_TAG_TI_branch
    2470                      .dwattr $C$DW$193, DW_AT_low_pc(0x00)
    2471                      .dwattr $C$DW$193, DW_AT_name("_printf")
    2472                      .dwattr $C$DW$193, DW_AT_TI_call
    2473 0006fd 6C00          CALL #_printf ; |748| 
         0006ff 0000!
    2474                                                      ; call occurs [#_printf] ; |748| 
    2475                      .dwpsn  file "../c5535_bsl_revc/ezdsp5535_v1/c55xx_csl/ccs_v4.0_examples/nand/CSL_NAND_IntrExample/cs
    2476 000701 A40C          MOV *SP(#6), T0 ; |749| 
    2477 000703 0602          B $C$L68  ; |749| 
         000705 25   
    2478                                                      ; branch occurs ; |749| 
    2479 000706       $C$L52:    
    2480                      .dwpsn  file "../c5535_bsl_revc/ezdsp5535_v1/c55xx_csl/ccs_v4.0_examples/nand/CSL_NAND_IntrExample/cs
    2481 000706 ED31          MOV dbl(*(#_hNand)), XAR0
         000708 8F00 
         00070a 0B48-
    2482              $C$DW$194       .dwtag  DW_TAG_TI_branch
    2483                      .dwattr $C$DW$194, DW_AT_low_pc(0x00)
    2484                      .dwattr $C$DW$194, DW_AT_name("_NAND_sendCommand")
    2485                      .dwattr $C$DW$194, DW_AT_TI_call
    2486              
    2487 00070c 6C00          CALL #_NAND_sendCommand ; |753| 
         00070e 0000!
    2488 000710 3D04  ||      MOV #0, T0
    2489              
    2490                                                      ; call occurs [#_NAND_sendCommand] ; |753| 
    2491 000712 C40C          MOV T0, *SP(#6) ; |753| 
    2492                      .dwpsn  file "../c5535_bsl_revc/ezdsp5535_v1/c55xx_csl/ccs_v4.0_examples/nand/CSL_NAND_IntrExample/cs
    2493 000714 2249          MOV T0, AR1
    2494 000716 0409          BCC $C$L53,AR1 == #0 ; |754| 
         000718 12   
    2495                                                      ; branchcc occurs ; |754| 
    2496                      .dwpsn  file "../c5535_bsl_revc/ezdsp5535_v1/c55xx_csl/ccs_v4.0_examples/nand/CSL_NAND_IntrExample/cs
    2497 000719 EC31          AMOV #$C$FSL31, XAR3 ; |756| 
         00071b BE00 
         00071d 0200+
TMS320C55x Assembler PC v4.4.1 Sat Sep 29 23:08:53 2018

Tools Copyright (c) 1996-2012 Texas Instruments Incorporated
csl_nand_intr_example.asm                                            PAGE   62

    2498 00071f EB00          MOV XAR3, dbl(*SP(#0))
         000721 B5   
    2499              $C$DW$195       .dwtag  DW_TAG_TI_branch
    2500                      .dwattr $C$DW$195, DW_AT_low_pc(0x00)
    2501                      .dwattr $C$DW$195, DW_AT_name("_printf")
    2502                      .dwattr $C$DW$195, DW_AT_TI_call
    2503 000722 6C00          CALL #_printf ; |756| 
         000724 0000!
    2504                                                      ; call occurs [#_printf] ; |756| 
    2505                      .dwpsn  file "../c5535_bsl_revc/ezdsp5535_v1/c55xx_csl/ccs_v4.0_examples/nand/CSL_NAND_IntrExample/cs
    2506 000726 A40C          MOV *SP(#6), T0 ; |757| 
    2507 000728 0602          B $C$L68  ; |757| 
         00072a 00   
    2508                                                      ; branch occurs ; |757| 
    2509 00072b       $C$L53:    
    2510                      .dwpsn  file "../c5535_bsl_revc/ezdsp5535_v1/c55xx_csl/ccs_v4.0_examples/nand/CSL_NAND_IntrExample/cs
    2511 00072b ED31          MOV dbl(*(#_hNand)), XAR0
         00072d 8F00 
         00072f 0B48-
    2512              $C$DW$196       .dwtag  DW_TAG_TI_branch
    2513                      .dwattr $C$DW$196, DW_AT_low_pc(0x00)
    2514                      .dwattr $C$DW$196, DW_AT_name("_NAND_checkCommandStatus")
    2515                      .dwattr $C$DW$196, DW_AT_TI_call
    2516 000731 6C00          CALL #_NAND_checkCommandStatus ; |761| 
         000733 0000!
    2517                                                      ; call occurs [#_NAND_checkCommandStatus] ; |761| 
    2518 000735 C40C          MOV T0, *SP(#6) ; |761| 
    2519                      .dwpsn  file "../c5535_bsl_revc/ezdsp5535_v1/c55xx_csl/ccs_v4.0_examples/nand/CSL_NAND_IntrExample/cs
    2520 000737 2249          MOV T0, AR1
    2521 000739 0409          BCC $C$L54,AR1 == #0 ; |762| 
         00073b 12   
    2522                                                      ; branchcc occurs ; |762| 
    2523                      .dwpsn  file "../c5535_bsl_revc/ezdsp5535_v1/c55xx_csl/ccs_v4.0_examples/nand/CSL_NAND_IntrExample/cs
    2524 00073c EC31          AMOV #$C$FSL32, XAR3 ; |764| 
         00073e BE00 
         000740 021C+
    2525 000742 EB00          MOV XAR3, dbl(*SP(#0))
         000744 B5   
    2526              $C$DW$197       .dwtag  DW_TAG_TI_branch
    2527                      .dwattr $C$DW$197, DW_AT_low_pc(0x00)
    2528                      .dwattr $C$DW$197, DW_AT_name("_printf")
    2529                      .dwattr $C$DW$197, DW_AT_TI_call
    2530 000745 6C00          CALL #_printf ; |764| 
         000747 0000!
    2531                                                      ; call occurs [#_printf] ; |764| 
    2532                      .dwpsn  file "../c5535_bsl_revc/ezdsp5535_v1/c55xx_csl/ccs_v4.0_examples/nand/CSL_NAND_IntrExample/cs
    2533 000749 A40C          MOV *SP(#6), T0 ; |765| 
    2534 00074b 0601          B $C$L68  ; |765| 
         00074d DD   
    2535                                                      ; branch occurs ; |765| 
    2536 00074e       $C$L54:    
    2537                      .dwpsn  file "../c5535_bsl_revc/ezdsp5535_v1/c55xx_csl/ccs_v4.0_examples/nand/CSL_NAND_IntrExample/cs
    2538 00074e A904          MOV *SP(#2), AR1 ; |769| 
    2539 000750 C910          MOV AR1, *SP(#8) ; |769| 
    2540                      .dwpsn  file "../c5535_bsl_revc/ezdsp5535_v1/c55xx_csl/ccs_v4.0_examples/nand/CSL_NAND_IntrExample/cs
TMS320C55x Assembler PC v4.4.1 Sat Sep 29 23:08:53 2018

Tools Copyright (c) 1996-2012 Texas Instruments Incorporated
csl_nand_intr_example.asm                                            PAGE   63

    2541 000752 E60E          MOV #0, *SP(#7) ; |770| 
         000754 00   
    2542                      .dwpsn  file "../c5535_bsl_revc/ezdsp5535_v1/c55xx_csl/ccs_v4.0_examples/nand/CSL_NAND_IntrExample/cs
    2543 000755 A931          MOV *(#_gColAddrCycles), AR1 ; |770| 
         000757 000B 
         000759 52-  
    2544 00075a AA0E          MOV *SP(#7), AR2 ; |770| 
    2545 00075c 12A8          CMPU AR2 >= AR1, TC1 ; |770| 
         00075e 94   
    2546 00075f 0464          BCC $C$L56,TC1 ; |770| 
         000761 25   
    2547                                                      ; branchcc occurs ; |770| 
    2548 000762       $C$L55:    
    2549 000762       $C$DW$L$_CSL_nandReadWrite$45$B:
    2550                      .dwpsn  file "../c5535_bsl_revc/ezdsp5535_v1/c55xx_csl/ccs_v4.0_examples/nand/CSL_NAND_IntrExample/cs
    2551 000762 DF10          MOV uns(low_byte(*SP(#8))), T0 ; |772| 
         000764 43   
    2552 000765 ED31          MOV dbl(*(#_hNand)), XAR0
         000767 8F00 
         000769 0B48-
    2553              $C$DW$198       .dwtag  DW_TAG_TI_branch
    2554                      .dwattr $C$DW$198, DW_AT_low_pc(0x00)
    2555                      .dwattr $C$DW$198, DW_AT_name("_NAND_setAddress")
    2556                      .dwattr $C$DW$198, DW_AT_TI_call
    2557 00076b 6C00          CALL #_NAND_setAddress ; |772| 
         00076d 0000!
    2558                                                      ; call occurs [#_NAND_setAddress] ; |772| 
    2559 00076f C40C          MOV T0, *SP(#6) ; |772| 
    2560                      .dwpsn  file "../c5535_bsl_revc/ezdsp5535_v1/c55xx_csl/ccs_v4.0_examples/nand/CSL_NAND_IntrExample/cs
    2561 000771 DF10          MOV uns(high_byte(*SP(#8))), AR1 ; |773| 
         000773 91   
    2562 000774 C910          MOV AR1, *SP(#8) ; |773| 
    2563                      .dwpsn  file "../c5535_bsl_revc/ezdsp5535_v1/c55xx_csl/ccs_v4.0_examples/nand/CSL_NAND_IntrExample/cs
    2564 000776 F70E          ADD #1, *SP(#7) ; |770| 
         000778 0001 
    2565                      .dwpsn  file "../c5535_bsl_revc/ezdsp5535_v1/c55xx_csl/ccs_v4.0_examples/nand/CSL_NAND_IntrExample/cs
    2566 00077a A931          MOV *(#_gColAddrCycles), AR1 ; |770| 
         00077c 000B 
         00077e 52-  
    2567 00077f AA0E          MOV *SP(#7), AR2 ; |770| 
    2568 000781 12A4          CMPU AR2 < AR1, TC1 ; |770| 
         000783 94   
    2569 000784 0464          BCC $C$L55,TC1 ; |770| 
         000786 DB   
    2570                                                      ; branchcc occurs ; |770| 
    2571 000787       $C$DW$L$_CSL_nandReadWrite$45$E:
    2572 000787       $C$L56:    
    2573                      .dwpsn  file "../c5535_bsl_revc/ezdsp5535_v1/c55xx_csl/ccs_v4.0_examples/nand/CSL_NAND_IntrExample/cs
    2574 000787 A90A          MOV *SP(#5), AR1 ; |777| 
    2575 000789 C910          MOV AR1, *SP(#8) ; |777| 
    2576                      .dwpsn  file "../c5535_bsl_revc/ezdsp5535_v1/c55xx_csl/ccs_v4.0_examples/nand/CSL_NAND_IntrExample/cs
    2577 00078b E60E          MOV #0, *SP(#7) ; |778| 
         00078d 00   
    2578                      .dwpsn  file "../c5535_bsl_revc/ezdsp5535_v1/c55xx_csl/ccs_v4.0_examples/nand/CSL_NAND_IntrExample/cs
    2579 00078e A931          MOV *(#_gRowAddrCycles), AR1 ; |778| 
TMS320C55x Assembler PC v4.4.1 Sat Sep 29 23:08:53 2018

Tools Copyright (c) 1996-2012 Texas Instruments Incorporated
csl_nand_intr_example.asm                                            PAGE   64

         000790 000B 
         000792 51-  
    2580 000793 AA0E          MOV *SP(#7), AR2 ; |778| 
    2581 000795 12A8          CMPU AR2 >= AR1, TC1 ; |778| 
         000797 94   
    2582 000798 0464          BCC $C$L58,TC1 ; |778| 
         00079a 25   
    2583                                                      ; branchcc occurs ; |778| 
    2584 00079b       $C$L57:    
    2585 00079b       $C$DW$L$_CSL_nandReadWrite$47$B:
    2586                      .dwpsn  file "../c5535_bsl_revc/ezdsp5535_v1/c55xx_csl/ccs_v4.0_examples/nand/CSL_NAND_IntrExample/cs
    2587 00079b DF10          MOV uns(low_byte(*SP(#8))), T0 ; |780| 
         00079d 43   
    2588 00079e ED31          MOV dbl(*(#_hNand)), XAR0
         0007a0 8F00 
         0007a2 0B48-
    2589              $C$DW$199       .dwtag  DW_TAG_TI_branch
    2590                      .dwattr $C$DW$199, DW_AT_low_pc(0x00)
    2591                      .dwattr $C$DW$199, DW_AT_name("_NAND_setAddress")
    2592                      .dwattr $C$DW$199, DW_AT_TI_call
    2593 0007a4 6C00          CALL #_NAND_setAddress ; |780| 
         0007a6 0000!
    2594                                                      ; call occurs [#_NAND_setAddress] ; |780| 
    2595 0007a8 C40C          MOV T0, *SP(#6) ; |780| 
    2596                      .dwpsn  file "../c5535_bsl_revc/ezdsp5535_v1/c55xx_csl/ccs_v4.0_examples/nand/CSL_NAND_IntrExample/cs
    2597 0007aa DF10          MOV uns(high_byte(*SP(#8))), AR1 ; |781| 
         0007ac 91   
    2598 0007ad C910          MOV AR1, *SP(#8) ; |781| 
    2599                      .dwpsn  file "../c5535_bsl_revc/ezdsp5535_v1/c55xx_csl/ccs_v4.0_examples/nand/CSL_NAND_IntrExample/cs
    2600 0007af F70E          ADD #1, *SP(#7) ; |778| 
         0007b1 0001 
    2601                      .dwpsn  file "../c5535_bsl_revc/ezdsp5535_v1/c55xx_csl/ccs_v4.0_examples/nand/CSL_NAND_IntrExample/cs
    2602 0007b3 A931          MOV *(#_gRowAddrCycles), AR1 ; |778| 
         0007b5 000B 
         0007b7 51-  
    2603 0007b8 AA0E          MOV *SP(#7), AR2 ; |778| 
    2604 0007ba 12A4          CMPU AR2 < AR1, TC1 ; |778| 
         0007bc 94   
    2605 0007bd 0464          BCC $C$L57,TC1 ; |778| 
         0007bf DB   
    2606                                                      ; branchcc occurs ; |778| 
    2607 0007c0       $C$DW$L$_CSL_nandReadWrite$47$E:
    2608 0007c0       $C$L58:    
    2609                      .dwpsn  file "../c5535_bsl_revc/ezdsp5535_v1/c55xx_csl/ccs_v4.0_examples/nand/CSL_NAND_IntrExample/cs
    2610 0007c0 F031          CMP *(#_gNandType) == #1, TC1 ; |785| 
         0007c2 0001 
         0007c4 000B 
         0007c6 4E-  
    2611 0007c7 0474          BCC $C$L59,!TC1 ; |785| 
         0007c9 27   
    2612                                                      ; branchcc occurs ; |785| 
    2613                      .dwpsn  file "../c5535_bsl_revc/ezdsp5535_v1/c55xx_csl/ccs_v4.0_examples/nand/CSL_NAND_IntrExample/cs
    2614 0007ca ED31          MOV dbl(*(#_hNand)), XAR0
         0007cc 8F00 
         0007ce 0B48-
TMS320C55x Assembler PC v4.4.1 Sat Sep 29 23:08:53 2018

Tools Copyright (c) 1996-2012 Texas Instruments Incorporated
csl_nand_intr_example.asm                                            PAGE   65

    2615 0007d0 7600          MOV #48, T0 ; |788| 
         0007d2 3048 
    2616              $C$DW$200       .dwtag  DW_TAG_TI_branch
    2617                      .dwattr $C$DW$200, DW_AT_low_pc(0x00)
    2618                      .dwattr $C$DW$200, DW_AT_name("_NAND_sendCommand")
    2619                      .dwattr $C$DW$200, DW_AT_TI_call
    2620 0007d4 6C00          CALL #_NAND_sendCommand ; |788| 
         0007d6 0000!
    2621                                                      ; call occurs [#_NAND_sendCommand] ; |788| 
    2622 0007d8 C40C          MOV T0, *SP(#6) ; |788| 
    2623                      .dwpsn  file "../c5535_bsl_revc/ezdsp5535_v1/c55xx_csl/ccs_v4.0_examples/nand/CSL_NAND_IntrExample/cs
    2624 0007da 2249          MOV T0, AR1
    2625 0007dc 0409          BCC $C$L59,AR1 == #0 ; |789| 
         0007de 12   
    2626                                                      ; branchcc occurs ; |789| 
    2627                      .dwpsn  file "../c5535_bsl_revc/ezdsp5535_v1/c55xx_csl/ccs_v4.0_examples/nand/CSL_NAND_IntrExample/cs
    2628 0007df EC31          AMOV #$C$FSL31, XAR3 ; |791| 
         0007e1 BE00 
         0007e3 0200+
    2629 0007e5 EB00          MOV XAR3, dbl(*SP(#0))
         0007e7 B5   
    2630              $C$DW$201       .dwtag  DW_TAG_TI_branch
    2631                      .dwattr $C$DW$201, DW_AT_low_pc(0x00)
    2632                      .dwattr $C$DW$201, DW_AT_name("_printf")
    2633                      .dwattr $C$DW$201, DW_AT_TI_call
    2634 0007e8 6C00          CALL #_printf ; |791| 
         0007ea 0000!
    2635                                                      ; call occurs [#_printf] ; |791| 
    2636                      .dwpsn  file "../c5535_bsl_revc/ezdsp5535_v1/c55xx_csl/ccs_v4.0_examples/nand/CSL_NAND_IntrExample/cs
    2637 0007ec A40C          MOV *SP(#6), T0 ; |792| 
    2638 0007ee 0601          B $C$L68  ; |792| 
         0007f0 3A   
    2639                                                      ; branch occurs ; |792| 
    2640 0007f1       $C$L59:    
    2641                      .dwpsn  file "../c5535_bsl_revc/ezdsp5535_v1/c55xx_csl/ccs_v4.0_examples/nand/CSL_NAND_IntrExample/cs
    2642 0007f1 ED31          MOV dbl(*(#_hNand)), XAR0
         0007f3 8F00 
         0007f5 0B48-
    2643              $C$DW$202       .dwtag  DW_TAG_TI_branch
    2644                      .dwattr $C$DW$202, DW_AT_low_pc(0x00)
    2645                      .dwattr $C$DW$202, DW_AT_name("_NAND_checkCommandStatus")
    2646                      .dwattr $C$DW$202, DW_AT_TI_call
    2647 0007f7 6C00          CALL #_NAND_checkCommandStatus ; |797| 
         0007f9 0000!
    2648                                                      ; call occurs [#_NAND_checkCommandStatus] ; |797| 
    2649 0007fb C40C          MOV T0, *SP(#6) ; |797| 
    2650                      .dwpsn  file "../c5535_bsl_revc/ezdsp5535_v1/c55xx_csl/ccs_v4.0_examples/nand/CSL_NAND_IntrExample/cs
    2651 0007fd 2249          MOV T0, AR1
    2652 0007ff 0409          BCC $C$L60,AR1 == #0 ; |798| 
         000801 12   
    2653                                                      ; branchcc occurs ; |798| 
    2654                      .dwpsn  file "../c5535_bsl_revc/ezdsp5535_v1/c55xx_csl/ccs_v4.0_examples/nand/CSL_NAND_IntrExample/cs
    2655 000802 EC31          AMOV #$C$FSL32, XAR3 ; |800| 
         000804 BE00 
         000806 021C+
TMS320C55x Assembler PC v4.4.1 Sat Sep 29 23:08:53 2018

Tools Copyright (c) 1996-2012 Texas Instruments Incorporated
csl_nand_intr_example.asm                                            PAGE   66

    2656 000808 EB00          MOV XAR3, dbl(*SP(#0))
         00080a B5   
    2657              $C$DW$203       .dwtag  DW_TAG_TI_branch
    2658                      .dwattr $C$DW$203, DW_AT_low_pc(0x00)
    2659                      .dwattr $C$DW$203, DW_AT_name("_printf")
    2660                      .dwattr $C$DW$203, DW_AT_TI_call
    2661 00080b 6C00          CALL #_printf ; |800| 
         00080d 0000!
    2662                                                      ; call occurs [#_printf] ; |800| 
    2663                      .dwpsn  file "../c5535_bsl_revc/ezdsp5535_v1/c55xx_csl/ccs_v4.0_examples/nand/CSL_NAND_IntrExample/cs
    2664 00080f A40C          MOV *SP(#6), T0 ; |801| 
    2665 000811 0601          B $C$L68  ; |801| 
         000813 17   
    2666                                                      ; branch occurs ; |801| 
    2667 000814       $C$L60:    
    2668                      .dwpsn  file "../c5535_bsl_revc/ezdsp5535_v1/c55xx_csl/ccs_v4.0_examples/nand/CSL_NAND_IntrExample/cs
    2669 000814 ED31          MOV dbl(*(#_hNand)), XAR0
         000816 8F00 
         000818 0B48-
    2670 00081a A431          MOV *(#_chipSel), T0 ; |805| 
         00081c 000B 
         00081e 53-  
    2671              $C$DW$204       .dwtag  DW_TAG_TI_branch
    2672                      .dwattr $C$DW$204, DW_AT_low_pc(0x00)
    2673                      .dwattr $C$DW$204, DW_AT_name("_NAND_enableHwECC")
    2674                      .dwattr $C$DW$204, DW_AT_TI_call
    2675 00081f 6C00          CALL #_NAND_enableHwECC ; |805| 
         000821 0000!
    2676                                                      ; call occurs [#_NAND_enableHwECC] ; |805| 
    2677 000823 C40C          MOV T0, *SP(#6) ; |805| 
    2678                      .dwpsn  file "../c5535_bsl_revc/ezdsp5535_v1/c55xx_csl/ccs_v4.0_examples/nand/CSL_NAND_IntrExample/cs
    2679 000825 2249          MOV T0, AR1
    2680 000827 0409          BCC $C$L61,AR1 == #0 ; |806| 
         000829 12   
    2681                                                      ; branchcc occurs ; |806| 
    2682                      .dwpsn  file "../c5535_bsl_revc/ezdsp5535_v1/c55xx_csl/ccs_v4.0_examples/nand/CSL_NAND_IntrExample/cs
    2683 00082a EC31          AMOV #$C$FSL40, XAR3 ; |808| 
         00082c BE00 
         00082e 030E+
    2684 000830 EB00          MOV XAR3, dbl(*SP(#0))
         000832 B5   
    2685              $C$DW$205       .dwtag  DW_TAG_TI_branch
    2686                      .dwattr $C$DW$205, DW_AT_low_pc(0x00)
    2687                      .dwattr $C$DW$205, DW_AT_name("_printf")
    2688                      .dwattr $C$DW$205, DW_AT_TI_call
    2689 000833 6C00          CALL #_printf ; |808| 
         000835 0000!
    2690                                                      ; call occurs [#_printf] ; |808| 
    2691                      .dwpsn  file "../c5535_bsl_revc/ezdsp5535_v1/c55xx_csl/ccs_v4.0_examples/nand/CSL_NAND_IntrExample/cs
    2692 000837 A40C          MOV *SP(#6), T0 ; |809| 
    2693 000839 0600          B $C$L68  ; |809| 
         00083b EF   
    2694                                                      ; branch occurs ; |809| 
    2695 00083c       $C$L61:    
    2696                      .dwpsn  file "../c5535_bsl_revc/ezdsp5535_v1/c55xx_csl/ccs_v4.0_examples/nand/CSL_NAND_IntrExample/cs
TMS320C55x Assembler PC v4.4.1 Sat Sep 29 23:08:53 2018

Tools Copyright (c) 1996-2012 Texas Instruments Incorporated
csl_nand_intr_example.asm                                            PAGE   67

    2697 00083c ED31          MOV dbl(*(#_hNand)), XAR0
         00083e 8F00 
         000840 0B48-
    2698 000842 A431          MOV *(#_gNandPageSize), T0 ; |813| 
         000844 000B 
         000846 50-  
    2699 000847 EC31          AMOV #_gnandIntrReadBuf, XAR1 ; |813| 
         000849 9E00 
         00084b 0348-
    2700 00084d 3C05          MOV #0, T1
    2701              $C$DW$206       .dwtag  DW_TAG_TI_branch
    2702                      .dwattr $C$DW$206, DW_AT_low_pc(0x00)
    2703                      .dwattr $C$DW$206, DW_AT_name("_NAND_readNBytes")
    2704                      .dwattr $C$DW$206, DW_AT_TI_call
    2705              
    2706 00084f 6C00          CALL #_NAND_readNBytes ; |813| 
         000851 0000!
    2707 000853 3D0A  ||      MOV #0, AR2
    2708              
    2709                                                      ; call occurs [#_NAND_readNBytes] ; |813| 
    2710 000855 C40C          MOV T0, *SP(#6) ; |813| 
    2711                      .dwpsn  file "../c5535_bsl_revc/ezdsp5535_v1/c55xx_csl/ccs_v4.0_examples/nand/CSL_NAND_IntrExample/cs
    2712 000857 2249          MOV T0, AR1
    2713 000859 0409          BCC $C$L62,AR1 == #0 ; |814| 
         00085b 12   
    2714                                                      ; branchcc occurs ; |814| 
    2715                      .dwpsn  file "../c5535_bsl_revc/ezdsp5535_v1/c55xx_csl/ccs_v4.0_examples/nand/CSL_NAND_IntrExample/cs
    2716 00085c EC31          AMOV #$C$FSL46, XAR3 ; |816| 
         00085e BE00 
         000860 039E+
    2717 000862 EB00          MOV XAR3, dbl(*SP(#0))
         000864 B5   
    2718              $C$DW$207       .dwtag  DW_TAG_TI_branch
    2719                      .dwattr $C$DW$207, DW_AT_low_pc(0x00)
    2720                      .dwattr $C$DW$207, DW_AT_name("_printf")
    2721                      .dwattr $C$DW$207, DW_AT_TI_call
    2722 000865 6C00          CALL #_printf ; |816| 
         000867 0000!
    2723                                                      ; call occurs [#_printf] ; |816| 
    2724                      .dwpsn  file "../c5535_bsl_revc/ezdsp5535_v1/c55xx_csl/ccs_v4.0_examples/nand/CSL_NAND_IntrExample/cs
    2725 000869 A40C          MOV *SP(#6), T0 ; |817| 
    2726 00086b 0600          B $C$L68  ; |817| 
         00086d BD   
    2727                                                      ; branch occurs ; |817| 
    2728 00086e       $C$L62:    
    2729                      .dwpsn  file "../c5535_bsl_revc/ezdsp5535_v1/c55xx_csl/ccs_v4.0_examples/nand/CSL_NAND_IntrExample/cs
    2730 00086e EC31          AMOV #$C$FSL47, XAR3 ; |821| 
         000870 BE00 
         000872 03B2+
    2731 000874 EB00          MOV XAR3, dbl(*SP(#0))
         000876 B5   
    2732              $C$DW$208       .dwtag  DW_TAG_TI_branch
    2733                      .dwattr $C$DW$208, DW_AT_low_pc(0x00)
    2734                      .dwattr $C$DW$208, DW_AT_name("_printf")
    2735                      .dwattr $C$DW$208, DW_AT_TI_call
TMS320C55x Assembler PC v4.4.1 Sat Sep 29 23:08:53 2018

Tools Copyright (c) 1996-2012 Texas Instruments Incorporated
csl_nand_intr_example.asm                                            PAGE   68

    2736 000877 6C00          CALL #_printf ; |821| 
         000879 0000!
    2737                                                      ; call occurs [#_printf] ; |821| 
    2738                      .dwpsn  file "../c5535_bsl_revc/ezdsp5535_v1/c55xx_csl/ccs_v4.0_examples/nand/CSL_NAND_IntrExample/cs
    2739 00087b A431          MOV *(#_chipSel), T0 ; |825| 
         00087d 000B 
         00087f 53-  
    2740 000880 EC12          AMAR *SP(#9), XAR1
         000882 9E   
    2741 000883 ED31          MOV dbl(*(#_hNand)), XAR0
         000885 8F00 
         000887 0B48-
    2742              $C$DW$209       .dwtag  DW_TAG_TI_branch
    2743                      .dwattr $C$DW$209, DW_AT_low_pc(0x00)
    2744                      .dwattr $C$DW$209, DW_AT_name("_NAND_readECC")
    2745                      .dwattr $C$DW$209, DW_AT_TI_call
    2746 000889 6C00          CALL #_NAND_readECC ; |825| 
         00088b 0000!
    2747                                                      ; call occurs [#_NAND_readECC] ; |825| 
    2748 00088d C40C          MOV T0, *SP(#6) ; |825| 
    2749                      .dwpsn  file "../c5535_bsl_revc/ezdsp5535_v1/c55xx_csl/ccs_v4.0_examples/nand/CSL_NAND_IntrExample/cs
    2750 00088f 2249          MOV T0, AR1
    2751 000891 0409          BCC $C$L63,AR1 == #0 ; |826| 
         000893 12   
    2752                                                      ; branchcc occurs ; |826| 
    2753                      .dwpsn  file "../c5535_bsl_revc/ezdsp5535_v1/c55xx_csl/ccs_v4.0_examples/nand/CSL_NAND_IntrExample/cs
    2754 000894 EC31          AMOV #$C$FSL43, XAR3 ; |828| 
         000896 BE00 
         000898 0356+
    2755 00089a EB00          MOV XAR3, dbl(*SP(#0))
         00089c B5   
    2756              $C$DW$210       .dwtag  DW_TAG_TI_branch
    2757                      .dwattr $C$DW$210, DW_AT_low_pc(0x00)
    2758                      .dwattr $C$DW$210, DW_AT_name("_printf")
    2759                      .dwattr $C$DW$210, DW_AT_TI_call
    2760 00089d 6C00          CALL #_printf ; |828| 
         00089f 0000!
    2761                                                      ; call occurs [#_printf] ; |828| 
    2762                      .dwpsn  file "../c5535_bsl_revc/ezdsp5535_v1/c55xx_csl/ccs_v4.0_examples/nand/CSL_NAND_IntrExample/cs
    2763 0008a1 A40C          MOV *SP(#6), T0 ; |829| 
    2764 0008a3 0600          B $C$L68  ; |829| 
         0008a5 85   
    2765                                                      ; branch occurs ; |829| 
    2766 0008a6       $C$L63:    
    2767                      .dwpsn  file "../c5535_bsl_revc/ezdsp5535_v1/c55xx_csl/ccs_v4.0_examples/nand/CSL_NAND_IntrExample/cs
    2768 0008a6 ED31          MOV dbl(*(#_hNand)), XAR0
         0008a8 8F00 
         0008aa 0B48-
    2769 0008ac A431          MOV *(#_chipSel), T0 ; |833| 
         0008ae 000B 
         0008b0 53-  
    2770              $C$DW$211       .dwtag  DW_TAG_TI_branch
    2771                      .dwattr $C$DW$211, DW_AT_low_pc(0x00)
    2772                      .dwattr $C$DW$211, DW_AT_name("_NAND_disableHwECC")
    2773                      .dwattr $C$DW$211, DW_AT_TI_call
TMS320C55x Assembler PC v4.4.1 Sat Sep 29 23:08:53 2018

Tools Copyright (c) 1996-2012 Texas Instruments Incorporated
csl_nand_intr_example.asm                                            PAGE   69

    2774 0008b1 6C00          CALL #_NAND_disableHwECC ; |833| 
         0008b3 0000!
    2775                                                      ; call occurs [#_NAND_disableHwECC] ; |833| 
    2776 0008b5 C40C          MOV T0, *SP(#6) ; |833| 
    2777                      .dwpsn  file "../c5535_bsl_revc/ezdsp5535_v1/c55xx_csl/ccs_v4.0_examples/nand/CSL_NAND_IntrExample/cs
    2778 0008b7 2249          MOV T0, AR1
    2779 0008b9 0409          BCC $C$L64,AR1 == #0 ; |834| 
         0008bb 12   
    2780                                                      ; branchcc occurs ; |834| 
    2781                      .dwpsn  file "../c5535_bsl_revc/ezdsp5535_v1/c55xx_csl/ccs_v4.0_examples/nand/CSL_NAND_IntrExample/cs
    2782 0008bc EC31          AMOV #$C$FSL44, XAR3 ; |836| 
         0008be BE00 
         0008c0 036E+
    2783 0008c2 EB00          MOV XAR3, dbl(*SP(#0))
         0008c4 B5   
    2784              $C$DW$212       .dwtag  DW_TAG_TI_branch
    2785                      .dwattr $C$DW$212, DW_AT_low_pc(0x00)
    2786                      .dwattr $C$DW$212, DW_AT_name("_printf")
    2787                      .dwattr $C$DW$212, DW_AT_TI_call
    2788 0008c5 6C00          CALL #_printf ; |836| 
         0008c7 0000!
    2789                                                      ; call occurs [#_printf] ; |836| 
    2790                      .dwpsn  file "../c5535_bsl_revc/ezdsp5535_v1/c55xx_csl/ccs_v4.0_examples/nand/CSL_NAND_IntrExample/cs
    2791 0008c9 A40C          MOV *SP(#6), T0 ; |837| 
    2792 0008cb 0600          B $C$L68  ; |837| 
         0008cd 5D   
    2793                                                      ; branch occurs ; |837| 
    2794 0008ce       $C$L64:    
    2795                      .dwpsn  file "../c5535_bsl_revc/ezdsp5535_v1/c55xx_csl/ccs_v4.0_examples/nand/CSL_NAND_IntrExample/cs
